
FunctionGeneratorCortexM4_SW_V1.elf:     file format elf32-littlearm

Sections:
Idx Name          Size      VMA       LMA       File off  Algn
  0 .isr_vector   000001d8  08000000  08000000  00010000  2**0
                  CONTENTS, ALLOC, LOAD, READONLY, DATA
  1 .text         000094bc  080001e0  080001e0  000101e0  2**4
                  CONTENTS, ALLOC, LOAD, READONLY, CODE
  2 .rodata       0000039c  0800969c  0800969c  0001969c  2**2
                  CONTENTS, ALLOC, LOAD, READONLY, DATA
  3 .ARM.extab    00000000  08009a38  08009a38  00021fb8  2**0
                  CONTENTS
  4 .ARM          00000000  08009a38  08009a38  00021fb8  2**0
                  CONTENTS
  5 .preinit_array 00000000  08009a38  08009a38  00021fb8  2**0
                  CONTENTS, ALLOC, LOAD, DATA
  6 .init_array   00000004  08009a38  08009a38  00019a38  2**2
                  CONTENTS, ALLOC, LOAD, DATA
  7 .fini_array   00000004  08009a3c  08009a3c  00019a3c  2**2
                  CONTENTS, ALLOC, LOAD, DATA
  8 .data         00001fb8  20000000  08009a40  00020000  2**2
                  CONTENTS, ALLOC, LOAD, DATA
  9 .bss          000004ac  20001fb8  0800b9f8  00021fb8  2**2
                  ALLOC
 10 ._user_heap_stack 00000604  20002464  0800b9f8  00022464  2**0
                  ALLOC
 11 .ARM.attributes 00000030  00000000  00000000  00021fb8  2**0
                  CONTENTS, READONLY
 12 .debug_info   00020cac  00000000  00000000  00021fe8  2**0
                  CONTENTS, READONLY, DEBUGGING
 13 .debug_abbrev 000043a9  00000000  00000000  00042c94  2**0
                  CONTENTS, READONLY, DEBUGGING
 14 .debug_aranges 00001ac8  00000000  00000000  00047040  2**3
                  CONTENTS, READONLY, DEBUGGING
 15 .debug_ranges 000018a0  00000000  00000000  00048b08  2**3
                  CONTENTS, READONLY, DEBUGGING
 16 .debug_macro  0002e1a3  00000000  00000000  0004a3a8  2**0
                  CONTENTS, READONLY, DEBUGGING
 17 .debug_line   000196ef  00000000  00000000  0007854b  2**0
                  CONTENTS, READONLY, DEBUGGING
 18 .debug_str    00122c2f  00000000  00000000  00091c3a  2**0
                  CONTENTS, READONLY, DEBUGGING
 19 .comment      0000007b  00000000  00000000  001b4869  2**0
                  CONTENTS, READONLY
 20 .debug_frame  000078a0  00000000  00000000  001b48e4  2**2
                  CONTENTS, READONLY, DEBUGGING

Disassembly of section .text:

080001e0 <__do_global_dtors_aux>:
 80001e0:	b510      	push	{r4, lr}
 80001e2:	4c05      	ldr	r4, [pc, #20]	; (80001f8 <__do_global_dtors_aux+0x18>)
 80001e4:	7823      	ldrb	r3, [r4, #0]
 80001e6:	b933      	cbnz	r3, 80001f6 <__do_global_dtors_aux+0x16>
 80001e8:	4b04      	ldr	r3, [pc, #16]	; (80001fc <__do_global_dtors_aux+0x1c>)
 80001ea:	b113      	cbz	r3, 80001f2 <__do_global_dtors_aux+0x12>
 80001ec:	4804      	ldr	r0, [pc, #16]	; (8000200 <__do_global_dtors_aux+0x20>)
 80001ee:	f3af 8000 	nop.w
 80001f2:	2301      	movs	r3, #1
 80001f4:	7023      	strb	r3, [r4, #0]
 80001f6:	bd10      	pop	{r4, pc}
 80001f8:	20001fb8 	.word	0x20001fb8
 80001fc:	00000000 	.word	0x00000000
 8000200:	08009684 	.word	0x08009684

08000204 <frame_dummy>:
 8000204:	b508      	push	{r3, lr}
 8000206:	4b03      	ldr	r3, [pc, #12]	; (8000214 <frame_dummy+0x10>)
 8000208:	b11b      	cbz	r3, 8000212 <frame_dummy+0xe>
 800020a:	4903      	ldr	r1, [pc, #12]	; (8000218 <frame_dummy+0x14>)
 800020c:	4803      	ldr	r0, [pc, #12]	; (800021c <frame_dummy+0x18>)
 800020e:	f3af 8000 	nop.w
 8000212:	bd08      	pop	{r3, pc}
 8000214:	00000000 	.word	0x00000000
 8000218:	20001fbc 	.word	0x20001fbc
 800021c:	08009684 	.word	0x08009684

08000220 <memchr>:
 8000220:	f001 01ff 	and.w	r1, r1, #255	; 0xff
 8000224:	2a10      	cmp	r2, #16
 8000226:	db2b      	blt.n	8000280 <memchr+0x60>
 8000228:	f010 0f07 	tst.w	r0, #7
 800022c:	d008      	beq.n	8000240 <memchr+0x20>
 800022e:	f810 3b01 	ldrb.w	r3, [r0], #1
 8000232:	3a01      	subs	r2, #1
 8000234:	428b      	cmp	r3, r1
 8000236:	d02d      	beq.n	8000294 <memchr+0x74>
 8000238:	f010 0f07 	tst.w	r0, #7
 800023c:	b342      	cbz	r2, 8000290 <memchr+0x70>
 800023e:	d1f6      	bne.n	800022e <memchr+0xe>
 8000240:	b4f0      	push	{r4, r5, r6, r7}
 8000242:	ea41 2101 	orr.w	r1, r1, r1, lsl #8
 8000246:	ea41 4101 	orr.w	r1, r1, r1, lsl #16
 800024a:	f022 0407 	bic.w	r4, r2, #7
 800024e:	f07f 0700 	mvns.w	r7, #0
 8000252:	2300      	movs	r3, #0
 8000254:	e8f0 5602 	ldrd	r5, r6, [r0], #8
 8000258:	3c08      	subs	r4, #8
 800025a:	ea85 0501 	eor.w	r5, r5, r1
 800025e:	ea86 0601 	eor.w	r6, r6, r1
 8000262:	fa85 f547 	uadd8	r5, r5, r7
 8000266:	faa3 f587 	sel	r5, r3, r7
 800026a:	fa86 f647 	uadd8	r6, r6, r7
 800026e:	faa5 f687 	sel	r6, r5, r7
 8000272:	b98e      	cbnz	r6, 8000298 <memchr+0x78>
 8000274:	d1ee      	bne.n	8000254 <memchr+0x34>
 8000276:	bcf0      	pop	{r4, r5, r6, r7}
 8000278:	f001 01ff 	and.w	r1, r1, #255	; 0xff
 800027c:	f002 0207 	and.w	r2, r2, #7
 8000280:	b132      	cbz	r2, 8000290 <memchr+0x70>
 8000282:	f810 3b01 	ldrb.w	r3, [r0], #1
 8000286:	3a01      	subs	r2, #1
 8000288:	ea83 0301 	eor.w	r3, r3, r1
 800028c:	b113      	cbz	r3, 8000294 <memchr+0x74>
 800028e:	d1f8      	bne.n	8000282 <memchr+0x62>
 8000290:	2000      	movs	r0, #0
 8000292:	4770      	bx	lr
 8000294:	3801      	subs	r0, #1
 8000296:	4770      	bx	lr
 8000298:	2d00      	cmp	r5, #0
 800029a:	bf06      	itte	eq
 800029c:	4635      	moveq	r5, r6
 800029e:	3803      	subeq	r0, #3
 80002a0:	3807      	subne	r0, #7
 80002a2:	f015 0f01 	tst.w	r5, #1
 80002a6:	d107      	bne.n	80002b8 <memchr+0x98>
 80002a8:	3001      	adds	r0, #1
 80002aa:	f415 7f80 	tst.w	r5, #256	; 0x100
 80002ae:	bf02      	ittt	eq
 80002b0:	3001      	addeq	r0, #1
 80002b2:	f415 3fc0 	tsteq.w	r5, #98304	; 0x18000
 80002b6:	3001      	addeq	r0, #1
 80002b8:	bcf0      	pop	{r4, r5, r6, r7}
 80002ba:	3801      	subs	r0, #1
 80002bc:	4770      	bx	lr
 80002be:	bf00      	nop

080002c0 <MX_ADC1_Init>:
ADC_HandleTypeDef hadc1;
DMA_HandleTypeDef hdma_adc1;

/* ADC1 init function */
void MX_ADC1_Init(void)
{
 80002c0:	b580      	push	{r7, lr}
 80002c2:	b08c      	sub	sp, #48	; 0x30
 80002c4:	af00      	add	r7, sp, #0
  ADC_MultiModeTypeDef multimode = {0};
 80002c6:	f107 0324 	add.w	r3, r7, #36	; 0x24
 80002ca:	2200      	movs	r2, #0
 80002cc:	601a      	str	r2, [r3, #0]
 80002ce:	605a      	str	r2, [r3, #4]
 80002d0:	609a      	str	r2, [r3, #8]
  ADC_ChannelConfTypeDef sConfig = {0};
 80002d2:	1d3b      	adds	r3, r7, #4
 80002d4:	2220      	movs	r2, #32
 80002d6:	2100      	movs	r1, #0
 80002d8:	4618      	mov	r0, r3
 80002da:	f008 f8ab 	bl	8008434 <memset>

  /** Common config 
  */
  hadc1.Instance = ADC1;
 80002de:	4b32      	ldr	r3, [pc, #200]	; (80003a8 <MX_ADC1_Init+0xe8>)
 80002e0:	f04f 42a0 	mov.w	r2, #1342177280	; 0x50000000
 80002e4:	601a      	str	r2, [r3, #0]
  hadc1.Init.ClockPrescaler = ADC_CLOCK_ASYNC_DIV1;
 80002e6:	4b30      	ldr	r3, [pc, #192]	; (80003a8 <MX_ADC1_Init+0xe8>)
 80002e8:	2200      	movs	r2, #0
 80002ea:	605a      	str	r2, [r3, #4]
  hadc1.Init.Resolution = ADC_RESOLUTION_12B;
 80002ec:	4b2e      	ldr	r3, [pc, #184]	; (80003a8 <MX_ADC1_Init+0xe8>)
 80002ee:	2200      	movs	r2, #0
 80002f0:	609a      	str	r2, [r3, #8]
  hadc1.Init.DataAlign = ADC_DATAALIGN_RIGHT;
 80002f2:	4b2d      	ldr	r3, [pc, #180]	; (80003a8 <MX_ADC1_Init+0xe8>)
 80002f4:	2200      	movs	r2, #0
 80002f6:	60da      	str	r2, [r3, #12]
  hadc1.Init.GainCompensation = 0;
 80002f8:	4b2b      	ldr	r3, [pc, #172]	; (80003a8 <MX_ADC1_Init+0xe8>)
 80002fa:	2200      	movs	r2, #0
 80002fc:	611a      	str	r2, [r3, #16]
  hadc1.Init.ScanConvMode = ADC_SCAN_DISABLE;
 80002fe:	4b2a      	ldr	r3, [pc, #168]	; (80003a8 <MX_ADC1_Init+0xe8>)
 8000300:	2200      	movs	r2, #0
 8000302:	615a      	str	r2, [r3, #20]
  hadc1.Init.EOCSelection = ADC_EOC_SINGLE_CONV;
 8000304:	4b28      	ldr	r3, [pc, #160]	; (80003a8 <MX_ADC1_Init+0xe8>)
 8000306:	2204      	movs	r2, #4
 8000308:	619a      	str	r2, [r3, #24]
  hadc1.Init.LowPowerAutoWait = DISABLE;
 800030a:	4b27      	ldr	r3, [pc, #156]	; (80003a8 <MX_ADC1_Init+0xe8>)
 800030c:	2200      	movs	r2, #0
 800030e:	771a      	strb	r2, [r3, #28]
  hadc1.Init.ContinuousConvMode = ENABLE;
 8000310:	4b25      	ldr	r3, [pc, #148]	; (80003a8 <MX_ADC1_Init+0xe8>)
 8000312:	2201      	movs	r2, #1
 8000314:	775a      	strb	r2, [r3, #29]
  hadc1.Init.NbrOfConversion = 1;
 8000316:	4b24      	ldr	r3, [pc, #144]	; (80003a8 <MX_ADC1_Init+0xe8>)
 8000318:	2201      	movs	r2, #1
 800031a:	621a      	str	r2, [r3, #32]
  hadc1.Init.DiscontinuousConvMode = DISABLE;
 800031c:	4b22      	ldr	r3, [pc, #136]	; (80003a8 <MX_ADC1_Init+0xe8>)
 800031e:	2200      	movs	r2, #0
 8000320:	f883 2024 	strb.w	r2, [r3, #36]	; 0x24
  hadc1.Init.ExternalTrigConv = ADC_SOFTWARE_START;
 8000324:	4b20      	ldr	r3, [pc, #128]	; (80003a8 <MX_ADC1_Init+0xe8>)
 8000326:	2200      	movs	r2, #0
 8000328:	62da      	str	r2, [r3, #44]	; 0x2c
  hadc1.Init.ExternalTrigConvEdge = ADC_EXTERNALTRIGCONVEDGE_NONE;
 800032a:	4b1f      	ldr	r3, [pc, #124]	; (80003a8 <MX_ADC1_Init+0xe8>)
 800032c:	2200      	movs	r2, #0
 800032e:	631a      	str	r2, [r3, #48]	; 0x30
  hadc1.Init.DMAContinuousRequests = ENABLE;
 8000330:	4b1d      	ldr	r3, [pc, #116]	; (80003a8 <MX_ADC1_Init+0xe8>)
 8000332:	2201      	movs	r2, #1
 8000334:	f883 2038 	strb.w	r2, [r3, #56]	; 0x38
  hadc1.Init.Overrun = ADC_OVR_DATA_OVERWRITTEN;
 8000338:	4b1b      	ldr	r3, [pc, #108]	; (80003a8 <MX_ADC1_Init+0xe8>)
 800033a:	f44f 5280 	mov.w	r2, #4096	; 0x1000
 800033e:	63da      	str	r2, [r3, #60]	; 0x3c
  hadc1.Init.OversamplingMode = DISABLE;
 8000340:	4b19      	ldr	r3, [pc, #100]	; (80003a8 <MX_ADC1_Init+0xe8>)
 8000342:	2200      	movs	r2, #0
 8000344:	f883 2040 	strb.w	r2, [r3, #64]	; 0x40
  if (HAL_ADC_Init(&hadc1) != HAL_OK)
 8000348:	4817      	ldr	r0, [pc, #92]	; (80003a8 <MX_ADC1_Init+0xe8>)
 800034a:	f002 f861 	bl	8002410 <HAL_ADC_Init>
 800034e:	4603      	mov	r3, r0
 8000350:	2b00      	cmp	r3, #0
 8000352:	d001      	beq.n	8000358 <MX_ADC1_Init+0x98>
  {
    Error_Handler();
 8000354:	f000 ff51 	bl	80011fa <Error_Handler>
  }
  /** Configure the ADC multi-mode 
  */
  multimode.Mode = ADC_MODE_INDEPENDENT;
 8000358:	2300      	movs	r3, #0
 800035a:	627b      	str	r3, [r7, #36]	; 0x24
  if (HAL_ADCEx_MultiModeConfigChannel(&hadc1, &multimode) != HAL_OK)
 800035c:	f107 0324 	add.w	r3, r7, #36	; 0x24
 8000360:	4619      	mov	r1, r3
 8000362:	4811      	ldr	r0, [pc, #68]	; (80003a8 <MX_ADC1_Init+0xe8>)
 8000364:	f002 fdea 	bl	8002f3c <HAL_ADCEx_MultiModeConfigChannel>
 8000368:	4603      	mov	r3, r0
 800036a:	2b00      	cmp	r3, #0
 800036c:	d001      	beq.n	8000372 <MX_ADC1_Init+0xb2>
  {
    Error_Handler();
 800036e:	f000 ff44 	bl	80011fa <Error_Handler>
  }
  /** Configure Regular Channel 
  */
  sConfig.Channel = ADC_CHANNEL_3;
 8000372:	4b0e      	ldr	r3, [pc, #56]	; (80003ac <MX_ADC1_Init+0xec>)
 8000374:	607b      	str	r3, [r7, #4]
  sConfig.Rank = ADC_REGULAR_RANK_1;
 8000376:	2306      	movs	r3, #6
 8000378:	60bb      	str	r3, [r7, #8]
  sConfig.SamplingTime = ADC_SAMPLETIME_2CYCLES_5;
 800037a:	2300      	movs	r3, #0
 800037c:	60fb      	str	r3, [r7, #12]
  sConfig.SingleDiff = ADC_SINGLE_ENDED;
 800037e:	237f      	movs	r3, #127	; 0x7f
 8000380:	613b      	str	r3, [r7, #16]
  sConfig.OffsetNumber = ADC_OFFSET_NONE;
 8000382:	2304      	movs	r3, #4
 8000384:	617b      	str	r3, [r7, #20]
  sConfig.Offset = 0;
 8000386:	2300      	movs	r3, #0
 8000388:	61bb      	str	r3, [r7, #24]
  if (HAL_ADC_ConfigChannel(&hadc1, &sConfig) != HAL_OK)
 800038a:	1d3b      	adds	r3, r7, #4
 800038c:	4619      	mov	r1, r3
 800038e:	4806      	ldr	r0, [pc, #24]	; (80003a8 <MX_ADC1_Init+0xe8>)
 8000390:	f002 f9fe 	bl	8002790 <HAL_ADC_ConfigChannel>
 8000394:	4603      	mov	r3, r0
 8000396:	2b00      	cmp	r3, #0
 8000398:	d001      	beq.n	800039e <MX_ADC1_Init+0xde>
  {
    Error_Handler();
 800039a:	f000 ff2e 	bl	80011fa <Error_Handler>
  }

}
 800039e:	bf00      	nop
 80003a0:	3730      	adds	r7, #48	; 0x30
 80003a2:	46bd      	mov	sp, r7
 80003a4:	bd80      	pop	{r7, pc}
 80003a6:	bf00      	nop
 80003a8:	20001ff8 	.word	0x20001ff8
 80003ac:	0c900008 	.word	0x0c900008

080003b0 <HAL_ADC_MspInit>:

void HAL_ADC_MspInit(ADC_HandleTypeDef* adcHandle)
{
 80003b0:	b580      	push	{r7, lr}
 80003b2:	b08a      	sub	sp, #40	; 0x28
 80003b4:	af00      	add	r7, sp, #0
 80003b6:	6078      	str	r0, [r7, #4]

  GPIO_InitTypeDef GPIO_InitStruct = {0};
 80003b8:	f107 0314 	add.w	r3, r7, #20
 80003bc:	2200      	movs	r2, #0
 80003be:	601a      	str	r2, [r3, #0]
 80003c0:	605a      	str	r2, [r3, #4]
 80003c2:	609a      	str	r2, [r3, #8]
 80003c4:	60da      	str	r2, [r3, #12]
 80003c6:	611a      	str	r2, [r3, #16]
  if(adcHandle->Instance==ADC1)
 80003c8:	687b      	ldr	r3, [r7, #4]
 80003ca:	681b      	ldr	r3, [r3, #0]
 80003cc:	f1b3 4fa0 	cmp.w	r3, #1342177280	; 0x50000000
 80003d0:	d14f      	bne.n	8000472 <HAL_ADC_MspInit+0xc2>
  {
  /* USER CODE BEGIN ADC1_MspInit 0 */

  /* USER CODE END ADC1_MspInit 0 */
    /* ADC1 clock enable */
    __HAL_RCC_ADC12_CLK_ENABLE();
 80003d2:	4b2a      	ldr	r3, [pc, #168]	; (800047c <HAL_ADC_MspInit+0xcc>)
 80003d4:	6cdb      	ldr	r3, [r3, #76]	; 0x4c
 80003d6:	4a29      	ldr	r2, [pc, #164]	; (800047c <HAL_ADC_MspInit+0xcc>)
 80003d8:	f443 5300 	orr.w	r3, r3, #8192	; 0x2000
 80003dc:	64d3      	str	r3, [r2, #76]	; 0x4c
 80003de:	4b27      	ldr	r3, [pc, #156]	; (800047c <HAL_ADC_MspInit+0xcc>)
 80003e0:	6cdb      	ldr	r3, [r3, #76]	; 0x4c
 80003e2:	f403 5300 	and.w	r3, r3, #8192	; 0x2000
 80003e6:	613b      	str	r3, [r7, #16]
 80003e8:	693b      	ldr	r3, [r7, #16]
  
    __HAL_RCC_GPIOA_CLK_ENABLE();
 80003ea:	4b24      	ldr	r3, [pc, #144]	; (800047c <HAL_ADC_MspInit+0xcc>)
 80003ec:	6cdb      	ldr	r3, [r3, #76]	; 0x4c
 80003ee:	4a23      	ldr	r2, [pc, #140]	; (800047c <HAL_ADC_MspInit+0xcc>)
 80003f0:	f043 0301 	orr.w	r3, r3, #1
 80003f4:	64d3      	str	r3, [r2, #76]	; 0x4c
 80003f6:	4b21      	ldr	r3, [pc, #132]	; (800047c <HAL_ADC_MspInit+0xcc>)
 80003f8:	6cdb      	ldr	r3, [r3, #76]	; 0x4c
 80003fa:	f003 0301 	and.w	r3, r3, #1
 80003fe:	60fb      	str	r3, [r7, #12]
 8000400:	68fb      	ldr	r3, [r7, #12]
    /**ADC1 GPIO Configuration    
    PA2     ------> ADC1_IN3 
    */
    GPIO_InitStruct.Pin = GPIO_PIN_2;
 8000402:	2304      	movs	r3, #4
 8000404:	617b      	str	r3, [r7, #20]
    GPIO_InitStruct.Mode = GPIO_MODE_ANALOG;
 8000406:	2303      	movs	r3, #3
 8000408:	61bb      	str	r3, [r7, #24]
    GPIO_InitStruct.Pull = GPIO_NOPULL;
 800040a:	2300      	movs	r3, #0
 800040c:	61fb      	str	r3, [r7, #28]
    HAL_GPIO_Init(GPIOA, &GPIO_InitStruct);
 800040e:	f107 0314 	add.w	r3, r7, #20
 8000412:	4619      	mov	r1, r3
 8000414:	f04f 4090 	mov.w	r0, #1207959552	; 0x48000000
 8000418:	f004 f8ac 	bl	8004574 <HAL_GPIO_Init>

    /* ADC1 DMA Init */
    /* ADC1 Init */
    hdma_adc1.Instance = DMA1_Channel1;
 800041c:	4b18      	ldr	r3, [pc, #96]	; (8000480 <HAL_ADC_MspInit+0xd0>)
 800041e:	4a19      	ldr	r2, [pc, #100]	; (8000484 <HAL_ADC_MspInit+0xd4>)
 8000420:	601a      	str	r2, [r3, #0]
    hdma_adc1.Init.Request = DMA_REQUEST_ADC1;
 8000422:	4b17      	ldr	r3, [pc, #92]	; (8000480 <HAL_ADC_MspInit+0xd0>)
 8000424:	2205      	movs	r2, #5
 8000426:	605a      	str	r2, [r3, #4]
    hdma_adc1.Init.Direction = DMA_PERIPH_TO_MEMORY;
 8000428:	4b15      	ldr	r3, [pc, #84]	; (8000480 <HAL_ADC_MspInit+0xd0>)
 800042a:	2200      	movs	r2, #0
 800042c:	609a      	str	r2, [r3, #8]
    hdma_adc1.Init.PeriphInc = DMA_PINC_DISABLE;
 800042e:	4b14      	ldr	r3, [pc, #80]	; (8000480 <HAL_ADC_MspInit+0xd0>)
 8000430:	2200      	movs	r2, #0
 8000432:	60da      	str	r2, [r3, #12]
    hdma_adc1.Init.MemInc = DMA_MINC_ENABLE;
 8000434:	4b12      	ldr	r3, [pc, #72]	; (8000480 <HAL_ADC_MspInit+0xd0>)
 8000436:	2280      	movs	r2, #128	; 0x80
 8000438:	611a      	str	r2, [r3, #16]
    hdma_adc1.Init.PeriphDataAlignment = DMA_PDATAALIGN_WORD;
 800043a:	4b11      	ldr	r3, [pc, #68]	; (8000480 <HAL_ADC_MspInit+0xd0>)
 800043c:	f44f 7200 	mov.w	r2, #512	; 0x200
 8000440:	615a      	str	r2, [r3, #20]
    hdma_adc1.Init.MemDataAlignment = DMA_MDATAALIGN_WORD;
 8000442:	4b0f      	ldr	r3, [pc, #60]	; (8000480 <HAL_ADC_MspInit+0xd0>)
 8000444:	f44f 6200 	mov.w	r2, #2048	; 0x800
 8000448:	619a      	str	r2, [r3, #24]
    hdma_adc1.Init.Mode = DMA_CIRCULAR;
 800044a:	4b0d      	ldr	r3, [pc, #52]	; (8000480 <HAL_ADC_MspInit+0xd0>)
 800044c:	2220      	movs	r2, #32
 800044e:	61da      	str	r2, [r3, #28]
    hdma_adc1.Init.Priority = DMA_PRIORITY_LOW;
 8000450:	4b0b      	ldr	r3, [pc, #44]	; (8000480 <HAL_ADC_MspInit+0xd0>)
 8000452:	2200      	movs	r2, #0
 8000454:	621a      	str	r2, [r3, #32]
    if (HAL_DMA_Init(&hdma_adc1) != HAL_OK)
 8000456:	480a      	ldr	r0, [pc, #40]	; (8000480 <HAL_ADC_MspInit+0xd0>)
 8000458:	f003 fe1a 	bl	8004090 <HAL_DMA_Init>
 800045c:	4603      	mov	r3, r0
 800045e:	2b00      	cmp	r3, #0
 8000460:	d001      	beq.n	8000466 <HAL_ADC_MspInit+0xb6>
    {
      Error_Handler();
 8000462:	f000 feca 	bl	80011fa <Error_Handler>
    }

    __HAL_LINKDMA(adcHandle,DMA_Handle,hdma_adc1);
 8000466:	687b      	ldr	r3, [r7, #4]
 8000468:	4a05      	ldr	r2, [pc, #20]	; (8000480 <HAL_ADC_MspInit+0xd0>)
 800046a:	655a      	str	r2, [r3, #84]	; 0x54
 800046c:	4a04      	ldr	r2, [pc, #16]	; (8000480 <HAL_ADC_MspInit+0xd0>)
 800046e:	687b      	ldr	r3, [r7, #4]
 8000470:	6293      	str	r3, [r2, #40]	; 0x28

  /* USER CODE BEGIN ADC1_MspInit 1 */

  /* USER CODE END ADC1_MspInit 1 */
  }
}
 8000472:	bf00      	nop
 8000474:	3728      	adds	r7, #40	; 0x28
 8000476:	46bd      	mov	sp, r7
 8000478:	bd80      	pop	{r7, pc}
 800047a:	bf00      	nop
 800047c:	40021000 	.word	0x40021000
 8000480:	20002064 	.word	0x20002064
 8000484:	40020008 	.word	0x40020008

08000488 <MX_COMP1_Init>:

COMP_HandleTypeDef hcomp1;

/* COMP1 init function */
void MX_COMP1_Init(void)
{
 8000488:	b580      	push	{r7, lr}
 800048a:	af00      	add	r7, sp, #0

  hcomp1.Instance = COMP1;
 800048c:	4b0f      	ldr	r3, [pc, #60]	; (80004cc <MX_COMP1_Init+0x44>)
 800048e:	4a10      	ldr	r2, [pc, #64]	; (80004d0 <MX_COMP1_Init+0x48>)
 8000490:	601a      	str	r2, [r3, #0]
  hcomp1.Init.InputPlus = COMP_INPUT_PLUS_IO1;
 8000492:	4b0e      	ldr	r3, [pc, #56]	; (80004cc <MX_COMP1_Init+0x44>)
 8000494:	2200      	movs	r2, #0
 8000496:	605a      	str	r2, [r3, #4]
  hcomp1.Init.InputMinus = COMP_INPUT_MINUS_VREFINT;
 8000498:	4b0c      	ldr	r3, [pc, #48]	; (80004cc <MX_COMP1_Init+0x44>)
 800049a:	4a0e      	ldr	r2, [pc, #56]	; (80004d4 <MX_COMP1_Init+0x4c>)
 800049c:	609a      	str	r2, [r3, #8]
  hcomp1.Init.OutputPol = COMP_OUTPUTPOL_NONINVERTED;
 800049e:	4b0b      	ldr	r3, [pc, #44]	; (80004cc <MX_COMP1_Init+0x44>)
 80004a0:	2200      	movs	r2, #0
 80004a2:	611a      	str	r2, [r3, #16]
  hcomp1.Init.Hysteresis = COMP_HYSTERESIS_NONE;
 80004a4:	4b09      	ldr	r3, [pc, #36]	; (80004cc <MX_COMP1_Init+0x44>)
 80004a6:	2200      	movs	r2, #0
 80004a8:	60da      	str	r2, [r3, #12]
  hcomp1.Init.BlankingSrce = COMP_BLANKINGSRC_NONE;
 80004aa:	4b08      	ldr	r3, [pc, #32]	; (80004cc <MX_COMP1_Init+0x44>)
 80004ac:	2200      	movs	r2, #0
 80004ae:	615a      	str	r2, [r3, #20]
  hcomp1.Init.TriggerMode = COMP_TRIGGERMODE_NONE;
 80004b0:	4b06      	ldr	r3, [pc, #24]	; (80004cc <MX_COMP1_Init+0x44>)
 80004b2:	2200      	movs	r2, #0
 80004b4:	619a      	str	r2, [r3, #24]
  if (HAL_COMP_Init(&hcomp1) != HAL_OK)
 80004b6:	4805      	ldr	r0, [pc, #20]	; (80004cc <MX_COMP1_Init+0x44>)
 80004b8:	f002 ff94 	bl	80033e4 <HAL_COMP_Init>
 80004bc:	4603      	mov	r3, r0
 80004be:	2b00      	cmp	r3, #0
 80004c0:	d001      	beq.n	80004c6 <MX_COMP1_Init+0x3e>
  {
    Error_Handler();
 80004c2:	f000 fe9a 	bl	80011fa <Error_Handler>
  }

}
 80004c6:	bf00      	nop
 80004c8:	bd80      	pop	{r7, pc}
 80004ca:	bf00      	nop
 80004cc:	200020c4 	.word	0x200020c4
 80004d0:	40010200 	.word	0x40010200
 80004d4:	00800030 	.word	0x00800030

080004d8 <HAL_COMP_MspInit>:

void HAL_COMP_MspInit(COMP_HandleTypeDef* compHandle)
{
 80004d8:	b580      	push	{r7, lr}
 80004da:	b088      	sub	sp, #32
 80004dc:	af00      	add	r7, sp, #0
 80004de:	6078      	str	r0, [r7, #4]

  GPIO_InitTypeDef GPIO_InitStruct = {0};
 80004e0:	f107 030c 	add.w	r3, r7, #12
 80004e4:	2200      	movs	r2, #0
 80004e6:	601a      	str	r2, [r3, #0]
 80004e8:	605a      	str	r2, [r3, #4]
 80004ea:	609a      	str	r2, [r3, #8]
 80004ec:	60da      	str	r2, [r3, #12]
 80004ee:	611a      	str	r2, [r3, #16]
  if(compHandle->Instance==COMP1)
 80004f0:	687b      	ldr	r3, [r7, #4]
 80004f2:	681b      	ldr	r3, [r3, #0]
 80004f4:	4a0f      	ldr	r2, [pc, #60]	; (8000534 <HAL_COMP_MspInit+0x5c>)
 80004f6:	4293      	cmp	r3, r2
 80004f8:	d118      	bne.n	800052c <HAL_COMP_MspInit+0x54>
  {
  /* USER CODE BEGIN COMP1_MspInit 0 */

  /* USER CODE END COMP1_MspInit 0 */
  
    __HAL_RCC_GPIOA_CLK_ENABLE();
 80004fa:	4b0f      	ldr	r3, [pc, #60]	; (8000538 <HAL_COMP_MspInit+0x60>)
 80004fc:	6cdb      	ldr	r3, [r3, #76]	; 0x4c
 80004fe:	4a0e      	ldr	r2, [pc, #56]	; (8000538 <HAL_COMP_MspInit+0x60>)
 8000500:	f043 0301 	orr.w	r3, r3, #1
 8000504:	64d3      	str	r3, [r2, #76]	; 0x4c
 8000506:	4b0c      	ldr	r3, [pc, #48]	; (8000538 <HAL_COMP_MspInit+0x60>)
 8000508:	6cdb      	ldr	r3, [r3, #76]	; 0x4c
 800050a:	f003 0301 	and.w	r3, r3, #1
 800050e:	60bb      	str	r3, [r7, #8]
 8000510:	68bb      	ldr	r3, [r7, #8]
    /**COMP1 GPIO Configuration    
    PA1     ------> COMP1_INP 
    */
    GPIO_InitStruct.Pin = GPIO_PIN_1;
 8000512:	2302      	movs	r3, #2
 8000514:	60fb      	str	r3, [r7, #12]
    GPIO_InitStruct.Mode = GPIO_MODE_ANALOG;
 8000516:	2303      	movs	r3, #3
 8000518:	613b      	str	r3, [r7, #16]
    GPIO_InitStruct.Pull = GPIO_NOPULL;
 800051a:	2300      	movs	r3, #0
 800051c:	617b      	str	r3, [r7, #20]
    HAL_GPIO_Init(GPIOA, &GPIO_InitStruct);
 800051e:	f107 030c 	add.w	r3, r7, #12
 8000522:	4619      	mov	r1, r3
 8000524:	f04f 4090 	mov.w	r0, #1207959552	; 0x48000000
 8000528:	f004 f824 	bl	8004574 <HAL_GPIO_Init>

  /* USER CODE BEGIN COMP1_MspInit 1 */

  /* USER CODE END COMP1_MspInit 1 */
  }
}
 800052c:	bf00      	nop
 800052e:	3720      	adds	r7, #32
 8000530:	46bd      	mov	sp, r7
 8000532:	bd80      	pop	{r7, pc}
 8000534:	40010200 	.word	0x40010200
 8000538:	40021000 	.word	0x40021000

0800053c <MX_DAC1_Init>:
DMA_HandleTypeDef hdma_dac1_ch1;
DMA_HandleTypeDef hdma_dac2_ch1;

/* DAC1 init function */
void MX_DAC1_Init(void)
{
 800053c:	b580      	push	{r7, lr}
 800053e:	b08c      	sub	sp, #48	; 0x30
 8000540:	af00      	add	r7, sp, #0
  DAC_ChannelConfTypeDef sConfig = {0};
 8000542:	463b      	mov	r3, r7
 8000544:	2230      	movs	r2, #48	; 0x30
 8000546:	2100      	movs	r1, #0
 8000548:	4618      	mov	r0, r3
 800054a:	f007 ff73 	bl	8008434 <memset>

  /** DAC Initialization 
  */
  hdac1.Instance = DAC1;
 800054e:	4b1d      	ldr	r3, [pc, #116]	; (80005c4 <MX_DAC1_Init+0x88>)
 8000550:	4a1d      	ldr	r2, [pc, #116]	; (80005c8 <MX_DAC1_Init+0x8c>)
 8000552:	601a      	str	r2, [r3, #0]
  if (HAL_DAC_Init(&hdac1) != HAL_OK)
 8000554:	481b      	ldr	r0, [pc, #108]	; (80005c4 <MX_DAC1_Init+0x88>)
 8000556:	f003 f9e8 	bl	800392a <HAL_DAC_Init>
 800055a:	4603      	mov	r3, r0
 800055c:	2b00      	cmp	r3, #0
 800055e:	d001      	beq.n	8000564 <MX_DAC1_Init+0x28>
  {
    Error_Handler();
 8000560:	f000 fe4b 	bl	80011fa <Error_Handler>
  }
  /** DAC channel OUT1 config 
  */
  sConfig.DAC_HighFrequency = DAC_HIGH_FREQUENCY_INTERFACE_MODE_AUTOMATIC;
 8000564:	2302      	movs	r3, #2
 8000566:	603b      	str	r3, [r7, #0]
  sConfig.DAC_DMADoubleDataMode = DISABLE;
 8000568:	2300      	movs	r3, #0
 800056a:	713b      	strb	r3, [r7, #4]
  sConfig.DAC_SignedFormat = DISABLE;
 800056c:	2300      	movs	r3, #0
 800056e:	717b      	strb	r3, [r7, #5]
  sConfig.DAC_SampleAndHold = DAC_SAMPLEANDHOLD_DISABLE;
 8000570:	2300      	movs	r3, #0
 8000572:	60bb      	str	r3, [r7, #8]
  sConfig.DAC_Trigger = DAC_TRIGGER_T8_TRGO;
 8000574:	2306      	movs	r3, #6
 8000576:	60fb      	str	r3, [r7, #12]
  sConfig.DAC_Trigger2 = DAC_TRIGGER_NONE;
 8000578:	2300      	movs	r3, #0
 800057a:	613b      	str	r3, [r7, #16]
  sConfig.DAC_OutputBuffer = DAC_OUTPUTBUFFER_ENABLE;
 800057c:	2300      	movs	r3, #0
 800057e:	617b      	str	r3, [r7, #20]
  sConfig.DAC_ConnectOnChipPeripheral = DAC_CHIPCONNECT_DISABLE;
 8000580:	2301      	movs	r3, #1
 8000582:	61bb      	str	r3, [r7, #24]
  sConfig.DAC_UserTrimming = DAC_TRIMMING_FACTORY;
 8000584:	2300      	movs	r3, #0
 8000586:	61fb      	str	r3, [r7, #28]
  if (HAL_DAC_ConfigChannel(&hdac1, &sConfig, DAC_CHANNEL_1) != HAL_OK)
 8000588:	463b      	mov	r3, r7
 800058a:	2200      	movs	r2, #0
 800058c:	4619      	mov	r1, r3
 800058e:	480d      	ldr	r0, [pc, #52]	; (80005c4 <MX_DAC1_Init+0x88>)
 8000590:	f003 fb48 	bl	8003c24 <HAL_DAC_ConfigChannel>
 8000594:	4603      	mov	r3, r0
 8000596:	2b00      	cmp	r3, #0
 8000598:	d001      	beq.n	800059e <MX_DAC1_Init+0x62>
  {
    Error_Handler();
 800059a:	f000 fe2e 	bl	80011fa <Error_Handler>
  }
  /** DAC channel OUT2 config 
  */
  sConfig.DAC_Trigger = DAC_TRIGGER_NONE;
 800059e:	2300      	movs	r3, #0
 80005a0:	60fb      	str	r3, [r7, #12]
  sConfig.DAC_ConnectOnChipPeripheral = DAC_CHIPCONNECT_DISABLE;
 80005a2:	2301      	movs	r3, #1
 80005a4:	61bb      	str	r3, [r7, #24]
  if (HAL_DAC_ConfigChannel(&hdac1, &sConfig, DAC_CHANNEL_2) != HAL_OK)
 80005a6:	463b      	mov	r3, r7
 80005a8:	2210      	movs	r2, #16
 80005aa:	4619      	mov	r1, r3
 80005ac:	4805      	ldr	r0, [pc, #20]	; (80005c4 <MX_DAC1_Init+0x88>)
 80005ae:	f003 fb39 	bl	8003c24 <HAL_DAC_ConfigChannel>
 80005b2:	4603      	mov	r3, r0
 80005b4:	2b00      	cmp	r3, #0
 80005b6:	d001      	beq.n	80005bc <MX_DAC1_Init+0x80>
  {
    Error_Handler();
 80005b8:	f000 fe1f 	bl	80011fa <Error_Handler>
  }

}
 80005bc:	bf00      	nop
 80005be:	3730      	adds	r7, #48	; 0x30
 80005c0:	46bd      	mov	sp, r7
 80005c2:	bd80      	pop	{r7, pc}
 80005c4:	200020fc 	.word	0x200020fc
 80005c8:	50000800 	.word	0x50000800

080005cc <MX_DAC2_Init>:
/* DAC2 init function */
void MX_DAC2_Init(void)
{
 80005cc:	b580      	push	{r7, lr}
 80005ce:	b08c      	sub	sp, #48	; 0x30
 80005d0:	af00      	add	r7, sp, #0
  DAC_ChannelConfTypeDef sConfig = {0};
 80005d2:	463b      	mov	r3, r7
 80005d4:	2230      	movs	r2, #48	; 0x30
 80005d6:	2100      	movs	r1, #0
 80005d8:	4618      	mov	r0, r3
 80005da:	f007 ff2b 	bl	8008434 <memset>

  /** DAC Initialization 
  */
  hdac2.Instance = DAC2;
 80005de:	4b16      	ldr	r3, [pc, #88]	; (8000638 <MX_DAC2_Init+0x6c>)
 80005e0:	4a16      	ldr	r2, [pc, #88]	; (800063c <MX_DAC2_Init+0x70>)
 80005e2:	601a      	str	r2, [r3, #0]
  if (HAL_DAC_Init(&hdac2) != HAL_OK)
 80005e4:	4814      	ldr	r0, [pc, #80]	; (8000638 <MX_DAC2_Init+0x6c>)
 80005e6:	f003 f9a0 	bl	800392a <HAL_DAC_Init>
 80005ea:	4603      	mov	r3, r0
 80005ec:	2b00      	cmp	r3, #0
 80005ee:	d001      	beq.n	80005f4 <MX_DAC2_Init+0x28>
  {
    Error_Handler();
 80005f0:	f000 fe03 	bl	80011fa <Error_Handler>
  }
  /** DAC channel OUT1 config 
  */
  sConfig.DAC_HighFrequency = DAC_HIGH_FREQUENCY_INTERFACE_MODE_AUTOMATIC;
 80005f4:	2302      	movs	r3, #2
 80005f6:	603b      	str	r3, [r7, #0]
  sConfig.DAC_DMADoubleDataMode = DISABLE;
 80005f8:	2300      	movs	r3, #0
 80005fa:	713b      	strb	r3, [r7, #4]
  sConfig.DAC_SignedFormat = DISABLE;
 80005fc:	2300      	movs	r3, #0
 80005fe:	717b      	strb	r3, [r7, #5]
  sConfig.DAC_SampleAndHold = DAC_SAMPLEANDHOLD_DISABLE;
 8000600:	2300      	movs	r3, #0
 8000602:	60bb      	str	r3, [r7, #8]
  sConfig.DAC_Trigger = DAC_TRIGGER_T8_TRGO;
 8000604:	2306      	movs	r3, #6
 8000606:	60fb      	str	r3, [r7, #12]
  sConfig.DAC_Trigger2 = DAC_TRIGGER_NONE;
 8000608:	2300      	movs	r3, #0
 800060a:	613b      	str	r3, [r7, #16]
  sConfig.DAC_OutputBuffer = DAC_OUTPUTBUFFER_ENABLE;
 800060c:	2300      	movs	r3, #0
 800060e:	617b      	str	r3, [r7, #20]
  sConfig.DAC_ConnectOnChipPeripheral = DAC_CHIPCONNECT_DISABLE;
 8000610:	2301      	movs	r3, #1
 8000612:	61bb      	str	r3, [r7, #24]
  sConfig.DAC_UserTrimming = DAC_TRIMMING_FACTORY;
 8000614:	2300      	movs	r3, #0
 8000616:	61fb      	str	r3, [r7, #28]
  if (HAL_DAC_ConfigChannel(&hdac2, &sConfig, DAC_CHANNEL_1) != HAL_OK)
 8000618:	463b      	mov	r3, r7
 800061a:	2200      	movs	r2, #0
 800061c:	4619      	mov	r1, r3
 800061e:	4806      	ldr	r0, [pc, #24]	; (8000638 <MX_DAC2_Init+0x6c>)
 8000620:	f003 fb00 	bl	8003c24 <HAL_DAC_ConfigChannel>
 8000624:	4603      	mov	r3, r0
 8000626:	2b00      	cmp	r3, #0
 8000628:	d001      	beq.n	800062e <MX_DAC2_Init+0x62>
  {
    Error_Handler();
 800062a:	f000 fde6 	bl	80011fa <Error_Handler>
  }

}
 800062e:	bf00      	nop
 8000630:	3730      	adds	r7, #48	; 0x30
 8000632:	46bd      	mov	sp, r7
 8000634:	bd80      	pop	{r7, pc}
 8000636:	bf00      	nop
 8000638:	200020e8 	.word	0x200020e8
 800063c:	50000c00 	.word	0x50000c00

08000640 <HAL_DAC_MspInit>:

void HAL_DAC_MspInit(DAC_HandleTypeDef* dacHandle)
{
 8000640:	b580      	push	{r7, lr}
 8000642:	b08c      	sub	sp, #48	; 0x30
 8000644:	af00      	add	r7, sp, #0
 8000646:	6078      	str	r0, [r7, #4]

  GPIO_InitTypeDef GPIO_InitStruct = {0};
 8000648:	f107 031c 	add.w	r3, r7, #28
 800064c:	2200      	movs	r2, #0
 800064e:	601a      	str	r2, [r3, #0]
 8000650:	605a      	str	r2, [r3, #4]
 8000652:	609a      	str	r2, [r3, #8]
 8000654:	60da      	str	r2, [r3, #12]
 8000656:	611a      	str	r2, [r3, #16]
  if(dacHandle->Instance==DAC1)
 8000658:	687b      	ldr	r3, [r7, #4]
 800065a:	681b      	ldr	r3, [r3, #0]
 800065c:	4a56      	ldr	r2, [pc, #344]	; (80007b8 <HAL_DAC_MspInit+0x178>)
 800065e:	4293      	cmp	r3, r2
 8000660:	d150      	bne.n	8000704 <HAL_DAC_MspInit+0xc4>
  {
  /* USER CODE BEGIN DAC1_MspInit 0 */

  /* USER CODE END DAC1_MspInit 0 */
    /* DAC1 clock enable */
    __HAL_RCC_DAC1_CLK_ENABLE();
 8000662:	4b56      	ldr	r3, [pc, #344]	; (80007bc <HAL_DAC_MspInit+0x17c>)
 8000664:	6cdb      	ldr	r3, [r3, #76]	; 0x4c
 8000666:	4a55      	ldr	r2, [pc, #340]	; (80007bc <HAL_DAC_MspInit+0x17c>)
 8000668:	f443 3380 	orr.w	r3, r3, #65536	; 0x10000
 800066c:	64d3      	str	r3, [r2, #76]	; 0x4c
 800066e:	4b53      	ldr	r3, [pc, #332]	; (80007bc <HAL_DAC_MspInit+0x17c>)
 8000670:	6cdb      	ldr	r3, [r3, #76]	; 0x4c
 8000672:	f403 3380 	and.w	r3, r3, #65536	; 0x10000
 8000676:	61bb      	str	r3, [r7, #24]
 8000678:	69bb      	ldr	r3, [r7, #24]
  
    __HAL_RCC_GPIOA_CLK_ENABLE();
 800067a:	4b50      	ldr	r3, [pc, #320]	; (80007bc <HAL_DAC_MspInit+0x17c>)
 800067c:	6cdb      	ldr	r3, [r3, #76]	; 0x4c
 800067e:	4a4f      	ldr	r2, [pc, #316]	; (80007bc <HAL_DAC_MspInit+0x17c>)
 8000680:	f043 0301 	orr.w	r3, r3, #1
 8000684:	64d3      	str	r3, [r2, #76]	; 0x4c
 8000686:	4b4d      	ldr	r3, [pc, #308]	; (80007bc <HAL_DAC_MspInit+0x17c>)
 8000688:	6cdb      	ldr	r3, [r3, #76]	; 0x4c
 800068a:	f003 0301 	and.w	r3, r3, #1
 800068e:	617b      	str	r3, [r7, #20]
 8000690:	697b      	ldr	r3, [r7, #20]
    /**DAC1 GPIO Configuration    
    PA4     ------> DAC1_OUT1
    PA5     ------> DAC1_OUT2 
    */
    GPIO_InitStruct.Pin = GPIO_PIN_4|GPIO_PIN_5;
 8000692:	2330      	movs	r3, #48	; 0x30
 8000694:	61fb      	str	r3, [r7, #28]
    GPIO_InitStruct.Mode = GPIO_MODE_ANALOG;
 8000696:	2303      	movs	r3, #3
 8000698:	623b      	str	r3, [r7, #32]
    GPIO_InitStruct.Pull = GPIO_NOPULL;
 800069a:	2300      	movs	r3, #0
 800069c:	627b      	str	r3, [r7, #36]	; 0x24
    HAL_GPIO_Init(GPIOA, &GPIO_InitStruct);
 800069e:	f107 031c 	add.w	r3, r7, #28
 80006a2:	4619      	mov	r1, r3
 80006a4:	f04f 4090 	mov.w	r0, #1207959552	; 0x48000000
 80006a8:	f003 ff64 	bl	8004574 <HAL_GPIO_Init>

    /* DAC1 DMA Init */
    /* DAC1_CH1 Init */
    hdma_dac1_ch1.Instance = DMA1_Channel2;
 80006ac:	4b44      	ldr	r3, [pc, #272]	; (80007c0 <HAL_DAC_MspInit+0x180>)
 80006ae:	4a45      	ldr	r2, [pc, #276]	; (80007c4 <HAL_DAC_MspInit+0x184>)
 80006b0:	601a      	str	r2, [r3, #0]
    hdma_dac1_ch1.Init.Request = DMA_REQUEST_DAC1_CHANNEL1;
 80006b2:	4b43      	ldr	r3, [pc, #268]	; (80007c0 <HAL_DAC_MspInit+0x180>)
 80006b4:	2206      	movs	r2, #6
 80006b6:	605a      	str	r2, [r3, #4]
    hdma_dac1_ch1.Init.Direction = DMA_MEMORY_TO_PERIPH;
 80006b8:	4b41      	ldr	r3, [pc, #260]	; (80007c0 <HAL_DAC_MspInit+0x180>)
 80006ba:	2210      	movs	r2, #16
 80006bc:	609a      	str	r2, [r3, #8]
    hdma_dac1_ch1.Init.PeriphInc = DMA_PINC_DISABLE;
 80006be:	4b40      	ldr	r3, [pc, #256]	; (80007c0 <HAL_DAC_MspInit+0x180>)
 80006c0:	2200      	movs	r2, #0
 80006c2:	60da      	str	r2, [r3, #12]
    hdma_dac1_ch1.Init.MemInc = DMA_MINC_ENABLE;
 80006c4:	4b3e      	ldr	r3, [pc, #248]	; (80007c0 <HAL_DAC_MspInit+0x180>)
 80006c6:	2280      	movs	r2, #128	; 0x80
 80006c8:	611a      	str	r2, [r3, #16]
    hdma_dac1_ch1.Init.PeriphDataAlignment = DMA_PDATAALIGN_WORD;
 80006ca:	4b3d      	ldr	r3, [pc, #244]	; (80007c0 <HAL_DAC_MspInit+0x180>)
 80006cc:	f44f 7200 	mov.w	r2, #512	; 0x200
 80006d0:	615a      	str	r2, [r3, #20]
    hdma_dac1_ch1.Init.MemDataAlignment = DMA_MDATAALIGN_WORD;
 80006d2:	4b3b      	ldr	r3, [pc, #236]	; (80007c0 <HAL_DAC_MspInit+0x180>)
 80006d4:	f44f 6200 	mov.w	r2, #2048	; 0x800
 80006d8:	619a      	str	r2, [r3, #24]
    hdma_dac1_ch1.Init.Mode = DMA_CIRCULAR;
 80006da:	4b39      	ldr	r3, [pc, #228]	; (80007c0 <HAL_DAC_MspInit+0x180>)
 80006dc:	2220      	movs	r2, #32
 80006de:	61da      	str	r2, [r3, #28]
    hdma_dac1_ch1.Init.Priority = DMA_PRIORITY_LOW;
 80006e0:	4b37      	ldr	r3, [pc, #220]	; (80007c0 <HAL_DAC_MspInit+0x180>)
 80006e2:	2200      	movs	r2, #0
 80006e4:	621a      	str	r2, [r3, #32]
    if (HAL_DMA_Init(&hdma_dac1_ch1) != HAL_OK)
 80006e6:	4836      	ldr	r0, [pc, #216]	; (80007c0 <HAL_DAC_MspInit+0x180>)
 80006e8:	f003 fcd2 	bl	8004090 <HAL_DMA_Init>
 80006ec:	4603      	mov	r3, r0
 80006ee:	2b00      	cmp	r3, #0
 80006f0:	d001      	beq.n	80006f6 <HAL_DAC_MspInit+0xb6>
    {
      Error_Handler();
 80006f2:	f000 fd82 	bl	80011fa <Error_Handler>
    }

    __HAL_LINKDMA(dacHandle,DMA_Handle1,hdma_dac1_ch1);
 80006f6:	687b      	ldr	r3, [r7, #4]
 80006f8:	4a31      	ldr	r2, [pc, #196]	; (80007c0 <HAL_DAC_MspInit+0x180>)
 80006fa:	609a      	str	r2, [r3, #8]
 80006fc:	4a30      	ldr	r2, [pc, #192]	; (80007c0 <HAL_DAC_MspInit+0x180>)
 80006fe:	687b      	ldr	r3, [r7, #4]
 8000700:	6293      	str	r3, [r2, #40]	; 0x28

  /* USER CODE BEGIN DAC2_MspInit 1 */

  /* USER CODE END DAC2_MspInit 1 */
  }
}
 8000702:	e054      	b.n	80007ae <HAL_DAC_MspInit+0x16e>
  else if(dacHandle->Instance==DAC2)
 8000704:	687b      	ldr	r3, [r7, #4]
 8000706:	681b      	ldr	r3, [r3, #0]
 8000708:	4a2f      	ldr	r2, [pc, #188]	; (80007c8 <HAL_DAC_MspInit+0x188>)
 800070a:	4293      	cmp	r3, r2
 800070c:	d14f      	bne.n	80007ae <HAL_DAC_MspInit+0x16e>
    __HAL_RCC_DAC2_CLK_ENABLE();
 800070e:	4b2b      	ldr	r3, [pc, #172]	; (80007bc <HAL_DAC_MspInit+0x17c>)
 8000710:	6cdb      	ldr	r3, [r3, #76]	; 0x4c
 8000712:	4a2a      	ldr	r2, [pc, #168]	; (80007bc <HAL_DAC_MspInit+0x17c>)
 8000714:	f443 3300 	orr.w	r3, r3, #131072	; 0x20000
 8000718:	64d3      	str	r3, [r2, #76]	; 0x4c
 800071a:	4b28      	ldr	r3, [pc, #160]	; (80007bc <HAL_DAC_MspInit+0x17c>)
 800071c:	6cdb      	ldr	r3, [r3, #76]	; 0x4c
 800071e:	f403 3300 	and.w	r3, r3, #131072	; 0x20000
 8000722:	613b      	str	r3, [r7, #16]
 8000724:	693b      	ldr	r3, [r7, #16]
    __HAL_RCC_GPIOA_CLK_ENABLE();
 8000726:	4b25      	ldr	r3, [pc, #148]	; (80007bc <HAL_DAC_MspInit+0x17c>)
 8000728:	6cdb      	ldr	r3, [r3, #76]	; 0x4c
 800072a:	4a24      	ldr	r2, [pc, #144]	; (80007bc <HAL_DAC_MspInit+0x17c>)
 800072c:	f043 0301 	orr.w	r3, r3, #1
 8000730:	64d3      	str	r3, [r2, #76]	; 0x4c
 8000732:	4b22      	ldr	r3, [pc, #136]	; (80007bc <HAL_DAC_MspInit+0x17c>)
 8000734:	6cdb      	ldr	r3, [r3, #76]	; 0x4c
 8000736:	f003 0301 	and.w	r3, r3, #1
 800073a:	60fb      	str	r3, [r7, #12]
 800073c:	68fb      	ldr	r3, [r7, #12]
    GPIO_InitStruct.Pin = GPIO_PIN_6;
 800073e:	2340      	movs	r3, #64	; 0x40
 8000740:	61fb      	str	r3, [r7, #28]
    GPIO_InitStruct.Mode = GPIO_MODE_ANALOG;
 8000742:	2303      	movs	r3, #3
 8000744:	623b      	str	r3, [r7, #32]
    GPIO_InitStruct.Pull = GPIO_NOPULL;
 8000746:	2300      	movs	r3, #0
 8000748:	627b      	str	r3, [r7, #36]	; 0x24
    HAL_GPIO_Init(GPIOA, &GPIO_InitStruct);
 800074a:	f107 031c 	add.w	r3, r7, #28
 800074e:	4619      	mov	r1, r3
 8000750:	f04f 4090 	mov.w	r0, #1207959552	; 0x48000000
 8000754:	f003 ff0e 	bl	8004574 <HAL_GPIO_Init>
    hdma_dac2_ch1.Instance = DMA1_Channel3;
 8000758:	4b1c      	ldr	r3, [pc, #112]	; (80007cc <HAL_DAC_MspInit+0x18c>)
 800075a:	4a1d      	ldr	r2, [pc, #116]	; (80007d0 <HAL_DAC_MspInit+0x190>)
 800075c:	601a      	str	r2, [r3, #0]
    hdma_dac2_ch1.Init.Request = DMA_REQUEST_DAC2_CHANNEL1;
 800075e:	4b1b      	ldr	r3, [pc, #108]	; (80007cc <HAL_DAC_MspInit+0x18c>)
 8000760:	2229      	movs	r2, #41	; 0x29
 8000762:	605a      	str	r2, [r3, #4]
    hdma_dac2_ch1.Init.Direction = DMA_MEMORY_TO_PERIPH;
 8000764:	4b19      	ldr	r3, [pc, #100]	; (80007cc <HAL_DAC_MspInit+0x18c>)
 8000766:	2210      	movs	r2, #16
 8000768:	609a      	str	r2, [r3, #8]
    hdma_dac2_ch1.Init.PeriphInc = DMA_PINC_DISABLE;
 800076a:	4b18      	ldr	r3, [pc, #96]	; (80007cc <HAL_DAC_MspInit+0x18c>)
 800076c:	2200      	movs	r2, #0
 800076e:	60da      	str	r2, [r3, #12]
    hdma_dac2_ch1.Init.MemInc = DMA_MINC_ENABLE;
 8000770:	4b16      	ldr	r3, [pc, #88]	; (80007cc <HAL_DAC_MspInit+0x18c>)
 8000772:	2280      	movs	r2, #128	; 0x80
 8000774:	611a      	str	r2, [r3, #16]
    hdma_dac2_ch1.Init.PeriphDataAlignment = DMA_PDATAALIGN_WORD;
 8000776:	4b15      	ldr	r3, [pc, #84]	; (80007cc <HAL_DAC_MspInit+0x18c>)
 8000778:	f44f 7200 	mov.w	r2, #512	; 0x200
 800077c:	615a      	str	r2, [r3, #20]
    hdma_dac2_ch1.Init.MemDataAlignment = DMA_MDATAALIGN_WORD;
 800077e:	4b13      	ldr	r3, [pc, #76]	; (80007cc <HAL_DAC_MspInit+0x18c>)
 8000780:	f44f 6200 	mov.w	r2, #2048	; 0x800
 8000784:	619a      	str	r2, [r3, #24]
    hdma_dac2_ch1.Init.Mode = DMA_CIRCULAR;
 8000786:	4b11      	ldr	r3, [pc, #68]	; (80007cc <HAL_DAC_MspInit+0x18c>)
 8000788:	2220      	movs	r2, #32
 800078a:	61da      	str	r2, [r3, #28]
    hdma_dac2_ch1.Init.Priority = DMA_PRIORITY_LOW;
 800078c:	4b0f      	ldr	r3, [pc, #60]	; (80007cc <HAL_DAC_MspInit+0x18c>)
 800078e:	2200      	movs	r2, #0
 8000790:	621a      	str	r2, [r3, #32]
    if (HAL_DMA_Init(&hdma_dac2_ch1) != HAL_OK)
 8000792:	480e      	ldr	r0, [pc, #56]	; (80007cc <HAL_DAC_MspInit+0x18c>)
 8000794:	f003 fc7c 	bl	8004090 <HAL_DMA_Init>
 8000798:	4603      	mov	r3, r0
 800079a:	2b00      	cmp	r3, #0
 800079c:	d001      	beq.n	80007a2 <HAL_DAC_MspInit+0x162>
      Error_Handler();
 800079e:	f000 fd2c 	bl	80011fa <Error_Handler>
    __HAL_LINKDMA(dacHandle,DMA_Handle1,hdma_dac2_ch1);
 80007a2:	687b      	ldr	r3, [r7, #4]
 80007a4:	4a09      	ldr	r2, [pc, #36]	; (80007cc <HAL_DAC_MspInit+0x18c>)
 80007a6:	609a      	str	r2, [r3, #8]
 80007a8:	4a08      	ldr	r2, [pc, #32]	; (80007cc <HAL_DAC_MspInit+0x18c>)
 80007aa:	687b      	ldr	r3, [r7, #4]
 80007ac:	6293      	str	r3, [r2, #40]	; 0x28
}
 80007ae:	bf00      	nop
 80007b0:	3730      	adds	r7, #48	; 0x30
 80007b2:	46bd      	mov	sp, r7
 80007b4:	bd80      	pop	{r7, pc}
 80007b6:	bf00      	nop
 80007b8:	50000800 	.word	0x50000800
 80007bc:	40021000 	.word	0x40021000
 80007c0:	20002110 	.word	0x20002110
 80007c4:	4002001c 	.word	0x4002001c
 80007c8:	50000c00 	.word	0x50000c00
 80007cc:	20002170 	.word	0x20002170
 80007d0:	40020030 	.word	0x40020030

080007d4 <MX_DMA_Init>:

/** 
  * Enable DMA controller clock
  */
void MX_DMA_Init(void) 
{
 80007d4:	b580      	push	{r7, lr}
 80007d6:	b082      	sub	sp, #8
 80007d8:	af00      	add	r7, sp, #0

  /* DMA controller clock enable */
  __HAL_RCC_DMAMUX1_CLK_ENABLE();
 80007da:	4b1e      	ldr	r3, [pc, #120]	; (8000854 <MX_DMA_Init+0x80>)
 80007dc:	6c9b      	ldr	r3, [r3, #72]	; 0x48
 80007de:	4a1d      	ldr	r2, [pc, #116]	; (8000854 <MX_DMA_Init+0x80>)
 80007e0:	f043 0304 	orr.w	r3, r3, #4
 80007e4:	6493      	str	r3, [r2, #72]	; 0x48
 80007e6:	4b1b      	ldr	r3, [pc, #108]	; (8000854 <MX_DMA_Init+0x80>)
 80007e8:	6c9b      	ldr	r3, [r3, #72]	; 0x48
 80007ea:	f003 0304 	and.w	r3, r3, #4
 80007ee:	607b      	str	r3, [r7, #4]
 80007f0:	687b      	ldr	r3, [r7, #4]
  __HAL_RCC_DMA1_CLK_ENABLE();
 80007f2:	4b18      	ldr	r3, [pc, #96]	; (8000854 <MX_DMA_Init+0x80>)
 80007f4:	6c9b      	ldr	r3, [r3, #72]	; 0x48
 80007f6:	4a17      	ldr	r2, [pc, #92]	; (8000854 <MX_DMA_Init+0x80>)
 80007f8:	f043 0301 	orr.w	r3, r3, #1
 80007fc:	6493      	str	r3, [r2, #72]	; 0x48
 80007fe:	4b15      	ldr	r3, [pc, #84]	; (8000854 <MX_DMA_Init+0x80>)
 8000800:	6c9b      	ldr	r3, [r3, #72]	; 0x48
 8000802:	f003 0301 	and.w	r3, r3, #1
 8000806:	603b      	str	r3, [r7, #0]
 8000808:	683b      	ldr	r3, [r7, #0]

  /* DMA interrupt init */
  /* DMA1_Channel1_IRQn interrupt configuration */
  HAL_NVIC_SetPriority(DMA1_Channel1_IRQn, 1, 0);
 800080a:	2200      	movs	r2, #0
 800080c:	2101      	movs	r1, #1
 800080e:	200b      	movs	r0, #11
 8000810:	f003 f857 	bl	80038c2 <HAL_NVIC_SetPriority>
  HAL_NVIC_EnableIRQ(DMA1_Channel1_IRQn);
 8000814:	200b      	movs	r0, #11
 8000816:	f003 f86e 	bl	80038f6 <HAL_NVIC_EnableIRQ>
  /* DMA1_Channel2_IRQn interrupt configuration */
  HAL_NVIC_SetPriority(DMA1_Channel2_IRQn, 0, 0);
 800081a:	2200      	movs	r2, #0
 800081c:	2100      	movs	r1, #0
 800081e:	200c      	movs	r0, #12
 8000820:	f003 f84f 	bl	80038c2 <HAL_NVIC_SetPriority>
  HAL_NVIC_EnableIRQ(DMA1_Channel2_IRQn);
 8000824:	200c      	movs	r0, #12
 8000826:	f003 f866 	bl	80038f6 <HAL_NVIC_EnableIRQ>
  /* DMA1_Channel3_IRQn interrupt configuration */
  HAL_NVIC_SetPriority(DMA1_Channel3_IRQn, 0, 0);
 800082a:	2200      	movs	r2, #0
 800082c:	2100      	movs	r1, #0
 800082e:	200d      	movs	r0, #13
 8000830:	f003 f847 	bl	80038c2 <HAL_NVIC_SetPriority>
  HAL_NVIC_EnableIRQ(DMA1_Channel3_IRQn);
 8000834:	200d      	movs	r0, #13
 8000836:	f003 f85e 	bl	80038f6 <HAL_NVIC_EnableIRQ>
  /* DMA1_Channel4_IRQn interrupt configuration */
  HAL_NVIC_SetPriority(DMA1_Channel4_IRQn, 0, 0);
 800083a:	2200      	movs	r2, #0
 800083c:	2100      	movs	r1, #0
 800083e:	200e      	movs	r0, #14
 8000840:	f003 f83f 	bl	80038c2 <HAL_NVIC_SetPriority>
  HAL_NVIC_EnableIRQ(DMA1_Channel4_IRQn);
 8000844:	200e      	movs	r0, #14
 8000846:	f003 f856 	bl	80038f6 <HAL_NVIC_EnableIRQ>

}
 800084a:	bf00      	nop
 800084c:	3708      	adds	r7, #8
 800084e:	46bd      	mov	sp, r7
 8000850:	bd80      	pop	{r7, pc}
 8000852:	bf00      	nop
 8000854:	40021000 	.word	0x40021000

08000858 <update_dc_bias_sweep>:
uint16_t dcbias = 0;
int dcbias_dir = 1;
int dcinverted = 0;

void update_dc_bias_sweep()
{
 8000858:	b580      	push	{r7, lr}
 800085a:	af00      	add	r7, sp, #0
	  // up=1, down=0
	  (dcbias_dir) ? (dcbias++) : (dcbias--);
 800085c:	4b20      	ldr	r3, [pc, #128]	; (80008e0 <update_dc_bias_sweep+0x88>)
 800085e:	681b      	ldr	r3, [r3, #0]
 8000860:	2b00      	cmp	r3, #0
 8000862:	d006      	beq.n	8000872 <update_dc_bias_sweep+0x1a>
 8000864:	4b1f      	ldr	r3, [pc, #124]	; (80008e4 <update_dc_bias_sweep+0x8c>)
 8000866:	881b      	ldrh	r3, [r3, #0]
 8000868:	3301      	adds	r3, #1
 800086a:	b29a      	uxth	r2, r3
 800086c:	4b1d      	ldr	r3, [pc, #116]	; (80008e4 <update_dc_bias_sweep+0x8c>)
 800086e:	801a      	strh	r2, [r3, #0]
 8000870:	e005      	b.n	800087e <update_dc_bias_sweep+0x26>
 8000872:	4b1c      	ldr	r3, [pc, #112]	; (80008e4 <update_dc_bias_sweep+0x8c>)
 8000874:	881b      	ldrh	r3, [r3, #0]
 8000876:	3b01      	subs	r3, #1
 8000878:	b29a      	uxth	r2, r3
 800087a:	4b1a      	ldr	r3, [pc, #104]	; (80008e4 <update_dc_bias_sweep+0x8c>)
 800087c:	801a      	strh	r2, [r3, #0]

	  // invert the bias signal at zero crossing
	  if(dcbias < 1) {
 800087e:	4b19      	ldr	r3, [pc, #100]	; (80008e4 <update_dc_bias_sweep+0x8c>)
 8000880:	881b      	ldrh	r3, [r3, #0]
 8000882:	2b00      	cmp	r3, #0
 8000884:	d10a      	bne.n	800089c <update_dc_bias_sweep+0x44>
		(dcinverted) ? (dcinverted=0) : (dcinverted=1);
 8000886:	4b18      	ldr	r3, [pc, #96]	; (80008e8 <update_dc_bias_sweep+0x90>)
 8000888:	681b      	ldr	r3, [r3, #0]
 800088a:	2b00      	cmp	r3, #0
 800088c:	d003      	beq.n	8000896 <update_dc_bias_sweep+0x3e>
 800088e:	4b16      	ldr	r3, [pc, #88]	; (80008e8 <update_dc_bias_sweep+0x90>)
 8000890:	2200      	movs	r2, #0
 8000892:	601a      	str	r2, [r3, #0]
 8000894:	e002      	b.n	800089c <update_dc_bias_sweep+0x44>
 8000896:	4b14      	ldr	r3, [pc, #80]	; (80008e8 <update_dc_bias_sweep+0x90>)
 8000898:	2201      	movs	r2, #1
 800089a:	601a      	str	r2, [r3, #0]
	  }

	  // change direction if dac limits are reached
	  if(dcbias < 1) 	{ dcbias_dir = 1; }
 800089c:	4b11      	ldr	r3, [pc, #68]	; (80008e4 <update_dc_bias_sweep+0x8c>)
 800089e:	881b      	ldrh	r3, [r3, #0]
 80008a0:	2b00      	cmp	r3, #0
 80008a2:	d102      	bne.n	80008aa <update_dc_bias_sweep+0x52>
 80008a4:	4b0e      	ldr	r3, [pc, #56]	; (80008e0 <update_dc_bias_sweep+0x88>)
 80008a6:	2201      	movs	r2, #1
 80008a8:	601a      	str	r2, [r3, #0]
	  if(dcbias > 4095) { dcbias_dir = 0; }
 80008aa:	4b0e      	ldr	r3, [pc, #56]	; (80008e4 <update_dc_bias_sweep+0x8c>)
 80008ac:	881b      	ldrh	r3, [r3, #0]
 80008ae:	f5b3 5f80 	cmp.w	r3, #4096	; 0x1000
 80008b2:	d302      	bcc.n	80008ba <update_dc_bias_sweep+0x62>
 80008b4:	4b0a      	ldr	r3, [pc, #40]	; (80008e0 <update_dc_bias_sweep+0x88>)
 80008b6:	2200      	movs	r2, #0
 80008b8:	601a      	str	r2, [r3, #0]


	  HAL_GPIO_WritePin(DCBIAS_INVERT_GPIO_Port, DCBIAS_INVERT_Pin, dcinverted);
 80008ba:	4b0b      	ldr	r3, [pc, #44]	; (80008e8 <update_dc_bias_sweep+0x90>)
 80008bc:	681b      	ldr	r3, [r3, #0]
 80008be:	b2db      	uxtb	r3, r3
 80008c0:	461a      	mov	r2, r3
 80008c2:	2108      	movs	r1, #8
 80008c4:	f04f 4090 	mov.w	r0, #1207959552	; 0x48000000
 80008c8:	f003 ffee 	bl	80048a8 <HAL_GPIO_WritePin>
	  HAL_DAC_SetValue(&hdac1, DAC1_CHANNEL_2, DAC_ALIGN_12B_R, dcbias);
 80008cc:	4b05      	ldr	r3, [pc, #20]	; (80008e4 <update_dc_bias_sweep+0x8c>)
 80008ce:	881b      	ldrh	r3, [r3, #0]
 80008d0:	2200      	movs	r2, #0
 80008d2:	2110      	movs	r1, #16
 80008d4:	4805      	ldr	r0, [pc, #20]	; (80008ec <update_dc_bias_sweep+0x94>)
 80008d6:	f003 f95f 	bl	8003b98 <HAL_DAC_SetValue>
}
 80008da:	bf00      	nop
 80008dc:	bd80      	pop	{r7, pc}
 80008de:	bf00      	nop
 80008e0:	20000000 	.word	0x20000000
 80008e4:	20001fd4 	.word	0x20001fd4
 80008e8:	20001fd8 	.word	0x20001fd8
 80008ec:	200020fc 	.word	0x200020fc

080008f0 <__NVIC_GetPriorityGrouping>:
  \brief   Get Priority Grouping
  \details Reads the priority grouping field from the NVIC Interrupt Controller.
  \return                Priority grouping field (SCB->AIRCR [10:8] PRIGROUP field).
 */
__STATIC_INLINE uint32_t __NVIC_GetPriorityGrouping(void)
{
 80008f0:	b480      	push	{r7}
 80008f2:	af00      	add	r7, sp, #0
  return ((uint32_t)((SCB->AIRCR & SCB_AIRCR_PRIGROUP_Msk) >> SCB_AIRCR_PRIGROUP_Pos));
 80008f4:	4b04      	ldr	r3, [pc, #16]	; (8000908 <__NVIC_GetPriorityGrouping+0x18>)
 80008f6:	68db      	ldr	r3, [r3, #12]
 80008f8:	0a1b      	lsrs	r3, r3, #8
 80008fa:	f003 0307 	and.w	r3, r3, #7
}
 80008fe:	4618      	mov	r0, r3
 8000900:	46bd      	mov	sp, r7
 8000902:	f85d 7b04 	ldr.w	r7, [sp], #4
 8000906:	4770      	bx	lr
 8000908:	e000ed00 	.word	0xe000ed00

0800090c <__NVIC_EnableIRQ>:
  \details Enables a device specific interrupt in the NVIC interrupt controller.
  \param [in]      IRQn  Device specific interrupt number.
  \note    IRQn must not be negative.
 */
__STATIC_INLINE void __NVIC_EnableIRQ(IRQn_Type IRQn)
{
 800090c:	b480      	push	{r7}
 800090e:	b083      	sub	sp, #12
 8000910:	af00      	add	r7, sp, #0
 8000912:	4603      	mov	r3, r0
 8000914:	71fb      	strb	r3, [r7, #7]
  if ((int32_t)(IRQn) >= 0)
 8000916:	f997 3007 	ldrsb.w	r3, [r7, #7]
 800091a:	2b00      	cmp	r3, #0
 800091c:	db0b      	blt.n	8000936 <__NVIC_EnableIRQ+0x2a>
  {
    NVIC->ISER[(((uint32_t)IRQn) >> 5UL)] = (uint32_t)(1UL << (((uint32_t)IRQn) & 0x1FUL));
 800091e:	79fb      	ldrb	r3, [r7, #7]
 8000920:	f003 021f 	and.w	r2, r3, #31
 8000924:	4907      	ldr	r1, [pc, #28]	; (8000944 <__NVIC_EnableIRQ+0x38>)
 8000926:	f997 3007 	ldrsb.w	r3, [r7, #7]
 800092a:	095b      	lsrs	r3, r3, #5
 800092c:	2001      	movs	r0, #1
 800092e:	fa00 f202 	lsl.w	r2, r0, r2
 8000932:	f841 2023 	str.w	r2, [r1, r3, lsl #2]
  }
}
 8000936:	bf00      	nop
 8000938:	370c      	adds	r7, #12
 800093a:	46bd      	mov	sp, r7
 800093c:	f85d 7b04 	ldr.w	r7, [sp], #4
 8000940:	4770      	bx	lr
 8000942:	bf00      	nop
 8000944:	e000e100 	.word	0xe000e100

08000948 <__NVIC_SetPriority>:
  \param [in]      IRQn  Interrupt number.
  \param [in]  priority  Priority to set.
  \note    The priority cannot be set for every processor exception.
 */
__STATIC_INLINE void __NVIC_SetPriority(IRQn_Type IRQn, uint32_t priority)
{
 8000948:	b480      	push	{r7}
 800094a:	b083      	sub	sp, #12
 800094c:	af00      	add	r7, sp, #0
 800094e:	4603      	mov	r3, r0
 8000950:	6039      	str	r1, [r7, #0]
 8000952:	71fb      	strb	r3, [r7, #7]
  if ((int32_t)(IRQn) >= 0)
 8000954:	f997 3007 	ldrsb.w	r3, [r7, #7]
 8000958:	2b00      	cmp	r3, #0
 800095a:	db0a      	blt.n	8000972 <__NVIC_SetPriority+0x2a>
  {
    NVIC->IP[((uint32_t)IRQn)]               = (uint8_t)((priority << (8U - __NVIC_PRIO_BITS)) & (uint32_t)0xFFUL);
 800095c:	683b      	ldr	r3, [r7, #0]
 800095e:	b2da      	uxtb	r2, r3
 8000960:	490c      	ldr	r1, [pc, #48]	; (8000994 <__NVIC_SetPriority+0x4c>)
 8000962:	f997 3007 	ldrsb.w	r3, [r7, #7]
 8000966:	0112      	lsls	r2, r2, #4
 8000968:	b2d2      	uxtb	r2, r2
 800096a:	440b      	add	r3, r1
 800096c:	f883 2300 	strb.w	r2, [r3, #768]	; 0x300
  }
  else
  {
    SCB->SHP[(((uint32_t)IRQn) & 0xFUL)-4UL] = (uint8_t)((priority << (8U - __NVIC_PRIO_BITS)) & (uint32_t)0xFFUL);
  }
}
 8000970:	e00a      	b.n	8000988 <__NVIC_SetPriority+0x40>
    SCB->SHP[(((uint32_t)IRQn) & 0xFUL)-4UL] = (uint8_t)((priority << (8U - __NVIC_PRIO_BITS)) & (uint32_t)0xFFUL);
 8000972:	683b      	ldr	r3, [r7, #0]
 8000974:	b2da      	uxtb	r2, r3
 8000976:	4908      	ldr	r1, [pc, #32]	; (8000998 <__NVIC_SetPriority+0x50>)
 8000978:	79fb      	ldrb	r3, [r7, #7]
 800097a:	f003 030f 	and.w	r3, r3, #15
 800097e:	3b04      	subs	r3, #4
 8000980:	0112      	lsls	r2, r2, #4
 8000982:	b2d2      	uxtb	r2, r2
 8000984:	440b      	add	r3, r1
 8000986:	761a      	strb	r2, [r3, #24]
}
 8000988:	bf00      	nop
 800098a:	370c      	adds	r7, #12
 800098c:	46bd      	mov	sp, r7
 800098e:	f85d 7b04 	ldr.w	r7, [sp], #4
 8000992:	4770      	bx	lr
 8000994:	e000e100 	.word	0xe000e100
 8000998:	e000ed00 	.word	0xe000ed00

0800099c <NVIC_EncodePriority>:
  \param [in]   PreemptPriority  Preemptive priority value (starting from 0).
  \param [in]       SubPriority  Subpriority value (starting from 0).
  \return                        Encoded priority. Value can be used in the function \ref NVIC_SetPriority().
 */
__STATIC_INLINE uint32_t NVIC_EncodePriority (uint32_t PriorityGroup, uint32_t PreemptPriority, uint32_t SubPriority)
{
 800099c:	b480      	push	{r7}
 800099e:	b089      	sub	sp, #36	; 0x24
 80009a0:	af00      	add	r7, sp, #0
 80009a2:	60f8      	str	r0, [r7, #12]
 80009a4:	60b9      	str	r1, [r7, #8]
 80009a6:	607a      	str	r2, [r7, #4]
  uint32_t PriorityGroupTmp = (PriorityGroup & (uint32_t)0x07UL);   /* only values 0..7 are used          */
 80009a8:	68fb      	ldr	r3, [r7, #12]
 80009aa:	f003 0307 	and.w	r3, r3, #7
 80009ae:	61fb      	str	r3, [r7, #28]
  uint32_t PreemptPriorityBits;
  uint32_t SubPriorityBits;

  PreemptPriorityBits = ((7UL - PriorityGroupTmp) > (uint32_t)(__NVIC_PRIO_BITS)) ? (uint32_t)(__NVIC_PRIO_BITS) : (uint32_t)(7UL - PriorityGroupTmp);
 80009b0:	69fb      	ldr	r3, [r7, #28]
 80009b2:	f1c3 0307 	rsb	r3, r3, #7
 80009b6:	2b04      	cmp	r3, #4
 80009b8:	bf28      	it	cs
 80009ba:	2304      	movcs	r3, #4
 80009bc:	61bb      	str	r3, [r7, #24]
  SubPriorityBits     = ((PriorityGroupTmp + (uint32_t)(__NVIC_PRIO_BITS)) < (uint32_t)7UL) ? (uint32_t)0UL : (uint32_t)((PriorityGroupTmp - 7UL) + (uint32_t)(__NVIC_PRIO_BITS));
 80009be:	69fb      	ldr	r3, [r7, #28]
 80009c0:	3304      	adds	r3, #4
 80009c2:	2b06      	cmp	r3, #6
 80009c4:	d902      	bls.n	80009cc <NVIC_EncodePriority+0x30>
 80009c6:	69fb      	ldr	r3, [r7, #28]
 80009c8:	3b03      	subs	r3, #3
 80009ca:	e000      	b.n	80009ce <NVIC_EncodePriority+0x32>
 80009cc:	2300      	movs	r3, #0
 80009ce:	617b      	str	r3, [r7, #20]

  return (
           ((PreemptPriority & (uint32_t)((1UL << (PreemptPriorityBits)) - 1UL)) << SubPriorityBits) |
 80009d0:	f04f 32ff 	mov.w	r2, #4294967295	; 0xffffffff
 80009d4:	69bb      	ldr	r3, [r7, #24]
 80009d6:	fa02 f303 	lsl.w	r3, r2, r3
 80009da:	43da      	mvns	r2, r3
 80009dc:	68bb      	ldr	r3, [r7, #8]
 80009de:	401a      	ands	r2, r3
 80009e0:	697b      	ldr	r3, [r7, #20]
 80009e2:	409a      	lsls	r2, r3
           ((SubPriority     & (uint32_t)((1UL << (SubPriorityBits    )) - 1UL)))
 80009e4:	f04f 31ff 	mov.w	r1, #4294967295	; 0xffffffff
 80009e8:	697b      	ldr	r3, [r7, #20]
 80009ea:	fa01 f303 	lsl.w	r3, r1, r3
 80009ee:	43d9      	mvns	r1, r3
 80009f0:	687b      	ldr	r3, [r7, #4]
 80009f2:	400b      	ands	r3, r1
           ((PreemptPriority & (uint32_t)((1UL << (PreemptPriorityBits)) - 1UL)) << SubPriorityBits) |
 80009f4:	4313      	orrs	r3, r2
         );
}
 80009f6:	4618      	mov	r0, r3
 80009f8:	3724      	adds	r7, #36	; 0x24
 80009fa:	46bd      	mov	sp, r7
 80009fc:	f85d 7b04 	ldr.w	r7, [sp], #4
 8000a00:	4770      	bx	lr
	...

08000a04 <LL_SYSCFG_SetEXTISource>:
  *         @arg @ref LL_SYSCFG_EXTI_LINE14
  *         @arg @ref LL_SYSCFG_EXTI_LINE15
  * @retval None
  */
__STATIC_INLINE void LL_SYSCFG_SetEXTISource(uint32_t Port, uint32_t Line)
{
 8000a04:	b480      	push	{r7}
 8000a06:	b085      	sub	sp, #20
 8000a08:	af00      	add	r7, sp, #0
 8000a0a:	6078      	str	r0, [r7, #4]
 8000a0c:	6039      	str	r1, [r7, #0]
  MODIFY_REG(SYSCFG->EXTICR[Line & 0x3U], (Line >> 16U), Port << (POSITION_VAL((Line >> 16U)) & 0x1FU) );
 8000a0e:	4a14      	ldr	r2, [pc, #80]	; (8000a60 <LL_SYSCFG_SetEXTISource+0x5c>)
 8000a10:	683b      	ldr	r3, [r7, #0]
 8000a12:	f003 0303 	and.w	r3, r3, #3
 8000a16:	3302      	adds	r3, #2
 8000a18:	f852 2023 	ldr.w	r2, [r2, r3, lsl #2]
 8000a1c:	683b      	ldr	r3, [r7, #0]
 8000a1e:	0c1b      	lsrs	r3, r3, #16
 8000a20:	43db      	mvns	r3, r3
 8000a22:	ea02 0103 	and.w	r1, r2, r3
 8000a26:	683b      	ldr	r3, [r7, #0]
 8000a28:	0c1b      	lsrs	r3, r3, #16
 8000a2a:	60fb      	str	r3, [r7, #12]
  uint32_t result;

#if ((defined (__ARM_ARCH_7M__      ) && (__ARM_ARCH_7M__      == 1)) || \
     (defined (__ARM_ARCH_7EM__     ) && (__ARM_ARCH_7EM__     == 1)) || \
     (defined (__ARM_ARCH_8M_MAIN__ ) && (__ARM_ARCH_8M_MAIN__ == 1))    )
   __ASM volatile ("rbit %0, %1" : "=r" (result) : "r" (value) );
 8000a2c:	68fb      	ldr	r3, [r7, #12]
 8000a2e:	fa93 f3a3 	rbit	r3, r3
 8000a32:	60bb      	str	r3, [r7, #8]
    result |= value & 1U;
    s--;
  }
  result <<= s;                        /* shift when v's highest bits are zero */
#endif
  return result;
 8000a34:	68bb      	ldr	r3, [r7, #8]
 8000a36:	fab3 f383 	clz	r3, r3
 8000a3a:	b2db      	uxtb	r3, r3
 8000a3c:	f003 031f 	and.w	r3, r3, #31
 8000a40:	687a      	ldr	r2, [r7, #4]
 8000a42:	409a      	lsls	r2, r3
 8000a44:	4806      	ldr	r0, [pc, #24]	; (8000a60 <LL_SYSCFG_SetEXTISource+0x5c>)
 8000a46:	683b      	ldr	r3, [r7, #0]
 8000a48:	f003 0303 	and.w	r3, r3, #3
 8000a4c:	430a      	orrs	r2, r1
 8000a4e:	3302      	adds	r3, #2
 8000a50:	f840 2023 	str.w	r2, [r0, r3, lsl #2]
}
 8000a54:	bf00      	nop
 8000a56:	3714      	adds	r7, #20
 8000a58:	46bd      	mov	sp, r7
 8000a5a:	f85d 7b04 	ldr.w	r7, [sp], #4
 8000a5e:	4770      	bx	lr
 8000a60:	40010000 	.word	0x40010000

08000a64 <LL_GPIO_SetPinMode>:
  *         @arg @ref LL_GPIO_MODE_ALTERNATE
  *         @arg @ref LL_GPIO_MODE_ANALOG
  * @retval None
  */
__STATIC_INLINE void LL_GPIO_SetPinMode(GPIO_TypeDef *GPIOx, uint32_t Pin, uint32_t Mode)
{
 8000a64:	b480      	push	{r7}
 8000a66:	b089      	sub	sp, #36	; 0x24
 8000a68:	af00      	add	r7, sp, #0
 8000a6a:	60f8      	str	r0, [r7, #12]
 8000a6c:	60b9      	str	r1, [r7, #8]
 8000a6e:	607a      	str	r2, [r7, #4]
  MODIFY_REG(GPIOx->MODER, (GPIO_MODER_MODE0 << (POSITION_VAL(Pin) * 2U)), (Mode << (POSITION_VAL(Pin) * 2U)));
 8000a70:	68fb      	ldr	r3, [r7, #12]
 8000a72:	681a      	ldr	r2, [r3, #0]
 8000a74:	68bb      	ldr	r3, [r7, #8]
 8000a76:	617b      	str	r3, [r7, #20]
   __ASM volatile ("rbit %0, %1" : "=r" (result) : "r" (value) );
 8000a78:	697b      	ldr	r3, [r7, #20]
 8000a7a:	fa93 f3a3 	rbit	r3, r3
 8000a7e:	613b      	str	r3, [r7, #16]
  return result;
 8000a80:	693b      	ldr	r3, [r7, #16]
 8000a82:	fab3 f383 	clz	r3, r3
 8000a86:	b2db      	uxtb	r3, r3
 8000a88:	005b      	lsls	r3, r3, #1
 8000a8a:	2103      	movs	r1, #3
 8000a8c:	fa01 f303 	lsl.w	r3, r1, r3
 8000a90:	43db      	mvns	r3, r3
 8000a92:	401a      	ands	r2, r3
 8000a94:	68bb      	ldr	r3, [r7, #8]
 8000a96:	61fb      	str	r3, [r7, #28]
   __ASM volatile ("rbit %0, %1" : "=r" (result) : "r" (value) );
 8000a98:	69fb      	ldr	r3, [r7, #28]
 8000a9a:	fa93 f3a3 	rbit	r3, r3
 8000a9e:	61bb      	str	r3, [r7, #24]
  return result;
 8000aa0:	69bb      	ldr	r3, [r7, #24]
 8000aa2:	fab3 f383 	clz	r3, r3
 8000aa6:	b2db      	uxtb	r3, r3
 8000aa8:	005b      	lsls	r3, r3, #1
 8000aaa:	6879      	ldr	r1, [r7, #4]
 8000aac:	fa01 f303 	lsl.w	r3, r1, r3
 8000ab0:	431a      	orrs	r2, r3
 8000ab2:	68fb      	ldr	r3, [r7, #12]
 8000ab4:	601a      	str	r2, [r3, #0]
}
 8000ab6:	bf00      	nop
 8000ab8:	3724      	adds	r7, #36	; 0x24
 8000aba:	46bd      	mov	sp, r7
 8000abc:	f85d 7b04 	ldr.w	r7, [sp], #4
 8000ac0:	4770      	bx	lr

08000ac2 <LL_GPIO_SetPinPull>:
  *         @arg @ref LL_GPIO_PULL_UP
  *         @arg @ref LL_GPIO_PULL_DOWN
  * @retval None
  */
__STATIC_INLINE void LL_GPIO_SetPinPull(GPIO_TypeDef *GPIOx, uint32_t Pin, uint32_t Pull)
{
 8000ac2:	b480      	push	{r7}
 8000ac4:	b089      	sub	sp, #36	; 0x24
 8000ac6:	af00      	add	r7, sp, #0
 8000ac8:	60f8      	str	r0, [r7, #12]
 8000aca:	60b9      	str	r1, [r7, #8]
 8000acc:	607a      	str	r2, [r7, #4]
  MODIFY_REG(GPIOx->PUPDR, (GPIO_PUPDR_PUPD0 << (POSITION_VAL(Pin) * 2U)), (Pull << (POSITION_VAL(Pin) * 2U)));
 8000ace:	68fb      	ldr	r3, [r7, #12]
 8000ad0:	68da      	ldr	r2, [r3, #12]
 8000ad2:	68bb      	ldr	r3, [r7, #8]
 8000ad4:	617b      	str	r3, [r7, #20]
   __ASM volatile ("rbit %0, %1" : "=r" (result) : "r" (value) );
 8000ad6:	697b      	ldr	r3, [r7, #20]
 8000ad8:	fa93 f3a3 	rbit	r3, r3
 8000adc:	613b      	str	r3, [r7, #16]
  return result;
 8000ade:	693b      	ldr	r3, [r7, #16]
 8000ae0:	fab3 f383 	clz	r3, r3
 8000ae4:	b2db      	uxtb	r3, r3
 8000ae6:	005b      	lsls	r3, r3, #1
 8000ae8:	2103      	movs	r1, #3
 8000aea:	fa01 f303 	lsl.w	r3, r1, r3
 8000aee:	43db      	mvns	r3, r3
 8000af0:	401a      	ands	r2, r3
 8000af2:	68bb      	ldr	r3, [r7, #8]
 8000af4:	61fb      	str	r3, [r7, #28]
   __ASM volatile ("rbit %0, %1" : "=r" (result) : "r" (value) );
 8000af6:	69fb      	ldr	r3, [r7, #28]
 8000af8:	fa93 f3a3 	rbit	r3, r3
 8000afc:	61bb      	str	r3, [r7, #24]
  return result;
 8000afe:	69bb      	ldr	r3, [r7, #24]
 8000b00:	fab3 f383 	clz	r3, r3
 8000b04:	b2db      	uxtb	r3, r3
 8000b06:	005b      	lsls	r3, r3, #1
 8000b08:	6879      	ldr	r1, [r7, #4]
 8000b0a:	fa01 f303 	lsl.w	r3, r1, r3
 8000b0e:	431a      	orrs	r2, r3
 8000b10:	68fb      	ldr	r3, [r7, #12]
 8000b12:	60da      	str	r2, [r3, #12]
}
 8000b14:	bf00      	nop
 8000b16:	3724      	adds	r7, #36	; 0x24
 8000b18:	46bd      	mov	sp, r7
 8000b1a:	f85d 7b04 	ldr.w	r7, [sp], #4
 8000b1e:	4770      	bx	lr

08000b20 <LL_GPIO_ResetOutputPin>:
  *         @arg @ref LL_GPIO_PIN_15
  *         @arg @ref LL_GPIO_PIN_ALL
  * @retval None
  */
__STATIC_INLINE void LL_GPIO_ResetOutputPin(GPIO_TypeDef *GPIOx, uint32_t PinMask)
{
 8000b20:	b480      	push	{r7}
 8000b22:	b083      	sub	sp, #12
 8000b24:	af00      	add	r7, sp, #0
 8000b26:	6078      	str	r0, [r7, #4]
 8000b28:	6039      	str	r1, [r7, #0]
  WRITE_REG(GPIOx->BRR, PinMask);
 8000b2a:	687b      	ldr	r3, [r7, #4]
 8000b2c:	683a      	ldr	r2, [r7, #0]
 8000b2e:	629a      	str	r2, [r3, #40]	; 0x28
}
 8000b30:	bf00      	nop
 8000b32:	370c      	adds	r7, #12
 8000b34:	46bd      	mov	sp, r7
 8000b36:	f85d 7b04 	ldr.w	r7, [sp], #4
 8000b3a:	4770      	bx	lr

08000b3c <LL_AHB2_GRP1_EnableClock>:
  *
  *         (*) value not defined in all devices.
  * @retval None
  */
__STATIC_INLINE void LL_AHB2_GRP1_EnableClock(uint32_t Periphs)
{
 8000b3c:	b480      	push	{r7}
 8000b3e:	b085      	sub	sp, #20
 8000b40:	af00      	add	r7, sp, #0
 8000b42:	6078      	str	r0, [r7, #4]
  __IO uint32_t tmpreg;
  SET_BIT(RCC->AHB2ENR, Periphs);
 8000b44:	4b08      	ldr	r3, [pc, #32]	; (8000b68 <LL_AHB2_GRP1_EnableClock+0x2c>)
 8000b46:	6cda      	ldr	r2, [r3, #76]	; 0x4c
 8000b48:	4907      	ldr	r1, [pc, #28]	; (8000b68 <LL_AHB2_GRP1_EnableClock+0x2c>)
 8000b4a:	687b      	ldr	r3, [r7, #4]
 8000b4c:	4313      	orrs	r3, r2
 8000b4e:	64cb      	str	r3, [r1, #76]	; 0x4c
  /* Delay after an RCC peripheral clock enabling */
  tmpreg = READ_BIT(RCC->AHB2ENR, Periphs);
 8000b50:	4b05      	ldr	r3, [pc, #20]	; (8000b68 <LL_AHB2_GRP1_EnableClock+0x2c>)
 8000b52:	6cda      	ldr	r2, [r3, #76]	; 0x4c
 8000b54:	687b      	ldr	r3, [r7, #4]
 8000b56:	4013      	ands	r3, r2
 8000b58:	60fb      	str	r3, [r7, #12]
  (void)tmpreg;
 8000b5a:	68fb      	ldr	r3, [r7, #12]
}
 8000b5c:	bf00      	nop
 8000b5e:	3714      	adds	r7, #20
 8000b60:	46bd      	mov	sp, r7
 8000b62:	f85d 7b04 	ldr.w	r7, [sp], #4
 8000b66:	4770      	bx	lr
 8000b68:	40021000 	.word	0x40021000

08000b6c <MX_GPIO_Init>:
        * Output
        * EVENT_OUT
        * EXTI
*/
void MX_GPIO_Init(void)
{
 8000b6c:	b580      	push	{r7, lr}
 8000b6e:	b08a      	sub	sp, #40	; 0x28
 8000b70:	af00      	add	r7, sp, #0

  LL_EXTI_InitTypeDef EXTI_InitStruct = {0};
 8000b72:	f107 031c 	add.w	r3, r7, #28
 8000b76:	2200      	movs	r2, #0
 8000b78:	601a      	str	r2, [r3, #0]
 8000b7a:	605a      	str	r2, [r3, #4]
 8000b7c:	609a      	str	r2, [r3, #8]
  LL_GPIO_InitTypeDef GPIO_InitStruct = {0};
 8000b7e:	1d3b      	adds	r3, r7, #4
 8000b80:	2200      	movs	r2, #0
 8000b82:	601a      	str	r2, [r3, #0]
 8000b84:	605a      	str	r2, [r3, #4]
 8000b86:	609a      	str	r2, [r3, #8]
 8000b88:	60da      	str	r2, [r3, #12]
 8000b8a:	611a      	str	r2, [r3, #16]
 8000b8c:	615a      	str	r2, [r3, #20]

  /* GPIO Ports Clock Enable */
  LL_AHB2_GRP1_EnableClock(LL_AHB2_GRP1_PERIPH_GPIOC);
 8000b8e:	2004      	movs	r0, #4
 8000b90:	f7ff ffd4 	bl	8000b3c <LL_AHB2_GRP1_EnableClock>
  LL_AHB2_GRP1_EnableClock(LL_AHB2_GRP1_PERIPH_GPIOF);
 8000b94:	2020      	movs	r0, #32
 8000b96:	f7ff ffd1 	bl	8000b3c <LL_AHB2_GRP1_EnableClock>
  LL_AHB2_GRP1_EnableClock(LL_AHB2_GRP1_PERIPH_GPIOA);
 8000b9a:	2001      	movs	r0, #1
 8000b9c:	f7ff ffce 	bl	8000b3c <LL_AHB2_GRP1_EnableClock>
  LL_AHB2_GRP1_EnableClock(LL_AHB2_GRP1_PERIPH_GPIOB);
 8000ba0:	2002      	movs	r0, #2
 8000ba2:	f7ff ffcb 	bl	8000b3c <LL_AHB2_GRP1_EnableClock>

  /**/
  LL_GPIO_ResetOutputPin(TRIGMODE_GPIO_Port, TRIGMODE_Pin);
 8000ba6:	2108      	movs	r1, #8
 8000ba8:	48d3      	ldr	r0, [pc, #844]	; (8000ef8 <MX_GPIO_Init+0x38c>)
 8000baa:	f7ff ffb9 	bl	8000b20 <LL_GPIO_ResetOutputPin>

  /**/
  LL_GPIO_ResetOutputPin(DCBIAS_INVERT_GPIO_Port, DCBIAS_INVERT_Pin);
 8000bae:	2108      	movs	r1, #8
 8000bb0:	f04f 4090 	mov.w	r0, #1207959552	; 0x48000000
 8000bb4:	f7ff ffb4 	bl	8000b20 <LL_GPIO_ResetOutputPin>

  /**/
  LL_GPIO_ResetOutputPin(SG2_GPIO_Port, SG2_Pin);
 8000bb8:	2110      	movs	r1, #16
 8000bba:	48cf      	ldr	r0, [pc, #828]	; (8000ef8 <MX_GPIO_Init+0x38c>)
 8000bbc:	f7ff ffb0 	bl	8000b20 <LL_GPIO_ResetOutputPin>

  /**/
  LL_GPIO_ResetOutputPin(SG1_GPIO_Port, SG1_Pin);
 8000bc0:	2120      	movs	r1, #32
 8000bc2:	48cd      	ldr	r0, [pc, #820]	; (8000ef8 <MX_GPIO_Init+0x38c>)
 8000bc4:	f7ff ffac 	bl	8000b20 <LL_GPIO_ResetOutputPin>

  /**/
  LL_GPIO_ResetOutputPin(SG0_GPIO_Port, SG0_Pin);
 8000bc8:	2101      	movs	r1, #1
 8000bca:	48cc      	ldr	r0, [pc, #816]	; (8000efc <MX_GPIO_Init+0x390>)
 8000bcc:	f7ff ffa8 	bl	8000b20 <LL_GPIO_ResetOutputPin>

  /**/
  LL_GPIO_ResetOutputPin(TRIGMUX1_GPIO_Port, TRIGMUX1_Pin);
 8000bd0:	f44f 7180 	mov.w	r1, #256	; 0x100
 8000bd4:	48c8      	ldr	r0, [pc, #800]	; (8000ef8 <MX_GPIO_Init+0x38c>)
 8000bd6:	f7ff ffa3 	bl	8000b20 <LL_GPIO_ResetOutputPin>

  /**/
  LL_GPIO_ResetOutputPin(TRIGMUX2_GPIO_Port, TRIGMUX2_Pin);
 8000bda:	f44f 7100 	mov.w	r1, #512	; 0x200
 8000bde:	48c6      	ldr	r0, [pc, #792]	; (8000ef8 <MX_GPIO_Init+0x38c>)
 8000be0:	f7ff ff9e 	bl	8000b20 <LL_GPIO_ResetOutputPin>

  /**/
  LL_GPIO_ResetOutputPin(DC_GPIO_Port, DC_Pin);
 8000be4:	2140      	movs	r1, #64	; 0x40
 8000be6:	48c5      	ldr	r0, [pc, #788]	; (8000efc <MX_GPIO_Init+0x390>)
 8000be8:	f7ff ff9a 	bl	8000b20 <LL_GPIO_ResetOutputPin>

  /**/
  LL_GPIO_ResetOutputPin(CS_GPIO_Port, CS_Pin);
 8000bec:	2180      	movs	r1, #128	; 0x80
 8000bee:	48c3      	ldr	r0, [pc, #780]	; (8000efc <MX_GPIO_Init+0x390>)
 8000bf0:	f7ff ff96 	bl	8000b20 <LL_GPIO_ResetOutputPin>

  /**/
  LL_GPIO_ResetOutputPin(RST_GPIO_Port, RST_Pin);
 8000bf4:	f44f 7100 	mov.w	r1, #512	; 0x200
 8000bf8:	48c0      	ldr	r0, [pc, #768]	; (8000efc <MX_GPIO_Init+0x390>)
 8000bfa:	f7ff ff91 	bl	8000b20 <LL_GPIO_ResetOutputPin>

  /**/
  LL_SYSCFG_SetEXTISource(LL_SYSCFG_EXTI_PORTC, LL_SYSCFG_EXTI_LINE14);
 8000bfe:	49c0      	ldr	r1, [pc, #768]	; (8000f00 <MX_GPIO_Init+0x394>)
 8000c00:	2002      	movs	r0, #2
 8000c02:	f7ff feff 	bl	8000a04 <LL_SYSCFG_SetEXTISource>

  /**/
  LL_SYSCFG_SetEXTISource(LL_SYSCFG_EXTI_PORTC, LL_SYSCFG_EXTI_LINE15);
 8000c06:	49bf      	ldr	r1, [pc, #764]	; (8000f04 <MX_GPIO_Init+0x398>)
 8000c08:	2002      	movs	r0, #2
 8000c0a:	f7ff fefb 	bl	8000a04 <LL_SYSCFG_SetEXTISource>

  /**/
  LL_SYSCFG_SetEXTISource(LL_SYSCFG_EXTI_PORTF, LL_SYSCFG_EXTI_LINE0);
 8000c0e:	f44f 2170 	mov.w	r1, #983040	; 0xf0000
 8000c12:	2005      	movs	r0, #5
 8000c14:	f7ff fef6 	bl	8000a04 <LL_SYSCFG_SetEXTISource>

  /**/
  LL_SYSCFG_SetEXTISource(LL_SYSCFG_EXTI_PORTF, LL_SYSCFG_EXTI_LINE1);
 8000c18:	f44f 0170 	mov.w	r1, #15728640	; 0xf00000
 8000c1c:	2005      	movs	r0, #5
 8000c1e:	f7ff fef1 	bl	8000a04 <LL_SYSCFG_SetEXTISource>

  /**/
  LL_SYSCFG_SetEXTISource(LL_SYSCFG_EXTI_PORTC, LL_SYSCFG_EXTI_LINE2);
 8000c22:	f04f 6170 	mov.w	r1, #251658240	; 0xf000000
 8000c26:	2002      	movs	r0, #2
 8000c28:	f7ff feec 	bl	8000a04 <LL_SYSCFG_SetEXTISource>

  /**/
  EXTI_InitStruct.Line_0_31 = LL_EXTI_LINE_14;
 8000c2c:	f44f 4380 	mov.w	r3, #16384	; 0x4000
 8000c30:	61fb      	str	r3, [r7, #28]
  EXTI_InitStruct.LineCommand = ENABLE;
 8000c32:	2301      	movs	r3, #1
 8000c34:	f887 3024 	strb.w	r3, [r7, #36]	; 0x24
  EXTI_InitStruct.Mode = LL_EXTI_MODE_IT;
 8000c38:	2300      	movs	r3, #0
 8000c3a:	f887 3025 	strb.w	r3, [r7, #37]	; 0x25
  EXTI_InitStruct.Trigger = LL_EXTI_TRIGGER_FALLING;
 8000c3e:	2302      	movs	r3, #2
 8000c40:	f887 3026 	strb.w	r3, [r7, #38]	; 0x26
  LL_EXTI_Init(&EXTI_InitStruct);
 8000c44:	f107 031c 	add.w	r3, r7, #28
 8000c48:	4618      	mov	r0, r3
 8000c4a:	f006 fbe1 	bl	8007410 <LL_EXTI_Init>

  /**/
  EXTI_InitStruct.Line_0_31 = LL_EXTI_LINE_15;
 8000c4e:	f44f 4300 	mov.w	r3, #32768	; 0x8000
 8000c52:	61fb      	str	r3, [r7, #28]
  EXTI_InitStruct.LineCommand = ENABLE;
 8000c54:	2301      	movs	r3, #1
 8000c56:	f887 3024 	strb.w	r3, [r7, #36]	; 0x24
  EXTI_InitStruct.Mode = LL_EXTI_MODE_IT;
 8000c5a:	2300      	movs	r3, #0
 8000c5c:	f887 3025 	strb.w	r3, [r7, #37]	; 0x25
  EXTI_InitStruct.Trigger = LL_EXTI_TRIGGER_FALLING;
 8000c60:	2302      	movs	r3, #2
 8000c62:	f887 3026 	strb.w	r3, [r7, #38]	; 0x26
  LL_EXTI_Init(&EXTI_InitStruct);
 8000c66:	f107 031c 	add.w	r3, r7, #28
 8000c6a:	4618      	mov	r0, r3
 8000c6c:	f006 fbd0 	bl	8007410 <LL_EXTI_Init>

  /**/
  EXTI_InitStruct.Line_0_31 = LL_EXTI_LINE_0;
 8000c70:	2301      	movs	r3, #1
 8000c72:	61fb      	str	r3, [r7, #28]
  EXTI_InitStruct.LineCommand = ENABLE;
 8000c74:	2301      	movs	r3, #1
 8000c76:	f887 3024 	strb.w	r3, [r7, #36]	; 0x24
  EXTI_InitStruct.Mode = LL_EXTI_MODE_IT;
 8000c7a:	2300      	movs	r3, #0
 8000c7c:	f887 3025 	strb.w	r3, [r7, #37]	; 0x25
  EXTI_InitStruct.Trigger = LL_EXTI_TRIGGER_FALLING;
 8000c80:	2302      	movs	r3, #2
 8000c82:	f887 3026 	strb.w	r3, [r7, #38]	; 0x26
  LL_EXTI_Init(&EXTI_InitStruct);
 8000c86:	f107 031c 	add.w	r3, r7, #28
 8000c8a:	4618      	mov	r0, r3
 8000c8c:	f006 fbc0 	bl	8007410 <LL_EXTI_Init>

  /**/
  EXTI_InitStruct.Line_0_31 = LL_EXTI_LINE_1;
 8000c90:	2302      	movs	r3, #2
 8000c92:	61fb      	str	r3, [r7, #28]
  EXTI_InitStruct.LineCommand = ENABLE;
 8000c94:	2301      	movs	r3, #1
 8000c96:	f887 3024 	strb.w	r3, [r7, #36]	; 0x24
  EXTI_InitStruct.Mode = LL_EXTI_MODE_IT;
 8000c9a:	2300      	movs	r3, #0
 8000c9c:	f887 3025 	strb.w	r3, [r7, #37]	; 0x25
  EXTI_InitStruct.Trigger = LL_EXTI_TRIGGER_FALLING;
 8000ca0:	2302      	movs	r3, #2
 8000ca2:	f887 3026 	strb.w	r3, [r7, #38]	; 0x26
  LL_EXTI_Init(&EXTI_InitStruct);
 8000ca6:	f107 031c 	add.w	r3, r7, #28
 8000caa:	4618      	mov	r0, r3
 8000cac:	f006 fbb0 	bl	8007410 <LL_EXTI_Init>

  /**/
  EXTI_InitStruct.Line_0_31 = LL_EXTI_LINE_2;
 8000cb0:	2304      	movs	r3, #4
 8000cb2:	61fb      	str	r3, [r7, #28]
  EXTI_InitStruct.LineCommand = ENABLE;
 8000cb4:	2301      	movs	r3, #1
 8000cb6:	f887 3024 	strb.w	r3, [r7, #36]	; 0x24
  EXTI_InitStruct.Mode = LL_EXTI_MODE_IT;
 8000cba:	2300      	movs	r3, #0
 8000cbc:	f887 3025 	strb.w	r3, [r7, #37]	; 0x25
  EXTI_InitStruct.Trigger = LL_EXTI_TRIGGER_FALLING;
 8000cc0:	2302      	movs	r3, #2
 8000cc2:	f887 3026 	strb.w	r3, [r7, #38]	; 0x26
  LL_EXTI_Init(&EXTI_InitStruct);
 8000cc6:	f107 031c 	add.w	r3, r7, #28
 8000cca:	4618      	mov	r0, r3
 8000ccc:	f006 fba0 	bl	8007410 <LL_EXTI_Init>

  /**/
  LL_GPIO_SetPinPull(BTN1_EXTI14_GPIO_Port, BTN1_EXTI14_Pin, LL_GPIO_PULL_UP);
 8000cd0:	2201      	movs	r2, #1
 8000cd2:	f44f 4180 	mov.w	r1, #16384	; 0x4000
 8000cd6:	4888      	ldr	r0, [pc, #544]	; (8000ef8 <MX_GPIO_Init+0x38c>)
 8000cd8:	f7ff fef3 	bl	8000ac2 <LL_GPIO_SetPinPull>

  /**/
  LL_GPIO_SetPinPull(BTN2_EXTI15_GPIO_Port, BTN2_EXTI15_Pin, LL_GPIO_PULL_UP);
 8000cdc:	2201      	movs	r2, #1
 8000cde:	f44f 4100 	mov.w	r1, #32768	; 0x8000
 8000ce2:	4885      	ldr	r0, [pc, #532]	; (8000ef8 <MX_GPIO_Init+0x38c>)
 8000ce4:	f7ff feed 	bl	8000ac2 <LL_GPIO_SetPinPull>

  /**/
  LL_GPIO_SetPinPull(BTN3_EXTI0_GPIO_Port, BTN3_EXTI0_Pin, LL_GPIO_PULL_UP);
 8000ce8:	2201      	movs	r2, #1
 8000cea:	2101      	movs	r1, #1
 8000cec:	4886      	ldr	r0, [pc, #536]	; (8000f08 <MX_GPIO_Init+0x39c>)
 8000cee:	f7ff fee8 	bl	8000ac2 <LL_GPIO_SetPinPull>

  /**/
  LL_GPIO_SetPinPull(BTN4_EXTI1_GPIO_Port, BTN4_EXTI1_Pin, LL_GPIO_PULL_UP);
 8000cf2:	2201      	movs	r2, #1
 8000cf4:	2102      	movs	r1, #2
 8000cf6:	4884      	ldr	r0, [pc, #528]	; (8000f08 <MX_GPIO_Init+0x39c>)
 8000cf8:	f7ff fee3 	bl	8000ac2 <LL_GPIO_SetPinPull>

  /**/
  LL_GPIO_SetPinPull(ENC_EXTI2_GPIO_Port, ENC_EXTI2_Pin, LL_GPIO_PULL_UP);
 8000cfc:	2201      	movs	r2, #1
 8000cfe:	2104      	movs	r1, #4
 8000d00:	487d      	ldr	r0, [pc, #500]	; (8000ef8 <MX_GPIO_Init+0x38c>)
 8000d02:	f7ff fede 	bl	8000ac2 <LL_GPIO_SetPinPull>

  /**/
  LL_GPIO_SetPinMode(BTN1_EXTI14_GPIO_Port, BTN1_EXTI14_Pin, LL_GPIO_MODE_INPUT);
 8000d06:	2200      	movs	r2, #0
 8000d08:	f44f 4180 	mov.w	r1, #16384	; 0x4000
 8000d0c:	487a      	ldr	r0, [pc, #488]	; (8000ef8 <MX_GPIO_Init+0x38c>)
 8000d0e:	f7ff fea9 	bl	8000a64 <LL_GPIO_SetPinMode>

  /**/
  LL_GPIO_SetPinMode(BTN2_EXTI15_GPIO_Port, BTN2_EXTI15_Pin, LL_GPIO_MODE_INPUT);
 8000d12:	2200      	movs	r2, #0
 8000d14:	f44f 4100 	mov.w	r1, #32768	; 0x8000
 8000d18:	4877      	ldr	r0, [pc, #476]	; (8000ef8 <MX_GPIO_Init+0x38c>)
 8000d1a:	f7ff fea3 	bl	8000a64 <LL_GPIO_SetPinMode>

  /**/
  LL_GPIO_SetPinMode(BTN3_EXTI0_GPIO_Port, BTN3_EXTI0_Pin, LL_GPIO_MODE_INPUT);
 8000d1e:	2200      	movs	r2, #0
 8000d20:	2101      	movs	r1, #1
 8000d22:	4879      	ldr	r0, [pc, #484]	; (8000f08 <MX_GPIO_Init+0x39c>)
 8000d24:	f7ff fe9e 	bl	8000a64 <LL_GPIO_SetPinMode>

  /**/
  LL_GPIO_SetPinMode(BTN4_EXTI1_GPIO_Port, BTN4_EXTI1_Pin, LL_GPIO_MODE_INPUT);
 8000d28:	2200      	movs	r2, #0
 8000d2a:	2102      	movs	r1, #2
 8000d2c:	4876      	ldr	r0, [pc, #472]	; (8000f08 <MX_GPIO_Init+0x39c>)
 8000d2e:	f7ff fe99 	bl	8000a64 <LL_GPIO_SetPinMode>

  /**/
  LL_GPIO_SetPinMode(ENC_EXTI2_GPIO_Port, ENC_EXTI2_Pin, LL_GPIO_MODE_INPUT);
 8000d32:	2200      	movs	r2, #0
 8000d34:	2104      	movs	r1, #4
 8000d36:	4870      	ldr	r0, [pc, #448]	; (8000ef8 <MX_GPIO_Init+0x38c>)
 8000d38:	f7ff fe94 	bl	8000a64 <LL_GPIO_SetPinMode>

  /**/
  GPIO_InitStruct.Pin = TRIGMODE_Pin;
 8000d3c:	2308      	movs	r3, #8
 8000d3e:	607b      	str	r3, [r7, #4]
  GPIO_InitStruct.Mode = LL_GPIO_MODE_OUTPUT;
 8000d40:	2301      	movs	r3, #1
 8000d42:	60bb      	str	r3, [r7, #8]
  GPIO_InitStruct.Speed = LL_GPIO_SPEED_FREQ_LOW;
 8000d44:	2300      	movs	r3, #0
 8000d46:	60fb      	str	r3, [r7, #12]
  GPIO_InitStruct.OutputType = LL_GPIO_OUTPUT_PUSHPULL;
 8000d48:	2300      	movs	r3, #0
 8000d4a:	613b      	str	r3, [r7, #16]
  GPIO_InitStruct.Pull = LL_GPIO_PULL_DOWN;
 8000d4c:	2302      	movs	r3, #2
 8000d4e:	617b      	str	r3, [r7, #20]
  LL_GPIO_Init(TRIGMODE_GPIO_Port, &GPIO_InitStruct);
 8000d50:	1d3b      	adds	r3, r7, #4
 8000d52:	4619      	mov	r1, r3
 8000d54:	4868      	ldr	r0, [pc, #416]	; (8000ef8 <MX_GPIO_Init+0x38c>)
 8000d56:	f006 fd4e 	bl	80077f6 <LL_GPIO_Init>

  /**/
  GPIO_InitStruct.Pin = DCBIAS_INVERT_Pin;
 8000d5a:	2308      	movs	r3, #8
 8000d5c:	607b      	str	r3, [r7, #4]
  GPIO_InitStruct.Mode = LL_GPIO_MODE_OUTPUT;
 8000d5e:	2301      	movs	r3, #1
 8000d60:	60bb      	str	r3, [r7, #8]
  GPIO_InitStruct.Speed = LL_GPIO_SPEED_FREQ_LOW;
 8000d62:	2300      	movs	r3, #0
 8000d64:	60fb      	str	r3, [r7, #12]
  GPIO_InitStruct.OutputType = LL_GPIO_OUTPUT_PUSHPULL;
 8000d66:	2300      	movs	r3, #0
 8000d68:	613b      	str	r3, [r7, #16]
  GPIO_InitStruct.Pull = LL_GPIO_PULL_NO;
 8000d6a:	2300      	movs	r3, #0
 8000d6c:	617b      	str	r3, [r7, #20]
  LL_GPIO_Init(DCBIAS_INVERT_GPIO_Port, &GPIO_InitStruct);
 8000d6e:	1d3b      	adds	r3, r7, #4
 8000d70:	4619      	mov	r1, r3
 8000d72:	f04f 4090 	mov.w	r0, #1207959552	; 0x48000000
 8000d76:	f006 fd3e 	bl	80077f6 <LL_GPIO_Init>

  /**/
  GPIO_InitStruct.Pin = SG2_Pin;
 8000d7a:	2310      	movs	r3, #16
 8000d7c:	607b      	str	r3, [r7, #4]
  GPIO_InitStruct.Mode = LL_GPIO_MODE_OUTPUT;
 8000d7e:	2301      	movs	r3, #1
 8000d80:	60bb      	str	r3, [r7, #8]
  GPIO_InitStruct.Speed = LL_GPIO_SPEED_FREQ_LOW;
 8000d82:	2300      	movs	r3, #0
 8000d84:	60fb      	str	r3, [r7, #12]
  GPIO_InitStruct.OutputType = LL_GPIO_OUTPUT_PUSHPULL;
 8000d86:	2300      	movs	r3, #0
 8000d88:	613b      	str	r3, [r7, #16]
  GPIO_InitStruct.Pull = LL_GPIO_PULL_NO;
 8000d8a:	2300      	movs	r3, #0
 8000d8c:	617b      	str	r3, [r7, #20]
  LL_GPIO_Init(SG2_GPIO_Port, &GPIO_InitStruct);
 8000d8e:	1d3b      	adds	r3, r7, #4
 8000d90:	4619      	mov	r1, r3
 8000d92:	4859      	ldr	r0, [pc, #356]	; (8000ef8 <MX_GPIO_Init+0x38c>)
 8000d94:	f006 fd2f 	bl	80077f6 <LL_GPIO_Init>

  /**/
  GPIO_InitStruct.Pin = SG1_Pin;
 8000d98:	2320      	movs	r3, #32
 8000d9a:	607b      	str	r3, [r7, #4]
  GPIO_InitStruct.Mode = LL_GPIO_MODE_OUTPUT;
 8000d9c:	2301      	movs	r3, #1
 8000d9e:	60bb      	str	r3, [r7, #8]
  GPIO_InitStruct.Speed = LL_GPIO_SPEED_FREQ_LOW;
 8000da0:	2300      	movs	r3, #0
 8000da2:	60fb      	str	r3, [r7, #12]
  GPIO_InitStruct.OutputType = LL_GPIO_OUTPUT_PUSHPULL;
 8000da4:	2300      	movs	r3, #0
 8000da6:	613b      	str	r3, [r7, #16]
  GPIO_InitStruct.Pull = LL_GPIO_PULL_NO;
 8000da8:	2300      	movs	r3, #0
 8000daa:	617b      	str	r3, [r7, #20]
  LL_GPIO_Init(SG1_GPIO_Port, &GPIO_InitStruct);
 8000dac:	1d3b      	adds	r3, r7, #4
 8000dae:	4619      	mov	r1, r3
 8000db0:	4851      	ldr	r0, [pc, #324]	; (8000ef8 <MX_GPIO_Init+0x38c>)
 8000db2:	f006 fd20 	bl	80077f6 <LL_GPIO_Init>

  /**/
  GPIO_InitStruct.Pin = SG0_Pin;
 8000db6:	2301      	movs	r3, #1
 8000db8:	607b      	str	r3, [r7, #4]
  GPIO_InitStruct.Mode = LL_GPIO_MODE_OUTPUT;
 8000dba:	2301      	movs	r3, #1
 8000dbc:	60bb      	str	r3, [r7, #8]
  GPIO_InitStruct.Speed = LL_GPIO_SPEED_FREQ_LOW;
 8000dbe:	2300      	movs	r3, #0
 8000dc0:	60fb      	str	r3, [r7, #12]
  GPIO_InitStruct.OutputType = LL_GPIO_OUTPUT_PUSHPULL;
 8000dc2:	2300      	movs	r3, #0
 8000dc4:	613b      	str	r3, [r7, #16]
  GPIO_InitStruct.Pull = LL_GPIO_PULL_NO;
 8000dc6:	2300      	movs	r3, #0
 8000dc8:	617b      	str	r3, [r7, #20]
  LL_GPIO_Init(SG0_GPIO_Port, &GPIO_InitStruct);
 8000dca:	1d3b      	adds	r3, r7, #4
 8000dcc:	4619      	mov	r1, r3
 8000dce:	484b      	ldr	r0, [pc, #300]	; (8000efc <MX_GPIO_Init+0x390>)
 8000dd0:	f006 fd11 	bl	80077f6 <LL_GPIO_Init>

  /**/
  GPIO_InitStruct.Pin = TRIGMUX1_Pin;
 8000dd4:	f44f 7380 	mov.w	r3, #256	; 0x100
 8000dd8:	607b      	str	r3, [r7, #4]
  GPIO_InitStruct.Mode = LL_GPIO_MODE_OUTPUT;
 8000dda:	2301      	movs	r3, #1
 8000ddc:	60bb      	str	r3, [r7, #8]
  GPIO_InitStruct.Speed = LL_GPIO_SPEED_FREQ_LOW;
 8000dde:	2300      	movs	r3, #0
 8000de0:	60fb      	str	r3, [r7, #12]
  GPIO_InitStruct.OutputType = LL_GPIO_OUTPUT_PUSHPULL;
 8000de2:	2300      	movs	r3, #0
 8000de4:	613b      	str	r3, [r7, #16]
  GPIO_InitStruct.Pull = LL_GPIO_PULL_NO;
 8000de6:	2300      	movs	r3, #0
 8000de8:	617b      	str	r3, [r7, #20]
  LL_GPIO_Init(TRIGMUX1_GPIO_Port, &GPIO_InitStruct);
 8000dea:	1d3b      	adds	r3, r7, #4
 8000dec:	4619      	mov	r1, r3
 8000dee:	4842      	ldr	r0, [pc, #264]	; (8000ef8 <MX_GPIO_Init+0x38c>)
 8000df0:	f006 fd01 	bl	80077f6 <LL_GPIO_Init>

  /**/
  GPIO_InitStruct.Pin = TRIGMUX2_Pin;
 8000df4:	f44f 7300 	mov.w	r3, #512	; 0x200
 8000df8:	607b      	str	r3, [r7, #4]
  GPIO_InitStruct.Mode = LL_GPIO_MODE_OUTPUT;
 8000dfa:	2301      	movs	r3, #1
 8000dfc:	60bb      	str	r3, [r7, #8]
  GPIO_InitStruct.Speed = LL_GPIO_SPEED_FREQ_LOW;
 8000dfe:	2300      	movs	r3, #0
 8000e00:	60fb      	str	r3, [r7, #12]
  GPIO_InitStruct.OutputType = LL_GPIO_OUTPUT_PUSHPULL;
 8000e02:	2300      	movs	r3, #0
 8000e04:	613b      	str	r3, [r7, #16]
  GPIO_InitStruct.Pull = LL_GPIO_PULL_NO;
 8000e06:	2300      	movs	r3, #0
 8000e08:	617b      	str	r3, [r7, #20]
  LL_GPIO_Init(TRIGMUX2_GPIO_Port, &GPIO_InitStruct);
 8000e0a:	1d3b      	adds	r3, r7, #4
 8000e0c:	4619      	mov	r1, r3
 8000e0e:	483a      	ldr	r0, [pc, #232]	; (8000ef8 <MX_GPIO_Init+0x38c>)
 8000e10:	f006 fcf1 	bl	80077f6 <LL_GPIO_Init>

  /**/
  GPIO_InitStruct.Pin = DC_Pin;
 8000e14:	2340      	movs	r3, #64	; 0x40
 8000e16:	607b      	str	r3, [r7, #4]
  GPIO_InitStruct.Mode = LL_GPIO_MODE_OUTPUT;
 8000e18:	2301      	movs	r3, #1
 8000e1a:	60bb      	str	r3, [r7, #8]
  GPIO_InitStruct.Speed = LL_GPIO_SPEED_FREQ_VERY_HIGH;
 8000e1c:	2303      	movs	r3, #3
 8000e1e:	60fb      	str	r3, [r7, #12]
  GPIO_InitStruct.OutputType = LL_GPIO_OUTPUT_PUSHPULL;
 8000e20:	2300      	movs	r3, #0
 8000e22:	613b      	str	r3, [r7, #16]
  GPIO_InitStruct.Pull = LL_GPIO_PULL_NO;
 8000e24:	2300      	movs	r3, #0
 8000e26:	617b      	str	r3, [r7, #20]
  LL_GPIO_Init(DC_GPIO_Port, &GPIO_InitStruct);
 8000e28:	1d3b      	adds	r3, r7, #4
 8000e2a:	4619      	mov	r1, r3
 8000e2c:	4833      	ldr	r0, [pc, #204]	; (8000efc <MX_GPIO_Init+0x390>)
 8000e2e:	f006 fce2 	bl	80077f6 <LL_GPIO_Init>

  /**/
  GPIO_InitStruct.Pin = CS_Pin;
 8000e32:	2380      	movs	r3, #128	; 0x80
 8000e34:	607b      	str	r3, [r7, #4]
  GPIO_InitStruct.Mode = LL_GPIO_MODE_OUTPUT;
 8000e36:	2301      	movs	r3, #1
 8000e38:	60bb      	str	r3, [r7, #8]
  GPIO_InitStruct.Speed = LL_GPIO_SPEED_FREQ_VERY_HIGH;
 8000e3a:	2303      	movs	r3, #3
 8000e3c:	60fb      	str	r3, [r7, #12]
  GPIO_InitStruct.OutputType = LL_GPIO_OUTPUT_PUSHPULL;
 8000e3e:	2300      	movs	r3, #0
 8000e40:	613b      	str	r3, [r7, #16]
  GPIO_InitStruct.Pull = LL_GPIO_PULL_NO;
 8000e42:	2300      	movs	r3, #0
 8000e44:	617b      	str	r3, [r7, #20]
  LL_GPIO_Init(CS_GPIO_Port, &GPIO_InitStruct);
 8000e46:	1d3b      	adds	r3, r7, #4
 8000e48:	4619      	mov	r1, r3
 8000e4a:	482c      	ldr	r0, [pc, #176]	; (8000efc <MX_GPIO_Init+0x390>)
 8000e4c:	f006 fcd3 	bl	80077f6 <LL_GPIO_Init>

  /**/
  GPIO_InitStruct.Pin = RST_Pin;
 8000e50:	f44f 7300 	mov.w	r3, #512	; 0x200
 8000e54:	607b      	str	r3, [r7, #4]
  GPIO_InitStruct.Mode = LL_GPIO_MODE_OUTPUT;
 8000e56:	2301      	movs	r3, #1
 8000e58:	60bb      	str	r3, [r7, #8]
  GPIO_InitStruct.Speed = LL_GPIO_SPEED_FREQ_VERY_HIGH;
 8000e5a:	2303      	movs	r3, #3
 8000e5c:	60fb      	str	r3, [r7, #12]
  GPIO_InitStruct.OutputType = LL_GPIO_OUTPUT_PUSHPULL;
 8000e5e:	2300      	movs	r3, #0
 8000e60:	613b      	str	r3, [r7, #16]
  GPIO_InitStruct.Pull = LL_GPIO_PULL_NO;
 8000e62:	2300      	movs	r3, #0
 8000e64:	617b      	str	r3, [r7, #20]
  LL_GPIO_Init(RST_GPIO_Port, &GPIO_InitStruct);
 8000e66:	1d3b      	adds	r3, r7, #4
 8000e68:	4619      	mov	r1, r3
 8000e6a:	4824      	ldr	r0, [pc, #144]	; (8000efc <MX_GPIO_Init+0x390>)
 8000e6c:	f006 fcc3 	bl	80077f6 <LL_GPIO_Init>

  /* EXTI interrupt init*/
  NVIC_SetPriority(EXTI0_IRQn, NVIC_EncodePriority(NVIC_GetPriorityGrouping(),0, 0));
 8000e70:	f7ff fd3e 	bl	80008f0 <__NVIC_GetPriorityGrouping>
 8000e74:	4603      	mov	r3, r0
 8000e76:	2200      	movs	r2, #0
 8000e78:	2100      	movs	r1, #0
 8000e7a:	4618      	mov	r0, r3
 8000e7c:	f7ff fd8e 	bl	800099c <NVIC_EncodePriority>
 8000e80:	4603      	mov	r3, r0
 8000e82:	4619      	mov	r1, r3
 8000e84:	2006      	movs	r0, #6
 8000e86:	f7ff fd5f 	bl	8000948 <__NVIC_SetPriority>
  NVIC_EnableIRQ(EXTI0_IRQn);
 8000e8a:	2006      	movs	r0, #6
 8000e8c:	f7ff fd3e 	bl	800090c <__NVIC_EnableIRQ>
  NVIC_SetPriority(EXTI1_IRQn, NVIC_EncodePriority(NVIC_GetPriorityGrouping(),0, 0));
 8000e90:	f7ff fd2e 	bl	80008f0 <__NVIC_GetPriorityGrouping>
 8000e94:	4603      	mov	r3, r0
 8000e96:	2200      	movs	r2, #0
 8000e98:	2100      	movs	r1, #0
 8000e9a:	4618      	mov	r0, r3
 8000e9c:	f7ff fd7e 	bl	800099c <NVIC_EncodePriority>
 8000ea0:	4603      	mov	r3, r0
 8000ea2:	4619      	mov	r1, r3
 8000ea4:	2007      	movs	r0, #7
 8000ea6:	f7ff fd4f 	bl	8000948 <__NVIC_SetPriority>
  NVIC_EnableIRQ(EXTI1_IRQn);
 8000eaa:	2007      	movs	r0, #7
 8000eac:	f7ff fd2e 	bl	800090c <__NVIC_EnableIRQ>
  NVIC_SetPriority(EXTI2_IRQn, NVIC_EncodePriority(NVIC_GetPriorityGrouping(),0, 0));
 8000eb0:	f7ff fd1e 	bl	80008f0 <__NVIC_GetPriorityGrouping>
 8000eb4:	4603      	mov	r3, r0
 8000eb6:	2200      	movs	r2, #0
 8000eb8:	2100      	movs	r1, #0
 8000eba:	4618      	mov	r0, r3
 8000ebc:	f7ff fd6e 	bl	800099c <NVIC_EncodePriority>
 8000ec0:	4603      	mov	r3, r0
 8000ec2:	4619      	mov	r1, r3
 8000ec4:	2008      	movs	r0, #8
 8000ec6:	f7ff fd3f 	bl	8000948 <__NVIC_SetPriority>
  NVIC_EnableIRQ(EXTI2_IRQn);
 8000eca:	2008      	movs	r0, #8
 8000ecc:	f7ff fd1e 	bl	800090c <__NVIC_EnableIRQ>
  NVIC_SetPriority(EXTI15_10_IRQn, NVIC_EncodePriority(NVIC_GetPriorityGrouping(),0, 0));
 8000ed0:	f7ff fd0e 	bl	80008f0 <__NVIC_GetPriorityGrouping>
 8000ed4:	4603      	mov	r3, r0
 8000ed6:	2200      	movs	r2, #0
 8000ed8:	2100      	movs	r1, #0
 8000eda:	4618      	mov	r0, r3
 8000edc:	f7ff fd5e 	bl	800099c <NVIC_EncodePriority>
 8000ee0:	4603      	mov	r3, r0
 8000ee2:	4619      	mov	r1, r3
 8000ee4:	2028      	movs	r0, #40	; 0x28
 8000ee6:	f7ff fd2f 	bl	8000948 <__NVIC_SetPriority>
  NVIC_EnableIRQ(EXTI15_10_IRQn);
 8000eea:	2028      	movs	r0, #40	; 0x28
 8000eec:	f7ff fd0e 	bl	800090c <__NVIC_EnableIRQ>

}
 8000ef0:	bf00      	nop
 8000ef2:	3728      	adds	r7, #40	; 0x28
 8000ef4:	46bd      	mov	sp, r7
 8000ef6:	e009      	b.n	8000f0c <MX_GPIO_Init+0x3a0>
 8000ef8:	48000800 	.word	0x48000800
 8000efc:	48000400 	.word	0x48000400
 8000f00:	0f000003 	.word	0x0f000003
 8000f04:	f0000003 	.word	0xf0000003
 8000f08:	48001400 	.word	0x48001400
 8000f0c:	bd80      	pop	{r7, pc}
 8000f0e:	bf00      	nop

08000f10 <ITM_SendChar>:
           \li Is blocking when a debugger is connected, but the previous character sent has not been transmitted.
  \param [in]     ch  Character to transmit.
  \returns            Character to transmit.
 */
__STATIC_INLINE uint32_t ITM_SendChar (uint32_t ch)
{
 8000f10:	b480      	push	{r7}
 8000f12:	b083      	sub	sp, #12
 8000f14:	af00      	add	r7, sp, #0
 8000f16:	6078      	str	r0, [r7, #4]
  if (((ITM->TCR & ITM_TCR_ITMENA_Msk) != 0UL) &&      /* ITM enabled */
 8000f18:	f04f 4360 	mov.w	r3, #3758096384	; 0xe0000000
 8000f1c:	f8d3 3e80 	ldr.w	r3, [r3, #3712]	; 0xe80
 8000f20:	f003 0301 	and.w	r3, r3, #1
 8000f24:	2b00      	cmp	r3, #0
 8000f26:	d013      	beq.n	8000f50 <ITM_SendChar+0x40>
      ((ITM->TER & 1UL               ) != 0UL)   )     /* ITM Port #0 enabled */
 8000f28:	f04f 4360 	mov.w	r3, #3758096384	; 0xe0000000
 8000f2c:	f8d3 3e00 	ldr.w	r3, [r3, #3584]	; 0xe00
 8000f30:	f003 0301 	and.w	r3, r3, #1
  if (((ITM->TCR & ITM_TCR_ITMENA_Msk) != 0UL) &&      /* ITM enabled */
 8000f34:	2b00      	cmp	r3, #0
 8000f36:	d00b      	beq.n	8000f50 <ITM_SendChar+0x40>
  {
    while (ITM->PORT[0U].u32 == 0UL)
 8000f38:	e000      	b.n	8000f3c <ITM_SendChar+0x2c>
    {
      __NOP();
 8000f3a:	bf00      	nop
    while (ITM->PORT[0U].u32 == 0UL)
 8000f3c:	f04f 4360 	mov.w	r3, #3758096384	; 0xe0000000
 8000f40:	681b      	ldr	r3, [r3, #0]
 8000f42:	2b00      	cmp	r3, #0
 8000f44:	d0f9      	beq.n	8000f3a <ITM_SendChar+0x2a>
    }
    ITM->PORT[0U].u8 = (uint8_t)ch;
 8000f46:	f04f 4360 	mov.w	r3, #3758096384	; 0xe0000000
 8000f4a:	687a      	ldr	r2, [r7, #4]
 8000f4c:	b2d2      	uxtb	r2, r2
 8000f4e:	701a      	strb	r2, [r3, #0]
  }
  return (ch);
 8000f50:	687b      	ldr	r3, [r7, #4]
}
 8000f52:	4618      	mov	r0, r3
 8000f54:	370c      	adds	r7, #12
 8000f56:	46bd      	mov	sp, r7
 8000f58:	f85d 7b04 	ldr.w	r7, [sp], #4
 8000f5c:	4770      	bx	lr

08000f5e <_write>:
/* USER CODE END PFP */

/* Private user code ---------------------------------------------------------*/
/* USER CODE BEGIN 0 */
int _write(int file, char *ptr, int len)
{
 8000f5e:	b580      	push	{r7, lr}
 8000f60:	b086      	sub	sp, #24
 8000f62:	af00      	add	r7, sp, #0
 8000f64:	60f8      	str	r0, [r7, #12]
 8000f66:	60b9      	str	r1, [r7, #8]
 8000f68:	607a      	str	r2, [r7, #4]
  /* Implement your write code here, this is used by puts and printf for example */
  int i=0;
 8000f6a:	2300      	movs	r3, #0
 8000f6c:	617b      	str	r3, [r7, #20]
  for(i=0 ; i<len ; i++)
 8000f6e:	2300      	movs	r3, #0
 8000f70:	617b      	str	r3, [r7, #20]
 8000f72:	e009      	b.n	8000f88 <_write+0x2a>
    ITM_SendChar((*ptr++));
 8000f74:	68bb      	ldr	r3, [r7, #8]
 8000f76:	1c5a      	adds	r2, r3, #1
 8000f78:	60ba      	str	r2, [r7, #8]
 8000f7a:	781b      	ldrb	r3, [r3, #0]
 8000f7c:	4618      	mov	r0, r3
 8000f7e:	f7ff ffc7 	bl	8000f10 <ITM_SendChar>
  for(i=0 ; i<len ; i++)
 8000f82:	697b      	ldr	r3, [r7, #20]
 8000f84:	3301      	adds	r3, #1
 8000f86:	617b      	str	r3, [r7, #20]
 8000f88:	697a      	ldr	r2, [r7, #20]
 8000f8a:	687b      	ldr	r3, [r7, #4]
 8000f8c:	429a      	cmp	r2, r3
 8000f8e:	dbf1      	blt.n	8000f74 <_write+0x16>
  return len;
 8000f90:	687b      	ldr	r3, [r7, #4]
}
 8000f92:	4618      	mov	r0, r3
 8000f94:	3718      	adds	r7, #24
 8000f96:	46bd      	mov	sp, r7
 8000f98:	bd80      	pop	{r7, pc}
	...

08000f9c <main>:
/**
  * @brief  The application entry point.
  * @retval int
  */
int main(void)
{
 8000f9c:	b580      	push	{r7, lr}
 8000f9e:	b082      	sub	sp, #8
 8000fa0:	af02      	add	r7, sp, #8
  /* USER CODE END 1 */

  /* MCU Configuration--------------------------------------------------------*/

  /* Reset of all peripherals, Initializes the Flash interface and the Systick. */
  HAL_Init();
 8000fa2:	f000 ffe0 	bl	8001f66 <HAL_Init>
  /* USER CODE BEGIN Init */

  /* USER CODE END Init */

  /* Configure the system clock */
  SystemClock_Config();
 8000fa6:	f000 f8b9 	bl	800111c <SystemClock_Config>
  /* USER CODE BEGIN SysInit */

  /* USER CODE END SysInit */

  /* Initialize all configured peripherals */
  MX_GPIO_Init();
 8000faa:	f7ff fddf 	bl	8000b6c <MX_GPIO_Init>
  MX_DMA_Init();
 8000fae:	f7ff fc11 	bl	80007d4 <MX_DMA_Init>
  MX_DAC1_Init();
 8000fb2:	f7ff fac3 	bl	800053c <MX_DAC1_Init>
  MX_DAC2_Init();
 8000fb6:	f7ff fb09 	bl	80005cc <MX_DAC2_Init>
  MX_ADC1_Init();
 8000fba:	f7ff f981 	bl	80002c0 <MX_ADC1_Init>
  MX_COMP1_Init();
 8000fbe:	f7ff fa63 	bl	8000488 <MX_COMP1_Init>
  MX_TIM2_Init();
 8000fc2:	f000 fd2b 	bl	8001a1c <MX_TIM2_Init>
  MX_TIM17_Init();
 8000fc6:	f000 fe73 	bl	8001cb0 <MX_TIM17_Init>
  MX_SPI3_Init();
 8000fca:	f000 f953 	bl	8001274 <MX_SPI3_Init>
  MX_RNG_Init();
 8000fce:	f000 f943 	bl	8001258 <MX_RNG_Init>
  MX_TIM1_Init();
 8000fd2:	f000 fcb3 	bl	800193c <MX_TIM1_Init>
  MX_TIM8_Init();
 8000fd6:	f000 fd8b 	bl	8001af0 <MX_TIM8_Init>
  MX_TIM16_Init();
 8000fda:	f000 fe43 	bl	8001c64 <MX_TIM16_Init>
  MX_TIM15_Init();
 8000fde:	f000 fdef 	bl	8001bc0 <MX_TIM15_Init>
  /* USER CODE BEGIN 2 */

  // main signal function output (external)
  HAL_DAC_Start_DMA(&hdac1, DAC1_CHANNEL_1, sine_data_table, SINE_DATA_SIZE, DAC_ALIGN_12B_R);
 8000fe2:	2300      	movs	r3, #0
 8000fe4:	9300      	str	r3, [sp, #0]
 8000fe6:	f44f 737a 	mov.w	r3, #1000	; 0x3e8
 8000fea:	4a3f      	ldr	r2, [pc, #252]	; (80010e8 <main+0x14c>)
 8000fec:	2100      	movs	r1, #0
 8000fee:	483f      	ldr	r0, [pc, #252]	; (80010ec <main+0x150>)
 8000ff0:	f002 fd10 	bl	8003a14 <HAL_DAC_Start_DMA>
  //TIM8->ARR = sin1_max_arr;

  // DC bias output (internal)
  HAL_DAC_Start(&hdac1, DAC1_CHANNEL_2);
 8000ff4:	2110      	movs	r1, #16
 8000ff6:	483d      	ldr	r0, [pc, #244]	; (80010ec <main+0x150>)
 8000ff8:	f002 fcb9 	bl	800396e <HAL_DAC_Start>
  //HAL_DAC_Start_DMA(&hdac2, DAC2_CHANNEL_1, sine_data_table, SINE_DATA_SIZE, DAC_ALIGN_12B_R);
  //HAL_DAC_Start_DMA(&hdac2, DAC2_CHANNEL_1, square_data_table, SQUARE_DATA_SIZE, DAC_ALIGN_12B_R);
  //HAL_DAC_Start_DMA(&hdac2, DAC2_CHANNEL_1, unitimpulse_data_table, UNITIMPULSE_DATA_SIZE, DAC_ALIGN_12B_R);
  //HAL_DAC_Start_DMA(&hdac2, DAC2_CHANNEL_1, saw_data_table, SAW_DATA_SIZE, DAC_ALIGN_12B_R);
  //HAL_DAC_Start_DMA(&hdac2, DAC2_CHANNEL_1, saw_rev_data_table, SAW_REV_DATA_SIZE, DAC_ALIGN_12B_R);
  HAL_DAC_Start_DMA(&hdac2, DAC2_CHANNEL_1, triangle_data_table, TRIANGLE_DATA_SIZE, DAC_ALIGN_12B_R);
 8000ffc:	2300      	movs	r3, #0
 8000ffe:	9300      	str	r3, [sp, #0]
 8001000:	f44f 737a 	mov.w	r3, #1000	; 0x3e8
 8001004:	4a3a      	ldr	r2, [pc, #232]	; (80010f0 <main+0x154>)
 8001006:	2100      	movs	r1, #0
 8001008:	483a      	ldr	r0, [pc, #232]	; (80010f4 <main+0x158>)
 800100a:	f002 fd03 	bl	8003a14 <HAL_DAC_Start_DMA>

  //HAL_DAC_Start_DMA(&hdac2, DAC2_CHANNEL_1, trigger_input, TRIGGER_DATA_SIZE, DAC_ALIGN_12B_R);
#ifndef DISABLE_ALL_TIMERS
  // single clock to run all DAC channels. TODO add independent clocks
  HAL_TIM_Base_Start(&htim8);
 800100e:	483a      	ldr	r0, [pc, #232]	; (80010f8 <main+0x15c>)
 8001010:	f005 f952 	bl	80062b8 <HAL_TIM_Base_Start>
#endif //DISABLE_ALL_TIMERS

  // DC bias inversion
  HAL_GPIO_WritePin(DCBIAS_INVERT_GPIO_Port, DCBIAS_INVERT_Pin, GPIO_PIN_SET);
 8001014:	2201      	movs	r2, #1
 8001016:	2108      	movs	r1, #8
 8001018:	f04f 4090 	mov.w	r0, #1207959552	; 0x48000000
 800101c:	f003 fc44 	bl	80048a8 <HAL_GPIO_WritePin>

  // PGA gain
  HAL_GPIO_WritePin(SG0_GPIO_Port, SG0_Pin, GPIO_PIN_SET);
 8001020:	2201      	movs	r2, #1
 8001022:	2101      	movs	r1, #1
 8001024:	4835      	ldr	r0, [pc, #212]	; (80010fc <main+0x160>)
 8001026:	f003 fc3f 	bl	80048a8 <HAL_GPIO_WritePin>
  HAL_GPIO_WritePin(SG1_GPIO_Port, SG1_Pin, GPIO_PIN_SET);
 800102a:	2201      	movs	r2, #1
 800102c:	2120      	movs	r1, #32
 800102e:	4834      	ldr	r0, [pc, #208]	; (8001100 <main+0x164>)
 8001030:	f003 fc3a 	bl	80048a8 <HAL_GPIO_WritePin>
  HAL_GPIO_WritePin(SG2_GPIO_Port, SG2_Pin, GPIO_PIN_SET);
 8001034:	2201      	movs	r2, #1
 8001036:	2110      	movs	r1, #16
 8001038:	4831      	ldr	r0, [pc, #196]	; (8001100 <main+0x164>)
 800103a:	f003 fc35 	bl	80048a8 <HAL_GPIO_WritePin>

#ifndef DISABLE_ALL_TIMERS
  // start test routine (update_dc_bias_sweep())
  HAL_TIM_Base_Start_IT(&htim17);
 800103e:	4831      	ldr	r0, [pc, #196]	; (8001104 <main+0x168>)
 8001040:	f005 f968 	bl	8006314 <HAL_TIM_Base_Start_IT>
#endif	//DISABLE_ALL_TIMERS


// http://www.ti.com/lit/ds/symlink/ts5a3357.pdf
  HAL_GPIO_WritePin(TRIGMUX1_GPIO_Port, TRIGMUX1_Pin, GPIO_PIN_RESET);	// TS5A3357 Pin6
 8001044:	2200      	movs	r2, #0
 8001046:	f44f 7180 	mov.w	r1, #256	; 0x100
 800104a:	482d      	ldr	r0, [pc, #180]	; (8001100 <main+0x164>)
 800104c:	f003 fc2c 	bl	80048a8 <HAL_GPIO_WritePin>
  HAL_GPIO_WritePin(TRIGMUX2_GPIO_Port, TRIGMUX2_Pin, GPIO_PIN_RESET);	// TS5A3357 Pin5
 8001050:	2200      	movs	r2, #0
 8001052:	f44f 7100 	mov.w	r1, #512	; 0x200
 8001056:	482a      	ldr	r0, [pc, #168]	; (8001100 <main+0x164>)
 8001058:	f003 fc26 	bl	80048a8 <HAL_GPIO_WritePin>

#ifdef TIM_TRIGGER_MODE
  // input capture on in TIM2 slave-mode TF1FP1

  // set HW switch to direct ext. trigger input to TIM pin
  HAL_GPIO_WritePin(TRIGMODE_GPIO_Port, TRIGMODE_Pin, GPIO_PIN_SET);
 800105c:	2201      	movs	r2, #1
 800105e:	2108      	movs	r1, #8
 8001060:	4827      	ldr	r0, [pc, #156]	; (8001100 <main+0x164>)
 8001062:	f003 fc21 	bl	80048a8 <HAL_GPIO_WritePin>
  //HAL_GPIO_WritePin(TRIGMUX1_GPIO_Port, TRIGMUX1_Pin, GPIO_PIN_SET);	// TS5A3357 Pin6
  //HAL_GPIO_WritePin(TRIGMUX2_GPIO_Port, TRIGMUX2_Pin, GPIO_PIN_RESET); // TS5A3357 Pin5

  // clear slave mode select reg
  TIM2->SMCR &= ~(TIM_SMCR_SMS_0 | TIM_SMCR_SMS_1 | TIM_SMCR_SMS_2);
 8001066:	f04f 4380 	mov.w	r3, #1073741824	; 0x40000000
 800106a:	689b      	ldr	r3, [r3, #8]
 800106c:	f04f 4280 	mov.w	r2, #1073741824	; 0x40000000
 8001070:	f023 0307 	bic.w	r3, r3, #7
 8001074:	6093      	str	r3, [r2, #8]

  // slave mode
  //TIM2->SMCR |= TIM_SMCR_SMS_2;						// SLAVE MODE: RESET
  TIM2->SMCR |= TIM_SMCR_SMS_0 | TIM_SMCR_SMS_2;	// SLAVE MODE: GATED
 8001076:	f04f 4380 	mov.w	r3, #1073741824	; 0x40000000
 800107a:	689b      	ldr	r3, [r3, #8]
 800107c:	f04f 4280 	mov.w	r2, #1073741824	; 0x40000000
 8001080:	f043 0305 	orr.w	r3, r3, #5
 8001084:	6093      	str	r3, [r2, #8]
  //TIM2->SMCR |= TIM_SMCR_SMS_1 | TIM_SMCR_SMS_2;	// SLAVE MODE: TRIGGER

#ifndef DISABLE_ALL_TIMERS
  HAL_TIM_Base_Start_IT(&htim2);
 8001086:	4820      	ldr	r0, [pc, #128]	; (8001108 <main+0x16c>)
 8001088:	f005 f944 	bl	8006314 <HAL_TIM_Base_Start_IT>



#ifndef DISABLE_ALL_TIMERS
  // encoder input
  HAL_TIM_Base_Start(&htim1);
 800108c:	481f      	ldr	r0, [pc, #124]	; (800110c <main+0x170>)
 800108e:	f005 f913 	bl	80062b8 <HAL_TIM_Base_Start>
  //HAL_TIM_Base_Start_IT(&htim16);
#endif	//DISABLE_ALL_TIMERS

  // TFT lib enable
  ILI9341_Init();
 8001092:	f006 fe9f 	bl	8007dd4 <ILI9341_Init>


	ILI9341_Fill_Screen(WHITE);
 8001096:	f64f 70ff 	movw	r0, #65535	; 0xffff
 800109a:	f007 f843 	bl	8008124 <ILI9341_Fill_Screen>
	ILI9341_Set_Rotation(SCREEN_HORIZONTAL_2);
 800109e:	2003      	movs	r0, #3
 80010a0:	f006 fe3a 	bl	8007d18 <ILI9341_Set_Rotation>
	ILI9341_Draw_Text("Randomly placed and sized", 10, 10, BLACK, 1, WHITE);
 80010a4:	f64f 73ff 	movw	r3, #65535	; 0xffff
 80010a8:	9301      	str	r3, [sp, #4]
 80010aa:	2301      	movs	r3, #1
 80010ac:	9300      	str	r3, [sp, #0]
 80010ae:	2300      	movs	r3, #0
 80010b0:	220a      	movs	r2, #10
 80010b2:	210a      	movs	r1, #10
 80010b4:	4816      	ldr	r0, [pc, #88]	; (8001110 <main+0x174>)
 80010b6:	f006 fd2f 	bl	8007b18 <ILI9341_Draw_Text>
	ILI9341_Draw_Text("Filled Circles", 10, 20, BLACK, 1, WHITE);
 80010ba:	f64f 73ff 	movw	r3, #65535	; 0xffff
 80010be:	9301      	str	r3, [sp, #4]
 80010c0:	2301      	movs	r3, #1
 80010c2:	9300      	str	r3, [sp, #0]
 80010c4:	2300      	movs	r3, #0
 80010c6:	2214      	movs	r2, #20
 80010c8:	210a      	movs	r1, #10
 80010ca:	4812      	ldr	r0, [pc, #72]	; (8001114 <main+0x178>)
 80010cc:	f006 fd24 	bl	8007b18 <ILI9341_Draw_Text>
	HAL_Delay(2000);
 80010d0:	f44f 60fa 	mov.w	r0, #2000	; 0x7d0
 80010d4:	f000 ffb8 	bl	8002048 <HAL_Delay>
	ILI9341_Fill_Screen(WHITE);
 80010d8:	f64f 70ff 	movw	r0, #65535	; 0xffff
 80010dc:	f007 f822 	bl	8008124 <ILI9341_Fill_Screen>
	HAL_TIM_Base_Start_IT(&htim15);
 80010e0:	480d      	ldr	r0, [pc, #52]	; (8001118 <main+0x17c>)
 80010e2:	f005 f917 	bl	8006314 <HAL_TIM_Base_Start_IT>
  /* USER CODE END 2 */

  /* Infinite loop */
  /* USER CODE BEGIN WHILE */
  while (1)
 80010e6:	e7fe      	b.n	80010e6 <main+0x14a>
 80010e8:	20000004 	.word	0x20000004
 80010ec:	200020fc 	.word	0x200020fc
 80010f0:	20000fa4 	.word	0x20000fa4
 80010f4:	200020e8 	.word	0x200020e8
 80010f8:	20002294 	.word	0x20002294
 80010fc:	48000400 	.word	0x48000400
 8001100:	48000800 	.word	0x48000800
 8001104:	2000232c 	.word	0x2000232c
 8001108:	200023c4 	.word	0x200023c4
 800110c:	20002378 	.word	0x20002378
 8001110:	0800969c 	.word	0x0800969c
 8001114:	080096b8 	.word	0x080096b8
 8001118:	200022e0 	.word	0x200022e0

0800111c <SystemClock_Config>:
/**
  * @brief System Clock Configuration
  * @retval None
  */
void SystemClock_Config(void)
{
 800111c:	b580      	push	{r7, lr}
 800111e:	b0a8      	sub	sp, #160	; 0xa0
 8001120:	af00      	add	r7, sp, #0
  RCC_OscInitTypeDef RCC_OscInitStruct = {0};
 8001122:	f107 0368 	add.w	r3, r7, #104	; 0x68
 8001126:	2238      	movs	r2, #56	; 0x38
 8001128:	2100      	movs	r1, #0
 800112a:	4618      	mov	r0, r3
 800112c:	f007 f982 	bl	8008434 <memset>
  RCC_ClkInitTypeDef RCC_ClkInitStruct = {0};
 8001130:	f107 0354 	add.w	r3, r7, #84	; 0x54
 8001134:	2200      	movs	r2, #0
 8001136:	601a      	str	r2, [r3, #0]
 8001138:	605a      	str	r2, [r3, #4]
 800113a:	609a      	str	r2, [r3, #8]
 800113c:	60da      	str	r2, [r3, #12]
 800113e:	611a      	str	r2, [r3, #16]
  RCC_PeriphCLKInitTypeDef PeriphClkInit = {0};
 8001140:	463b      	mov	r3, r7
 8001142:	2254      	movs	r2, #84	; 0x54
 8001144:	2100      	movs	r1, #0
 8001146:	4618      	mov	r0, r3
 8001148:	f007 f974 	bl	8008434 <memset>

  /** Configure the main internal regulator output voltage 
  */
  HAL_PWREx_ControlVoltageScaling(PWR_REGULATOR_VOLTAGE_SCALE1_BOOST);
 800114c:	2000      	movs	r0, #0
 800114e:	f003 fbc3 	bl	80048d8 <HAL_PWREx_ControlVoltageScaling>
  /** Initializes the CPU, AHB and APB busses clocks 
  */
  RCC_OscInitStruct.OscillatorType = RCC_OSCILLATORTYPE_HSI|RCC_OSCILLATORTYPE_HSI48;
 8001152:	2322      	movs	r3, #34	; 0x22
 8001154:	66bb      	str	r3, [r7, #104]	; 0x68
  RCC_OscInitStruct.HSIState = RCC_HSI_ON;
 8001156:	f44f 7380 	mov.w	r3, #256	; 0x100
 800115a:	677b      	str	r3, [r7, #116]	; 0x74
  RCC_OscInitStruct.HSICalibrationValue = RCC_HSICALIBRATION_DEFAULT;
 800115c:	2340      	movs	r3, #64	; 0x40
 800115e:	67bb      	str	r3, [r7, #120]	; 0x78
  RCC_OscInitStruct.HSI48State = RCC_HSI48_ON;
 8001160:	2301      	movs	r3, #1
 8001162:	f8c7 3080 	str.w	r3, [r7, #128]	; 0x80
  RCC_OscInitStruct.PLL.PLLState = RCC_PLL_ON;
 8001166:	2302      	movs	r3, #2
 8001168:	f8c7 3084 	str.w	r3, [r7, #132]	; 0x84
  RCC_OscInitStruct.PLL.PLLSource = RCC_PLLSOURCE_HSI;
 800116c:	2302      	movs	r3, #2
 800116e:	f8c7 3088 	str.w	r3, [r7, #136]	; 0x88
  RCC_OscInitStruct.PLL.PLLM = RCC_PLLM_DIV2;
 8001172:	2302      	movs	r3, #2
 8001174:	f8c7 308c 	str.w	r3, [r7, #140]	; 0x8c
  RCC_OscInitStruct.PLL.PLLN = 42;
 8001178:	232a      	movs	r3, #42	; 0x2a
 800117a:	f8c7 3090 	str.w	r3, [r7, #144]	; 0x90
  RCC_OscInitStruct.PLL.PLLP = RCC_PLLP_DIV2;
 800117e:	2302      	movs	r3, #2
 8001180:	f8c7 3094 	str.w	r3, [r7, #148]	; 0x94
  RCC_OscInitStruct.PLL.PLLQ = RCC_PLLQ_DIV4;
 8001184:	2304      	movs	r3, #4
 8001186:	f8c7 3098 	str.w	r3, [r7, #152]	; 0x98
  RCC_OscInitStruct.PLL.PLLR = RCC_PLLR_DIV2;
 800118a:	2302      	movs	r3, #2
 800118c:	f8c7 309c 	str.w	r3, [r7, #156]	; 0x9c
  if (HAL_RCC_OscConfig(&RCC_OscInitStruct) != HAL_OK)
 8001190:	f107 0368 	add.w	r3, r7, #104	; 0x68
 8001194:	4618      	mov	r0, r3
 8001196:	f003 fc43 	bl	8004a20 <HAL_RCC_OscConfig>
 800119a:	4603      	mov	r3, r0
 800119c:	2b00      	cmp	r3, #0
 800119e:	d001      	beq.n	80011a4 <SystemClock_Config+0x88>
  {
    Error_Handler();
 80011a0:	f000 f82b 	bl	80011fa <Error_Handler>
  }
  /** Initializes the CPU, AHB and APB busses clocks 
  */
  RCC_ClkInitStruct.ClockType = RCC_CLOCKTYPE_HCLK|RCC_CLOCKTYPE_SYSCLK
 80011a4:	230f      	movs	r3, #15
 80011a6:	657b      	str	r3, [r7, #84]	; 0x54
                              |RCC_CLOCKTYPE_PCLK1|RCC_CLOCKTYPE_PCLK2;
  RCC_ClkInitStruct.SYSCLKSource = RCC_SYSCLKSOURCE_PLLCLK;
 80011a8:	2303      	movs	r3, #3
 80011aa:	65bb      	str	r3, [r7, #88]	; 0x58
  RCC_ClkInitStruct.AHBCLKDivider = RCC_SYSCLK_DIV1;
 80011ac:	2300      	movs	r3, #0
 80011ae:	65fb      	str	r3, [r7, #92]	; 0x5c
  RCC_ClkInitStruct.APB1CLKDivider = RCC_HCLK_DIV4;
 80011b0:	f44f 63a0 	mov.w	r3, #1280	; 0x500
 80011b4:	663b      	str	r3, [r7, #96]	; 0x60
  RCC_ClkInitStruct.APB2CLKDivider = RCC_HCLK_DIV1;
 80011b6:	2300      	movs	r3, #0
 80011b8:	667b      	str	r3, [r7, #100]	; 0x64

  if (HAL_RCC_ClockConfig(&RCC_ClkInitStruct, FLASH_LATENCY_8) != HAL_OK)
 80011ba:	f107 0354 	add.w	r3, r7, #84	; 0x54
 80011be:	2108      	movs	r1, #8
 80011c0:	4618      	mov	r0, r3
 80011c2:	f003 ff45 	bl	8005050 <HAL_RCC_ClockConfig>
 80011c6:	4603      	mov	r3, r0
 80011c8:	2b00      	cmp	r3, #0
 80011ca:	d001      	beq.n	80011d0 <SystemClock_Config+0xb4>
  {
    Error_Handler();
 80011cc:	f000 f815 	bl	80011fa <Error_Handler>
  }
  /** Initializes the peripherals clocks 
  */
  PeriphClkInit.PeriphClockSelection = RCC_PERIPHCLK_RNG|RCC_PERIPHCLK_ADC12;
 80011d0:	f44f 4340 	mov.w	r3, #49152	; 0xc000
 80011d4:	603b      	str	r3, [r7, #0]
  PeriphClkInit.RngClockSelection = RCC_RNGCLKSOURCE_HSI48;
 80011d6:	2300      	movs	r3, #0
 80011d8:	643b      	str	r3, [r7, #64]	; 0x40
  PeriphClkInit.Adc12ClockSelection = RCC_ADC12CLKSOURCE_SYSCLK;
 80011da:	f04f 5300 	mov.w	r3, #536870912	; 0x20000000
 80011de:	647b      	str	r3, [r7, #68]	; 0x44
  if (HAL_RCCEx_PeriphCLKConfig(&PeriphClkInit) != HAL_OK)
 80011e0:	463b      	mov	r3, r7
 80011e2:	4618      	mov	r0, r3
 80011e4:	f004 f924 	bl	8005430 <HAL_RCCEx_PeriphCLKConfig>
 80011e8:	4603      	mov	r3, r0
 80011ea:	2b00      	cmp	r3, #0
 80011ec:	d001      	beq.n	80011f2 <SystemClock_Config+0xd6>
  {
    Error_Handler();
 80011ee:	f000 f804 	bl	80011fa <Error_Handler>
  }
}
 80011f2:	bf00      	nop
 80011f4:	37a0      	adds	r7, #160	; 0xa0
 80011f6:	46bd      	mov	sp, r7
 80011f8:	bd80      	pop	{r7, pc}

080011fa <Error_Handler>:
/**
  * @brief  This function is executed in case of error occurrence.
  * @retval None
  */
void Error_Handler(void)
{
 80011fa:	b480      	push	{r7}
 80011fc:	af00      	add	r7, sp, #0
  /* USER CODE BEGIN Error_Handler_Debug */
  /* User can add his own implementation to report the HAL error return state */

  /* USER CODE END Error_Handler_Debug */
}
 80011fe:	bf00      	nop
 8001200:	46bd      	mov	sp, r7
 8001202:	f85d 7b04 	ldr.w	r7, [sp], #4
 8001206:	4770      	bx	lr

08001208 <LL_RNG_Enable>:
  * @rmtoll CR           RNGEN         LL_RNG_Enable
  * @param  RNGx RNG Instance
  * @retval None
  */
__STATIC_INLINE void LL_RNG_Enable(RNG_TypeDef *RNGx)
{
 8001208:	b480      	push	{r7}
 800120a:	b083      	sub	sp, #12
 800120c:	af00      	add	r7, sp, #0
 800120e:	6078      	str	r0, [r7, #4]
  SET_BIT(RNGx->CR, RNG_CR_RNGEN);
 8001210:	687b      	ldr	r3, [r7, #4]
 8001212:	681b      	ldr	r3, [r3, #0]
 8001214:	f043 0204 	orr.w	r2, r3, #4
 8001218:	687b      	ldr	r3, [r7, #4]
 800121a:	601a      	str	r2, [r3, #0]
}
 800121c:	bf00      	nop
 800121e:	370c      	adds	r7, #12
 8001220:	46bd      	mov	sp, r7
 8001222:	f85d 7b04 	ldr.w	r7, [sp], #4
 8001226:	4770      	bx	lr

08001228 <LL_AHB2_GRP1_EnableClock>:
{
 8001228:	b480      	push	{r7}
 800122a:	b085      	sub	sp, #20
 800122c:	af00      	add	r7, sp, #0
 800122e:	6078      	str	r0, [r7, #4]
  SET_BIT(RCC->AHB2ENR, Periphs);
 8001230:	4b08      	ldr	r3, [pc, #32]	; (8001254 <LL_AHB2_GRP1_EnableClock+0x2c>)
 8001232:	6cda      	ldr	r2, [r3, #76]	; 0x4c
 8001234:	4907      	ldr	r1, [pc, #28]	; (8001254 <LL_AHB2_GRP1_EnableClock+0x2c>)
 8001236:	687b      	ldr	r3, [r7, #4]
 8001238:	4313      	orrs	r3, r2
 800123a:	64cb      	str	r3, [r1, #76]	; 0x4c
  tmpreg = READ_BIT(RCC->AHB2ENR, Periphs);
 800123c:	4b05      	ldr	r3, [pc, #20]	; (8001254 <LL_AHB2_GRP1_EnableClock+0x2c>)
 800123e:	6cda      	ldr	r2, [r3, #76]	; 0x4c
 8001240:	687b      	ldr	r3, [r7, #4]
 8001242:	4013      	ands	r3, r2
 8001244:	60fb      	str	r3, [r7, #12]
  (void)tmpreg;
 8001246:	68fb      	ldr	r3, [r7, #12]
}
 8001248:	bf00      	nop
 800124a:	3714      	adds	r7, #20
 800124c:	46bd      	mov	sp, r7
 800124e:	f85d 7b04 	ldr.w	r7, [sp], #4
 8001252:	4770      	bx	lr
 8001254:	40021000 	.word	0x40021000

08001258 <MX_RNG_Init>:

/* USER CODE END 0 */

/* RNG init function */
void MX_RNG_Init(void)
{
 8001258:	b580      	push	{r7, lr}
 800125a:	af00      	add	r7, sp, #0

  /* Peripheral clock enable */
  LL_AHB2_GRP1_EnableClock(LL_AHB2_GRP1_PERIPH_RNG);
 800125c:	f04f 6080 	mov.w	r0, #67108864	; 0x4000000
 8001260:	f7ff ffe2 	bl	8001228 <LL_AHB2_GRP1_EnableClock>

  LL_RNG_Enable(RNG);
 8001264:	4802      	ldr	r0, [pc, #8]	; (8001270 <MX_RNG_Init+0x18>)
 8001266:	f7ff ffcf 	bl	8001208 <LL_RNG_Enable>

}
 800126a:	bf00      	nop
 800126c:	bd80      	pop	{r7, pc}
 800126e:	bf00      	nop
 8001270:	50060800 	.word	0x50060800

08001274 <MX_SPI3_Init>:
SPI_HandleTypeDef hspi3;
DMA_HandleTypeDef hdma_spi3_tx;

/* SPI3 init function */
void MX_SPI3_Init(void)
{
 8001274:	b580      	push	{r7, lr}
 8001276:	af00      	add	r7, sp, #0

  hspi3.Instance = SPI3;
 8001278:	4b1b      	ldr	r3, [pc, #108]	; (80012e8 <MX_SPI3_Init+0x74>)
 800127a:	4a1c      	ldr	r2, [pc, #112]	; (80012ec <MX_SPI3_Init+0x78>)
 800127c:	601a      	str	r2, [r3, #0]
  hspi3.Init.Mode = SPI_MODE_MASTER;
 800127e:	4b1a      	ldr	r3, [pc, #104]	; (80012e8 <MX_SPI3_Init+0x74>)
 8001280:	f44f 7282 	mov.w	r2, #260	; 0x104
 8001284:	605a      	str	r2, [r3, #4]
  hspi3.Init.Direction = SPI_DIRECTION_2LINES;
 8001286:	4b18      	ldr	r3, [pc, #96]	; (80012e8 <MX_SPI3_Init+0x74>)
 8001288:	2200      	movs	r2, #0
 800128a:	609a      	str	r2, [r3, #8]
  hspi3.Init.DataSize = SPI_DATASIZE_8BIT;
 800128c:	4b16      	ldr	r3, [pc, #88]	; (80012e8 <MX_SPI3_Init+0x74>)
 800128e:	f44f 62e0 	mov.w	r2, #1792	; 0x700
 8001292:	60da      	str	r2, [r3, #12]
  hspi3.Init.CLKPolarity = SPI_POLARITY_LOW;
 8001294:	4b14      	ldr	r3, [pc, #80]	; (80012e8 <MX_SPI3_Init+0x74>)
 8001296:	2200      	movs	r2, #0
 8001298:	611a      	str	r2, [r3, #16]
  hspi3.Init.CLKPhase = SPI_PHASE_1EDGE;
 800129a:	4b13      	ldr	r3, [pc, #76]	; (80012e8 <MX_SPI3_Init+0x74>)
 800129c:	2200      	movs	r2, #0
 800129e:	615a      	str	r2, [r3, #20]
  hspi3.Init.NSS = SPI_NSS_SOFT;
 80012a0:	4b11      	ldr	r3, [pc, #68]	; (80012e8 <MX_SPI3_Init+0x74>)
 80012a2:	f44f 7200 	mov.w	r2, #512	; 0x200
 80012a6:	619a      	str	r2, [r3, #24]
  hspi3.Init.BaudRatePrescaler = SPI_BAUDRATEPRESCALER_2;
 80012a8:	4b0f      	ldr	r3, [pc, #60]	; (80012e8 <MX_SPI3_Init+0x74>)
 80012aa:	2200      	movs	r2, #0
 80012ac:	61da      	str	r2, [r3, #28]
  hspi3.Init.FirstBit = SPI_FIRSTBIT_MSB;
 80012ae:	4b0e      	ldr	r3, [pc, #56]	; (80012e8 <MX_SPI3_Init+0x74>)
 80012b0:	2200      	movs	r2, #0
 80012b2:	621a      	str	r2, [r3, #32]
  hspi3.Init.TIMode = SPI_TIMODE_DISABLE;
 80012b4:	4b0c      	ldr	r3, [pc, #48]	; (80012e8 <MX_SPI3_Init+0x74>)
 80012b6:	2200      	movs	r2, #0
 80012b8:	625a      	str	r2, [r3, #36]	; 0x24
  hspi3.Init.CRCCalculation = SPI_CRCCALCULATION_DISABLE;
 80012ba:	4b0b      	ldr	r3, [pc, #44]	; (80012e8 <MX_SPI3_Init+0x74>)
 80012bc:	2200      	movs	r2, #0
 80012be:	629a      	str	r2, [r3, #40]	; 0x28
  hspi3.Init.CRCPolynomial = 7;
 80012c0:	4b09      	ldr	r3, [pc, #36]	; (80012e8 <MX_SPI3_Init+0x74>)
 80012c2:	2207      	movs	r2, #7
 80012c4:	62da      	str	r2, [r3, #44]	; 0x2c
  hspi3.Init.CRCLength = SPI_CRC_LENGTH_DATASIZE;
 80012c6:	4b08      	ldr	r3, [pc, #32]	; (80012e8 <MX_SPI3_Init+0x74>)
 80012c8:	2200      	movs	r2, #0
 80012ca:	631a      	str	r2, [r3, #48]	; 0x30
  hspi3.Init.NSSPMode = SPI_NSS_PULSE_ENABLE;
 80012cc:	4b06      	ldr	r3, [pc, #24]	; (80012e8 <MX_SPI3_Init+0x74>)
 80012ce:	2208      	movs	r2, #8
 80012d0:	635a      	str	r2, [r3, #52]	; 0x34
  if (HAL_SPI_Init(&hspi3) != HAL_OK)
 80012d2:	4805      	ldr	r0, [pc, #20]	; (80012e8 <MX_SPI3_Init+0x74>)
 80012d4:	f004 faf8 	bl	80058c8 <HAL_SPI_Init>
 80012d8:	4603      	mov	r3, r0
 80012da:	2b00      	cmp	r3, #0
 80012dc:	d001      	beq.n	80012e2 <MX_SPI3_Init+0x6e>
  {
    Error_Handler();
 80012de:	f7ff ff8c 	bl	80011fa <Error_Handler>
  }

}
 80012e2:	bf00      	nop
 80012e4:	bd80      	pop	{r7, pc}
 80012e6:	bf00      	nop
 80012e8:	200021d0 	.word	0x200021d0
 80012ec:	40003c00 	.word	0x40003c00

080012f0 <HAL_SPI_MspInit>:

void HAL_SPI_MspInit(SPI_HandleTypeDef* spiHandle)
{
 80012f0:	b580      	push	{r7, lr}
 80012f2:	b08a      	sub	sp, #40	; 0x28
 80012f4:	af00      	add	r7, sp, #0
 80012f6:	6078      	str	r0, [r7, #4]

  GPIO_InitTypeDef GPIO_InitStruct = {0};
 80012f8:	f107 0314 	add.w	r3, r7, #20
 80012fc:	2200      	movs	r2, #0
 80012fe:	601a      	str	r2, [r3, #0]
 8001300:	605a      	str	r2, [r3, #4]
 8001302:	609a      	str	r2, [r3, #8]
 8001304:	60da      	str	r2, [r3, #12]
 8001306:	611a      	str	r2, [r3, #16]
  if(spiHandle->Instance==SPI3)
 8001308:	687b      	ldr	r3, [r7, #4]
 800130a:	681b      	ldr	r3, [r3, #0]
 800130c:	4a2c      	ldr	r2, [pc, #176]	; (80013c0 <HAL_SPI_MspInit+0xd0>)
 800130e:	4293      	cmp	r3, r2
 8001310:	d151      	bne.n	80013b6 <HAL_SPI_MspInit+0xc6>
  {
  /* USER CODE BEGIN SPI3_MspInit 0 */

  /* USER CODE END SPI3_MspInit 0 */
    /* SPI3 clock enable */
    __HAL_RCC_SPI3_CLK_ENABLE();
 8001312:	4b2c      	ldr	r3, [pc, #176]	; (80013c4 <HAL_SPI_MspInit+0xd4>)
 8001314:	6d9b      	ldr	r3, [r3, #88]	; 0x58
 8001316:	4a2b      	ldr	r2, [pc, #172]	; (80013c4 <HAL_SPI_MspInit+0xd4>)
 8001318:	f443 4300 	orr.w	r3, r3, #32768	; 0x8000
 800131c:	6593      	str	r3, [r2, #88]	; 0x58
 800131e:	4b29      	ldr	r3, [pc, #164]	; (80013c4 <HAL_SPI_MspInit+0xd4>)
 8001320:	6d9b      	ldr	r3, [r3, #88]	; 0x58
 8001322:	f403 4300 	and.w	r3, r3, #32768	; 0x8000
 8001326:	613b      	str	r3, [r7, #16]
 8001328:	693b      	ldr	r3, [r7, #16]
  
    __HAL_RCC_GPIOC_CLK_ENABLE();
 800132a:	4b26      	ldr	r3, [pc, #152]	; (80013c4 <HAL_SPI_MspInit+0xd4>)
 800132c:	6cdb      	ldr	r3, [r3, #76]	; 0x4c
 800132e:	4a25      	ldr	r2, [pc, #148]	; (80013c4 <HAL_SPI_MspInit+0xd4>)
 8001330:	f043 0304 	orr.w	r3, r3, #4
 8001334:	64d3      	str	r3, [r2, #76]	; 0x4c
 8001336:	4b23      	ldr	r3, [pc, #140]	; (80013c4 <HAL_SPI_MspInit+0xd4>)
 8001338:	6cdb      	ldr	r3, [r3, #76]	; 0x4c
 800133a:	f003 0304 	and.w	r3, r3, #4
 800133e:	60fb      	str	r3, [r7, #12]
 8001340:	68fb      	ldr	r3, [r7, #12]
    /**SPI3 GPIO Configuration    
    PC10     ------> SPI3_SCK
    PC11     ------> SPI3_MISO
    PC12     ------> SPI3_MOSI 
    */
    GPIO_InitStruct.Pin = GPIO_PIN_10|GPIO_PIN_11|GPIO_PIN_12;
 8001342:	f44f 53e0 	mov.w	r3, #7168	; 0x1c00
 8001346:	617b      	str	r3, [r7, #20]
    GPIO_InitStruct.Mode = GPIO_MODE_AF_PP;
 8001348:	2302      	movs	r3, #2
 800134a:	61bb      	str	r3, [r7, #24]
    GPIO_InitStruct.Pull = GPIO_NOPULL;
 800134c:	2300      	movs	r3, #0
 800134e:	61fb      	str	r3, [r7, #28]
    GPIO_InitStruct.Speed = GPIO_SPEED_FREQ_LOW;
 8001350:	2300      	movs	r3, #0
 8001352:	623b      	str	r3, [r7, #32]
    GPIO_InitStruct.Alternate = GPIO_AF6_SPI3;
 8001354:	2306      	movs	r3, #6
 8001356:	627b      	str	r3, [r7, #36]	; 0x24
    HAL_GPIO_Init(GPIOC, &GPIO_InitStruct);
 8001358:	f107 0314 	add.w	r3, r7, #20
 800135c:	4619      	mov	r1, r3
 800135e:	481a      	ldr	r0, [pc, #104]	; (80013c8 <HAL_SPI_MspInit+0xd8>)
 8001360:	f003 f908 	bl	8004574 <HAL_GPIO_Init>

    /* SPI3 DMA Init */
    /* SPI3_TX Init */
    hdma_spi3_tx.Instance = DMA1_Channel4;
 8001364:	4b19      	ldr	r3, [pc, #100]	; (80013cc <HAL_SPI_MspInit+0xdc>)
 8001366:	4a1a      	ldr	r2, [pc, #104]	; (80013d0 <HAL_SPI_MspInit+0xe0>)
 8001368:	601a      	str	r2, [r3, #0]
    hdma_spi3_tx.Init.Request = DMA_REQUEST_SPI3_TX;
 800136a:	4b18      	ldr	r3, [pc, #96]	; (80013cc <HAL_SPI_MspInit+0xdc>)
 800136c:	220f      	movs	r2, #15
 800136e:	605a      	str	r2, [r3, #4]
    hdma_spi3_tx.Init.Direction = DMA_MEMORY_TO_PERIPH;
 8001370:	4b16      	ldr	r3, [pc, #88]	; (80013cc <HAL_SPI_MspInit+0xdc>)
 8001372:	2210      	movs	r2, #16
 8001374:	609a      	str	r2, [r3, #8]
    hdma_spi3_tx.Init.PeriphInc = DMA_PINC_DISABLE;
 8001376:	4b15      	ldr	r3, [pc, #84]	; (80013cc <HAL_SPI_MspInit+0xdc>)
 8001378:	2200      	movs	r2, #0
 800137a:	60da      	str	r2, [r3, #12]
    hdma_spi3_tx.Init.MemInc = DMA_MINC_ENABLE;
 800137c:	4b13      	ldr	r3, [pc, #76]	; (80013cc <HAL_SPI_MspInit+0xdc>)
 800137e:	2280      	movs	r2, #128	; 0x80
 8001380:	611a      	str	r2, [r3, #16]
    hdma_spi3_tx.Init.PeriphDataAlignment = DMA_PDATAALIGN_BYTE;
 8001382:	4b12      	ldr	r3, [pc, #72]	; (80013cc <HAL_SPI_MspInit+0xdc>)
 8001384:	2200      	movs	r2, #0
 8001386:	615a      	str	r2, [r3, #20]
    hdma_spi3_tx.Init.MemDataAlignment = DMA_MDATAALIGN_BYTE;
 8001388:	4b10      	ldr	r3, [pc, #64]	; (80013cc <HAL_SPI_MspInit+0xdc>)
 800138a:	2200      	movs	r2, #0
 800138c:	619a      	str	r2, [r3, #24]
    hdma_spi3_tx.Init.Mode = DMA_NORMAL;
 800138e:	4b0f      	ldr	r3, [pc, #60]	; (80013cc <HAL_SPI_MspInit+0xdc>)
 8001390:	2200      	movs	r2, #0
 8001392:	61da      	str	r2, [r3, #28]
    hdma_spi3_tx.Init.Priority = DMA_PRIORITY_LOW;
 8001394:	4b0d      	ldr	r3, [pc, #52]	; (80013cc <HAL_SPI_MspInit+0xdc>)
 8001396:	2200      	movs	r2, #0
 8001398:	621a      	str	r2, [r3, #32]
    if (HAL_DMA_Init(&hdma_spi3_tx) != HAL_OK)
 800139a:	480c      	ldr	r0, [pc, #48]	; (80013cc <HAL_SPI_MspInit+0xdc>)
 800139c:	f002 fe78 	bl	8004090 <HAL_DMA_Init>
 80013a0:	4603      	mov	r3, r0
 80013a2:	2b00      	cmp	r3, #0
 80013a4:	d001      	beq.n	80013aa <HAL_SPI_MspInit+0xba>
    {
      Error_Handler();
 80013a6:	f7ff ff28 	bl	80011fa <Error_Handler>
    }

    __HAL_LINKDMA(spiHandle,hdmatx,hdma_spi3_tx);
 80013aa:	687b      	ldr	r3, [r7, #4]
 80013ac:	4a07      	ldr	r2, [pc, #28]	; (80013cc <HAL_SPI_MspInit+0xdc>)
 80013ae:	655a      	str	r2, [r3, #84]	; 0x54
 80013b0:	4a06      	ldr	r2, [pc, #24]	; (80013cc <HAL_SPI_MspInit+0xdc>)
 80013b2:	687b      	ldr	r3, [r7, #4]
 80013b4:	6293      	str	r3, [r2, #40]	; 0x28

  /* USER CODE BEGIN SPI3_MspInit 1 */

  /* USER CODE END SPI3_MspInit 1 */
  }
}
 80013b6:	bf00      	nop
 80013b8:	3728      	adds	r7, #40	; 0x28
 80013ba:	46bd      	mov	sp, r7
 80013bc:	bd80      	pop	{r7, pc}
 80013be:	bf00      	nop
 80013c0:	40003c00 	.word	0x40003c00
 80013c4:	40021000 	.word	0x40021000
 80013c8:	48000800 	.word	0x48000800
 80013cc:	20002234 	.word	0x20002234
 80013d0:	40020044 	.word	0x40020044

080013d4 <LL_PWR_DisableUCPDDeadBattery>:
  *         control to the UCPD (which should therefore be initialized before doing the disable).
  * @rmtoll CR3          UCPD_DBDIS           LL_PWR_DisableUCPDDeadBattery
  * @retval None
  */
__STATIC_INLINE void LL_PWR_DisableUCPDDeadBattery(void)
{
 80013d4:	b480      	push	{r7}
 80013d6:	af00      	add	r7, sp, #0
  SET_BIT(PWR->CR3, PWR_CR3_UCPD_DBDIS);
 80013d8:	4b05      	ldr	r3, [pc, #20]	; (80013f0 <LL_PWR_DisableUCPDDeadBattery+0x1c>)
 80013da:	689b      	ldr	r3, [r3, #8]
 80013dc:	4a04      	ldr	r2, [pc, #16]	; (80013f0 <LL_PWR_DisableUCPDDeadBattery+0x1c>)
 80013de:	f443 4380 	orr.w	r3, r3, #16384	; 0x4000
 80013e2:	6093      	str	r3, [r2, #8]
}
 80013e4:	bf00      	nop
 80013e6:	46bd      	mov	sp, r7
 80013e8:	f85d 7b04 	ldr.w	r7, [sp], #4
 80013ec:	4770      	bx	lr
 80013ee:	bf00      	nop
 80013f0:	40007000 	.word	0x40007000

080013f4 <HAL_MspInit>:
/* USER CODE END 0 */
/**
  * Initializes the Global MSP.
  */
void HAL_MspInit(void)
{
 80013f4:	b580      	push	{r7, lr}
 80013f6:	b082      	sub	sp, #8
 80013f8:	af00      	add	r7, sp, #0
  /* USER CODE BEGIN MspInit 0 */

  /* USER CODE END MspInit 0 */

  __HAL_RCC_SYSCFG_CLK_ENABLE();
 80013fa:	4b0f      	ldr	r3, [pc, #60]	; (8001438 <HAL_MspInit+0x44>)
 80013fc:	6e1b      	ldr	r3, [r3, #96]	; 0x60
 80013fe:	4a0e      	ldr	r2, [pc, #56]	; (8001438 <HAL_MspInit+0x44>)
 8001400:	f043 0301 	orr.w	r3, r3, #1
 8001404:	6613      	str	r3, [r2, #96]	; 0x60
 8001406:	4b0c      	ldr	r3, [pc, #48]	; (8001438 <HAL_MspInit+0x44>)
 8001408:	6e1b      	ldr	r3, [r3, #96]	; 0x60
 800140a:	f003 0301 	and.w	r3, r3, #1
 800140e:	607b      	str	r3, [r7, #4]
 8001410:	687b      	ldr	r3, [r7, #4]
  __HAL_RCC_PWR_CLK_ENABLE();
 8001412:	4b09      	ldr	r3, [pc, #36]	; (8001438 <HAL_MspInit+0x44>)
 8001414:	6d9b      	ldr	r3, [r3, #88]	; 0x58
 8001416:	4a08      	ldr	r2, [pc, #32]	; (8001438 <HAL_MspInit+0x44>)
 8001418:	f043 5380 	orr.w	r3, r3, #268435456	; 0x10000000
 800141c:	6593      	str	r3, [r2, #88]	; 0x58
 800141e:	4b06      	ldr	r3, [pc, #24]	; (8001438 <HAL_MspInit+0x44>)
 8001420:	6d9b      	ldr	r3, [r3, #88]	; 0x58
 8001422:	f003 5380 	and.w	r3, r3, #268435456	; 0x10000000
 8001426:	603b      	str	r3, [r7, #0]
 8001428:	683b      	ldr	r3, [r7, #0]

  /* System interrupt init*/

  /** Disable the internal Pull-Up in Dead Battery pins of UCPD peripheral 
  */
  LL_PWR_DisableDeadBatteryPD();
 800142a:	f7ff ffd3 	bl	80013d4 <LL_PWR_DisableUCPDDeadBattery>

  /* USER CODE BEGIN MspInit 1 */

  /* USER CODE END MspInit 1 */
}
 800142e:	bf00      	nop
 8001430:	3708      	adds	r7, #8
 8001432:	46bd      	mov	sp, r7
 8001434:	bd80      	pop	{r7, pc}
 8001436:	bf00      	nop
 8001438:	40021000 	.word	0x40021000

0800143c <LL_EXTI_IsActiveFlag_0_31>:
  * @note   (*): Available in some devices
  * @note   Please check each device line mapping for EXTI Line availability
  * @retval State of bit (1 or 0).
  */
__STATIC_INLINE uint32_t LL_EXTI_IsActiveFlag_0_31(uint32_t ExtiLine)
{
 800143c:	b480      	push	{r7}
 800143e:	b083      	sub	sp, #12
 8001440:	af00      	add	r7, sp, #0
 8001442:	6078      	str	r0, [r7, #4]
  return ((READ_BIT(EXTI->PR1, ExtiLine) == (ExtiLine)) ? 1UL : 0UL);
 8001444:	4b07      	ldr	r3, [pc, #28]	; (8001464 <LL_EXTI_IsActiveFlag_0_31+0x28>)
 8001446:	695a      	ldr	r2, [r3, #20]
 8001448:	687b      	ldr	r3, [r7, #4]
 800144a:	4013      	ands	r3, r2
 800144c:	687a      	ldr	r2, [r7, #4]
 800144e:	429a      	cmp	r2, r3
 8001450:	d101      	bne.n	8001456 <LL_EXTI_IsActiveFlag_0_31+0x1a>
 8001452:	2301      	movs	r3, #1
 8001454:	e000      	b.n	8001458 <LL_EXTI_IsActiveFlag_0_31+0x1c>
 8001456:	2300      	movs	r3, #0
}
 8001458:	4618      	mov	r0, r3
 800145a:	370c      	adds	r7, #12
 800145c:	46bd      	mov	sp, r7
 800145e:	f85d 7b04 	ldr.w	r7, [sp], #4
 8001462:	4770      	bx	lr
 8001464:	40010400 	.word	0x40010400

08001468 <LL_EXTI_ClearFlag_0_31>:
  * @note   (*): Available in some devices
  * @note   Please check each device line mapping for EXTI Line availability
  * @retval None
  */
__STATIC_INLINE void LL_EXTI_ClearFlag_0_31(uint32_t ExtiLine)
{
 8001468:	b480      	push	{r7}
 800146a:	b083      	sub	sp, #12
 800146c:	af00      	add	r7, sp, #0
 800146e:	6078      	str	r0, [r7, #4]
  WRITE_REG(EXTI->PR1, ExtiLine);
 8001470:	4a04      	ldr	r2, [pc, #16]	; (8001484 <LL_EXTI_ClearFlag_0_31+0x1c>)
 8001472:	687b      	ldr	r3, [r7, #4]
 8001474:	6153      	str	r3, [r2, #20]
}
 8001476:	bf00      	nop
 8001478:	370c      	adds	r7, #12
 800147a:	46bd      	mov	sp, r7
 800147c:	f85d 7b04 	ldr.w	r7, [sp], #4
 8001480:	4770      	bx	lr
 8001482:	bf00      	nop
 8001484:	40010400 	.word	0x40010400

08001488 <LL_RNG_ReadRandData32>:
  * @rmtoll DR           RNDATA        LL_RNG_ReadRandData32
  * @param  RNGx RNG Instance
  * @retval Generated 32-bit random value
  */
__STATIC_INLINE uint32_t LL_RNG_ReadRandData32(RNG_TypeDef *RNGx)
{
 8001488:	b480      	push	{r7}
 800148a:	b083      	sub	sp, #12
 800148c:	af00      	add	r7, sp, #0
 800148e:	6078      	str	r0, [r7, #4]
  return (uint32_t)(READ_REG(RNGx->DR));
 8001490:	687b      	ldr	r3, [r7, #4]
 8001492:	689b      	ldr	r3, [r3, #8]
}
 8001494:	4618      	mov	r0, r3
 8001496:	370c      	adds	r7, #12
 8001498:	46bd      	mov	sp, r7
 800149a:	f85d 7b04 	ldr.w	r7, [sp], #4
 800149e:	4770      	bx	lr

080014a0 <update_tft>:
/* USER CODE END PFP */

/* Private user code ---------------------------------------------------------*/
/* USER CODE BEGIN 0 */
void update_tft()
{
 80014a0:	b580      	push	{r7, lr}
 80014a2:	b088      	sub	sp, #32
 80014a4:	af02      	add	r7, sp, #8
	  //----------------------------------------------------------FILLED CIRCLES EXAMPLE

	  			uint16_t xr = 0;
 80014a6:	2300      	movs	r3, #0
 80014a8:	82fb      	strh	r3, [r7, #22]
	  			uint16_t yr = 0;
 80014aa:	2300      	movs	r3, #0
 80014ac:	82bb      	strh	r3, [r7, #20]
	  			uint16_t radiusr = 0;
 80014ae:	2300      	movs	r3, #0
 80014b0:	827b      	strh	r3, [r7, #18]
	  			uint16_t colourr = 0;
 80014b2:	2300      	movs	r3, #0
 80014b4:	823b      	strh	r3, [r7, #16]
	  			xr = LL_RNG_ReadRandData32(RNG);
 80014b6:	4828      	ldr	r0, [pc, #160]	; (8001558 <update_tft+0xb8>)
 80014b8:	f7ff ffe6 	bl	8001488 <LL_RNG_ReadRandData32>
 80014bc:	4603      	mov	r3, r0
 80014be:	82fb      	strh	r3, [r7, #22]
	  			yr = LL_RNG_ReadRandData32(RNG);
 80014c0:	4825      	ldr	r0, [pc, #148]	; (8001558 <update_tft+0xb8>)
 80014c2:	f7ff ffe1 	bl	8001488 <LL_RNG_ReadRandData32>
 80014c6:	4603      	mov	r3, r0
 80014c8:	82bb      	strh	r3, [r7, #20]
	  			radiusr = LL_RNG_ReadRandData32(RNG);
 80014ca:	4823      	ldr	r0, [pc, #140]	; (8001558 <update_tft+0xb8>)
 80014cc:	f7ff ffdc 	bl	8001488 <LL_RNG_ReadRandData32>
 80014d0:	4603      	mov	r3, r0
 80014d2:	827b      	strh	r3, [r7, #18]
	  			colourr = LL_RNG_ReadRandData32(RNG);
 80014d4:	4820      	ldr	r0, [pc, #128]	; (8001558 <update_tft+0xb8>)
 80014d6:	f7ff ffd7 	bl	8001488 <LL_RNG_ReadRandData32>
 80014da:	4603      	mov	r3, r0
 80014dc:	823b      	strh	r3, [r7, #16]

	  			xr &= 0x01FF;
 80014de:	8afb      	ldrh	r3, [r7, #22]
 80014e0:	f3c3 0308 	ubfx	r3, r3, #0, #9
 80014e4:	82fb      	strh	r3, [r7, #22]
	  			yr &= 0x01FF;
 80014e6:	8abb      	ldrh	r3, [r7, #20]
 80014e8:	f3c3 0308 	ubfx	r3, r3, #0, #9
 80014ec:	82bb      	strh	r3, [r7, #20]
	  			radiusr &= 0x001F;
 80014ee:	8a7b      	ldrh	r3, [r7, #18]
 80014f0:	f003 031f 	and.w	r3, r3, #31
 80014f4:	827b      	strh	r3, [r7, #18]

	  			ILI9341_Draw_Filled_Circle(xr, yr, radiusr/2, colourr);
 80014f6:	8a7b      	ldrh	r3, [r7, #18]
 80014f8:	085b      	lsrs	r3, r3, #1
 80014fa:	b29a      	uxth	r2, r3
 80014fc:	8a3b      	ldrh	r3, [r7, #16]
 80014fe:	8ab9      	ldrh	r1, [r7, #20]
 8001500:	8af8      	ldrh	r0, [r7, #22]
 8001502:	f006 f9e7 	bl	80078d4 <ILI9341_Draw_Filled_Circle>

	  			char enc_buff[13] = "";
 8001506:	2300      	movs	r3, #0
 8001508:	603b      	str	r3, [r7, #0]
 800150a:	1d3b      	adds	r3, r7, #4
 800150c:	2200      	movs	r2, #0
 800150e:	601a      	str	r2, [r3, #0]
 8001510:	605a      	str	r2, [r3, #4]
 8001512:	721a      	strb	r2, [r3, #8]
	  			snprintf(enc_buff, sizeof(enc_buff), "%d\n", new_enc_value);
 8001514:	4b11      	ldr	r3, [pc, #68]	; (800155c <update_tft+0xbc>)
 8001516:	881b      	ldrh	r3, [r3, #0]
 8001518:	4638      	mov	r0, r7
 800151a:	4a11      	ldr	r2, [pc, #68]	; (8001560 <update_tft+0xc0>)
 800151c:	210d      	movs	r1, #13
 800151e:	f007 f80d 	bl	800853c <sniprintf>
	  			ILI9341_Draw_Text(enc_buff, 10, 20, BLACK, 5, WHITE);
 8001522:	4638      	mov	r0, r7
 8001524:	f64f 73ff 	movw	r3, #65535	; 0xffff
 8001528:	9301      	str	r3, [sp, #4]
 800152a:	2305      	movs	r3, #5
 800152c:	9300      	str	r3, [sp, #0]
 800152e:	2300      	movs	r3, #0
 8001530:	2214      	movs	r2, #20
 8001532:	210a      	movs	r1, #10
 8001534:	f006 faf0 	bl	8007b18 <ILI9341_Draw_Text>

	  			ILI9341_Draw_Text(control_pressed, 10, 60, BLACK, 5, WHITE);
 8001538:	f64f 73ff 	movw	r3, #65535	; 0xffff
 800153c:	9301      	str	r3, [sp, #4]
 800153e:	2305      	movs	r3, #5
 8001540:	9300      	str	r3, [sp, #0]
 8001542:	2300      	movs	r3, #0
 8001544:	223c      	movs	r2, #60	; 0x3c
 8001546:	210a      	movs	r1, #10
 8001548:	4806      	ldr	r0, [pc, #24]	; (8001564 <update_tft+0xc4>)
 800154a:	f006 fae5 	bl	8007b18 <ILI9341_Draw_Text>
	  		//HAL_Delay(1);
}
 800154e:	bf00      	nop
 8001550:	3718      	adds	r7, #24
 8001552:	46bd      	mov	sp, r7
 8001554:	bd80      	pop	{r7, pc}
 8001556:	bf00      	nop
 8001558:	50060800 	.word	0x50060800
 800155c:	20001fde 	.word	0x20001fde
 8001560:	080096c8 	.word	0x080096c8
 8001564:	20001fec 	.word	0x20001fec

08001568 <NMI_Handler>:
/******************************************************************************/
/**
  * @brief This function handles Non maskable interrupt.
  */
void NMI_Handler(void)
{
 8001568:	b480      	push	{r7}
 800156a:	af00      	add	r7, sp, #0

  /* USER CODE END NonMaskableInt_IRQn 0 */
  /* USER CODE BEGIN NonMaskableInt_IRQn 1 */

  /* USER CODE END NonMaskableInt_IRQn 1 */
}
 800156c:	bf00      	nop
 800156e:	46bd      	mov	sp, r7
 8001570:	f85d 7b04 	ldr.w	r7, [sp], #4
 8001574:	4770      	bx	lr

08001576 <HardFault_Handler>:

/**
  * @brief This function handles Hard fault interrupt.
  */
void HardFault_Handler(void)
{
 8001576:	b480      	push	{r7}
 8001578:	af00      	add	r7, sp, #0
  /* USER CODE BEGIN HardFault_IRQn 0 */

  /* USER CODE END HardFault_IRQn 0 */
  while (1)
 800157a:	e7fe      	b.n	800157a <HardFault_Handler+0x4>

0800157c <MemManage_Handler>:

/**
  * @brief This function handles Memory management fault.
  */
void MemManage_Handler(void)
{
 800157c:	b480      	push	{r7}
 800157e:	af00      	add	r7, sp, #0
  /* USER CODE BEGIN MemoryManagement_IRQn 0 */

  /* USER CODE END MemoryManagement_IRQn 0 */
  while (1)
 8001580:	e7fe      	b.n	8001580 <MemManage_Handler+0x4>

08001582 <BusFault_Handler>:

/**
  * @brief This function handles Prefetch fault, memory access fault.
  */
void BusFault_Handler(void)
{
 8001582:	b480      	push	{r7}
 8001584:	af00      	add	r7, sp, #0
  /* USER CODE BEGIN BusFault_IRQn 0 */

  /* USER CODE END BusFault_IRQn 0 */
  while (1)
 8001586:	e7fe      	b.n	8001586 <BusFault_Handler+0x4>

08001588 <UsageFault_Handler>:

/**
  * @brief This function handles Undefined instruction or illegal state.
  */
void UsageFault_Handler(void)
{
 8001588:	b480      	push	{r7}
 800158a:	af00      	add	r7, sp, #0
  /* USER CODE BEGIN UsageFault_IRQn 0 */

  /* USER CODE END UsageFault_IRQn 0 */
  while (1)
 800158c:	e7fe      	b.n	800158c <UsageFault_Handler+0x4>

0800158e <SVC_Handler>:

/**
  * @brief This function handles System service call via SWI instruction.
  */
void SVC_Handler(void)
{
 800158e:	b480      	push	{r7}
 8001590:	af00      	add	r7, sp, #0

  /* USER CODE END SVCall_IRQn 0 */
  /* USER CODE BEGIN SVCall_IRQn 1 */

  /* USER CODE END SVCall_IRQn 1 */
}
 8001592:	bf00      	nop
 8001594:	46bd      	mov	sp, r7
 8001596:	f85d 7b04 	ldr.w	r7, [sp], #4
 800159a:	4770      	bx	lr

0800159c <DebugMon_Handler>:

/**
  * @brief This function handles Debug monitor.
  */
void DebugMon_Handler(void)
{
 800159c:	b480      	push	{r7}
 800159e:	af00      	add	r7, sp, #0

  /* USER CODE END DebugMonitor_IRQn 0 */
  /* USER CODE BEGIN DebugMonitor_IRQn 1 */

  /* USER CODE END DebugMonitor_IRQn 1 */
}
 80015a0:	bf00      	nop
 80015a2:	46bd      	mov	sp, r7
 80015a4:	f85d 7b04 	ldr.w	r7, [sp], #4
 80015a8:	4770      	bx	lr

080015aa <PendSV_Handler>:

/**
  * @brief This function handles Pendable request for system service.
  */
void PendSV_Handler(void)
{
 80015aa:	b480      	push	{r7}
 80015ac:	af00      	add	r7, sp, #0

  /* USER CODE END PendSV_IRQn 0 */
  /* USER CODE BEGIN PendSV_IRQn 1 */

  /* USER CODE END PendSV_IRQn 1 */
}
 80015ae:	bf00      	nop
 80015b0:	46bd      	mov	sp, r7
 80015b2:	f85d 7b04 	ldr.w	r7, [sp], #4
 80015b6:	4770      	bx	lr

080015b8 <SysTick_Handler>:

/**
  * @brief This function handles System tick timer.
  */
void SysTick_Handler(void)
{
 80015b8:	b580      	push	{r7, lr}
 80015ba:	af00      	add	r7, sp, #0
  /* USER CODE BEGIN SysTick_IRQn 0 */

  /* USER CODE END SysTick_IRQn 0 */
  HAL_IncTick();
 80015bc:	f000 fd26 	bl	800200c <HAL_IncTick>
  /* USER CODE BEGIN SysTick_IRQn 1 */

  /* USER CODE END SysTick_IRQn 1 */
}
 80015c0:	bf00      	nop
 80015c2:	bd80      	pop	{r7, pc}

080015c4 <EXTI0_IRQHandler>:

/**
  * @brief This function handles EXTI line0 interrupt.
  */
void EXTI0_IRQHandler(void)
{
 80015c4:	b580      	push	{r7, lr}
 80015c6:	af00      	add	r7, sp, #0
  /* USER CODE BEGIN EXTI0_IRQn 0 */

//	if(HAL_GPIO_ReadPin(BTN3_EXTI0_GPIO_Port, BTN3_EXTI0_Pin))
//	{
		snprintf(control_pressed, sizeof(control_pressed), "BTN3");
 80015c8:	4b09      	ldr	r3, [pc, #36]	; (80015f0 <EXTI0_IRQHandler+0x2c>)
 80015ca:	4a0a      	ldr	r2, [pc, #40]	; (80015f4 <EXTI0_IRQHandler+0x30>)
 80015cc:	6810      	ldr	r0, [r2, #0]
 80015ce:	6018      	str	r0, [r3, #0]
 80015d0:	7912      	ldrb	r2, [r2, #4]
 80015d2:	711a      	strb	r2, [r3, #4]
 		printf("BTN3_EXTI0_Pin\n");
 80015d4:	4808      	ldr	r0, [pc, #32]	; (80015f8 <EXTI0_IRQHandler+0x34>)
 80015d6:	f006 ffa9 	bl	800852c <puts>
//	}

  /* USER CODE END EXTI0_IRQn 0 */
  if (LL_EXTI_IsActiveFlag_0_31(LL_EXTI_LINE_0) != RESET)
 80015da:	2001      	movs	r0, #1
 80015dc:	f7ff ff2e 	bl	800143c <LL_EXTI_IsActiveFlag_0_31>
 80015e0:	4603      	mov	r3, r0
 80015e2:	2b00      	cmp	r3, #0
 80015e4:	d002      	beq.n	80015ec <EXTI0_IRQHandler+0x28>
  {
    LL_EXTI_ClearFlag_0_31(LL_EXTI_LINE_0);
 80015e6:	2001      	movs	r0, #1
 80015e8:	f7ff ff3e 	bl	8001468 <LL_EXTI_ClearFlag_0_31>
    /* USER CODE END LL_EXTI_LINE_0 */
  }
  /* USER CODE BEGIN EXTI0_IRQn 1 */

  /* USER CODE END EXTI0_IRQn 1 */
}
 80015ec:	bf00      	nop
 80015ee:	bd80      	pop	{r7, pc}
 80015f0:	20001fec 	.word	0x20001fec
 80015f4:	080096cc 	.word	0x080096cc
 80015f8:	080096d4 	.word	0x080096d4

080015fc <EXTI1_IRQHandler>:

/**
  * @brief This function handles EXTI line1 interrupt.
  */
void EXTI1_IRQHandler(void)
{
 80015fc:	b580      	push	{r7, lr}
 80015fe:	af00      	add	r7, sp, #0
  /* USER CODE BEGIN EXTI1_IRQn 0 */

//	if(HAL_GPIO_ReadPin(BTN4_EXTI1_GPIO_Port, BTN4_EXTI1_Pin))
//	{
		snprintf(control_pressed, sizeof(control_pressed), "BTN4");
 8001600:	4b09      	ldr	r3, [pc, #36]	; (8001628 <EXTI1_IRQHandler+0x2c>)
 8001602:	4a0a      	ldr	r2, [pc, #40]	; (800162c <EXTI1_IRQHandler+0x30>)
 8001604:	6810      	ldr	r0, [r2, #0]
 8001606:	6018      	str	r0, [r3, #0]
 8001608:	7912      	ldrb	r2, [r2, #4]
 800160a:	711a      	strb	r2, [r3, #4]
		printf("BTN4_EXTI1_Pin\n");
 800160c:	4808      	ldr	r0, [pc, #32]	; (8001630 <EXTI1_IRQHandler+0x34>)
 800160e:	f006 ff8d 	bl	800852c <puts>
//	}

  /* USER CODE END EXTI1_IRQn 0 */
  if (LL_EXTI_IsActiveFlag_0_31(LL_EXTI_LINE_1) != RESET)
 8001612:	2002      	movs	r0, #2
 8001614:	f7ff ff12 	bl	800143c <LL_EXTI_IsActiveFlag_0_31>
 8001618:	4603      	mov	r3, r0
 800161a:	2b00      	cmp	r3, #0
 800161c:	d002      	beq.n	8001624 <EXTI1_IRQHandler+0x28>
  {
    LL_EXTI_ClearFlag_0_31(LL_EXTI_LINE_1);
 800161e:	2002      	movs	r0, #2
 8001620:	f7ff ff22 	bl	8001468 <LL_EXTI_ClearFlag_0_31>
    /* USER CODE END LL_EXTI_LINE_1 */
  }
  /* USER CODE BEGIN EXTI1_IRQn 1 */

  /* USER CODE END EXTI1_IRQn 1 */
}
 8001624:	bf00      	nop
 8001626:	bd80      	pop	{r7, pc}
 8001628:	20001fec 	.word	0x20001fec
 800162c:	080096e4 	.word	0x080096e4
 8001630:	080096ec 	.word	0x080096ec

08001634 <EXTI2_IRQHandler>:

/**
  * @brief This function handles EXTI line2 interrupt.
  */
void EXTI2_IRQHandler(void)
{
 8001634:	b580      	push	{r7, lr}
 8001636:	af00      	add	r7, sp, #0
  /* USER CODE BEGIN EXTI2_IRQn 0 */


		snprintf(control_pressed, sizeof(control_pressed), "ENC_BTN");
 8001638:	4a09      	ldr	r2, [pc, #36]	; (8001660 <EXTI2_IRQHandler+0x2c>)
 800163a:	4b0a      	ldr	r3, [pc, #40]	; (8001664 <EXTI2_IRQHandler+0x30>)
 800163c:	cb03      	ldmia	r3!, {r0, r1}
 800163e:	6010      	str	r0, [r2, #0]
 8001640:	6051      	str	r1, [r2, #4]
		printf("ENC_EXTI2_Pin\n");
 8001642:	4809      	ldr	r0, [pc, #36]	; (8001668 <EXTI2_IRQHandler+0x34>)
 8001644:	f006 ff72 	bl	800852c <puts>


  /* USER CODE END EXTI2_IRQn 0 */
  if (LL_EXTI_IsActiveFlag_0_31(LL_EXTI_LINE_2) != RESET)
 8001648:	2004      	movs	r0, #4
 800164a:	f7ff fef7 	bl	800143c <LL_EXTI_IsActiveFlag_0_31>
 800164e:	4603      	mov	r3, r0
 8001650:	2b00      	cmp	r3, #0
 8001652:	d002      	beq.n	800165a <EXTI2_IRQHandler+0x26>
  {
    LL_EXTI_ClearFlag_0_31(LL_EXTI_LINE_2);
 8001654:	2004      	movs	r0, #4
 8001656:	f7ff ff07 	bl	8001468 <LL_EXTI_ClearFlag_0_31>
    /* USER CODE END LL_EXTI_LINE_2 */
  }
  /* USER CODE BEGIN EXTI2_IRQn 1 */

  /* USER CODE END EXTI2_IRQn 1 */
}
 800165a:	bf00      	nop
 800165c:	bd80      	pop	{r7, pc}
 800165e:	bf00      	nop
 8001660:	20001fec 	.word	0x20001fec
 8001664:	080096fc 	.word	0x080096fc
 8001668:	08009704 	.word	0x08009704

0800166c <DMA1_Channel1_IRQHandler>:

/**
  * @brief This function handles DMA1 channel1 global interrupt.
  */
void DMA1_Channel1_IRQHandler(void)
{
 800166c:	b580      	push	{r7, lr}
 800166e:	af00      	add	r7, sp, #0
  /* USER CODE BEGIN DMA1_Channel1_IRQn 0 */
	//printf("Test\n");
	//printf("%lu\n", trigger_input[0]);
  /* USER CODE END DMA1_Channel1_IRQn 0 */
  HAL_DMA_IRQHandler(&hdma_adc1);
 8001670:	4802      	ldr	r0, [pc, #8]	; (800167c <DMA1_Channel1_IRQHandler+0x10>)
 8001672:	f002 fe30 	bl	80042d6 <HAL_DMA_IRQHandler>
  /* USER CODE BEGIN DMA1_Channel1_IRQn 1 */

  /* USER CODE END DMA1_Channel1_IRQn 1 */
}
 8001676:	bf00      	nop
 8001678:	bd80      	pop	{r7, pc}
 800167a:	bf00      	nop
 800167c:	20002064 	.word	0x20002064

08001680 <DMA1_Channel2_IRQHandler>:

/**
  * @brief This function handles DMA1 channel2 global interrupt.
  */
void DMA1_Channel2_IRQHandler(void)
{
 8001680:	b580      	push	{r7, lr}
 8001682:	af00      	add	r7, sp, #0
  /* USER CODE BEGIN DMA1_Channel2_IRQn 0 */

  /* USER CODE END DMA1_Channel2_IRQn 0 */
  HAL_DMA_IRQHandler(&hdma_dac1_ch1);
 8001684:	4802      	ldr	r0, [pc, #8]	; (8001690 <DMA1_Channel2_IRQHandler+0x10>)
 8001686:	f002 fe26 	bl	80042d6 <HAL_DMA_IRQHandler>
  /* USER CODE BEGIN DMA1_Channel2_IRQn 1 */

  /* USER CODE END DMA1_Channel2_IRQn 1 */
}
 800168a:	bf00      	nop
 800168c:	bd80      	pop	{r7, pc}
 800168e:	bf00      	nop
 8001690:	20002110 	.word	0x20002110

08001694 <DMA1_Channel3_IRQHandler>:

/**
  * @brief This function handles DMA1 channel3 global interrupt.
  */
void DMA1_Channel3_IRQHandler(void)
{
 8001694:	b580      	push	{r7, lr}
 8001696:	af00      	add	r7, sp, #0
  /* USER CODE BEGIN DMA1_Channel3_IRQn 0 */

  /* USER CODE END DMA1_Channel3_IRQn 0 */
  HAL_DMA_IRQHandler(&hdma_dac2_ch1);
 8001698:	4802      	ldr	r0, [pc, #8]	; (80016a4 <DMA1_Channel3_IRQHandler+0x10>)
 800169a:	f002 fe1c 	bl	80042d6 <HAL_DMA_IRQHandler>
  /* USER CODE BEGIN DMA1_Channel3_IRQn 1 */

  /* USER CODE END DMA1_Channel3_IRQn 1 */
}
 800169e:	bf00      	nop
 80016a0:	bd80      	pop	{r7, pc}
 80016a2:	bf00      	nop
 80016a4:	20002170 	.word	0x20002170

080016a8 <DMA1_Channel4_IRQHandler>:

/**
  * @brief This function handles DMA1 channel4 global interrupt.
  */
void DMA1_Channel4_IRQHandler(void)
{
 80016a8:	b580      	push	{r7, lr}
 80016aa:	af00      	add	r7, sp, #0
  /* USER CODE BEGIN DMA1_Channel4_IRQn 0 */

  /* USER CODE END DMA1_Channel4_IRQn 0 */
  HAL_DMA_IRQHandler(&hdma_spi3_tx);
 80016ac:	4802      	ldr	r0, [pc, #8]	; (80016b8 <DMA1_Channel4_IRQHandler+0x10>)
 80016ae:	f002 fe12 	bl	80042d6 <HAL_DMA_IRQHandler>
  /* USER CODE BEGIN DMA1_Channel4_IRQn 1 */

  /* USER CODE END DMA1_Channel4_IRQn 1 */
}
 80016b2:	bf00      	nop
 80016b4:	bd80      	pop	{r7, pc}
 80016b6:	bf00      	nop
 80016b8:	20002234 	.word	0x20002234

080016bc <TIM1_BRK_TIM15_IRQHandler>:

/**
  * @brief This function handles TIM1 break interrupt and TIM15 global interrupt.
  */
void TIM1_BRK_TIM15_IRQHandler(void)
{
 80016bc:	b580      	push	{r7, lr}
 80016be:	af00      	add	r7, sp, #0
  /* USER CODE BEGIN TIM1_BRK_TIM15_IRQn 0 */
	update_tft();
 80016c0:	f7ff feee 	bl	80014a0 <update_tft>
  /* USER CODE END TIM1_BRK_TIM15_IRQn 0 */
  HAL_TIM_IRQHandler(&htim1);
 80016c4:	4803      	ldr	r0, [pc, #12]	; (80016d4 <TIM1_BRK_TIM15_IRQHandler+0x18>)
 80016c6:	f004 ff01 	bl	80064cc <HAL_TIM_IRQHandler>
  HAL_TIM_IRQHandler(&htim15);
 80016ca:	4803      	ldr	r0, [pc, #12]	; (80016d8 <TIM1_BRK_TIM15_IRQHandler+0x1c>)
 80016cc:	f004 fefe 	bl	80064cc <HAL_TIM_IRQHandler>
  /* USER CODE BEGIN TIM1_BRK_TIM15_IRQn 1 */

  /* USER CODE END TIM1_BRK_TIM15_IRQn 1 */
}
 80016d0:	bf00      	nop
 80016d2:	bd80      	pop	{r7, pc}
 80016d4:	20002378 	.word	0x20002378
 80016d8:	200022e0 	.word	0x200022e0

080016dc <TIM1_UP_TIM16_IRQHandler>:

/**
  * @brief This function handles TIM1 update interrupt and TIM16 global interrupt.
  */
void TIM1_UP_TIM16_IRQHandler(void)
{
 80016dc:	b580      	push	{r7, lr}
 80016de:	af00      	add	r7, sp, #0
  /* USER CODE BEGIN TIM1_UP_TIM16_IRQn 0 */
	snprintf(control_pressed, sizeof(control_pressed), " ");
 80016e0:	4a05      	ldr	r2, [pc, #20]	; (80016f8 <TIM1_UP_TIM16_IRQHandler+0x1c>)
 80016e2:	4b06      	ldr	r3, [pc, #24]	; (80016fc <TIM1_UP_TIM16_IRQHandler+0x20>)
 80016e4:	881b      	ldrh	r3, [r3, #0]
 80016e6:	8013      	strh	r3, [r2, #0]
  /* USER CODE END TIM1_UP_TIM16_IRQn 0 */
  HAL_TIM_IRQHandler(&htim1);
 80016e8:	4805      	ldr	r0, [pc, #20]	; (8001700 <TIM1_UP_TIM16_IRQHandler+0x24>)
 80016ea:	f004 feef 	bl	80064cc <HAL_TIM_IRQHandler>
  HAL_TIM_IRQHandler(&htim16);
 80016ee:	4805      	ldr	r0, [pc, #20]	; (8001704 <TIM1_UP_TIM16_IRQHandler+0x28>)
 80016f0:	f004 feec 	bl	80064cc <HAL_TIM_IRQHandler>
  /* USER CODE BEGIN TIM1_UP_TIM16_IRQn 1 */

  /* USER CODE END TIM1_UP_TIM16_IRQn 1 */
}
 80016f4:	bf00      	nop
 80016f6:	bd80      	pop	{r7, pc}
 80016f8:	20001fec 	.word	0x20001fec
 80016fc:	08009714 	.word	0x08009714
 8001700:	20002378 	.word	0x20002378
 8001704:	20002410 	.word	0x20002410

08001708 <TIM1_TRG_COM_TIM17_IRQHandler>:

/**
  * @brief This function handles TIM1 trigger and commutation interrupts and TIM17 global interrupt.
  */
void TIM1_TRG_COM_TIM17_IRQHandler(void)
{
 8001708:	b580      	push	{r7, lr}
 800170a:	af00      	add	r7, sp, #0
  /* USER CODE BEGIN TIM1_TRG_COM_TIM17_IRQn 0 */
	update_dc_bias_sweep();
 800170c:	f7ff f8a4 	bl	8000858 <update_dc_bias_sweep>
	if((TIM1->CNT < last_enc_value) || (TIM1->CNT > last_enc_value))
 8001710:	4b11      	ldr	r3, [pc, #68]	; (8001758 <TIM1_TRG_COM_TIM17_IRQHandler+0x50>)
 8001712:	6a5b      	ldr	r3, [r3, #36]	; 0x24
 8001714:	4a11      	ldr	r2, [pc, #68]	; (800175c <TIM1_TRG_COM_TIM17_IRQHandler+0x54>)
 8001716:	8812      	ldrh	r2, [r2, #0]
 8001718:	4293      	cmp	r3, r2
 800171a:	d305      	bcc.n	8001728 <TIM1_TRG_COM_TIM17_IRQHandler+0x20>
 800171c:	4b0e      	ldr	r3, [pc, #56]	; (8001758 <TIM1_TRG_COM_TIM17_IRQHandler+0x50>)
 800171e:	6a5b      	ldr	r3, [r3, #36]	; 0x24
 8001720:	4a0e      	ldr	r2, [pc, #56]	; (800175c <TIM1_TRG_COM_TIM17_IRQHandler+0x54>)
 8001722:	8812      	ldrh	r2, [r2, #0]
 8001724:	4293      	cmp	r3, r2
 8001726:	d90a      	bls.n	800173e <TIM1_TRG_COM_TIM17_IRQHandler+0x36>
	{
		printf("%lu\n",TIM1->CNT);
 8001728:	4b0b      	ldr	r3, [pc, #44]	; (8001758 <TIM1_TRG_COM_TIM17_IRQHandler+0x50>)
 800172a:	6a5b      	ldr	r3, [r3, #36]	; 0x24
 800172c:	4619      	mov	r1, r3
 800172e:	480c      	ldr	r0, [pc, #48]	; (8001760 <TIM1_TRG_COM_TIM17_IRQHandler+0x58>)
 8001730:	f006 fe88 	bl	8008444 <iprintf>
		new_enc_value = TIM1->CNT;
 8001734:	4b08      	ldr	r3, [pc, #32]	; (8001758 <TIM1_TRG_COM_TIM17_IRQHandler+0x50>)
 8001736:	6a5b      	ldr	r3, [r3, #36]	; 0x24
 8001738:	b29a      	uxth	r2, r3
 800173a:	4b0a      	ldr	r3, [pc, #40]	; (8001764 <TIM1_TRG_COM_TIM17_IRQHandler+0x5c>)
 800173c:	801a      	strh	r2, [r3, #0]
	}


	last_enc_value = TIM1->CNT;
 800173e:	4b06      	ldr	r3, [pc, #24]	; (8001758 <TIM1_TRG_COM_TIM17_IRQHandler+0x50>)
 8001740:	6a5b      	ldr	r3, [r3, #36]	; 0x24
 8001742:	b29a      	uxth	r2, r3
 8001744:	4b05      	ldr	r3, [pc, #20]	; (800175c <TIM1_TRG_COM_TIM17_IRQHandler+0x54>)
 8001746:	801a      	strh	r2, [r3, #0]


  /* USER CODE END TIM1_TRG_COM_TIM17_IRQn 0 */
  HAL_TIM_IRQHandler(&htim1);
 8001748:	4807      	ldr	r0, [pc, #28]	; (8001768 <TIM1_TRG_COM_TIM17_IRQHandler+0x60>)
 800174a:	f004 febf 	bl	80064cc <HAL_TIM_IRQHandler>
  HAL_TIM_IRQHandler(&htim17);
 800174e:	4807      	ldr	r0, [pc, #28]	; (800176c <TIM1_TRG_COM_TIM17_IRQHandler+0x64>)
 8001750:	f004 febc 	bl	80064cc <HAL_TIM_IRQHandler>
  /* USER CODE BEGIN TIM1_TRG_COM_TIM17_IRQn 1 */

  /* USER CODE END TIM1_TRG_COM_TIM17_IRQn 1 */
}
 8001754:	bf00      	nop
 8001756:	bd80      	pop	{r7, pc}
 8001758:	40012c00 	.word	0x40012c00
 800175c:	20001fdc 	.word	0x20001fdc
 8001760:	08009718 	.word	0x08009718
 8001764:	20001fde 	.word	0x20001fde
 8001768:	20002378 	.word	0x20002378
 800176c:	2000232c 	.word	0x2000232c

08001770 <TIM2_IRQHandler>:

/**
  * @brief This function handles TIM2 global interrupt.
  */
void TIM2_IRQHandler(void)
{
 8001770:	b580      	push	{r7, lr}
 8001772:	af00      	add	r7, sp, #0
  /* USER CODE BEGIN TIM2_IRQn 0 */

  /* USER CODE END TIM2_IRQn 0 */
  HAL_TIM_IRQHandler(&htim2);
 8001774:	4802      	ldr	r0, [pc, #8]	; (8001780 <TIM2_IRQHandler+0x10>)
 8001776:	f004 fea9 	bl	80064cc <HAL_TIM_IRQHandler>
  /* USER CODE BEGIN TIM2_IRQn 1 */

  /* USER CODE END TIM2_IRQn 1 */
}
 800177a:	bf00      	nop
 800177c:	bd80      	pop	{r7, pc}
 800177e:	bf00      	nop
 8001780:	200023c4 	.word	0x200023c4

08001784 <EXTI15_10_IRQHandler>:

/**
  * @brief This function handles EXTI line[15:10] interrupts.
  */
void EXTI15_10_IRQHandler(void)
{
 8001784:	b580      	push	{r7, lr}
 8001786:	af00      	add	r7, sp, #0
  /* USER CODE BEGIN EXTI15_10_IRQn 0 */

	if(HAL_GPIO_ReadPin(BTN1_EXTI14_GPIO_Port, BTN1_EXTI14_Pin))
 8001788:	f44f 4180 	mov.w	r1, #16384	; 0x4000
 800178c:	481b      	ldr	r0, [pc, #108]	; (80017fc <EXTI15_10_IRQHandler+0x78>)
 800178e:	f003 f873 	bl	8004878 <HAL_GPIO_ReadPin>
 8001792:	4603      	mov	r3, r0
 8001794:	2b00      	cmp	r3, #0
 8001796:	d008      	beq.n	80017aa <EXTI15_10_IRQHandler+0x26>
	{
		snprintf(control_pressed, sizeof(control_pressed), "BTN1");
 8001798:	4b19      	ldr	r3, [pc, #100]	; (8001800 <EXTI15_10_IRQHandler+0x7c>)
 800179a:	4a1a      	ldr	r2, [pc, #104]	; (8001804 <EXTI15_10_IRQHandler+0x80>)
 800179c:	6810      	ldr	r0, [r2, #0]
 800179e:	6018      	str	r0, [r3, #0]
 80017a0:	7912      	ldrb	r2, [r2, #4]
 80017a2:	711a      	strb	r2, [r3, #4]
		printf("BTN1_EXTI14_Pin\n");
 80017a4:	4818      	ldr	r0, [pc, #96]	; (8001808 <EXTI15_10_IRQHandler+0x84>)
 80017a6:	f006 fec1 	bl	800852c <puts>
	}
	if(HAL_GPIO_ReadPin(BTN2_EXTI15_GPIO_Port, BTN2_EXTI15_Pin))
 80017aa:	f44f 4100 	mov.w	r1, #32768	; 0x8000
 80017ae:	4813      	ldr	r0, [pc, #76]	; (80017fc <EXTI15_10_IRQHandler+0x78>)
 80017b0:	f003 f862 	bl	8004878 <HAL_GPIO_ReadPin>
 80017b4:	4603      	mov	r3, r0
 80017b6:	2b00      	cmp	r3, #0
 80017b8:	d008      	beq.n	80017cc <EXTI15_10_IRQHandler+0x48>
	{
		snprintf(control_pressed, sizeof(control_pressed), "BTN2");
 80017ba:	4b11      	ldr	r3, [pc, #68]	; (8001800 <EXTI15_10_IRQHandler+0x7c>)
 80017bc:	4a13      	ldr	r2, [pc, #76]	; (800180c <EXTI15_10_IRQHandler+0x88>)
 80017be:	6810      	ldr	r0, [r2, #0]
 80017c0:	6018      	str	r0, [r3, #0]
 80017c2:	7912      	ldrb	r2, [r2, #4]
 80017c4:	711a      	strb	r2, [r3, #4]
		printf("BTN2_EXTI15_Pin\n");
 80017c6:	4812      	ldr	r0, [pc, #72]	; (8001810 <EXTI15_10_IRQHandler+0x8c>)
 80017c8:	f006 feb0 	bl	800852c <puts>
	}

  /* USER CODE END EXTI15_10_IRQn 0 */
  if (LL_EXTI_IsActiveFlag_0_31(LL_EXTI_LINE_14) != RESET)
 80017cc:	f44f 4080 	mov.w	r0, #16384	; 0x4000
 80017d0:	f7ff fe34 	bl	800143c <LL_EXTI_IsActiveFlag_0_31>
 80017d4:	4603      	mov	r3, r0
 80017d6:	2b00      	cmp	r3, #0
 80017d8:	d003      	beq.n	80017e2 <EXTI15_10_IRQHandler+0x5e>
  {
    LL_EXTI_ClearFlag_0_31(LL_EXTI_LINE_14);
 80017da:	f44f 4080 	mov.w	r0, #16384	; 0x4000
 80017de:	f7ff fe43 	bl	8001468 <LL_EXTI_ClearFlag_0_31>
    /* USER CODE BEGIN LL_EXTI_LINE_14 */
    
    /* USER CODE END LL_EXTI_LINE_14 */
  }
  if (LL_EXTI_IsActiveFlag_0_31(LL_EXTI_LINE_15) != RESET)
 80017e2:	f44f 4000 	mov.w	r0, #32768	; 0x8000
 80017e6:	f7ff fe29 	bl	800143c <LL_EXTI_IsActiveFlag_0_31>
 80017ea:	4603      	mov	r3, r0
 80017ec:	2b00      	cmp	r3, #0
 80017ee:	d003      	beq.n	80017f8 <EXTI15_10_IRQHandler+0x74>
  {
    LL_EXTI_ClearFlag_0_31(LL_EXTI_LINE_15);
 80017f0:	f44f 4000 	mov.w	r0, #32768	; 0x8000
 80017f4:	f7ff fe38 	bl	8001468 <LL_EXTI_ClearFlag_0_31>
    /* USER CODE END LL_EXTI_LINE_15 */
  }
  /* USER CODE BEGIN EXTI15_10_IRQn 1 */

  /* USER CODE END EXTI15_10_IRQn 1 */
}
 80017f8:	bf00      	nop
 80017fa:	bd80      	pop	{r7, pc}
 80017fc:	48000800 	.word	0x48000800
 8001800:	20001fec 	.word	0x20001fec
 8001804:	08009720 	.word	0x08009720
 8001808:	08009728 	.word	0x08009728
 800180c:	08009738 	.word	0x08009738
 8001810:	08009740 	.word	0x08009740

08001814 <_read>:
	_kill(status, -1);
	while (1) {}		/* Make sure we hang here */
}

__attribute__((weak)) int _read(int file, char *ptr, int len)
{
 8001814:	b580      	push	{r7, lr}
 8001816:	b086      	sub	sp, #24
 8001818:	af00      	add	r7, sp, #0
 800181a:	60f8      	str	r0, [r7, #12]
 800181c:	60b9      	str	r1, [r7, #8]
 800181e:	607a      	str	r2, [r7, #4]
	int DataIdx;

	for (DataIdx = 0; DataIdx < len; DataIdx++)
 8001820:	2300      	movs	r3, #0
 8001822:	617b      	str	r3, [r7, #20]
 8001824:	e00a      	b.n	800183c <_read+0x28>
	{
		*ptr++ = __io_getchar();
 8001826:	f3af 8000 	nop.w
 800182a:	4601      	mov	r1, r0
 800182c:	68bb      	ldr	r3, [r7, #8]
 800182e:	1c5a      	adds	r2, r3, #1
 8001830:	60ba      	str	r2, [r7, #8]
 8001832:	b2ca      	uxtb	r2, r1
 8001834:	701a      	strb	r2, [r3, #0]
	for (DataIdx = 0; DataIdx < len; DataIdx++)
 8001836:	697b      	ldr	r3, [r7, #20]
 8001838:	3301      	adds	r3, #1
 800183a:	617b      	str	r3, [r7, #20]
 800183c:	697a      	ldr	r2, [r7, #20]
 800183e:	687b      	ldr	r3, [r7, #4]
 8001840:	429a      	cmp	r2, r3
 8001842:	dbf0      	blt.n	8001826 <_read+0x12>
	}

return len;
 8001844:	687b      	ldr	r3, [r7, #4]
}
 8001846:	4618      	mov	r0, r3
 8001848:	3718      	adds	r7, #24
 800184a:	46bd      	mov	sp, r7
 800184c:	bd80      	pop	{r7, pc}

0800184e <_close>:
	}
	return len;
}

int _close(int file)
{
 800184e:	b480      	push	{r7}
 8001850:	b083      	sub	sp, #12
 8001852:	af00      	add	r7, sp, #0
 8001854:	6078      	str	r0, [r7, #4]
	return -1;
 8001856:	f04f 33ff 	mov.w	r3, #4294967295	; 0xffffffff
}
 800185a:	4618      	mov	r0, r3
 800185c:	370c      	adds	r7, #12
 800185e:	46bd      	mov	sp, r7
 8001860:	f85d 7b04 	ldr.w	r7, [sp], #4
 8001864:	4770      	bx	lr

08001866 <_fstat>:


int _fstat(int file, struct stat *st)
{
 8001866:	b480      	push	{r7}
 8001868:	b083      	sub	sp, #12
 800186a:	af00      	add	r7, sp, #0
 800186c:	6078      	str	r0, [r7, #4]
 800186e:	6039      	str	r1, [r7, #0]
	st->st_mode = S_IFCHR;
 8001870:	683b      	ldr	r3, [r7, #0]
 8001872:	f44f 5200 	mov.w	r2, #8192	; 0x2000
 8001876:	605a      	str	r2, [r3, #4]
	return 0;
 8001878:	2300      	movs	r3, #0
}
 800187a:	4618      	mov	r0, r3
 800187c:	370c      	adds	r7, #12
 800187e:	46bd      	mov	sp, r7
 8001880:	f85d 7b04 	ldr.w	r7, [sp], #4
 8001884:	4770      	bx	lr

08001886 <_isatty>:

int _isatty(int file)
{
 8001886:	b480      	push	{r7}
 8001888:	b083      	sub	sp, #12
 800188a:	af00      	add	r7, sp, #0
 800188c:	6078      	str	r0, [r7, #4]
	return 1;
 800188e:	2301      	movs	r3, #1
}
 8001890:	4618      	mov	r0, r3
 8001892:	370c      	adds	r7, #12
 8001894:	46bd      	mov	sp, r7
 8001896:	f85d 7b04 	ldr.w	r7, [sp], #4
 800189a:	4770      	bx	lr

0800189c <_lseek>:

int _lseek(int file, int ptr, int dir)
{
 800189c:	b480      	push	{r7}
 800189e:	b085      	sub	sp, #20
 80018a0:	af00      	add	r7, sp, #0
 80018a2:	60f8      	str	r0, [r7, #12]
 80018a4:	60b9      	str	r1, [r7, #8]
 80018a6:	607a      	str	r2, [r7, #4]
	return 0;
 80018a8:	2300      	movs	r3, #0
}
 80018aa:	4618      	mov	r0, r3
 80018ac:	3714      	adds	r7, #20
 80018ae:	46bd      	mov	sp, r7
 80018b0:	f85d 7b04 	ldr.w	r7, [sp], #4
 80018b4:	4770      	bx	lr
	...

080018b8 <_sbrk>:
/**
 _sbrk
 Increase program data space. Malloc and related functions depend on this
**/
caddr_t _sbrk(int incr)
{
 80018b8:	b580      	push	{r7, lr}
 80018ba:	b084      	sub	sp, #16
 80018bc:	af00      	add	r7, sp, #0
 80018be:	6078      	str	r0, [r7, #4]
	extern char end asm("end");
	static char *heap_end;
	char *prev_heap_end;

	if (heap_end == 0)
 80018c0:	4b11      	ldr	r3, [pc, #68]	; (8001908 <_sbrk+0x50>)
 80018c2:	681b      	ldr	r3, [r3, #0]
 80018c4:	2b00      	cmp	r3, #0
 80018c6:	d102      	bne.n	80018ce <_sbrk+0x16>
		heap_end = &end;
 80018c8:	4b0f      	ldr	r3, [pc, #60]	; (8001908 <_sbrk+0x50>)
 80018ca:	4a10      	ldr	r2, [pc, #64]	; (800190c <_sbrk+0x54>)
 80018cc:	601a      	str	r2, [r3, #0]

	prev_heap_end = heap_end;
 80018ce:	4b0e      	ldr	r3, [pc, #56]	; (8001908 <_sbrk+0x50>)
 80018d0:	681b      	ldr	r3, [r3, #0]
 80018d2:	60fb      	str	r3, [r7, #12]
	if (heap_end + incr > stack_ptr)
 80018d4:	4b0c      	ldr	r3, [pc, #48]	; (8001908 <_sbrk+0x50>)
 80018d6:	681a      	ldr	r2, [r3, #0]
 80018d8:	687b      	ldr	r3, [r7, #4]
 80018da:	4413      	add	r3, r2
 80018dc:	466a      	mov	r2, sp
 80018de:	4293      	cmp	r3, r2
 80018e0:	d907      	bls.n	80018f2 <_sbrk+0x3a>
	{
		errno = ENOMEM;
 80018e2:	f006 fd7d 	bl	80083e0 <__errno>
 80018e6:	4602      	mov	r2, r0
 80018e8:	230c      	movs	r3, #12
 80018ea:	6013      	str	r3, [r2, #0]
		return (caddr_t) -1;
 80018ec:	f04f 33ff 	mov.w	r3, #4294967295	; 0xffffffff
 80018f0:	e006      	b.n	8001900 <_sbrk+0x48>
	}

	heap_end += incr;
 80018f2:	4b05      	ldr	r3, [pc, #20]	; (8001908 <_sbrk+0x50>)
 80018f4:	681a      	ldr	r2, [r3, #0]
 80018f6:	687b      	ldr	r3, [r7, #4]
 80018f8:	4413      	add	r3, r2
 80018fa:	4a03      	ldr	r2, [pc, #12]	; (8001908 <_sbrk+0x50>)
 80018fc:	6013      	str	r3, [r2, #0]

	return (caddr_t) prev_heap_end;
 80018fe:	68fb      	ldr	r3, [r7, #12]
}
 8001900:	4618      	mov	r0, r3
 8001902:	3710      	adds	r7, #16
 8001904:	46bd      	mov	sp, r7
 8001906:	bd80      	pop	{r7, pc}
 8001908:	20001fe0 	.word	0x20001fe0
 800190c:	20002468 	.word	0x20002468

08001910 <SystemInit>:
  * @param  None
  * @retval None
  */

void SystemInit(void)
{
 8001910:	b480      	push	{r7}
 8001912:	af00      	add	r7, sp, #0
  /* FPU settings ------------------------------------------------------------*/
  #if (__FPU_PRESENT == 1) && (__FPU_USED == 1)
    SCB->CPACR |= ((3UL << (10*2))|(3UL << (11*2)));  /* set CP10 and CP11 Full Access */
 8001914:	4b08      	ldr	r3, [pc, #32]	; (8001938 <SystemInit+0x28>)
 8001916:	f8d3 3088 	ldr.w	r3, [r3, #136]	; 0x88
 800191a:	4a07      	ldr	r2, [pc, #28]	; (8001938 <SystemInit+0x28>)
 800191c:	f443 0370 	orr.w	r3, r3, #15728640	; 0xf00000
 8001920:	f8c2 3088 	str.w	r3, [r2, #136]	; 0x88

  /* Configure the Vector Table location add offset address ------------------*/
#ifdef VECT_TAB_SRAM
  SCB->VTOR = SRAM_BASE | VECT_TAB_OFFSET; /* Vector Table Relocation in Internal SRAM */
#else
  SCB->VTOR = FLASH_BASE | VECT_TAB_OFFSET; /* Vector Table Relocation in Internal FLASH */
 8001924:	4b04      	ldr	r3, [pc, #16]	; (8001938 <SystemInit+0x28>)
 8001926:	f04f 6200 	mov.w	r2, #134217728	; 0x8000000
 800192a:	609a      	str	r2, [r3, #8]
#endif
}
 800192c:	bf00      	nop
 800192e:	46bd      	mov	sp, r7
 8001930:	f85d 7b04 	ldr.w	r7, [sp], #4
 8001934:	4770      	bx	lr
 8001936:	bf00      	nop
 8001938:	e000ed00 	.word	0xe000ed00

0800193c <MX_TIM1_Init>:
TIM_HandleTypeDef htim16;
TIM_HandleTypeDef htim17;

/* TIM1 init function */
void MX_TIM1_Init(void)
{
 800193c:	b580      	push	{r7, lr}
 800193e:	b09a      	sub	sp, #104	; 0x68
 8001940:	af00      	add	r7, sp, #0
  TIM_Encoder_InitTypeDef sConfig = {0};
 8001942:	f107 0344 	add.w	r3, r7, #68	; 0x44
 8001946:	2224      	movs	r2, #36	; 0x24
 8001948:	2100      	movs	r1, #0
 800194a:	4618      	mov	r0, r3
 800194c:	f006 fd72 	bl	8008434 <memset>
  TIM_MasterConfigTypeDef sMasterConfig = {0};
 8001950:	f107 0338 	add.w	r3, r7, #56	; 0x38
 8001954:	2200      	movs	r2, #0
 8001956:	601a      	str	r2, [r3, #0]
 8001958:	605a      	str	r2, [r3, #4]
 800195a:	609a      	str	r2, [r3, #8]
  TIM_BreakDeadTimeConfigTypeDef sBreakDeadTimeConfig = {0};
 800195c:	1d3b      	adds	r3, r7, #4
 800195e:	2234      	movs	r2, #52	; 0x34
 8001960:	2100      	movs	r1, #0
 8001962:	4618      	mov	r0, r3
 8001964:	f006 fd66 	bl	8008434 <memset>

  htim1.Instance = TIM1;
 8001968:	4b2a      	ldr	r3, [pc, #168]	; (8001a14 <MX_TIM1_Init+0xd8>)
 800196a:	4a2b      	ldr	r2, [pc, #172]	; (8001a18 <MX_TIM1_Init+0xdc>)
 800196c:	601a      	str	r2, [r3, #0]
  htim1.Init.Prescaler = 0;
 800196e:	4b29      	ldr	r3, [pc, #164]	; (8001a14 <MX_TIM1_Init+0xd8>)
 8001970:	2200      	movs	r2, #0
 8001972:	605a      	str	r2, [r3, #4]
  htim1.Init.CounterMode = TIM_COUNTERMODE_CENTERALIGNED2;
 8001974:	4b27      	ldr	r3, [pc, #156]	; (8001a14 <MX_TIM1_Init+0xd8>)
 8001976:	2240      	movs	r2, #64	; 0x40
 8001978:	609a      	str	r2, [r3, #8]
  htim1.Init.Period = 1024;
 800197a:	4b26      	ldr	r3, [pc, #152]	; (8001a14 <MX_TIM1_Init+0xd8>)
 800197c:	f44f 6280 	mov.w	r2, #1024	; 0x400
 8001980:	60da      	str	r2, [r3, #12]
  htim1.Init.ClockDivision = TIM_CLOCKDIVISION_DIV1;
 8001982:	4b24      	ldr	r3, [pc, #144]	; (8001a14 <MX_TIM1_Init+0xd8>)
 8001984:	2200      	movs	r2, #0
 8001986:	611a      	str	r2, [r3, #16]
  htim1.Init.RepetitionCounter = 0;
 8001988:	4b22      	ldr	r3, [pc, #136]	; (8001a14 <MX_TIM1_Init+0xd8>)
 800198a:	2200      	movs	r2, #0
 800198c:	615a      	str	r2, [r3, #20]
  htim1.Init.AutoReloadPreload = TIM_AUTORELOAD_PRELOAD_DISABLE;
 800198e:	4b21      	ldr	r3, [pc, #132]	; (8001a14 <MX_TIM1_Init+0xd8>)
 8001990:	2200      	movs	r2, #0
 8001992:	619a      	str	r2, [r3, #24]
  sConfig.EncoderMode = TIM_ENCODERMODE_TI12;
 8001994:	2303      	movs	r3, #3
 8001996:	647b      	str	r3, [r7, #68]	; 0x44
  sConfig.IC1Polarity = TIM_ICPOLARITY_RISING;
 8001998:	2300      	movs	r3, #0
 800199a:	64bb      	str	r3, [r7, #72]	; 0x48
  sConfig.IC1Selection = TIM_ICSELECTION_DIRECTTI;
 800199c:	2301      	movs	r3, #1
 800199e:	64fb      	str	r3, [r7, #76]	; 0x4c
  sConfig.IC1Prescaler = TIM_ICPSC_DIV1;
 80019a0:	2300      	movs	r3, #0
 80019a2:	653b      	str	r3, [r7, #80]	; 0x50
  sConfig.IC1Filter = 0;
 80019a4:	2300      	movs	r3, #0
 80019a6:	657b      	str	r3, [r7, #84]	; 0x54
  sConfig.IC2Polarity = TIM_ICPOLARITY_RISING;
 80019a8:	2300      	movs	r3, #0
 80019aa:	65bb      	str	r3, [r7, #88]	; 0x58
  sConfig.IC2Selection = TIM_ICSELECTION_DIRECTTI;
 80019ac:	2301      	movs	r3, #1
 80019ae:	65fb      	str	r3, [r7, #92]	; 0x5c
  sConfig.IC2Prescaler = TIM_ICPSC_DIV1;
 80019b0:	2300      	movs	r3, #0
 80019b2:	663b      	str	r3, [r7, #96]	; 0x60
  sConfig.IC2Filter = 0;
 80019b4:	2300      	movs	r3, #0
 80019b6:	667b      	str	r3, [r7, #100]	; 0x64
  if (HAL_TIM_Encoder_Init(&htim1, &sConfig) != HAL_OK)
 80019b8:	f107 0344 	add.w	r3, r7, #68	; 0x44
 80019bc:	4619      	mov	r1, r3
 80019be:	4815      	ldr	r0, [pc, #84]	; (8001a14 <MX_TIM1_Init+0xd8>)
 80019c0:	f004 fcde 	bl	8006380 <HAL_TIM_Encoder_Init>
 80019c4:	4603      	mov	r3, r0
 80019c6:	2b00      	cmp	r3, #0
 80019c8:	d001      	beq.n	80019ce <MX_TIM1_Init+0x92>
  {
    Error_Handler();
 80019ca:	f7ff fc16 	bl	80011fa <Error_Handler>
  }
  sMasterConfig.MasterOutputTrigger = TIM_TRGO_RESET;
 80019ce:	2300      	movs	r3, #0
 80019d0:	63bb      	str	r3, [r7, #56]	; 0x38
  sMasterConfig.MasterOutputTrigger2 = TIM_TRGO2_RESET;
 80019d2:	2300      	movs	r3, #0
 80019d4:	63fb      	str	r3, [r7, #60]	; 0x3c
  sMasterConfig.MasterSlaveMode = TIM_MASTERSLAVEMODE_DISABLE;
 80019d6:	2300      	movs	r3, #0
 80019d8:	643b      	str	r3, [r7, #64]	; 0x40
  if (HAL_TIMEx_MasterConfigSynchronization(&htim1, &sMasterConfig) != HAL_OK)
 80019da:	f107 0338 	add.w	r3, r7, #56	; 0x38
 80019de:	4619      	mov	r1, r3
 80019e0:	480c      	ldr	r0, [pc, #48]	; (8001a14 <MX_TIM1_Init+0xd8>)
 80019e2:	f005 fa57 	bl	8006e94 <HAL_TIMEx_MasterConfigSynchronization>
 80019e6:	4603      	mov	r3, r0
 80019e8:	2b00      	cmp	r3, #0
 80019ea:	d001      	beq.n	80019f0 <MX_TIM1_Init+0xb4>
  {
    Error_Handler();
 80019ec:	f7ff fc05 	bl	80011fa <Error_Handler>
  }
  sBreakDeadTimeConfig.BreakAFMode = TIM_BREAK_AFMODE_INPUT;
 80019f0:	2300      	movs	r3, #0
 80019f2:	623b      	str	r3, [r7, #32]
  sBreakDeadTimeConfig.Break2AFMode = TIM_BREAK_AFMODE_INPUT;
 80019f4:	2300      	movs	r3, #0
 80019f6:	633b      	str	r3, [r7, #48]	; 0x30
  if (HAL_TIMEx_ConfigBreakDeadTime(&htim1, &sBreakDeadTimeConfig) != HAL_OK)
 80019f8:	1d3b      	adds	r3, r7, #4
 80019fa:	4619      	mov	r1, r3
 80019fc:	4805      	ldr	r0, [pc, #20]	; (8001a14 <MX_TIM1_Init+0xd8>)
 80019fe:	f005 fadf 	bl	8006fc0 <HAL_TIMEx_ConfigBreakDeadTime>
 8001a02:	4603      	mov	r3, r0
 8001a04:	2b00      	cmp	r3, #0
 8001a06:	d001      	beq.n	8001a0c <MX_TIM1_Init+0xd0>
  {
    Error_Handler();
 8001a08:	f7ff fbf7 	bl	80011fa <Error_Handler>
  }

}
 8001a0c:	bf00      	nop
 8001a0e:	3768      	adds	r7, #104	; 0x68
 8001a10:	46bd      	mov	sp, r7
 8001a12:	bd80      	pop	{r7, pc}
 8001a14:	20002378 	.word	0x20002378
 8001a18:	40012c00 	.word	0x40012c00

08001a1c <MX_TIM2_Init>:
/* TIM2 init function */
void MX_TIM2_Init(void)
{
 8001a1c:	b580      	push	{r7, lr}
 8001a1e:	b08c      	sub	sp, #48	; 0x30
 8001a20:	af00      	add	r7, sp, #0
  TIM_ClockConfigTypeDef sClockSourceConfig = {0};
 8001a22:	f107 0320 	add.w	r3, r7, #32
 8001a26:	2200      	movs	r2, #0
 8001a28:	601a      	str	r2, [r3, #0]
 8001a2a:	605a      	str	r2, [r3, #4]
 8001a2c:	609a      	str	r2, [r3, #8]
 8001a2e:	60da      	str	r2, [r3, #12]
  TIM_SlaveConfigTypeDef sSlaveConfig = {0};
 8001a30:	f107 030c 	add.w	r3, r7, #12
 8001a34:	2200      	movs	r2, #0
 8001a36:	601a      	str	r2, [r3, #0]
 8001a38:	605a      	str	r2, [r3, #4]
 8001a3a:	609a      	str	r2, [r3, #8]
 8001a3c:	60da      	str	r2, [r3, #12]
 8001a3e:	611a      	str	r2, [r3, #16]
  TIM_MasterConfigTypeDef sMasterConfig = {0};
 8001a40:	463b      	mov	r3, r7
 8001a42:	2200      	movs	r2, #0
 8001a44:	601a      	str	r2, [r3, #0]
 8001a46:	605a      	str	r2, [r3, #4]
 8001a48:	609a      	str	r2, [r3, #8]

  htim2.Instance = TIM2;
 8001a4a:	4b28      	ldr	r3, [pc, #160]	; (8001aec <MX_TIM2_Init+0xd0>)
 8001a4c:	f04f 4280 	mov.w	r2, #1073741824	; 0x40000000
 8001a50:	601a      	str	r2, [r3, #0]
  htim2.Init.Prescaler = 2047;
 8001a52:	4b26      	ldr	r3, [pc, #152]	; (8001aec <MX_TIM2_Init+0xd0>)
 8001a54:	f240 72ff 	movw	r2, #2047	; 0x7ff
 8001a58:	605a      	str	r2, [r3, #4]
  htim2.Init.CounterMode = TIM_COUNTERMODE_UP;
 8001a5a:	4b24      	ldr	r3, [pc, #144]	; (8001aec <MX_TIM2_Init+0xd0>)
 8001a5c:	2200      	movs	r2, #0
 8001a5e:	609a      	str	r2, [r3, #8]
  htim2.Init.Period = 1024;
 8001a60:	4b22      	ldr	r3, [pc, #136]	; (8001aec <MX_TIM2_Init+0xd0>)
 8001a62:	f44f 6280 	mov.w	r2, #1024	; 0x400
 8001a66:	60da      	str	r2, [r3, #12]
  htim2.Init.ClockDivision = TIM_CLOCKDIVISION_DIV1;
 8001a68:	4b20      	ldr	r3, [pc, #128]	; (8001aec <MX_TIM2_Init+0xd0>)
 8001a6a:	2200      	movs	r2, #0
 8001a6c:	611a      	str	r2, [r3, #16]
  htim2.Init.AutoReloadPreload = TIM_AUTORELOAD_PRELOAD_DISABLE;
 8001a6e:	4b1f      	ldr	r3, [pc, #124]	; (8001aec <MX_TIM2_Init+0xd0>)
 8001a70:	2200      	movs	r2, #0
 8001a72:	619a      	str	r2, [r3, #24]
  if (HAL_TIM_Base_Init(&htim2) != HAL_OK)
 8001a74:	481d      	ldr	r0, [pc, #116]	; (8001aec <MX_TIM2_Init+0xd0>)
 8001a76:	f004 fbc7 	bl	8006208 <HAL_TIM_Base_Init>
 8001a7a:	4603      	mov	r3, r0
 8001a7c:	2b00      	cmp	r3, #0
 8001a7e:	d001      	beq.n	8001a84 <MX_TIM2_Init+0x68>
  {
    Error_Handler();
 8001a80:	f7ff fbbb 	bl	80011fa <Error_Handler>
  }
  sClockSourceConfig.ClockSource = TIM_CLOCKSOURCE_INTERNAL;
 8001a84:	f44f 5380 	mov.w	r3, #4096	; 0x1000
 8001a88:	623b      	str	r3, [r7, #32]
  if (HAL_TIM_ConfigClockSource(&htim2, &sClockSourceConfig) != HAL_OK)
 8001a8a:	f107 0320 	add.w	r3, r7, #32
 8001a8e:	4619      	mov	r1, r3
 8001a90:	4816      	ldr	r0, [pc, #88]	; (8001aec <MX_TIM2_Init+0xd0>)
 8001a92:	f004 fe9b 	bl	80067cc <HAL_TIM_ConfigClockSource>
 8001a96:	4603      	mov	r3, r0
 8001a98:	2b00      	cmp	r3, #0
 8001a9a:	d001      	beq.n	8001aa0 <MX_TIM2_Init+0x84>
  {
    Error_Handler();
 8001a9c:	f7ff fbad 	bl	80011fa <Error_Handler>
  }
  sSlaveConfig.SlaveMode = TIM_SLAVEMODE_GATED;
 8001aa0:	2305      	movs	r3, #5
 8001aa2:	60fb      	str	r3, [r7, #12]
  sSlaveConfig.InputTrigger = TIM_TS_TI1FP1;
 8001aa4:	2350      	movs	r3, #80	; 0x50
 8001aa6:	613b      	str	r3, [r7, #16]
  sSlaveConfig.TriggerPolarity = TIM_TRIGGERPOLARITY_RISING;
 8001aa8:	2300      	movs	r3, #0
 8001aaa:	617b      	str	r3, [r7, #20]
  sSlaveConfig.TriggerFilter = 0;
 8001aac:	2300      	movs	r3, #0
 8001aae:	61fb      	str	r3, [r7, #28]
  if (HAL_TIM_SlaveConfigSynchro(&htim2, &sSlaveConfig) != HAL_OK)
 8001ab0:	f107 030c 	add.w	r3, r7, #12
 8001ab4:	4619      	mov	r1, r3
 8001ab6:	480d      	ldr	r0, [pc, #52]	; (8001aec <MX_TIM2_Init+0xd0>)
 8001ab8:	f004 ff78 	bl	80069ac <HAL_TIM_SlaveConfigSynchro>
 8001abc:	4603      	mov	r3, r0
 8001abe:	2b00      	cmp	r3, #0
 8001ac0:	d001      	beq.n	8001ac6 <MX_TIM2_Init+0xaa>
  {
    Error_Handler();
 8001ac2:	f7ff fb9a 	bl	80011fa <Error_Handler>
  }
  sMasterConfig.MasterOutputTrigger = TIM_TRGO_RESET;
 8001ac6:	2300      	movs	r3, #0
 8001ac8:	603b      	str	r3, [r7, #0]
  sMasterConfig.MasterSlaveMode = TIM_MASTERSLAVEMODE_DISABLE;
 8001aca:	2300      	movs	r3, #0
 8001acc:	60bb      	str	r3, [r7, #8]
  if (HAL_TIMEx_MasterConfigSynchronization(&htim2, &sMasterConfig) != HAL_OK)
 8001ace:	463b      	mov	r3, r7
 8001ad0:	4619      	mov	r1, r3
 8001ad2:	4806      	ldr	r0, [pc, #24]	; (8001aec <MX_TIM2_Init+0xd0>)
 8001ad4:	f005 f9de 	bl	8006e94 <HAL_TIMEx_MasterConfigSynchronization>
 8001ad8:	4603      	mov	r3, r0
 8001ada:	2b00      	cmp	r3, #0
 8001adc:	d001      	beq.n	8001ae2 <MX_TIM2_Init+0xc6>
  {
    Error_Handler();
 8001ade:	f7ff fb8c 	bl	80011fa <Error_Handler>
  }

}
 8001ae2:	bf00      	nop
 8001ae4:	3730      	adds	r7, #48	; 0x30
 8001ae6:	46bd      	mov	sp, r7
 8001ae8:	bd80      	pop	{r7, pc}
 8001aea:	bf00      	nop
 8001aec:	200023c4 	.word	0x200023c4

08001af0 <MX_TIM8_Init>:
/* TIM8 init function */
void MX_TIM8_Init(void)
{
 8001af0:	b580      	push	{r7, lr}
 8001af2:	b094      	sub	sp, #80	; 0x50
 8001af4:	af00      	add	r7, sp, #0
  TIM_ClockConfigTypeDef sClockSourceConfig = {0};
 8001af6:	f107 0340 	add.w	r3, r7, #64	; 0x40
 8001afa:	2200      	movs	r2, #0
 8001afc:	601a      	str	r2, [r3, #0]
 8001afe:	605a      	str	r2, [r3, #4]
 8001b00:	609a      	str	r2, [r3, #8]
 8001b02:	60da      	str	r2, [r3, #12]
  TIM_MasterConfigTypeDef sMasterConfig = {0};
 8001b04:	f107 0334 	add.w	r3, r7, #52	; 0x34
 8001b08:	2200      	movs	r2, #0
 8001b0a:	601a      	str	r2, [r3, #0]
 8001b0c:	605a      	str	r2, [r3, #4]
 8001b0e:	609a      	str	r2, [r3, #8]
  TIM_BreakDeadTimeConfigTypeDef sBreakDeadTimeConfig = {0};
 8001b10:	463b      	mov	r3, r7
 8001b12:	2234      	movs	r2, #52	; 0x34
 8001b14:	2100      	movs	r1, #0
 8001b16:	4618      	mov	r0, r3
 8001b18:	f006 fc8c 	bl	8008434 <memset>

  htim8.Instance = TIM8;
 8001b1c:	4b26      	ldr	r3, [pc, #152]	; (8001bb8 <MX_TIM8_Init+0xc8>)
 8001b1e:	4a27      	ldr	r2, [pc, #156]	; (8001bbc <MX_TIM8_Init+0xcc>)
 8001b20:	601a      	str	r2, [r3, #0]
  htim8.Init.Prescaler = 0;
 8001b22:	4b25      	ldr	r3, [pc, #148]	; (8001bb8 <MX_TIM8_Init+0xc8>)
 8001b24:	2200      	movs	r2, #0
 8001b26:	605a      	str	r2, [r3, #4]
  htim8.Init.CounterMode = TIM_COUNTERMODE_UP;
 8001b28:	4b23      	ldr	r3, [pc, #140]	; (8001bb8 <MX_TIM8_Init+0xc8>)
 8001b2a:	2200      	movs	r2, #0
 8001b2c:	609a      	str	r2, [r3, #8]
  htim8.Init.Period = 1;
 8001b2e:	4b22      	ldr	r3, [pc, #136]	; (8001bb8 <MX_TIM8_Init+0xc8>)
 8001b30:	2201      	movs	r2, #1
 8001b32:	60da      	str	r2, [r3, #12]
  htim8.Init.ClockDivision = TIM_CLOCKDIVISION_DIV1;
 8001b34:	4b20      	ldr	r3, [pc, #128]	; (8001bb8 <MX_TIM8_Init+0xc8>)
 8001b36:	2200      	movs	r2, #0
 8001b38:	611a      	str	r2, [r3, #16]
  htim8.Init.RepetitionCounter = 0;
 8001b3a:	4b1f      	ldr	r3, [pc, #124]	; (8001bb8 <MX_TIM8_Init+0xc8>)
 8001b3c:	2200      	movs	r2, #0
 8001b3e:	615a      	str	r2, [r3, #20]
  htim8.Init.AutoReloadPreload = TIM_AUTORELOAD_PRELOAD_DISABLE;
 8001b40:	4b1d      	ldr	r3, [pc, #116]	; (8001bb8 <MX_TIM8_Init+0xc8>)
 8001b42:	2200      	movs	r2, #0
 8001b44:	619a      	str	r2, [r3, #24]
  if (HAL_TIM_Base_Init(&htim8) != HAL_OK)
 8001b46:	481c      	ldr	r0, [pc, #112]	; (8001bb8 <MX_TIM8_Init+0xc8>)
 8001b48:	f004 fb5e 	bl	8006208 <HAL_TIM_Base_Init>
 8001b4c:	4603      	mov	r3, r0
 8001b4e:	2b00      	cmp	r3, #0
 8001b50:	d001      	beq.n	8001b56 <MX_TIM8_Init+0x66>
  {
    Error_Handler();
 8001b52:	f7ff fb52 	bl	80011fa <Error_Handler>
  }
  sClockSourceConfig.ClockSource = TIM_CLOCKSOURCE_INTERNAL;
 8001b56:	f44f 5380 	mov.w	r3, #4096	; 0x1000
 8001b5a:	643b      	str	r3, [r7, #64]	; 0x40
  if (HAL_TIM_ConfigClockSource(&htim8, &sClockSourceConfig) != HAL_OK)
 8001b5c:	f107 0340 	add.w	r3, r7, #64	; 0x40
 8001b60:	4619      	mov	r1, r3
 8001b62:	4815      	ldr	r0, [pc, #84]	; (8001bb8 <MX_TIM8_Init+0xc8>)
 8001b64:	f004 fe32 	bl	80067cc <HAL_TIM_ConfigClockSource>
 8001b68:	4603      	mov	r3, r0
 8001b6a:	2b00      	cmp	r3, #0
 8001b6c:	d001      	beq.n	8001b72 <MX_TIM8_Init+0x82>
  {
    Error_Handler();
 8001b6e:	f7ff fb44 	bl	80011fa <Error_Handler>
  }
  sMasterConfig.MasterOutputTrigger = TIM_TRGO_UPDATE;
 8001b72:	2320      	movs	r3, #32
 8001b74:	637b      	str	r3, [r7, #52]	; 0x34
  sMasterConfig.MasterOutputTrigger2 = TIM_TRGO2_RESET;
 8001b76:	2300      	movs	r3, #0
 8001b78:	63bb      	str	r3, [r7, #56]	; 0x38
  sMasterConfig.MasterSlaveMode = TIM_MASTERSLAVEMODE_DISABLE;
 8001b7a:	2300      	movs	r3, #0
 8001b7c:	63fb      	str	r3, [r7, #60]	; 0x3c
  if (HAL_TIMEx_MasterConfigSynchronization(&htim8, &sMasterConfig) != HAL_OK)
 8001b7e:	f107 0334 	add.w	r3, r7, #52	; 0x34
 8001b82:	4619      	mov	r1, r3
 8001b84:	480c      	ldr	r0, [pc, #48]	; (8001bb8 <MX_TIM8_Init+0xc8>)
 8001b86:	f005 f985 	bl	8006e94 <HAL_TIMEx_MasterConfigSynchronization>
 8001b8a:	4603      	mov	r3, r0
 8001b8c:	2b00      	cmp	r3, #0
 8001b8e:	d001      	beq.n	8001b94 <MX_TIM8_Init+0xa4>
  {
    Error_Handler();
 8001b90:	f7ff fb33 	bl	80011fa <Error_Handler>
  }
  sBreakDeadTimeConfig.BreakAFMode = TIM_BREAK_AFMODE_INPUT;
 8001b94:	2300      	movs	r3, #0
 8001b96:	61fb      	str	r3, [r7, #28]
  sBreakDeadTimeConfig.Break2AFMode = TIM_BREAK_AFMODE_INPUT;
 8001b98:	2300      	movs	r3, #0
 8001b9a:	62fb      	str	r3, [r7, #44]	; 0x2c
  if (HAL_TIMEx_ConfigBreakDeadTime(&htim8, &sBreakDeadTimeConfig) != HAL_OK)
 8001b9c:	463b      	mov	r3, r7
 8001b9e:	4619      	mov	r1, r3
 8001ba0:	4805      	ldr	r0, [pc, #20]	; (8001bb8 <MX_TIM8_Init+0xc8>)
 8001ba2:	f005 fa0d 	bl	8006fc0 <HAL_TIMEx_ConfigBreakDeadTime>
 8001ba6:	4603      	mov	r3, r0
 8001ba8:	2b00      	cmp	r3, #0
 8001baa:	d001      	beq.n	8001bb0 <MX_TIM8_Init+0xc0>
  {
    Error_Handler();
 8001bac:	f7ff fb25 	bl	80011fa <Error_Handler>
  }

}
 8001bb0:	bf00      	nop
 8001bb2:	3750      	adds	r7, #80	; 0x50
 8001bb4:	46bd      	mov	sp, r7
 8001bb6:	bd80      	pop	{r7, pc}
 8001bb8:	20002294 	.word	0x20002294
 8001bbc:	40013400 	.word	0x40013400

08001bc0 <MX_TIM15_Init>:
/* TIM15 init function */
void MX_TIM15_Init(void)
{
 8001bc0:	b580      	push	{r7, lr}
 8001bc2:	b088      	sub	sp, #32
 8001bc4:	af00      	add	r7, sp, #0
  TIM_ClockConfigTypeDef sClockSourceConfig = {0};
 8001bc6:	f107 0310 	add.w	r3, r7, #16
 8001bca:	2200      	movs	r2, #0
 8001bcc:	601a      	str	r2, [r3, #0]
 8001bce:	605a      	str	r2, [r3, #4]
 8001bd0:	609a      	str	r2, [r3, #8]
 8001bd2:	60da      	str	r2, [r3, #12]
  TIM_MasterConfigTypeDef sMasterConfig = {0};
 8001bd4:	1d3b      	adds	r3, r7, #4
 8001bd6:	2200      	movs	r2, #0
 8001bd8:	601a      	str	r2, [r3, #0]
 8001bda:	605a      	str	r2, [r3, #4]
 8001bdc:	609a      	str	r2, [r3, #8]

  htim15.Instance = TIM15;
 8001bde:	4b1f      	ldr	r3, [pc, #124]	; (8001c5c <MX_TIM15_Init+0x9c>)
 8001be0:	4a1f      	ldr	r2, [pc, #124]	; (8001c60 <MX_TIM15_Init+0xa0>)
 8001be2:	601a      	str	r2, [r3, #0]
  htim15.Init.Prescaler = 1024;
 8001be4:	4b1d      	ldr	r3, [pc, #116]	; (8001c5c <MX_TIM15_Init+0x9c>)
 8001be6:	f44f 6280 	mov.w	r2, #1024	; 0x400
 8001bea:	605a      	str	r2, [r3, #4]
  htim15.Init.CounterMode = TIM_COUNTERMODE_UP;
 8001bec:	4b1b      	ldr	r3, [pc, #108]	; (8001c5c <MX_TIM15_Init+0x9c>)
 8001bee:	2200      	movs	r2, #0
 8001bf0:	609a      	str	r2, [r3, #8]
  htim15.Init.Period = 1024;
 8001bf2:	4b1a      	ldr	r3, [pc, #104]	; (8001c5c <MX_TIM15_Init+0x9c>)
 8001bf4:	f44f 6280 	mov.w	r2, #1024	; 0x400
 8001bf8:	60da      	str	r2, [r3, #12]
  htim15.Init.ClockDivision = TIM_CLOCKDIVISION_DIV1;
 8001bfa:	4b18      	ldr	r3, [pc, #96]	; (8001c5c <MX_TIM15_Init+0x9c>)
 8001bfc:	2200      	movs	r2, #0
 8001bfe:	611a      	str	r2, [r3, #16]
  htim15.Init.RepetitionCounter = 0;
 8001c00:	4b16      	ldr	r3, [pc, #88]	; (8001c5c <MX_TIM15_Init+0x9c>)
 8001c02:	2200      	movs	r2, #0
 8001c04:	615a      	str	r2, [r3, #20]
  htim15.Init.AutoReloadPreload = TIM_AUTORELOAD_PRELOAD_DISABLE;
 8001c06:	4b15      	ldr	r3, [pc, #84]	; (8001c5c <MX_TIM15_Init+0x9c>)
 8001c08:	2200      	movs	r2, #0
 8001c0a:	619a      	str	r2, [r3, #24]
  if (HAL_TIM_Base_Init(&htim15) != HAL_OK)
 8001c0c:	4813      	ldr	r0, [pc, #76]	; (8001c5c <MX_TIM15_Init+0x9c>)
 8001c0e:	f004 fafb 	bl	8006208 <HAL_TIM_Base_Init>
 8001c12:	4603      	mov	r3, r0
 8001c14:	2b00      	cmp	r3, #0
 8001c16:	d001      	beq.n	8001c1c <MX_TIM15_Init+0x5c>
  {
    Error_Handler();
 8001c18:	f7ff faef 	bl	80011fa <Error_Handler>
  }
  sClockSourceConfig.ClockSource = TIM_CLOCKSOURCE_INTERNAL;
 8001c1c:	f44f 5380 	mov.w	r3, #4096	; 0x1000
 8001c20:	613b      	str	r3, [r7, #16]
  if (HAL_TIM_ConfigClockSource(&htim15, &sClockSourceConfig) != HAL_OK)
 8001c22:	f107 0310 	add.w	r3, r7, #16
 8001c26:	4619      	mov	r1, r3
 8001c28:	480c      	ldr	r0, [pc, #48]	; (8001c5c <MX_TIM15_Init+0x9c>)
 8001c2a:	f004 fdcf 	bl	80067cc <HAL_TIM_ConfigClockSource>
 8001c2e:	4603      	mov	r3, r0
 8001c30:	2b00      	cmp	r3, #0
 8001c32:	d001      	beq.n	8001c38 <MX_TIM15_Init+0x78>
  {
    Error_Handler();
 8001c34:	f7ff fae1 	bl	80011fa <Error_Handler>
  }
  sMasterConfig.MasterOutputTrigger = TIM_TRGO_RESET;
 8001c38:	2300      	movs	r3, #0
 8001c3a:	607b      	str	r3, [r7, #4]
  sMasterConfig.MasterSlaveMode = TIM_MASTERSLAVEMODE_DISABLE;
 8001c3c:	2300      	movs	r3, #0
 8001c3e:	60fb      	str	r3, [r7, #12]
  if (HAL_TIMEx_MasterConfigSynchronization(&htim15, &sMasterConfig) != HAL_OK)
 8001c40:	1d3b      	adds	r3, r7, #4
 8001c42:	4619      	mov	r1, r3
 8001c44:	4805      	ldr	r0, [pc, #20]	; (8001c5c <MX_TIM15_Init+0x9c>)
 8001c46:	f005 f925 	bl	8006e94 <HAL_TIMEx_MasterConfigSynchronization>
 8001c4a:	4603      	mov	r3, r0
 8001c4c:	2b00      	cmp	r3, #0
 8001c4e:	d001      	beq.n	8001c54 <MX_TIM15_Init+0x94>
  {
    Error_Handler();
 8001c50:	f7ff fad3 	bl	80011fa <Error_Handler>
  }

}
 8001c54:	bf00      	nop
 8001c56:	3720      	adds	r7, #32
 8001c58:	46bd      	mov	sp, r7
 8001c5a:	bd80      	pop	{r7, pc}
 8001c5c:	200022e0 	.word	0x200022e0
 8001c60:	40014000 	.word	0x40014000

08001c64 <MX_TIM16_Init>:
/* TIM16 init function */
void MX_TIM16_Init(void)
{
 8001c64:	b580      	push	{r7, lr}
 8001c66:	af00      	add	r7, sp, #0

  htim16.Instance = TIM16;
 8001c68:	4b0f      	ldr	r3, [pc, #60]	; (8001ca8 <MX_TIM16_Init+0x44>)
 8001c6a:	4a10      	ldr	r2, [pc, #64]	; (8001cac <MX_TIM16_Init+0x48>)
 8001c6c:	601a      	str	r2, [r3, #0]
  htim16.Init.Prescaler = 0;
 8001c6e:	4b0e      	ldr	r3, [pc, #56]	; (8001ca8 <MX_TIM16_Init+0x44>)
 8001c70:	2200      	movs	r2, #0
 8001c72:	605a      	str	r2, [r3, #4]
  htim16.Init.CounterMode = TIM_COUNTERMODE_UP;
 8001c74:	4b0c      	ldr	r3, [pc, #48]	; (8001ca8 <MX_TIM16_Init+0x44>)
 8001c76:	2200      	movs	r2, #0
 8001c78:	609a      	str	r2, [r3, #8]
  htim16.Init.Period = 8191;
 8001c7a:	4b0b      	ldr	r3, [pc, #44]	; (8001ca8 <MX_TIM16_Init+0x44>)
 8001c7c:	f641 72ff 	movw	r2, #8191	; 0x1fff
 8001c80:	60da      	str	r2, [r3, #12]
  htim16.Init.ClockDivision = TIM_CLOCKDIVISION_DIV1;
 8001c82:	4b09      	ldr	r3, [pc, #36]	; (8001ca8 <MX_TIM16_Init+0x44>)
 8001c84:	2200      	movs	r2, #0
 8001c86:	611a      	str	r2, [r3, #16]
  htim16.Init.RepetitionCounter = 0;
 8001c88:	4b07      	ldr	r3, [pc, #28]	; (8001ca8 <MX_TIM16_Init+0x44>)
 8001c8a:	2200      	movs	r2, #0
 8001c8c:	615a      	str	r2, [r3, #20]
  htim16.Init.AutoReloadPreload = TIM_AUTORELOAD_PRELOAD_DISABLE;
 8001c8e:	4b06      	ldr	r3, [pc, #24]	; (8001ca8 <MX_TIM16_Init+0x44>)
 8001c90:	2200      	movs	r2, #0
 8001c92:	619a      	str	r2, [r3, #24]
  if (HAL_TIM_Base_Init(&htim16) != HAL_OK)
 8001c94:	4804      	ldr	r0, [pc, #16]	; (8001ca8 <MX_TIM16_Init+0x44>)
 8001c96:	f004 fab7 	bl	8006208 <HAL_TIM_Base_Init>
 8001c9a:	4603      	mov	r3, r0
 8001c9c:	2b00      	cmp	r3, #0
 8001c9e:	d001      	beq.n	8001ca4 <MX_TIM16_Init+0x40>
  {
    Error_Handler();
 8001ca0:	f7ff faab 	bl	80011fa <Error_Handler>
  }

}
 8001ca4:	bf00      	nop
 8001ca6:	bd80      	pop	{r7, pc}
 8001ca8:	20002410 	.word	0x20002410
 8001cac:	40014400 	.word	0x40014400

08001cb0 <MX_TIM17_Init>:
/* TIM17 init function */
void MX_TIM17_Init(void)
{
 8001cb0:	b580      	push	{r7, lr}
 8001cb2:	af00      	add	r7, sp, #0

  htim17.Instance = TIM17;
 8001cb4:	4b0f      	ldr	r3, [pc, #60]	; (8001cf4 <MX_TIM17_Init+0x44>)
 8001cb6:	4a10      	ldr	r2, [pc, #64]	; (8001cf8 <MX_TIM17_Init+0x48>)
 8001cb8:	601a      	str	r2, [r3, #0]
  htim17.Init.Prescaler = 1023;
 8001cba:	4b0e      	ldr	r3, [pc, #56]	; (8001cf4 <MX_TIM17_Init+0x44>)
 8001cbc:	f240 32ff 	movw	r2, #1023	; 0x3ff
 8001cc0:	605a      	str	r2, [r3, #4]
  htim17.Init.CounterMode = TIM_COUNTERMODE_UP;
 8001cc2:	4b0c      	ldr	r3, [pc, #48]	; (8001cf4 <MX_TIM17_Init+0x44>)
 8001cc4:	2200      	movs	r2, #0
 8001cc6:	609a      	str	r2, [r3, #8]
  htim17.Init.Period = 64;
 8001cc8:	4b0a      	ldr	r3, [pc, #40]	; (8001cf4 <MX_TIM17_Init+0x44>)
 8001cca:	2240      	movs	r2, #64	; 0x40
 8001ccc:	60da      	str	r2, [r3, #12]
  htim17.Init.ClockDivision = TIM_CLOCKDIVISION_DIV1;
 8001cce:	4b09      	ldr	r3, [pc, #36]	; (8001cf4 <MX_TIM17_Init+0x44>)
 8001cd0:	2200      	movs	r2, #0
 8001cd2:	611a      	str	r2, [r3, #16]
  htim17.Init.RepetitionCounter = 0;
 8001cd4:	4b07      	ldr	r3, [pc, #28]	; (8001cf4 <MX_TIM17_Init+0x44>)
 8001cd6:	2200      	movs	r2, #0
 8001cd8:	615a      	str	r2, [r3, #20]
  htim17.Init.AutoReloadPreload = TIM_AUTORELOAD_PRELOAD_DISABLE;
 8001cda:	4b06      	ldr	r3, [pc, #24]	; (8001cf4 <MX_TIM17_Init+0x44>)
 8001cdc:	2200      	movs	r2, #0
 8001cde:	619a      	str	r2, [r3, #24]
  if (HAL_TIM_Base_Init(&htim17) != HAL_OK)
 8001ce0:	4804      	ldr	r0, [pc, #16]	; (8001cf4 <MX_TIM17_Init+0x44>)
 8001ce2:	f004 fa91 	bl	8006208 <HAL_TIM_Base_Init>
 8001ce6:	4603      	mov	r3, r0
 8001ce8:	2b00      	cmp	r3, #0
 8001cea:	d001      	beq.n	8001cf0 <MX_TIM17_Init+0x40>
  {
    Error_Handler();
 8001cec:	f7ff fa85 	bl	80011fa <Error_Handler>
  }

}
 8001cf0:	bf00      	nop
 8001cf2:	bd80      	pop	{r7, pc}
 8001cf4:	2000232c 	.word	0x2000232c
 8001cf8:	40014800 	.word	0x40014800

08001cfc <HAL_TIM_Encoder_MspInit>:

void HAL_TIM_Encoder_MspInit(TIM_HandleTypeDef* tim_encoderHandle)
{
 8001cfc:	b580      	push	{r7, lr}
 8001cfe:	b08a      	sub	sp, #40	; 0x28
 8001d00:	af00      	add	r7, sp, #0
 8001d02:	6078      	str	r0, [r7, #4]

  GPIO_InitTypeDef GPIO_InitStruct = {0};
 8001d04:	f107 0314 	add.w	r3, r7, #20
 8001d08:	2200      	movs	r2, #0
 8001d0a:	601a      	str	r2, [r3, #0]
 8001d0c:	605a      	str	r2, [r3, #4]
 8001d0e:	609a      	str	r2, [r3, #8]
 8001d10:	60da      	str	r2, [r3, #12]
 8001d12:	611a      	str	r2, [r3, #16]
  if(tim_encoderHandle->Instance==TIM1)
 8001d14:	687b      	ldr	r3, [r7, #4]
 8001d16:	681b      	ldr	r3, [r3, #0]
 8001d18:	4a23      	ldr	r2, [pc, #140]	; (8001da8 <HAL_TIM_Encoder_MspInit+0xac>)
 8001d1a:	4293      	cmp	r3, r2
 8001d1c:	d13f      	bne.n	8001d9e <HAL_TIM_Encoder_MspInit+0xa2>
  {
  /* USER CODE BEGIN TIM1_MspInit 0 */

  /* USER CODE END TIM1_MspInit 0 */
    /* TIM1 clock enable */
    __HAL_RCC_TIM1_CLK_ENABLE();
 8001d1e:	4b23      	ldr	r3, [pc, #140]	; (8001dac <HAL_TIM_Encoder_MspInit+0xb0>)
 8001d20:	6e1b      	ldr	r3, [r3, #96]	; 0x60
 8001d22:	4a22      	ldr	r2, [pc, #136]	; (8001dac <HAL_TIM_Encoder_MspInit+0xb0>)
 8001d24:	f443 6300 	orr.w	r3, r3, #2048	; 0x800
 8001d28:	6613      	str	r3, [r2, #96]	; 0x60
 8001d2a:	4b20      	ldr	r3, [pc, #128]	; (8001dac <HAL_TIM_Encoder_MspInit+0xb0>)
 8001d2c:	6e1b      	ldr	r3, [r3, #96]	; 0x60
 8001d2e:	f403 6300 	and.w	r3, r3, #2048	; 0x800
 8001d32:	613b      	str	r3, [r7, #16]
 8001d34:	693b      	ldr	r3, [r7, #16]
  
    __HAL_RCC_GPIOC_CLK_ENABLE();
 8001d36:	4b1d      	ldr	r3, [pc, #116]	; (8001dac <HAL_TIM_Encoder_MspInit+0xb0>)
 8001d38:	6cdb      	ldr	r3, [r3, #76]	; 0x4c
 8001d3a:	4a1c      	ldr	r2, [pc, #112]	; (8001dac <HAL_TIM_Encoder_MspInit+0xb0>)
 8001d3c:	f043 0304 	orr.w	r3, r3, #4
 8001d40:	64d3      	str	r3, [r2, #76]	; 0x4c
 8001d42:	4b1a      	ldr	r3, [pc, #104]	; (8001dac <HAL_TIM_Encoder_MspInit+0xb0>)
 8001d44:	6cdb      	ldr	r3, [r3, #76]	; 0x4c
 8001d46:	f003 0304 	and.w	r3, r3, #4
 8001d4a:	60fb      	str	r3, [r7, #12]
 8001d4c:	68fb      	ldr	r3, [r7, #12]
    /**TIM1 GPIO Configuration    
    PC0     ------> TIM1_CH1
    PC1     ------> TIM1_CH2 
    */
    GPIO_InitStruct.Pin = GPIO_PIN_0|GPIO_PIN_1;
 8001d4e:	2303      	movs	r3, #3
 8001d50:	617b      	str	r3, [r7, #20]
    GPIO_InitStruct.Mode = GPIO_MODE_AF_PP;
 8001d52:	2302      	movs	r3, #2
 8001d54:	61bb      	str	r3, [r7, #24]
    GPIO_InitStruct.Pull = GPIO_NOPULL;
 8001d56:	2300      	movs	r3, #0
 8001d58:	61fb      	str	r3, [r7, #28]
    GPIO_InitStruct.Speed = GPIO_SPEED_FREQ_LOW;
 8001d5a:	2300      	movs	r3, #0
 8001d5c:	623b      	str	r3, [r7, #32]
    GPIO_InitStruct.Alternate = GPIO_AF2_TIM1;
 8001d5e:	2302      	movs	r3, #2
 8001d60:	627b      	str	r3, [r7, #36]	; 0x24
    HAL_GPIO_Init(GPIOC, &GPIO_InitStruct);
 8001d62:	f107 0314 	add.w	r3, r7, #20
 8001d66:	4619      	mov	r1, r3
 8001d68:	4811      	ldr	r0, [pc, #68]	; (8001db0 <HAL_TIM_Encoder_MspInit+0xb4>)
 8001d6a:	f002 fc03 	bl	8004574 <HAL_GPIO_Init>

    /* TIM1 interrupt Init */
    HAL_NVIC_SetPriority(TIM1_BRK_TIM15_IRQn, 1, 0);
 8001d6e:	2200      	movs	r2, #0
 8001d70:	2101      	movs	r1, #1
 8001d72:	2018      	movs	r0, #24
 8001d74:	f001 fda5 	bl	80038c2 <HAL_NVIC_SetPriority>
    HAL_NVIC_EnableIRQ(TIM1_BRK_TIM15_IRQn);
 8001d78:	2018      	movs	r0, #24
 8001d7a:	f001 fdbc 	bl	80038f6 <HAL_NVIC_EnableIRQ>
    HAL_NVIC_SetPriority(TIM1_UP_TIM16_IRQn, 1, 0);
 8001d7e:	2200      	movs	r2, #0
 8001d80:	2101      	movs	r1, #1
 8001d82:	2019      	movs	r0, #25
 8001d84:	f001 fd9d 	bl	80038c2 <HAL_NVIC_SetPriority>
    HAL_NVIC_EnableIRQ(TIM1_UP_TIM16_IRQn);
 8001d88:	2019      	movs	r0, #25
 8001d8a:	f001 fdb4 	bl	80038f6 <HAL_NVIC_EnableIRQ>
    HAL_NVIC_SetPriority(TIM1_TRG_COM_TIM17_IRQn, 0, 0);
 8001d8e:	2200      	movs	r2, #0
 8001d90:	2100      	movs	r1, #0
 8001d92:	201a      	movs	r0, #26
 8001d94:	f001 fd95 	bl	80038c2 <HAL_NVIC_SetPriority>
    HAL_NVIC_EnableIRQ(TIM1_TRG_COM_TIM17_IRQn);
 8001d98:	201a      	movs	r0, #26
 8001d9a:	f001 fdac 	bl	80038f6 <HAL_NVIC_EnableIRQ>
  /* USER CODE BEGIN TIM1_MspInit 1 */

  /* USER CODE END TIM1_MspInit 1 */
  }
}
 8001d9e:	bf00      	nop
 8001da0:	3728      	adds	r7, #40	; 0x28
 8001da2:	46bd      	mov	sp, r7
 8001da4:	bd80      	pop	{r7, pc}
 8001da6:	bf00      	nop
 8001da8:	40012c00 	.word	0x40012c00
 8001dac:	40021000 	.word	0x40021000
 8001db0:	48000800 	.word	0x48000800

08001db4 <HAL_TIM_Base_MspInit>:

void HAL_TIM_Base_MspInit(TIM_HandleTypeDef* tim_baseHandle)
{
 8001db4:	b580      	push	{r7, lr}
 8001db6:	b08e      	sub	sp, #56	; 0x38
 8001db8:	af00      	add	r7, sp, #0
 8001dba:	6078      	str	r0, [r7, #4]

  GPIO_InitTypeDef GPIO_InitStruct = {0};
 8001dbc:	f107 0324 	add.w	r3, r7, #36	; 0x24
 8001dc0:	2200      	movs	r2, #0
 8001dc2:	601a      	str	r2, [r3, #0]
 8001dc4:	605a      	str	r2, [r3, #4]
 8001dc6:	609a      	str	r2, [r3, #8]
 8001dc8:	60da      	str	r2, [r3, #12]
 8001dca:	611a      	str	r2, [r3, #16]
  if(tim_baseHandle->Instance==TIM2)
 8001dcc:	687b      	ldr	r3, [r7, #4]
 8001dce:	681b      	ldr	r3, [r3, #0]
 8001dd0:	f1b3 4f80 	cmp.w	r3, #1073741824	; 0x40000000
 8001dd4:	d131      	bne.n	8001e3a <HAL_TIM_Base_MspInit+0x86>
  {
  /* USER CODE BEGIN TIM2_MspInit 0 */

  /* USER CODE END TIM2_MspInit 0 */
    /* TIM2 clock enable */
    __HAL_RCC_TIM2_CLK_ENABLE();
 8001dd6:	4b4a      	ldr	r3, [pc, #296]	; (8001f00 <HAL_TIM_Base_MspInit+0x14c>)
 8001dd8:	6d9b      	ldr	r3, [r3, #88]	; 0x58
 8001dda:	4a49      	ldr	r2, [pc, #292]	; (8001f00 <HAL_TIM_Base_MspInit+0x14c>)
 8001ddc:	f043 0301 	orr.w	r3, r3, #1
 8001de0:	6593      	str	r3, [r2, #88]	; 0x58
 8001de2:	4b47      	ldr	r3, [pc, #284]	; (8001f00 <HAL_TIM_Base_MspInit+0x14c>)
 8001de4:	6d9b      	ldr	r3, [r3, #88]	; 0x58
 8001de6:	f003 0301 	and.w	r3, r3, #1
 8001dea:	623b      	str	r3, [r7, #32]
 8001dec:	6a3b      	ldr	r3, [r7, #32]
  
    __HAL_RCC_GPIOA_CLK_ENABLE();
 8001dee:	4b44      	ldr	r3, [pc, #272]	; (8001f00 <HAL_TIM_Base_MspInit+0x14c>)
 8001df0:	6cdb      	ldr	r3, [r3, #76]	; 0x4c
 8001df2:	4a43      	ldr	r2, [pc, #268]	; (8001f00 <HAL_TIM_Base_MspInit+0x14c>)
 8001df4:	f043 0301 	orr.w	r3, r3, #1
 8001df8:	64d3      	str	r3, [r2, #76]	; 0x4c
 8001dfa:	4b41      	ldr	r3, [pc, #260]	; (8001f00 <HAL_TIM_Base_MspInit+0x14c>)
 8001dfc:	6cdb      	ldr	r3, [r3, #76]	; 0x4c
 8001dfe:	f003 0301 	and.w	r3, r3, #1
 8001e02:	61fb      	str	r3, [r7, #28]
 8001e04:	69fb      	ldr	r3, [r7, #28]
    /**TIM2 GPIO Configuration    
    PA0     ------> TIM2_CH1 
    */
    GPIO_InitStruct.Pin = GPIO_PIN_0;
 8001e06:	2301      	movs	r3, #1
 8001e08:	627b      	str	r3, [r7, #36]	; 0x24
    GPIO_InitStruct.Mode = GPIO_MODE_AF_PP;
 8001e0a:	2302      	movs	r3, #2
 8001e0c:	62bb      	str	r3, [r7, #40]	; 0x28
    GPIO_InitStruct.Pull = GPIO_NOPULL;
 8001e0e:	2300      	movs	r3, #0
 8001e10:	62fb      	str	r3, [r7, #44]	; 0x2c
    GPIO_InitStruct.Speed = GPIO_SPEED_FREQ_LOW;
 8001e12:	2300      	movs	r3, #0
 8001e14:	633b      	str	r3, [r7, #48]	; 0x30
    GPIO_InitStruct.Alternate = GPIO_AF1_TIM2;
 8001e16:	2301      	movs	r3, #1
 8001e18:	637b      	str	r3, [r7, #52]	; 0x34
    HAL_GPIO_Init(GPIOA, &GPIO_InitStruct);
 8001e1a:	f107 0324 	add.w	r3, r7, #36	; 0x24
 8001e1e:	4619      	mov	r1, r3
 8001e20:	f04f 4090 	mov.w	r0, #1207959552	; 0x48000000
 8001e24:	f002 fba6 	bl	8004574 <HAL_GPIO_Init>

    /* TIM2 interrupt Init */
    HAL_NVIC_SetPriority(TIM2_IRQn, 1, 0);
 8001e28:	2200      	movs	r2, #0
 8001e2a:	2101      	movs	r1, #1
 8001e2c:	201c      	movs	r0, #28
 8001e2e:	f001 fd48 	bl	80038c2 <HAL_NVIC_SetPriority>
    HAL_NVIC_EnableIRQ(TIM2_IRQn);
 8001e32:	201c      	movs	r0, #28
 8001e34:	f001 fd5f 	bl	80038f6 <HAL_NVIC_EnableIRQ>
    HAL_NVIC_EnableIRQ(TIM1_TRG_COM_TIM17_IRQn);
  /* USER CODE BEGIN TIM17_MspInit 1 */

  /* USER CODE END TIM17_MspInit 1 */
  }
}
 8001e38:	e05e      	b.n	8001ef8 <HAL_TIM_Base_MspInit+0x144>
  else if(tim_baseHandle->Instance==TIM8)
 8001e3a:	687b      	ldr	r3, [r7, #4]
 8001e3c:	681b      	ldr	r3, [r3, #0]
 8001e3e:	4a31      	ldr	r2, [pc, #196]	; (8001f04 <HAL_TIM_Base_MspInit+0x150>)
 8001e40:	4293      	cmp	r3, r2
 8001e42:	d10c      	bne.n	8001e5e <HAL_TIM_Base_MspInit+0xaa>
    __HAL_RCC_TIM8_CLK_ENABLE();
 8001e44:	4b2e      	ldr	r3, [pc, #184]	; (8001f00 <HAL_TIM_Base_MspInit+0x14c>)
 8001e46:	6e1b      	ldr	r3, [r3, #96]	; 0x60
 8001e48:	4a2d      	ldr	r2, [pc, #180]	; (8001f00 <HAL_TIM_Base_MspInit+0x14c>)
 8001e4a:	f443 5300 	orr.w	r3, r3, #8192	; 0x2000
 8001e4e:	6613      	str	r3, [r2, #96]	; 0x60
 8001e50:	4b2b      	ldr	r3, [pc, #172]	; (8001f00 <HAL_TIM_Base_MspInit+0x14c>)
 8001e52:	6e1b      	ldr	r3, [r3, #96]	; 0x60
 8001e54:	f403 5300 	and.w	r3, r3, #8192	; 0x2000
 8001e58:	61bb      	str	r3, [r7, #24]
 8001e5a:	69bb      	ldr	r3, [r7, #24]
}
 8001e5c:	e04c      	b.n	8001ef8 <HAL_TIM_Base_MspInit+0x144>
  else if(tim_baseHandle->Instance==TIM15)
 8001e5e:	687b      	ldr	r3, [r7, #4]
 8001e60:	681b      	ldr	r3, [r3, #0]
 8001e62:	4a29      	ldr	r2, [pc, #164]	; (8001f08 <HAL_TIM_Base_MspInit+0x154>)
 8001e64:	4293      	cmp	r3, r2
 8001e66:	d114      	bne.n	8001e92 <HAL_TIM_Base_MspInit+0xde>
    __HAL_RCC_TIM15_CLK_ENABLE();
 8001e68:	4b25      	ldr	r3, [pc, #148]	; (8001f00 <HAL_TIM_Base_MspInit+0x14c>)
 8001e6a:	6e1b      	ldr	r3, [r3, #96]	; 0x60
 8001e6c:	4a24      	ldr	r2, [pc, #144]	; (8001f00 <HAL_TIM_Base_MspInit+0x14c>)
 8001e6e:	f443 3380 	orr.w	r3, r3, #65536	; 0x10000
 8001e72:	6613      	str	r3, [r2, #96]	; 0x60
 8001e74:	4b22      	ldr	r3, [pc, #136]	; (8001f00 <HAL_TIM_Base_MspInit+0x14c>)
 8001e76:	6e1b      	ldr	r3, [r3, #96]	; 0x60
 8001e78:	f403 3380 	and.w	r3, r3, #65536	; 0x10000
 8001e7c:	617b      	str	r3, [r7, #20]
 8001e7e:	697b      	ldr	r3, [r7, #20]
    HAL_NVIC_SetPriority(TIM1_BRK_TIM15_IRQn, 1, 0);
 8001e80:	2200      	movs	r2, #0
 8001e82:	2101      	movs	r1, #1
 8001e84:	2018      	movs	r0, #24
 8001e86:	f001 fd1c 	bl	80038c2 <HAL_NVIC_SetPriority>
    HAL_NVIC_EnableIRQ(TIM1_BRK_TIM15_IRQn);
 8001e8a:	2018      	movs	r0, #24
 8001e8c:	f001 fd33 	bl	80038f6 <HAL_NVIC_EnableIRQ>
}
 8001e90:	e032      	b.n	8001ef8 <HAL_TIM_Base_MspInit+0x144>
  else if(tim_baseHandle->Instance==TIM16)
 8001e92:	687b      	ldr	r3, [r7, #4]
 8001e94:	681b      	ldr	r3, [r3, #0]
 8001e96:	4a1d      	ldr	r2, [pc, #116]	; (8001f0c <HAL_TIM_Base_MspInit+0x158>)
 8001e98:	4293      	cmp	r3, r2
 8001e9a:	d114      	bne.n	8001ec6 <HAL_TIM_Base_MspInit+0x112>
    __HAL_RCC_TIM16_CLK_ENABLE();
 8001e9c:	4b18      	ldr	r3, [pc, #96]	; (8001f00 <HAL_TIM_Base_MspInit+0x14c>)
 8001e9e:	6e1b      	ldr	r3, [r3, #96]	; 0x60
 8001ea0:	4a17      	ldr	r2, [pc, #92]	; (8001f00 <HAL_TIM_Base_MspInit+0x14c>)
 8001ea2:	f443 3300 	orr.w	r3, r3, #131072	; 0x20000
 8001ea6:	6613      	str	r3, [r2, #96]	; 0x60
 8001ea8:	4b15      	ldr	r3, [pc, #84]	; (8001f00 <HAL_TIM_Base_MspInit+0x14c>)
 8001eaa:	6e1b      	ldr	r3, [r3, #96]	; 0x60
 8001eac:	f403 3300 	and.w	r3, r3, #131072	; 0x20000
 8001eb0:	613b      	str	r3, [r7, #16]
 8001eb2:	693b      	ldr	r3, [r7, #16]
    HAL_NVIC_SetPriority(TIM1_UP_TIM16_IRQn, 1, 0);
 8001eb4:	2200      	movs	r2, #0
 8001eb6:	2101      	movs	r1, #1
 8001eb8:	2019      	movs	r0, #25
 8001eba:	f001 fd02 	bl	80038c2 <HAL_NVIC_SetPriority>
    HAL_NVIC_EnableIRQ(TIM1_UP_TIM16_IRQn);
 8001ebe:	2019      	movs	r0, #25
 8001ec0:	f001 fd19 	bl	80038f6 <HAL_NVIC_EnableIRQ>
}
 8001ec4:	e018      	b.n	8001ef8 <HAL_TIM_Base_MspInit+0x144>
  else if(tim_baseHandle->Instance==TIM17)
 8001ec6:	687b      	ldr	r3, [r7, #4]
 8001ec8:	681b      	ldr	r3, [r3, #0]
 8001eca:	4a11      	ldr	r2, [pc, #68]	; (8001f10 <HAL_TIM_Base_MspInit+0x15c>)
 8001ecc:	4293      	cmp	r3, r2
 8001ece:	d113      	bne.n	8001ef8 <HAL_TIM_Base_MspInit+0x144>
    __HAL_RCC_TIM17_CLK_ENABLE();
 8001ed0:	4b0b      	ldr	r3, [pc, #44]	; (8001f00 <HAL_TIM_Base_MspInit+0x14c>)
 8001ed2:	6e1b      	ldr	r3, [r3, #96]	; 0x60
 8001ed4:	4a0a      	ldr	r2, [pc, #40]	; (8001f00 <HAL_TIM_Base_MspInit+0x14c>)
 8001ed6:	f443 2380 	orr.w	r3, r3, #262144	; 0x40000
 8001eda:	6613      	str	r3, [r2, #96]	; 0x60
 8001edc:	4b08      	ldr	r3, [pc, #32]	; (8001f00 <HAL_TIM_Base_MspInit+0x14c>)
 8001ede:	6e1b      	ldr	r3, [r3, #96]	; 0x60
 8001ee0:	f403 2380 	and.w	r3, r3, #262144	; 0x40000
 8001ee4:	60fb      	str	r3, [r7, #12]
 8001ee6:	68fb      	ldr	r3, [r7, #12]
    HAL_NVIC_SetPriority(TIM1_TRG_COM_TIM17_IRQn, 0, 0);
 8001ee8:	2200      	movs	r2, #0
 8001eea:	2100      	movs	r1, #0
 8001eec:	201a      	movs	r0, #26
 8001eee:	f001 fce8 	bl	80038c2 <HAL_NVIC_SetPriority>
    HAL_NVIC_EnableIRQ(TIM1_TRG_COM_TIM17_IRQn);
 8001ef2:	201a      	movs	r0, #26
 8001ef4:	f001 fcff 	bl	80038f6 <HAL_NVIC_EnableIRQ>
}
 8001ef8:	bf00      	nop
 8001efa:	3738      	adds	r7, #56	; 0x38
 8001efc:	46bd      	mov	sp, r7
 8001efe:	bd80      	pop	{r7, pc}
 8001f00:	40021000 	.word	0x40021000
 8001f04:	40013400 	.word	0x40013400
 8001f08:	40014000 	.word	0x40014000
 8001f0c:	40014400 	.word	0x40014400
 8001f10:	40014800 	.word	0x40014800

08001f14 <Reset_Handler>:

    .section	.text.Reset_Handler
	.weak	Reset_Handler
	.type	Reset_Handler, %function
Reset_Handler:
  ldr   r0, =_estack
 8001f14:	480d      	ldr	r0, [pc, #52]	; (8001f4c <LoopForever+0x2>)
  mov   sp, r0          /* set stack pointer */
 8001f16:	4685      	mov	sp, r0

/* Copy the data segment initializers from flash to SRAM */
  ldr r0, =_sdata
 8001f18:	480d      	ldr	r0, [pc, #52]	; (8001f50 <LoopForever+0x6>)
  ldr r1, =_edata
 8001f1a:	490e      	ldr	r1, [pc, #56]	; (8001f54 <LoopForever+0xa>)
  ldr r2, =_sidata
 8001f1c:	4a0e      	ldr	r2, [pc, #56]	; (8001f58 <LoopForever+0xe>)
  movs r3, #0
 8001f1e:	2300      	movs	r3, #0
  b	LoopCopyDataInit
 8001f20:	e002      	b.n	8001f28 <LoopCopyDataInit>

08001f22 <CopyDataInit>:

CopyDataInit:
  ldr r4, [r2, r3]
 8001f22:	58d4      	ldr	r4, [r2, r3]
  str r4, [r0, r3]
 8001f24:	50c4      	str	r4, [r0, r3]
  adds r3, r3, #4
 8001f26:	3304      	adds	r3, #4

08001f28 <LoopCopyDataInit>:

LoopCopyDataInit:
  adds r4, r0, r3
 8001f28:	18c4      	adds	r4, r0, r3
  cmp r4, r1
 8001f2a:	428c      	cmp	r4, r1
  bcc CopyDataInit
 8001f2c:	d3f9      	bcc.n	8001f22 <CopyDataInit>
  
/* Zero fill the bss segment. */
  ldr r2, =_sbss
 8001f2e:	4a0b      	ldr	r2, [pc, #44]	; (8001f5c <LoopForever+0x12>)
  ldr r4, =_ebss
 8001f30:	4c0b      	ldr	r4, [pc, #44]	; (8001f60 <LoopForever+0x16>)
  movs r3, #0
 8001f32:	2300      	movs	r3, #0
  b LoopFillZerobss
 8001f34:	e001      	b.n	8001f3a <LoopFillZerobss>

08001f36 <FillZerobss>:

FillZerobss:
  str  r3, [r2]
 8001f36:	6013      	str	r3, [r2, #0]
  adds r2, r2, #4
 8001f38:	3204      	adds	r2, #4

08001f3a <LoopFillZerobss>:

LoopFillZerobss:
  cmp r2, r4
 8001f3a:	42a2      	cmp	r2, r4
  bcc FillZerobss
 8001f3c:	d3fb      	bcc.n	8001f36 <FillZerobss>

/* Call the clock system intitialization function.*/
    bl  SystemInit
 8001f3e:	f7ff fce7 	bl	8001910 <SystemInit>
/* Call static constructors */
    bl __libc_init_array
 8001f42:	f006 fa53 	bl	80083ec <__libc_init_array>
/* Call the application's entry point.*/
	bl	main
 8001f46:	f7ff f829 	bl	8000f9c <main>

08001f4a <LoopForever>:

LoopForever:
    b LoopForever
 8001f4a:	e7fe      	b.n	8001f4a <LoopForever>
  ldr   r0, =_estack
 8001f4c:	20020000 	.word	0x20020000
  ldr r0, =_sdata
 8001f50:	20000000 	.word	0x20000000
  ldr r1, =_edata
 8001f54:	20001fb8 	.word	0x20001fb8
  ldr r2, =_sidata
 8001f58:	08009a40 	.word	0x08009a40
  ldr r2, =_sbss
 8001f5c:	20001fb8 	.word	0x20001fb8
  ldr r4, =_ebss
 8001f60:	20002464 	.word	0x20002464

08001f64 <ADC1_2_IRQHandler>:
 * @retval : None
*/
    .section	.text.Default_Handler,"ax",%progbits
Default_Handler:
Infinite_Loop:
	b	Infinite_Loop
 8001f64:	e7fe      	b.n	8001f64 <ADC1_2_IRQHandler>

08001f66 <HAL_Init>:
  *         each 1ms in the SysTick_Handler() interrupt handler.
  *
  * @retval HAL status
  */
HAL_StatusTypeDef HAL_Init(void)
{
 8001f66:	b580      	push	{r7, lr}
 8001f68:	b082      	sub	sp, #8
 8001f6a:	af00      	add	r7, sp, #0
  HAL_StatusTypeDef  status = HAL_OK;
 8001f6c:	2300      	movs	r3, #0
 8001f6e:	71fb      	strb	r3, [r7, #7]
#if (PREFETCH_ENABLE != 0U)
  __HAL_FLASH_PREFETCH_BUFFER_ENABLE();
#endif /* PREFETCH_ENABLE */

  /* Set Interrupt Group Priority */
  HAL_NVIC_SetPriorityGrouping(NVIC_PRIORITYGROUP_4);
 8001f70:	2003      	movs	r0, #3
 8001f72:	f001 fc9b 	bl	80038ac <HAL_NVIC_SetPriorityGrouping>

  /* Use SysTick as time base source and configure 1ms tick (default clock after Reset is HSI) */
  if (HAL_InitTick(TICK_INT_PRIORITY) != HAL_OK)
 8001f76:	2000      	movs	r0, #0
 8001f78:	f000 f80e 	bl	8001f98 <HAL_InitTick>
 8001f7c:	4603      	mov	r3, r0
 8001f7e:	2b00      	cmp	r3, #0
 8001f80:	d002      	beq.n	8001f88 <HAL_Init+0x22>
  {
    status = HAL_ERROR;
 8001f82:	2301      	movs	r3, #1
 8001f84:	71fb      	strb	r3, [r7, #7]
 8001f86:	e001      	b.n	8001f8c <HAL_Init+0x26>
  }
  else
  {
    /* Init the low level hardware */
    HAL_MspInit();
 8001f88:	f7ff fa34 	bl	80013f4 <HAL_MspInit>
  }

  /* Return function status */
  return status;
 8001f8c:	79fb      	ldrb	r3, [r7, #7]

}
 8001f8e:	4618      	mov	r0, r3
 8001f90:	3708      	adds	r7, #8
 8001f92:	46bd      	mov	sp, r7
 8001f94:	bd80      	pop	{r7, pc}
	...

08001f98 <HAL_InitTick>:
  *       implementation  in user file.
  * @param TickPriority: Tick interrupt priority.
  * @retval HAL status
  */
__weak HAL_StatusTypeDef HAL_InitTick(uint32_t TickPriority)
{
 8001f98:	b580      	push	{r7, lr}
 8001f9a:	b084      	sub	sp, #16
 8001f9c:	af00      	add	r7, sp, #0
 8001f9e:	6078      	str	r0, [r7, #4]
  HAL_StatusTypeDef  status = HAL_OK;
 8001fa0:	2300      	movs	r3, #0
 8001fa2:	73fb      	strb	r3, [r7, #15]

  if (uwTickFreq != 0U)
 8001fa4:	4b16      	ldr	r3, [pc, #88]	; (8002000 <HAL_InitTick+0x68>)
 8001fa6:	681b      	ldr	r3, [r3, #0]
 8001fa8:	2b00      	cmp	r3, #0
 8001faa:	d022      	beq.n	8001ff2 <HAL_InitTick+0x5a>
  {
    /* Configure the SysTick to have interrupt in 1ms time basis*/
    if (HAL_SYSTICK_Config(SystemCoreClock / (1000U / uwTickFreq)) == 0U)
 8001fac:	4b15      	ldr	r3, [pc, #84]	; (8002004 <HAL_InitTick+0x6c>)
 8001fae:	681a      	ldr	r2, [r3, #0]
 8001fb0:	4b13      	ldr	r3, [pc, #76]	; (8002000 <HAL_InitTick+0x68>)
 8001fb2:	681b      	ldr	r3, [r3, #0]
 8001fb4:	f44f 717a 	mov.w	r1, #1000	; 0x3e8
 8001fb8:	fbb1 f3f3 	udiv	r3, r1, r3
 8001fbc:	fbb2 f3f3 	udiv	r3, r2, r3
 8001fc0:	4618      	mov	r0, r3
 8001fc2:	f001 fca6 	bl	8003912 <HAL_SYSTICK_Config>
 8001fc6:	4603      	mov	r3, r0
 8001fc8:	2b00      	cmp	r3, #0
 8001fca:	d10f      	bne.n	8001fec <HAL_InitTick+0x54>
    {
      /* Configure the SysTick IRQ priority */
      if (TickPriority < (1UL << __NVIC_PRIO_BITS))
 8001fcc:	687b      	ldr	r3, [r7, #4]
 8001fce:	2b0f      	cmp	r3, #15
 8001fd0:	d809      	bhi.n	8001fe6 <HAL_InitTick+0x4e>
      {
        HAL_NVIC_SetPriority(SysTick_IRQn, TickPriority, 0U);
 8001fd2:	2200      	movs	r2, #0
 8001fd4:	6879      	ldr	r1, [r7, #4]
 8001fd6:	f04f 30ff 	mov.w	r0, #4294967295	; 0xffffffff
 8001fda:	f001 fc72 	bl	80038c2 <HAL_NVIC_SetPriority>
        uwTickPrio = TickPriority;
 8001fde:	4a0a      	ldr	r2, [pc, #40]	; (8002008 <HAL_InitTick+0x70>)
 8001fe0:	687b      	ldr	r3, [r7, #4]
 8001fe2:	6013      	str	r3, [r2, #0]
 8001fe4:	e007      	b.n	8001ff6 <HAL_InitTick+0x5e>
      }
      else
      {
        status = HAL_ERROR;
 8001fe6:	2301      	movs	r3, #1
 8001fe8:	73fb      	strb	r3, [r7, #15]
 8001fea:	e004      	b.n	8001ff6 <HAL_InitTick+0x5e>
      }
    }
    else
    {
      status = HAL_ERROR;
 8001fec:	2301      	movs	r3, #1
 8001fee:	73fb      	strb	r3, [r7, #15]
 8001ff0:	e001      	b.n	8001ff6 <HAL_InitTick+0x5e>
    }
  }
  else
  {
    status = HAL_ERROR;
 8001ff2:	2301      	movs	r3, #1
 8001ff4:	73fb      	strb	r3, [r7, #15]
  }

  /* Return function status */
  return status;
 8001ff6:	7bfb      	ldrb	r3, [r7, #15]
}
 8001ff8:	4618      	mov	r0, r3
 8001ffa:	3710      	adds	r7, #16
 8001ffc:	46bd      	mov	sp, r7
 8001ffe:	bd80      	pop	{r7, pc}
 8002000:	20001f4c 	.word	0x20001f4c
 8002004:	20001f44 	.word	0x20001f44
 8002008:	20001f48 	.word	0x20001f48

0800200c <HAL_IncTick>:
  * @note This function is declared as __weak to be overwritten in case of other
  *      implementations in user file.
  * @retval None
  */
__weak void HAL_IncTick(void)
{
 800200c:	b480      	push	{r7}
 800200e:	af00      	add	r7, sp, #0
  uwTick += uwTickFreq;
 8002010:	4b05      	ldr	r3, [pc, #20]	; (8002028 <HAL_IncTick+0x1c>)
 8002012:	681a      	ldr	r2, [r3, #0]
 8002014:	4b05      	ldr	r3, [pc, #20]	; (800202c <HAL_IncTick+0x20>)
 8002016:	681b      	ldr	r3, [r3, #0]
 8002018:	4413      	add	r3, r2
 800201a:	4a03      	ldr	r2, [pc, #12]	; (8002028 <HAL_IncTick+0x1c>)
 800201c:	6013      	str	r3, [r2, #0]
}
 800201e:	bf00      	nop
 8002020:	46bd      	mov	sp, r7
 8002022:	f85d 7b04 	ldr.w	r7, [sp], #4
 8002026:	4770      	bx	lr
 8002028:	2000245c 	.word	0x2000245c
 800202c:	20001f4c 	.word	0x20001f4c

08002030 <HAL_GetTick>:
  * @note This function is declared as __weak to be overwritten in case of other
  *       implementations in user file.
  * @retval tick value
  */
__weak uint32_t HAL_GetTick(void)
{
 8002030:	b480      	push	{r7}
 8002032:	af00      	add	r7, sp, #0
  return uwTick;
 8002034:	4b03      	ldr	r3, [pc, #12]	; (8002044 <HAL_GetTick+0x14>)
 8002036:	681b      	ldr	r3, [r3, #0]
}
 8002038:	4618      	mov	r0, r3
 800203a:	46bd      	mov	sp, r7
 800203c:	f85d 7b04 	ldr.w	r7, [sp], #4
 8002040:	4770      	bx	lr
 8002042:	bf00      	nop
 8002044:	2000245c 	.word	0x2000245c

08002048 <HAL_Delay>:
  *       implementations in user file.
  * @param Delay specifies the delay time length, in milliseconds.
  * @retval None
  */
__weak void HAL_Delay(uint32_t Delay)
{
 8002048:	b580      	push	{r7, lr}
 800204a:	b084      	sub	sp, #16
 800204c:	af00      	add	r7, sp, #0
 800204e:	6078      	str	r0, [r7, #4]
  uint32_t tickstart = HAL_GetTick();
 8002050:	f7ff ffee 	bl	8002030 <HAL_GetTick>
 8002054:	60b8      	str	r0, [r7, #8]
  uint32_t wait = Delay;
 8002056:	687b      	ldr	r3, [r7, #4]
 8002058:	60fb      	str	r3, [r7, #12]

  /* Add a freq to guarantee minimum wait */
  if (wait < HAL_MAX_DELAY)
 800205a:	68fb      	ldr	r3, [r7, #12]
 800205c:	f1b3 3fff 	cmp.w	r3, #4294967295	; 0xffffffff
 8002060:	d004      	beq.n	800206c <HAL_Delay+0x24>
  {
    wait += (uint32_t)(uwTickFreq);
 8002062:	4b09      	ldr	r3, [pc, #36]	; (8002088 <HAL_Delay+0x40>)
 8002064:	681b      	ldr	r3, [r3, #0]
 8002066:	68fa      	ldr	r2, [r7, #12]
 8002068:	4413      	add	r3, r2
 800206a:	60fb      	str	r3, [r7, #12]
  }

  while ((HAL_GetTick() - tickstart) < wait)
 800206c:	bf00      	nop
 800206e:	f7ff ffdf 	bl	8002030 <HAL_GetTick>
 8002072:	4602      	mov	r2, r0
 8002074:	68bb      	ldr	r3, [r7, #8]
 8002076:	1ad3      	subs	r3, r2, r3
 8002078:	68fa      	ldr	r2, [r7, #12]
 800207a:	429a      	cmp	r2, r3
 800207c:	d8f7      	bhi.n	800206e <HAL_Delay+0x26>
  {
  }
}
 800207e:	bf00      	nop
 8002080:	3710      	adds	r7, #16
 8002082:	46bd      	mov	sp, r7
 8002084:	bd80      	pop	{r7, pc}
 8002086:	bf00      	nop
 8002088:	20001f4c 	.word	0x20001f4c

0800208c <LL_ADC_SetCommonClock>:
  *         @arg @ref LL_ADC_CLOCK_ASYNC_DIV128
  *         @arg @ref LL_ADC_CLOCK_ASYNC_DIV256
  * @retval None
  */
__STATIC_INLINE void LL_ADC_SetCommonClock(ADC_Common_TypeDef *ADCxy_COMMON, uint32_t CommonClock)
{
 800208c:	b480      	push	{r7}
 800208e:	b083      	sub	sp, #12
 8002090:	af00      	add	r7, sp, #0
 8002092:	6078      	str	r0, [r7, #4]
 8002094:	6039      	str	r1, [r7, #0]
  MODIFY_REG(ADCxy_COMMON->CCR, ADC_CCR_CKMODE | ADC_CCR_PRESC, CommonClock);
 8002096:	687b      	ldr	r3, [r7, #4]
 8002098:	689b      	ldr	r3, [r3, #8]
 800209a:	f423 127c 	bic.w	r2, r3, #4128768	; 0x3f0000
 800209e:	683b      	ldr	r3, [r7, #0]
 80020a0:	431a      	orrs	r2, r3
 80020a2:	687b      	ldr	r3, [r7, #4]
 80020a4:	609a      	str	r2, [r3, #8]
}
 80020a6:	bf00      	nop
 80020a8:	370c      	adds	r7, #12
 80020aa:	46bd      	mov	sp, r7
 80020ac:	f85d 7b04 	ldr.w	r7, [sp], #4
 80020b0:	4770      	bx	lr

080020b2 <LL_ADC_SetCommonPathInternalCh>:
  *         @arg @ref LL_ADC_PATH_INTERNAL_TEMPSENSOR
  *         @arg @ref LL_ADC_PATH_INTERNAL_VBAT
  * @retval None
  */
__STATIC_INLINE void LL_ADC_SetCommonPathInternalCh(ADC_Common_TypeDef *ADCxy_COMMON, uint32_t PathInternal)
{
 80020b2:	b480      	push	{r7}
 80020b4:	b083      	sub	sp, #12
 80020b6:	af00      	add	r7, sp, #0
 80020b8:	6078      	str	r0, [r7, #4]
 80020ba:	6039      	str	r1, [r7, #0]
  MODIFY_REG(ADCxy_COMMON->CCR, ADC_CCR_VREFEN | ADC_CCR_VSENSESEL | ADC_CCR_VBATSEL, PathInternal);
 80020bc:	687b      	ldr	r3, [r7, #4]
 80020be:	689b      	ldr	r3, [r3, #8]
 80020c0:	f023 72e0 	bic.w	r2, r3, #29360128	; 0x1c00000
 80020c4:	683b      	ldr	r3, [r7, #0]
 80020c6:	431a      	orrs	r2, r3
 80020c8:	687b      	ldr	r3, [r7, #4]
 80020ca:	609a      	str	r2, [r3, #8]
}
 80020cc:	bf00      	nop
 80020ce:	370c      	adds	r7, #12
 80020d0:	46bd      	mov	sp, r7
 80020d2:	f85d 7b04 	ldr.w	r7, [sp], #4
 80020d6:	4770      	bx	lr

080020d8 <LL_ADC_GetCommonPathInternalCh>:
  *         @arg @ref LL_ADC_PATH_INTERNAL_VREFINT
  *         @arg @ref LL_ADC_PATH_INTERNAL_TEMPSENSOR
  *         @arg @ref LL_ADC_PATH_INTERNAL_VBAT
  */
__STATIC_INLINE uint32_t LL_ADC_GetCommonPathInternalCh(ADC_Common_TypeDef *ADCxy_COMMON)
{
 80020d8:	b480      	push	{r7}
 80020da:	b083      	sub	sp, #12
 80020dc:	af00      	add	r7, sp, #0
 80020de:	6078      	str	r0, [r7, #4]
  return (uint32_t)(READ_BIT(ADCxy_COMMON->CCR, ADC_CCR_VREFEN | ADC_CCR_VSENSESEL | ADC_CCR_VBATSEL));
 80020e0:	687b      	ldr	r3, [r7, #4]
 80020e2:	689b      	ldr	r3, [r3, #8]
 80020e4:	f003 73e0 	and.w	r3, r3, #29360128	; 0x1c00000
}
 80020e8:	4618      	mov	r0, r3
 80020ea:	370c      	adds	r7, #12
 80020ec:	46bd      	mov	sp, r7
 80020ee:	f85d 7b04 	ldr.w	r7, [sp], #4
 80020f2:	4770      	bx	lr

080020f4 <LL_ADC_SetOffset>:
  *             Other channels are slow channels  allows: 6.5 (sampling) + 12.5 (conversion) = 19 ADC clock cycles (fADC) to convert in 12-bit resolution.\n
  * @param  OffsetLevel Value between Min_Data=0x000 and Max_Data=0xFFF
  * @retval None
  */
__STATIC_INLINE void LL_ADC_SetOffset(ADC_TypeDef *ADCx, uint32_t Offsety, uint32_t Channel, uint32_t OffsetLevel)
{
 80020f4:	b490      	push	{r4, r7}
 80020f6:	b084      	sub	sp, #16
 80020f8:	af00      	add	r7, sp, #0
 80020fa:	60f8      	str	r0, [r7, #12]
 80020fc:	60b9      	str	r1, [r7, #8]
 80020fe:	607a      	str	r2, [r7, #4]
 8002100:	603b      	str	r3, [r7, #0]
  register __IO uint32_t *preg = __ADC_PTR_REG_OFFSET(ADCx->OFR1, Offsety);
 8002102:	68fb      	ldr	r3, [r7, #12]
 8002104:	3360      	adds	r3, #96	; 0x60
 8002106:	461a      	mov	r2, r3
 8002108:	68bb      	ldr	r3, [r7, #8]
 800210a:	009b      	lsls	r3, r3, #2
 800210c:	4413      	add	r3, r2
 800210e:	461c      	mov	r4, r3

  MODIFY_REG(*preg,
 8002110:	6822      	ldr	r2, [r4, #0]
 8002112:	4b08      	ldr	r3, [pc, #32]	; (8002134 <LL_ADC_SetOffset+0x40>)
 8002114:	4013      	ands	r3, r2
 8002116:	687a      	ldr	r2, [r7, #4]
 8002118:	f002 41f8 	and.w	r1, r2, #2080374784	; 0x7c000000
 800211c:	683a      	ldr	r2, [r7, #0]
 800211e:	430a      	orrs	r2, r1
 8002120:	4313      	orrs	r3, r2
 8002122:	f043 4300 	orr.w	r3, r3, #2147483648	; 0x80000000
 8002126:	6023      	str	r3, [r4, #0]
             ADC_OFR1_OFFSET1_EN | ADC_OFR1_OFFSET1_CH | ADC_OFR1_OFFSET1,
             ADC_OFR1_OFFSET1_EN | (Channel & ADC_CHANNEL_ID_NUMBER_MASK) | OffsetLevel);
}
 8002128:	bf00      	nop
 800212a:	3710      	adds	r7, #16
 800212c:	46bd      	mov	sp, r7
 800212e:	bc90      	pop	{r4, r7}
 8002130:	4770      	bx	lr
 8002132:	bf00      	nop
 8002134:	03fff000 	.word	0x03fff000

08002138 <LL_ADC_GetOffsetChannel>:
  *         (1, 2, 3, 4, 5, 7) For ADC channel read back from ADC register,
  *                      comparison with internal channel parameter to be done
  *                      using helper macro @ref __LL_ADC_CHANNEL_INTERNAL_TO_EXTERNAL().
  */
__STATIC_INLINE uint32_t LL_ADC_GetOffsetChannel(ADC_TypeDef *ADCx, uint32_t Offsety)
{
 8002138:	b490      	push	{r4, r7}
 800213a:	b082      	sub	sp, #8
 800213c:	af00      	add	r7, sp, #0
 800213e:	6078      	str	r0, [r7, #4]
 8002140:	6039      	str	r1, [r7, #0]
  register const __IO uint32_t *preg = __ADC_PTR_REG_OFFSET(ADCx->OFR1, Offsety);
 8002142:	687b      	ldr	r3, [r7, #4]
 8002144:	3360      	adds	r3, #96	; 0x60
 8002146:	461a      	mov	r2, r3
 8002148:	683b      	ldr	r3, [r7, #0]
 800214a:	009b      	lsls	r3, r3, #2
 800214c:	4413      	add	r3, r2
 800214e:	461c      	mov	r4, r3

  return (uint32_t) READ_BIT(*preg, ADC_OFR1_OFFSET1_CH);
 8002150:	6823      	ldr	r3, [r4, #0]
 8002152:	f003 43f8 	and.w	r3, r3, #2080374784	; 0x7c000000
}
 8002156:	4618      	mov	r0, r3
 8002158:	3708      	adds	r7, #8
 800215a:	46bd      	mov	sp, r7
 800215c:	bc90      	pop	{r4, r7}
 800215e:	4770      	bx	lr

08002160 <LL_ADC_SetOffsetState>:
  *         @arg @ref LL_ADC_OFFSET_DISABLE
  *         @arg @ref LL_ADC_OFFSET_ENABLE
  * @retval None
  */
__STATIC_INLINE void LL_ADC_SetOffsetState(ADC_TypeDef *ADCx, uint32_t Offsety, uint32_t OffsetState)
{
 8002160:	b490      	push	{r4, r7}
 8002162:	b084      	sub	sp, #16
 8002164:	af00      	add	r7, sp, #0
 8002166:	60f8      	str	r0, [r7, #12]
 8002168:	60b9      	str	r1, [r7, #8]
 800216a:	607a      	str	r2, [r7, #4]
  register __IO uint32_t *preg = __ADC_PTR_REG_OFFSET(ADCx->OFR1, Offsety);
 800216c:	68fb      	ldr	r3, [r7, #12]
 800216e:	3360      	adds	r3, #96	; 0x60
 8002170:	461a      	mov	r2, r3
 8002172:	68bb      	ldr	r3, [r7, #8]
 8002174:	009b      	lsls	r3, r3, #2
 8002176:	4413      	add	r3, r2
 8002178:	461c      	mov	r4, r3

  MODIFY_REG(*preg,
 800217a:	6823      	ldr	r3, [r4, #0]
 800217c:	f023 4200 	bic.w	r2, r3, #2147483648	; 0x80000000
 8002180:	687b      	ldr	r3, [r7, #4]
 8002182:	4313      	orrs	r3, r2
 8002184:	6023      	str	r3, [r4, #0]
             ADC_OFR1_OFFSET1_EN,
             OffsetState);
}
 8002186:	bf00      	nop
 8002188:	3710      	adds	r7, #16
 800218a:	46bd      	mov	sp, r7
 800218c:	bc90      	pop	{r4, r7}
 800218e:	4770      	bx	lr

08002190 <LL_ADC_SetOffsetSign>:
  *         @arg @ref LL_ADC_OFFSET_SIGN_NEGATIVE
  *         @arg @ref LL_ADC_OFFSET_SIGN_POSITIVE
  * @retval None
  */
__STATIC_INLINE void LL_ADC_SetOffsetSign(ADC_TypeDef *ADCx, uint32_t Offsety, uint32_t OffsetSign)
{
 8002190:	b490      	push	{r4, r7}
 8002192:	b084      	sub	sp, #16
 8002194:	af00      	add	r7, sp, #0
 8002196:	60f8      	str	r0, [r7, #12]
 8002198:	60b9      	str	r1, [r7, #8]
 800219a:	607a      	str	r2, [r7, #4]
  register __IO uint32_t *preg = __ADC_PTR_REG_OFFSET(ADCx->OFR1, Offsety);
 800219c:	68fb      	ldr	r3, [r7, #12]
 800219e:	3360      	adds	r3, #96	; 0x60
 80021a0:	461a      	mov	r2, r3
 80021a2:	68bb      	ldr	r3, [r7, #8]
 80021a4:	009b      	lsls	r3, r3, #2
 80021a6:	4413      	add	r3, r2
 80021a8:	461c      	mov	r4, r3

  MODIFY_REG(*preg,
 80021aa:	6823      	ldr	r3, [r4, #0]
 80021ac:	f023 7280 	bic.w	r2, r3, #16777216	; 0x1000000
 80021b0:	687b      	ldr	r3, [r7, #4]
 80021b2:	4313      	orrs	r3, r2
 80021b4:	6023      	str	r3, [r4, #0]
             ADC_OFR1_OFFSETPOS,
             OffsetSign);
}
 80021b6:	bf00      	nop
 80021b8:	3710      	adds	r7, #16
 80021ba:	46bd      	mov	sp, r7
 80021bc:	bc90      	pop	{r4, r7}
 80021be:	4770      	bx	lr

080021c0 <LL_ADC_SetOffsetSaturation>:
  *         @arg @ref LL_ADC_OFFSET_SATURATION_ENABLE
  *         @arg @ref LL_ADC_OFFSET_SATURATION_DISABLE
  * @retval None
  */
__STATIC_INLINE void LL_ADC_SetOffsetSaturation(ADC_TypeDef *ADCx, uint32_t Offsety, uint32_t OffsetSaturation)
{
 80021c0:	b490      	push	{r4, r7}
 80021c2:	b084      	sub	sp, #16
 80021c4:	af00      	add	r7, sp, #0
 80021c6:	60f8      	str	r0, [r7, #12]
 80021c8:	60b9      	str	r1, [r7, #8]
 80021ca:	607a      	str	r2, [r7, #4]
  register __IO uint32_t *preg = __ADC_PTR_REG_OFFSET(ADCx->OFR1, Offsety);
 80021cc:	68fb      	ldr	r3, [r7, #12]
 80021ce:	3360      	adds	r3, #96	; 0x60
 80021d0:	461a      	mov	r2, r3
 80021d2:	68bb      	ldr	r3, [r7, #8]
 80021d4:	009b      	lsls	r3, r3, #2
 80021d6:	4413      	add	r3, r2
 80021d8:	461c      	mov	r4, r3

  MODIFY_REG(*preg,
 80021da:	6823      	ldr	r3, [r4, #0]
 80021dc:	f023 7200 	bic.w	r2, r3, #33554432	; 0x2000000
 80021e0:	687b      	ldr	r3, [r7, #4]
 80021e2:	4313      	orrs	r3, r2
 80021e4:	6023      	str	r3, [r4, #0]
             ADC_OFR1_SATEN,
             OffsetSaturation);
}
 80021e6:	bf00      	nop
 80021e8:	3710      	adds	r7, #16
 80021ea:	46bd      	mov	sp, r7
 80021ec:	bc90      	pop	{r4, r7}
 80021ee:	4770      	bx	lr

080021f0 <LL_ADC_SetSamplingTimeCommonConfig>:
  *         @arg @ref LL_ADC_SAMPLINGTIME_COMMON_DEFAULT
  *         @arg @ref LL_ADC_SAMPLINGTIME_COMMON_3C5_REPL_2C5
  * @retval None
  */
__STATIC_INLINE void LL_ADC_SetSamplingTimeCommonConfig(ADC_TypeDef *ADCx, uint32_t SamplingTimeCommonConfig)
{
 80021f0:	b480      	push	{r7}
 80021f2:	b083      	sub	sp, #12
 80021f4:	af00      	add	r7, sp, #0
 80021f6:	6078      	str	r0, [r7, #4]
 80021f8:	6039      	str	r1, [r7, #0]
  MODIFY_REG(ADCx->SMPR1, ADC_SMPR1_SMPPLUS, SamplingTimeCommonConfig);
 80021fa:	687b      	ldr	r3, [r7, #4]
 80021fc:	695b      	ldr	r3, [r3, #20]
 80021fe:	f023 4200 	bic.w	r2, r3, #2147483648	; 0x80000000
 8002202:	683b      	ldr	r3, [r7, #0]
 8002204:	431a      	orrs	r2, r3
 8002206:	687b      	ldr	r3, [r7, #4]
 8002208:	615a      	str	r2, [r3, #20]
}
 800220a:	bf00      	nop
 800220c:	370c      	adds	r7, #12
 800220e:	46bd      	mov	sp, r7
 8002210:	f85d 7b04 	ldr.w	r7, [sp], #4
 8002214:	4770      	bx	lr

08002216 <LL_ADC_REG_SetSequencerRanks>:
  *         (8) On STM32G4, fast channel allows: 2.5 (sampling) + 12.5 (conversion) = 15 ADC clock cycles (fADC) to convert in 12-bit resolution.
  *             Other channels are slow channels  allows: 6.5 (sampling) + 12.5 (conversion) = 19 ADC clock cycles (fADC) to convert in 12-bit resolution.\n
  * @retval None
  */
__STATIC_INLINE void LL_ADC_REG_SetSequencerRanks(ADC_TypeDef *ADCx, uint32_t Rank, uint32_t Channel)
{
 8002216:	b490      	push	{r4, r7}
 8002218:	b084      	sub	sp, #16
 800221a:	af00      	add	r7, sp, #0
 800221c:	60f8      	str	r0, [r7, #12]
 800221e:	60b9      	str	r1, [r7, #8]
 8002220:	607a      	str	r2, [r7, #4]
  /* Set bits with content of parameter "Channel" with bits position          */
  /* in register and register position depending on parameter "Rank".         */
  /* Parameters "Rank" and "Channel" are used with masks because containing   */
  /* other bits reserved for other purpose.                                   */
  register __IO uint32_t *preg = __ADC_PTR_REG_OFFSET(ADCx->SQR1, ((Rank & ADC_REG_SQRX_REGOFFSET_MASK) >> ADC_SQRX_REGOFFSET_POS));
 8002222:	68fb      	ldr	r3, [r7, #12]
 8002224:	3330      	adds	r3, #48	; 0x30
 8002226:	461a      	mov	r2, r3
 8002228:	68bb      	ldr	r3, [r7, #8]
 800222a:	0a1b      	lsrs	r3, r3, #8
 800222c:	009b      	lsls	r3, r3, #2
 800222e:	f003 030c 	and.w	r3, r3, #12
 8002232:	4413      	add	r3, r2
 8002234:	461c      	mov	r4, r3

  MODIFY_REG(*preg,
 8002236:	6822      	ldr	r2, [r4, #0]
 8002238:	68bb      	ldr	r3, [r7, #8]
 800223a:	f003 031f 	and.w	r3, r3, #31
 800223e:	211f      	movs	r1, #31
 8002240:	fa01 f303 	lsl.w	r3, r1, r3
 8002244:	43db      	mvns	r3, r3
 8002246:	401a      	ands	r2, r3
 8002248:	687b      	ldr	r3, [r7, #4]
 800224a:	0e9b      	lsrs	r3, r3, #26
 800224c:	f003 011f 	and.w	r1, r3, #31
 8002250:	68bb      	ldr	r3, [r7, #8]
 8002252:	f003 031f 	and.w	r3, r3, #31
 8002256:	fa01 f303 	lsl.w	r3, r1, r3
 800225a:	4313      	orrs	r3, r2
 800225c:	6023      	str	r3, [r4, #0]
             ADC_CHANNEL_ID_NUMBER_MASK_POSBIT0 << (Rank & ADC_REG_RANK_ID_SQRX_MASK),
             ((Channel & ADC_CHANNEL_ID_NUMBER_MASK) >> ADC_CHANNEL_ID_NUMBER_BITOFFSET_POS) << (Rank & ADC_REG_RANK_ID_SQRX_MASK));
}
 800225e:	bf00      	nop
 8002260:	3710      	adds	r7, #16
 8002262:	46bd      	mov	sp, r7
 8002264:	bc90      	pop	{r4, r7}
 8002266:	4770      	bx	lr

08002268 <LL_ADC_SetChannelSamplingTime>:
  *             can be replaced by 3.5 ADC clock cycles.
  *             Refer to function @ref LL_ADC_SetSamplingTimeCommonConfig().
  * @retval None
  */
__STATIC_INLINE void LL_ADC_SetChannelSamplingTime(ADC_TypeDef *ADCx, uint32_t Channel, uint32_t SamplingTime)
{
 8002268:	b490      	push	{r4, r7}
 800226a:	b084      	sub	sp, #16
 800226c:	af00      	add	r7, sp, #0
 800226e:	60f8      	str	r0, [r7, #12]
 8002270:	60b9      	str	r1, [r7, #8]
 8002272:	607a      	str	r2, [r7, #4]
  /* Set bits with content of parameter "SamplingTime" with bits position     */
  /* in register and register position depending on parameter "Channel".      */
  /* Parameter "Channel" is used with masks because containing                */
  /* other bits reserved for other purpose.                                   */
  register __IO uint32_t *preg = __ADC_PTR_REG_OFFSET(ADCx->SMPR1, ((Channel & ADC_CHANNEL_SMPRX_REGOFFSET_MASK) >> ADC_SMPRX_REGOFFSET_POS));
 8002274:	68fb      	ldr	r3, [r7, #12]
 8002276:	3314      	adds	r3, #20
 8002278:	461a      	mov	r2, r3
 800227a:	68bb      	ldr	r3, [r7, #8]
 800227c:	0e5b      	lsrs	r3, r3, #25
 800227e:	009b      	lsls	r3, r3, #2
 8002280:	f003 0304 	and.w	r3, r3, #4
 8002284:	4413      	add	r3, r2
 8002286:	461c      	mov	r4, r3

  MODIFY_REG(*preg,
 8002288:	6822      	ldr	r2, [r4, #0]
 800228a:	68bb      	ldr	r3, [r7, #8]
 800228c:	0d1b      	lsrs	r3, r3, #20
 800228e:	f003 031f 	and.w	r3, r3, #31
 8002292:	2107      	movs	r1, #7
 8002294:	fa01 f303 	lsl.w	r3, r1, r3
 8002298:	43db      	mvns	r3, r3
 800229a:	401a      	ands	r2, r3
 800229c:	68bb      	ldr	r3, [r7, #8]
 800229e:	0d1b      	lsrs	r3, r3, #20
 80022a0:	f003 031f 	and.w	r3, r3, #31
 80022a4:	6879      	ldr	r1, [r7, #4]
 80022a6:	fa01 f303 	lsl.w	r3, r1, r3
 80022aa:	4313      	orrs	r3, r2
 80022ac:	6023      	str	r3, [r4, #0]
             ADC_SMPR1_SMP0 << ((Channel & ADC_CHANNEL_SMPx_BITOFFSET_MASK) >> ADC_CHANNEL_SMPx_BITOFFSET_POS),
             SamplingTime   << ((Channel & ADC_CHANNEL_SMPx_BITOFFSET_MASK) >> ADC_CHANNEL_SMPx_BITOFFSET_POS));
}
 80022ae:	bf00      	nop
 80022b0:	3710      	adds	r7, #16
 80022b2:	46bd      	mov	sp, r7
 80022b4:	bc90      	pop	{r4, r7}
 80022b6:	4770      	bx	lr

080022b8 <LL_ADC_SetChannelSingleDiff>:
  *         @arg @ref LL_ADC_SINGLE_ENDED
  *         @arg @ref LL_ADC_DIFFERENTIAL_ENDED
  * @retval None
  */
__STATIC_INLINE void LL_ADC_SetChannelSingleDiff(ADC_TypeDef *ADCx, uint32_t Channel, uint32_t SingleDiff)
{
 80022b8:	b480      	push	{r7}
 80022ba:	b085      	sub	sp, #20
 80022bc:	af00      	add	r7, sp, #0
 80022be:	60f8      	str	r0, [r7, #12]
 80022c0:	60b9      	str	r1, [r7, #8]
 80022c2:	607a      	str	r2, [r7, #4]
  /* Bits of channels in single or differential mode are set only for         */
  /* differential mode (for single mode, mask of bits allowed to be set is    */
  /* shifted out of range of bits of channels in single or differential mode. */
  MODIFY_REG(ADCx->DIFSEL,
 80022c4:	68fb      	ldr	r3, [r7, #12]
 80022c6:	f8d3 20b0 	ldr.w	r2, [r3, #176]	; 0xb0
 80022ca:	68bb      	ldr	r3, [r7, #8]
 80022cc:	f3c3 0312 	ubfx	r3, r3, #0, #19
 80022d0:	43db      	mvns	r3, r3
 80022d2:	401a      	ands	r2, r3
 80022d4:	687b      	ldr	r3, [r7, #4]
 80022d6:	f003 0318 	and.w	r3, r3, #24
 80022da:	4908      	ldr	r1, [pc, #32]	; (80022fc <LL_ADC_SetChannelSingleDiff+0x44>)
 80022dc:	40d9      	lsrs	r1, r3
 80022de:	68bb      	ldr	r3, [r7, #8]
 80022e0:	400b      	ands	r3, r1
 80022e2:	f3c3 0312 	ubfx	r3, r3, #0, #19
 80022e6:	431a      	orrs	r2, r3
 80022e8:	68fb      	ldr	r3, [r7, #12]
 80022ea:	f8c3 20b0 	str.w	r2, [r3, #176]	; 0xb0
             Channel & ADC_SINGLEDIFF_CHANNEL_MASK,
             (Channel & ADC_SINGLEDIFF_CHANNEL_MASK) & (ADC_DIFSEL_DIFSEL >> (SingleDiff & ADC_SINGLEDIFF_CHANNEL_SHIFT_MASK)));
}
 80022ee:	bf00      	nop
 80022f0:	3714      	adds	r7, #20
 80022f2:	46bd      	mov	sp, r7
 80022f4:	f85d 7b04 	ldr.w	r7, [sp], #4
 80022f8:	4770      	bx	lr
 80022fa:	bf00      	nop
 80022fc:	0007ffff 	.word	0x0007ffff

08002300 <LL_ADC_DisableDeepPowerDown>:
  * @rmtoll CR       DEEPPWD        LL_ADC_DisableDeepPowerDown
  * @param  ADCx ADC instance
  * @retval None
  */
__STATIC_INLINE void LL_ADC_DisableDeepPowerDown(ADC_TypeDef *ADCx)
{
 8002300:	b480      	push	{r7}
 8002302:	b083      	sub	sp, #12
 8002304:	af00      	add	r7, sp, #0
 8002306:	6078      	str	r0, [r7, #4]
  /* Note: Write register with some additional bits forced to state reset     */
  /*       instead of modifying only the selected bit for this function,      */
  /*       to not interfere with bits with HW property "rs".                  */
  CLEAR_BIT(ADCx->CR, (ADC_CR_DEEPPWD | ADC_CR_BITS_PROPERTY_RS));
 8002308:	687b      	ldr	r3, [r7, #4]
 800230a:	689b      	ldr	r3, [r3, #8]
 800230c:	f023 4320 	bic.w	r3, r3, #2684354560	; 0xa0000000
 8002310:	f023 033f 	bic.w	r3, r3, #63	; 0x3f
 8002314:	687a      	ldr	r2, [r7, #4]
 8002316:	6093      	str	r3, [r2, #8]
}
 8002318:	bf00      	nop
 800231a:	370c      	adds	r7, #12
 800231c:	46bd      	mov	sp, r7
 800231e:	f85d 7b04 	ldr.w	r7, [sp], #4
 8002322:	4770      	bx	lr

08002324 <LL_ADC_IsDeepPowerDownEnabled>:
  * @rmtoll CR       DEEPPWD        LL_ADC_IsDeepPowerDownEnabled
  * @param  ADCx ADC instance
  * @retval 0: deep power down is disabled, 1: deep power down is enabled.
  */
__STATIC_INLINE uint32_t LL_ADC_IsDeepPowerDownEnabled(ADC_TypeDef *ADCx)
{
 8002324:	b480      	push	{r7}
 8002326:	b083      	sub	sp, #12
 8002328:	af00      	add	r7, sp, #0
 800232a:	6078      	str	r0, [r7, #4]
  return ((READ_BIT(ADCx->CR, ADC_CR_DEEPPWD) == (ADC_CR_DEEPPWD)) ? 1UL : 0UL);
 800232c:	687b      	ldr	r3, [r7, #4]
 800232e:	689b      	ldr	r3, [r3, #8]
 8002330:	f003 5300 	and.w	r3, r3, #536870912	; 0x20000000
 8002334:	f1b3 5f00 	cmp.w	r3, #536870912	; 0x20000000
 8002338:	d101      	bne.n	800233e <LL_ADC_IsDeepPowerDownEnabled+0x1a>
 800233a:	2301      	movs	r3, #1
 800233c:	e000      	b.n	8002340 <LL_ADC_IsDeepPowerDownEnabled+0x1c>
 800233e:	2300      	movs	r3, #0
}
 8002340:	4618      	mov	r0, r3
 8002342:	370c      	adds	r7, #12
 8002344:	46bd      	mov	sp, r7
 8002346:	f85d 7b04 	ldr.w	r7, [sp], #4
 800234a:	4770      	bx	lr

0800234c <LL_ADC_EnableInternalRegulator>:
  * @rmtoll CR       ADVREGEN       LL_ADC_EnableInternalRegulator
  * @param  ADCx ADC instance
  * @retval None
  */
__STATIC_INLINE void LL_ADC_EnableInternalRegulator(ADC_TypeDef *ADCx)
{
 800234c:	b480      	push	{r7}
 800234e:	b083      	sub	sp, #12
 8002350:	af00      	add	r7, sp, #0
 8002352:	6078      	str	r0, [r7, #4]
  /* Note: Write register with some additional bits forced to state reset     */
  /*       instead of modifying only the selected bit for this function,      */
  /*       to not interfere with bits with HW property "rs".                  */
  MODIFY_REG(ADCx->CR,
 8002354:	687b      	ldr	r3, [r7, #4]
 8002356:	689b      	ldr	r3, [r3, #8]
 8002358:	f023 4310 	bic.w	r3, r3, #2415919104	; 0x90000000
 800235c:	f023 033f 	bic.w	r3, r3, #63	; 0x3f
 8002360:	f043 5280 	orr.w	r2, r3, #268435456	; 0x10000000
 8002364:	687b      	ldr	r3, [r7, #4]
 8002366:	609a      	str	r2, [r3, #8]
             ADC_CR_BITS_PROPERTY_RS,
             ADC_CR_ADVREGEN);
}
 8002368:	bf00      	nop
 800236a:	370c      	adds	r7, #12
 800236c:	46bd      	mov	sp, r7
 800236e:	f85d 7b04 	ldr.w	r7, [sp], #4
 8002372:	4770      	bx	lr

08002374 <LL_ADC_IsInternalRegulatorEnabled>:
  * @rmtoll CR       ADVREGEN       LL_ADC_IsInternalRegulatorEnabled
  * @param  ADCx ADC instance
  * @retval 0: internal regulator is disabled, 1: internal regulator is enabled.
  */
__STATIC_INLINE uint32_t LL_ADC_IsInternalRegulatorEnabled(ADC_TypeDef *ADCx)
{
 8002374:	b480      	push	{r7}
 8002376:	b083      	sub	sp, #12
 8002378:	af00      	add	r7, sp, #0
 800237a:	6078      	str	r0, [r7, #4]
  return ((READ_BIT(ADCx->CR, ADC_CR_ADVREGEN) == (ADC_CR_ADVREGEN)) ? 1UL : 0UL);
 800237c:	687b      	ldr	r3, [r7, #4]
 800237e:	689b      	ldr	r3, [r3, #8]
 8002380:	f003 5380 	and.w	r3, r3, #268435456	; 0x10000000
 8002384:	f1b3 5f80 	cmp.w	r3, #268435456	; 0x10000000
 8002388:	d101      	bne.n	800238e <LL_ADC_IsInternalRegulatorEnabled+0x1a>
 800238a:	2301      	movs	r3, #1
 800238c:	e000      	b.n	8002390 <LL_ADC_IsInternalRegulatorEnabled+0x1c>
 800238e:	2300      	movs	r3, #0
}
 8002390:	4618      	mov	r0, r3
 8002392:	370c      	adds	r7, #12
 8002394:	46bd      	mov	sp, r7
 8002396:	f85d 7b04 	ldr.w	r7, [sp], #4
 800239a:	4770      	bx	lr

0800239c <LL_ADC_IsEnabled>:
  * @rmtoll CR       ADEN           LL_ADC_IsEnabled
  * @param  ADCx ADC instance
  * @retval 0: ADC is disabled, 1: ADC is enabled.
  */
__STATIC_INLINE uint32_t LL_ADC_IsEnabled(ADC_TypeDef *ADCx)
{
 800239c:	b480      	push	{r7}
 800239e:	b083      	sub	sp, #12
 80023a0:	af00      	add	r7, sp, #0
 80023a2:	6078      	str	r0, [r7, #4]
  return ((READ_BIT(ADCx->CR, ADC_CR_ADEN) == (ADC_CR_ADEN)) ? 1UL : 0UL);
 80023a4:	687b      	ldr	r3, [r7, #4]
 80023a6:	689b      	ldr	r3, [r3, #8]
 80023a8:	f003 0301 	and.w	r3, r3, #1
 80023ac:	2b01      	cmp	r3, #1
 80023ae:	d101      	bne.n	80023b4 <LL_ADC_IsEnabled+0x18>
 80023b0:	2301      	movs	r3, #1
 80023b2:	e000      	b.n	80023b6 <LL_ADC_IsEnabled+0x1a>
 80023b4:	2300      	movs	r3, #0
}
 80023b6:	4618      	mov	r0, r3
 80023b8:	370c      	adds	r7, #12
 80023ba:	46bd      	mov	sp, r7
 80023bc:	f85d 7b04 	ldr.w	r7, [sp], #4
 80023c0:	4770      	bx	lr

080023c2 <LL_ADC_REG_IsConversionOngoing>:
  * @rmtoll CR       ADSTART        LL_ADC_REG_IsConversionOngoing
  * @param  ADCx ADC instance
  * @retval 0: no conversion is on going on ADC group regular.
  */
__STATIC_INLINE uint32_t LL_ADC_REG_IsConversionOngoing(ADC_TypeDef *ADCx)
{
 80023c2:	b480      	push	{r7}
 80023c4:	b083      	sub	sp, #12
 80023c6:	af00      	add	r7, sp, #0
 80023c8:	6078      	str	r0, [r7, #4]
  return ((READ_BIT(ADCx->CR, ADC_CR_ADSTART) == (ADC_CR_ADSTART)) ? 1UL : 0UL);
 80023ca:	687b      	ldr	r3, [r7, #4]
 80023cc:	689b      	ldr	r3, [r3, #8]
 80023ce:	f003 0304 	and.w	r3, r3, #4
 80023d2:	2b04      	cmp	r3, #4
 80023d4:	d101      	bne.n	80023da <LL_ADC_REG_IsConversionOngoing+0x18>
 80023d6:	2301      	movs	r3, #1
 80023d8:	e000      	b.n	80023dc <LL_ADC_REG_IsConversionOngoing+0x1a>
 80023da:	2300      	movs	r3, #0
}
 80023dc:	4618      	mov	r0, r3
 80023de:	370c      	adds	r7, #12
 80023e0:	46bd      	mov	sp, r7
 80023e2:	f85d 7b04 	ldr.w	r7, [sp], #4
 80023e6:	4770      	bx	lr

080023e8 <LL_ADC_INJ_IsConversionOngoing>:
  * @rmtoll CR       JADSTART       LL_ADC_INJ_IsConversionOngoing
  * @param  ADCx ADC instance
  * @retval 0: no conversion is on going on ADC group injected.
  */
__STATIC_INLINE uint32_t LL_ADC_INJ_IsConversionOngoing(ADC_TypeDef *ADCx)
{
 80023e8:	b480      	push	{r7}
 80023ea:	b083      	sub	sp, #12
 80023ec:	af00      	add	r7, sp, #0
 80023ee:	6078      	str	r0, [r7, #4]
  return ((READ_BIT(ADCx->CR, ADC_CR_JADSTART) == (ADC_CR_JADSTART)) ? 1UL : 0UL);
 80023f0:	687b      	ldr	r3, [r7, #4]
 80023f2:	689b      	ldr	r3, [r3, #8]
 80023f4:	f003 0308 	and.w	r3, r3, #8
 80023f8:	2b08      	cmp	r3, #8
 80023fa:	d101      	bne.n	8002400 <LL_ADC_INJ_IsConversionOngoing+0x18>
 80023fc:	2301      	movs	r3, #1
 80023fe:	e000      	b.n	8002402 <LL_ADC_INJ_IsConversionOngoing+0x1a>
 8002400:	2300      	movs	r3, #0
}
 8002402:	4618      	mov	r0, r3
 8002404:	370c      	adds	r7, #12
 8002406:	46bd      	mov	sp, r7
 8002408:	f85d 7b04 	ldr.w	r7, [sp], #4
 800240c:	4770      	bx	lr
	...

08002410 <HAL_ADC_Init>:
  *         without  disabling the other ADCs.
  * @param hadc ADC handle
  * @retval HAL status
  */
HAL_StatusTypeDef HAL_ADC_Init(ADC_HandleTypeDef *hadc)
{
 8002410:	b590      	push	{r4, r7, lr}
 8002412:	b089      	sub	sp, #36	; 0x24
 8002414:	af00      	add	r7, sp, #0
 8002416:	6078      	str	r0, [r7, #4]
  HAL_StatusTypeDef tmp_hal_status = HAL_OK;
 8002418:	2300      	movs	r3, #0
 800241a:	77fb      	strb	r3, [r7, #31]
  uint32_t tmpCFGR;
  uint32_t tmp_adc_reg_is_conversion_on_going;
  __IO uint32_t wait_loop_index = 0UL;
 800241c:	2300      	movs	r3, #0
 800241e:	60bb      	str	r3, [r7, #8]
  uint32_t tmp_adc_is_conversion_on_going_regular;
  uint32_t tmp_adc_is_conversion_on_going_injected;

  /* Check ADC handle */
  if (hadc == NULL)
 8002420:	687b      	ldr	r3, [r7, #4]
 8002422:	2b00      	cmp	r3, #0
 8002424:	d101      	bne.n	800242a <HAL_ADC_Init+0x1a>
  {
    return HAL_ERROR;
 8002426:	2301      	movs	r3, #1
 8002428:	e1ad      	b.n	8002786 <HAL_ADC_Init+0x376>
  assert_param(IS_ADC_EOC_SELECTION(hadc->Init.EOCSelection));
  assert_param(IS_ADC_OVERRUN(hadc->Init.Overrun));
  assert_param(IS_FUNCTIONAL_STATE(hadc->Init.LowPowerAutoWait));
  assert_param(IS_FUNCTIONAL_STATE(hadc->Init.OversamplingMode));

  if (hadc->Init.ScanConvMode != ADC_SCAN_DISABLE)
 800242a:	687b      	ldr	r3, [r7, #4]
 800242c:	695b      	ldr	r3, [r3, #20]
 800242e:	2b00      	cmp	r3, #0
  /* DISCEN and CONT bits cannot be set at the same time */
  assert_param(!((hadc->Init.DiscontinuousConvMode == ENABLE) && (hadc->Init.ContinuousConvMode == ENABLE)));

  /* Actions performed only if ADC is coming from state reset:                */
  /* - Initialization of ADC MSP                                              */
  if (hadc->State == HAL_ADC_STATE_RESET)
 8002430:	687b      	ldr	r3, [r7, #4]
 8002432:	6ddb      	ldr	r3, [r3, #92]	; 0x5c
 8002434:	2b00      	cmp	r3, #0
 8002436:	d109      	bne.n	800244c <HAL_ADC_Init+0x3c>

    /* Init the low level hardware */
    hadc->MspInitCallback(hadc);
#else
    /* Init the low level hardware */
    HAL_ADC_MspInit(hadc);
 8002438:	6878      	ldr	r0, [r7, #4]
 800243a:	f7fd ffb9 	bl	80003b0 <HAL_ADC_MspInit>
#endif /* USE_HAL_ADC_REGISTER_CALLBACKS */

    /* Set ADC error code to none */
    ADC_CLEAR_ERRORCODE(hadc);
 800243e:	687b      	ldr	r3, [r7, #4]
 8002440:	2200      	movs	r2, #0
 8002442:	661a      	str	r2, [r3, #96]	; 0x60

    /* Initialize Lock */
    hadc->Lock = HAL_UNLOCKED;
 8002444:	687b      	ldr	r3, [r7, #4]
 8002446:	2200      	movs	r2, #0
 8002448:	f883 2058 	strb.w	r2, [r3, #88]	; 0x58
  }

  /* - Exit from deep-power-down mode and ADC voltage regulator enable        */
  if (LL_ADC_IsDeepPowerDownEnabled(hadc->Instance) != 0UL)
 800244c:	687b      	ldr	r3, [r7, #4]
 800244e:	681b      	ldr	r3, [r3, #0]
 8002450:	4618      	mov	r0, r3
 8002452:	f7ff ff67 	bl	8002324 <LL_ADC_IsDeepPowerDownEnabled>
 8002456:	4603      	mov	r3, r0
 8002458:	2b00      	cmp	r3, #0
 800245a:	d004      	beq.n	8002466 <HAL_ADC_Init+0x56>
  {
    /* Disable ADC deep power down mode */
    LL_ADC_DisableDeepPowerDown(hadc->Instance);
 800245c:	687b      	ldr	r3, [r7, #4]
 800245e:	681b      	ldr	r3, [r3, #0]
 8002460:	4618      	mov	r0, r3
 8002462:	f7ff ff4d 	bl	8002300 <LL_ADC_DisableDeepPowerDown>
    /* System was in deep power down mode, calibration must
     be relaunched or a previously saved calibration factor
     re-applied once the ADC voltage regulator is enabled */
  }

  if (LL_ADC_IsInternalRegulatorEnabled(hadc->Instance) == 0UL)
 8002466:	687b      	ldr	r3, [r7, #4]
 8002468:	681b      	ldr	r3, [r3, #0]
 800246a:	4618      	mov	r0, r3
 800246c:	f7ff ff82 	bl	8002374 <LL_ADC_IsInternalRegulatorEnabled>
 8002470:	4603      	mov	r3, r0
 8002472:	2b00      	cmp	r3, #0
 8002474:	d113      	bne.n	800249e <HAL_ADC_Init+0x8e>
  {
    /* Enable ADC internal voltage regulator */
    LL_ADC_EnableInternalRegulator(hadc->Instance);
 8002476:	687b      	ldr	r3, [r7, #4]
 8002478:	681b      	ldr	r3, [r3, #0]
 800247a:	4618      	mov	r0, r3
 800247c:	f7ff ff66 	bl	800234c <LL_ADC_EnableInternalRegulator>

    /* Note: Variable divided by 2 to compensate partially              */
    /*       CPU processing cycles, scaling in us split to not          */
    /*       exceed 32 bits register capacity and handle low frequency. */
    wait_loop_index = ((LL_ADC_DELAY_INTERNAL_REGUL_STAB_US / 10UL) * (SystemCoreClock / (100000UL * 2UL)));
 8002480:	4b9e      	ldr	r3, [pc, #632]	; (80026fc <HAL_ADC_Init+0x2ec>)
 8002482:	681b      	ldr	r3, [r3, #0]
 8002484:	099b      	lsrs	r3, r3, #6
 8002486:	4a9e      	ldr	r2, [pc, #632]	; (8002700 <HAL_ADC_Init+0x2f0>)
 8002488:	fba2 2303 	umull	r2, r3, r2, r3
 800248c:	099b      	lsrs	r3, r3, #6
 800248e:	60bb      	str	r3, [r7, #8]
    while (wait_loop_index != 0UL)
 8002490:	e002      	b.n	8002498 <HAL_ADC_Init+0x88>
    {
      wait_loop_index--;
 8002492:	68bb      	ldr	r3, [r7, #8]
 8002494:	3b01      	subs	r3, #1
 8002496:	60bb      	str	r3, [r7, #8]
    while (wait_loop_index != 0UL)
 8002498:	68bb      	ldr	r3, [r7, #8]
 800249a:	2b00      	cmp	r3, #0
 800249c:	d1f9      	bne.n	8002492 <HAL_ADC_Init+0x82>
  }

  /* Verification that ADC voltage regulator is correctly enabled, whether    */
  /* or not ADC is coming from state reset (if any potential problem of       */
  /* clocking, voltage regulator would not be enabled).                       */
  if (LL_ADC_IsInternalRegulatorEnabled(hadc->Instance) == 0UL)
 800249e:	687b      	ldr	r3, [r7, #4]
 80024a0:	681b      	ldr	r3, [r3, #0]
 80024a2:	4618      	mov	r0, r3
 80024a4:	f7ff ff66 	bl	8002374 <LL_ADC_IsInternalRegulatorEnabled>
 80024a8:	4603      	mov	r3, r0
 80024aa:	2b00      	cmp	r3, #0
 80024ac:	d10d      	bne.n	80024ca <HAL_ADC_Init+0xba>
  {
    /* Update ADC state machine to error */
    SET_BIT(hadc->State, HAL_ADC_STATE_ERROR_INTERNAL);
 80024ae:	687b      	ldr	r3, [r7, #4]
 80024b0:	6ddb      	ldr	r3, [r3, #92]	; 0x5c
 80024b2:	f043 0210 	orr.w	r2, r3, #16
 80024b6:	687b      	ldr	r3, [r7, #4]
 80024b8:	65da      	str	r2, [r3, #92]	; 0x5c

    /* Set ADC error code to ADC peripheral internal error */
    SET_BIT(hadc->ErrorCode, HAL_ADC_ERROR_INTERNAL);
 80024ba:	687b      	ldr	r3, [r7, #4]
 80024bc:	6e1b      	ldr	r3, [r3, #96]	; 0x60
 80024be:	f043 0201 	orr.w	r2, r3, #1
 80024c2:	687b      	ldr	r3, [r7, #4]
 80024c4:	661a      	str	r2, [r3, #96]	; 0x60

    tmp_hal_status = HAL_ERROR;
 80024c6:	2301      	movs	r3, #1
 80024c8:	77fb      	strb	r3, [r7, #31]

  /* Configuration of ADC parameters if previous preliminary actions are      */
  /* correctly completed and if there is no conversion on going on regular    */
  /* group (ADC may already be enabled at this point if HAL_ADC_Init() is     */
  /* called to update a parameter on the fly).                                */
  tmp_adc_reg_is_conversion_on_going = LL_ADC_REG_IsConversionOngoing(hadc->Instance);
 80024ca:	687b      	ldr	r3, [r7, #4]
 80024cc:	681b      	ldr	r3, [r3, #0]
 80024ce:	4618      	mov	r0, r3
 80024d0:	f7ff ff77 	bl	80023c2 <LL_ADC_REG_IsConversionOngoing>
 80024d4:	6178      	str	r0, [r7, #20]

  if (((hadc->State & HAL_ADC_STATE_ERROR_INTERNAL) == 0UL)
 80024d6:	687b      	ldr	r3, [r7, #4]
 80024d8:	6ddb      	ldr	r3, [r3, #92]	; 0x5c
 80024da:	f003 0310 	and.w	r3, r3, #16
 80024de:	2b00      	cmp	r3, #0
 80024e0:	f040 8148 	bne.w	8002774 <HAL_ADC_Init+0x364>
      && (tmp_adc_reg_is_conversion_on_going == 0UL)
 80024e4:	697b      	ldr	r3, [r7, #20]
 80024e6:	2b00      	cmp	r3, #0
 80024e8:	f040 8144 	bne.w	8002774 <HAL_ADC_Init+0x364>
     )
  {
    /* Set ADC state */
    ADC_STATE_CLR_SET(hadc->State,
 80024ec:	687b      	ldr	r3, [r7, #4]
 80024ee:	6ddb      	ldr	r3, [r3, #92]	; 0x5c
 80024f0:	f423 7381 	bic.w	r3, r3, #258	; 0x102
 80024f4:	f043 0202 	orr.w	r2, r3, #2
 80024f8:	687b      	ldr	r3, [r7, #4]
 80024fa:	65da      	str	r2, [r3, #92]	; 0x5c
    /* Configuration of common ADC parameters                                 */

    /* Parameters update conditioned to ADC state:                            */
    /* Parameters that can be updated only when ADC is disabled:              */
    /*  - clock configuration                                                 */
    if (LL_ADC_IsEnabled(hadc->Instance) == 0UL)
 80024fc:	687b      	ldr	r3, [r7, #4]
 80024fe:	681b      	ldr	r3, [r3, #0]
 8002500:	4618      	mov	r0, r3
 8002502:	f7ff ff4b 	bl	800239c <LL_ADC_IsEnabled>
 8002506:	4603      	mov	r3, r0
 8002508:	2b00      	cmp	r3, #0
 800250a:	d141      	bne.n	8002590 <HAL_ADC_Init+0x180>
    {
      if (__LL_ADC_IS_ENABLED_ALL_COMMON_INSTANCE(__LL_ADC_COMMON_INSTANCE(hadc->Instance)) == 0UL)
 800250c:	687b      	ldr	r3, [r7, #4]
 800250e:	681b      	ldr	r3, [r3, #0]
 8002510:	f1b3 4fa0 	cmp.w	r3, #1342177280	; 0x50000000
 8002514:	d004      	beq.n	8002520 <HAL_ADC_Init+0x110>
 8002516:	687b      	ldr	r3, [r7, #4]
 8002518:	681b      	ldr	r3, [r3, #0]
 800251a:	4a7a      	ldr	r2, [pc, #488]	; (8002704 <HAL_ADC_Init+0x2f4>)
 800251c:	4293      	cmp	r3, r2
 800251e:	d10f      	bne.n	8002540 <HAL_ADC_Init+0x130>
 8002520:	f04f 40a0 	mov.w	r0, #1342177280	; 0x50000000
 8002524:	f7ff ff3a 	bl	800239c <LL_ADC_IsEnabled>
 8002528:	4604      	mov	r4, r0
 800252a:	4876      	ldr	r0, [pc, #472]	; (8002704 <HAL_ADC_Init+0x2f4>)
 800252c:	f7ff ff36 	bl	800239c <LL_ADC_IsEnabled>
 8002530:	4603      	mov	r3, r0
 8002532:	4323      	orrs	r3, r4
 8002534:	2b00      	cmp	r3, #0
 8002536:	bf0c      	ite	eq
 8002538:	2301      	moveq	r3, #1
 800253a:	2300      	movne	r3, #0
 800253c:	b2db      	uxtb	r3, r3
 800253e:	e012      	b.n	8002566 <HAL_ADC_Init+0x156>
 8002540:	4871      	ldr	r0, [pc, #452]	; (8002708 <HAL_ADC_Init+0x2f8>)
 8002542:	f7ff ff2b 	bl	800239c <LL_ADC_IsEnabled>
 8002546:	4604      	mov	r4, r0
 8002548:	4870      	ldr	r0, [pc, #448]	; (800270c <HAL_ADC_Init+0x2fc>)
 800254a:	f7ff ff27 	bl	800239c <LL_ADC_IsEnabled>
 800254e:	4603      	mov	r3, r0
 8002550:	431c      	orrs	r4, r3
 8002552:	486f      	ldr	r0, [pc, #444]	; (8002710 <HAL_ADC_Init+0x300>)
 8002554:	f7ff ff22 	bl	800239c <LL_ADC_IsEnabled>
 8002558:	4603      	mov	r3, r0
 800255a:	4323      	orrs	r3, r4
 800255c:	2b00      	cmp	r3, #0
 800255e:	bf0c      	ite	eq
 8002560:	2301      	moveq	r3, #1
 8002562:	2300      	movne	r3, #0
 8002564:	b2db      	uxtb	r3, r3
 8002566:	2b00      	cmp	r3, #0
 8002568:	d012      	beq.n	8002590 <HAL_ADC_Init+0x180>
        /*     parameters: MDMA, DMACFG, DELAY, DUAL (set by API                */
        /*     HAL_ADCEx_MultiModeConfigChannel() )                             */
        /*   - internal measurement paths: Vbat, temperature sensor, Vref       */
        /*     (set into HAL_ADC_ConfigChannel() or                             */
        /*     HAL_ADCEx_InjectedConfigChannel() )                              */
        LL_ADC_SetCommonClock(__LL_ADC_COMMON_INSTANCE(hadc->Instance), hadc->Init.ClockPrescaler);
 800256a:	687b      	ldr	r3, [r7, #4]
 800256c:	681b      	ldr	r3, [r3, #0]
 800256e:	f1b3 4fa0 	cmp.w	r3, #1342177280	; 0x50000000
 8002572:	d004      	beq.n	800257e <HAL_ADC_Init+0x16e>
 8002574:	687b      	ldr	r3, [r7, #4]
 8002576:	681b      	ldr	r3, [r3, #0]
 8002578:	4a62      	ldr	r2, [pc, #392]	; (8002704 <HAL_ADC_Init+0x2f4>)
 800257a:	4293      	cmp	r3, r2
 800257c:	d101      	bne.n	8002582 <HAL_ADC_Init+0x172>
 800257e:	4a65      	ldr	r2, [pc, #404]	; (8002714 <HAL_ADC_Init+0x304>)
 8002580:	e000      	b.n	8002584 <HAL_ADC_Init+0x174>
 8002582:	4a65      	ldr	r2, [pc, #404]	; (8002718 <HAL_ADC_Init+0x308>)
 8002584:	687b      	ldr	r3, [r7, #4]
 8002586:	685b      	ldr	r3, [r3, #4]
 8002588:	4619      	mov	r1, r3
 800258a:	4610      	mov	r0, r2
 800258c:	f7ff fd7e 	bl	800208c <LL_ADC_SetCommonClock>
    /*  - external trigger polarity                Init.ExternalTrigConvEdge  */
    /*  - continuous conversion mode               Init.ContinuousConvMode    */
    /*  - overrun                                  Init.Overrun               */
    /*  - discontinuous mode                       Init.DiscontinuousConvMode */
    /*  - discontinuous mode channel count         Init.NbrOfDiscConversion   */
    tmpCFGR  = (ADC_CFGR_CONTINUOUS((uint32_t)hadc->Init.ContinuousConvMode)           |
 8002590:	687b      	ldr	r3, [r7, #4]
 8002592:	7f5b      	ldrb	r3, [r3, #29]
 8002594:	035a      	lsls	r2, r3, #13
                hadc->Init.Overrun                                                     |
 8002596:	687b      	ldr	r3, [r7, #4]
 8002598:	6bdb      	ldr	r3, [r3, #60]	; 0x3c
    tmpCFGR  = (ADC_CFGR_CONTINUOUS((uint32_t)hadc->Init.ContinuousConvMode)           |
 800259a:	431a      	orrs	r2, r3
                hadc->Init.DataAlign                                                   |
 800259c:	687b      	ldr	r3, [r7, #4]
 800259e:	68db      	ldr	r3, [r3, #12]
                hadc->Init.Overrun                                                     |
 80025a0:	431a      	orrs	r2, r3
                hadc->Init.Resolution                                                  |
 80025a2:	687b      	ldr	r3, [r7, #4]
 80025a4:	689b      	ldr	r3, [r3, #8]
                hadc->Init.DataAlign                                                   |
 80025a6:	431a      	orrs	r2, r3
                ADC_CFGR_REG_DISCONTINUOUS((uint32_t)hadc->Init.DiscontinuousConvMode));
 80025a8:	687b      	ldr	r3, [r7, #4]
 80025aa:	f893 3024 	ldrb.w	r3, [r3, #36]	; 0x24
 80025ae:	041b      	lsls	r3, r3, #16
    tmpCFGR  = (ADC_CFGR_CONTINUOUS((uint32_t)hadc->Init.ContinuousConvMode)           |
 80025b0:	4313      	orrs	r3, r2
 80025b2:	61bb      	str	r3, [r7, #24]

    if (hadc->Init.DiscontinuousConvMode == ENABLE)
 80025b4:	687b      	ldr	r3, [r7, #4]
 80025b6:	f893 3024 	ldrb.w	r3, [r3, #36]	; 0x24
 80025ba:	2b01      	cmp	r3, #1
 80025bc:	d106      	bne.n	80025cc <HAL_ADC_Init+0x1bc>
    {
      tmpCFGR |= ADC_CFGR_DISCONTINUOUS_NUM(hadc->Init.NbrOfDiscConversion);
 80025be:	687b      	ldr	r3, [r7, #4]
 80025c0:	6a9b      	ldr	r3, [r3, #40]	; 0x28
 80025c2:	3b01      	subs	r3, #1
 80025c4:	045b      	lsls	r3, r3, #17
 80025c6:	69ba      	ldr	r2, [r7, #24]
 80025c8:	4313      	orrs	r3, r2
 80025ca:	61bb      	str	r3, [r7, #24]
    /* Enable external trigger if trigger selection is different of software  */
    /* start.                                                                 */
    /* Note: This configuration keeps the hardware feature of parameter       */
    /*       ExternalTrigConvEdge "trigger edge none" equivalent to           */
    /*       software start.                                                  */
    if (hadc->Init.ExternalTrigConv != ADC_SOFTWARE_START)
 80025cc:	687b      	ldr	r3, [r7, #4]
 80025ce:	6adb      	ldr	r3, [r3, #44]	; 0x2c
 80025d0:	2b00      	cmp	r3, #0
 80025d2:	d009      	beq.n	80025e8 <HAL_ADC_Init+0x1d8>
    {
      tmpCFGR |= ((hadc->Init.ExternalTrigConv & ADC_CFGR_EXTSEL)
 80025d4:	687b      	ldr	r3, [r7, #4]
 80025d6:	6adb      	ldr	r3, [r3, #44]	; 0x2c
 80025d8:	f403 7278 	and.w	r2, r3, #992	; 0x3e0
                  | hadc->Init.ExternalTrigConvEdge
 80025dc:	687b      	ldr	r3, [r7, #4]
 80025de:	6b1b      	ldr	r3, [r3, #48]	; 0x30
 80025e0:	4313      	orrs	r3, r2
      tmpCFGR |= ((hadc->Init.ExternalTrigConv & ADC_CFGR_EXTSEL)
 80025e2:	69ba      	ldr	r2, [r7, #24]
 80025e4:	4313      	orrs	r3, r2
 80025e6:	61bb      	str	r3, [r7, #24]
                 );
    }

    /* Update Configuration Register CFGR */
    MODIFY_REG(hadc->Instance->CFGR, ADC_CFGR_FIELDS_1, tmpCFGR);
 80025e8:	687b      	ldr	r3, [r7, #4]
 80025ea:	681b      	ldr	r3, [r3, #0]
 80025ec:	68da      	ldr	r2, [r3, #12]
 80025ee:	4b4b      	ldr	r3, [pc, #300]	; (800271c <HAL_ADC_Init+0x30c>)
 80025f0:	4013      	ands	r3, r2
 80025f2:	687a      	ldr	r2, [r7, #4]
 80025f4:	6812      	ldr	r2, [r2, #0]
 80025f6:	69b9      	ldr	r1, [r7, #24]
 80025f8:	430b      	orrs	r3, r1
 80025fa:	60d3      	str	r3, [r2, #12]

    /* Configuration of sampling mode */
    MODIFY_REG(hadc->Instance->CFGR2, ADC_CFGR2_BULB | ADC_CFGR2_SMPTRIG, hadc->Init.SamplingMode);
 80025fc:	687b      	ldr	r3, [r7, #4]
 80025fe:	681b      	ldr	r3, [r3, #0]
 8002600:	691b      	ldr	r3, [r3, #16]
 8002602:	f023 6140 	bic.w	r1, r3, #201326592	; 0xc000000
 8002606:	687b      	ldr	r3, [r7, #4]
 8002608:	6b5a      	ldr	r2, [r3, #52]	; 0x34
 800260a:	687b      	ldr	r3, [r7, #4]
 800260c:	681b      	ldr	r3, [r3, #0]
 800260e:	430a      	orrs	r2, r1
 8002610:	611a      	str	r2, [r3, #16]
    /* conversion on going on regular and injected groups:                    */
    /*  - Gain Compensation               Init.GainCompensation               */
    /*  - DMA continuous request          Init.DMAContinuousRequests          */
    /*  - LowPowerAutoWait feature        Init.LowPowerAutoWait               */
    /*  - Oversampling parameters         Init.Oversampling                   */
    tmp_adc_is_conversion_on_going_regular = LL_ADC_REG_IsConversionOngoing(hadc->Instance);
 8002612:	687b      	ldr	r3, [r7, #4]
 8002614:	681b      	ldr	r3, [r3, #0]
 8002616:	4618      	mov	r0, r3
 8002618:	f7ff fed3 	bl	80023c2 <LL_ADC_REG_IsConversionOngoing>
 800261c:	6138      	str	r0, [r7, #16]
    tmp_adc_is_conversion_on_going_injected = LL_ADC_INJ_IsConversionOngoing(hadc->Instance);
 800261e:	687b      	ldr	r3, [r7, #4]
 8002620:	681b      	ldr	r3, [r3, #0]
 8002622:	4618      	mov	r0, r3
 8002624:	f7ff fee0 	bl	80023e8 <LL_ADC_INJ_IsConversionOngoing>
 8002628:	60f8      	str	r0, [r7, #12]
    if ((tmp_adc_is_conversion_on_going_regular == 0UL)
 800262a:	693b      	ldr	r3, [r7, #16]
 800262c:	2b00      	cmp	r3, #0
 800262e:	d17f      	bne.n	8002730 <HAL_ADC_Init+0x320>
        && (tmp_adc_is_conversion_on_going_injected == 0UL)
 8002630:	68fb      	ldr	r3, [r7, #12]
 8002632:	2b00      	cmp	r3, #0
 8002634:	d17c      	bne.n	8002730 <HAL_ADC_Init+0x320>
       )
    {
      tmpCFGR = (ADC_CFGR_DFSDM(hadc)                                            |
                 ADC_CFGR_AUTOWAIT((uint32_t)hadc->Init.LowPowerAutoWait)        |
 8002636:	687b      	ldr	r3, [r7, #4]
 8002638:	7f1b      	ldrb	r3, [r3, #28]
      tmpCFGR = (ADC_CFGR_DFSDM(hadc)                                            |
 800263a:	039a      	lsls	r2, r3, #14
                 ADC_CFGR_DMACONTREQ((uint32_t)hadc->Init.DMAContinuousRequests));
 800263c:	687b      	ldr	r3, [r7, #4]
 800263e:	f893 3038 	ldrb.w	r3, [r3, #56]	; 0x38
 8002642:	005b      	lsls	r3, r3, #1
      tmpCFGR = (ADC_CFGR_DFSDM(hadc)                                            |
 8002644:	4313      	orrs	r3, r2
 8002646:	61bb      	str	r3, [r7, #24]

      MODIFY_REG(hadc->Instance->CFGR, ADC_CFGR_FIELDS_2, tmpCFGR);
 8002648:	687b      	ldr	r3, [r7, #4]
 800264a:	681b      	ldr	r3, [r3, #0]
 800264c:	68db      	ldr	r3, [r3, #12]
 800264e:	f423 4380 	bic.w	r3, r3, #16384	; 0x4000
 8002652:	f023 0302 	bic.w	r3, r3, #2
 8002656:	687a      	ldr	r2, [r7, #4]
 8002658:	6812      	ldr	r2, [r2, #0]
 800265a:	69b9      	ldr	r1, [r7, #24]
 800265c:	430b      	orrs	r3, r1
 800265e:	60d3      	str	r3, [r2, #12]

      if (hadc->Init.GainCompensation != 0UL)
 8002660:	687b      	ldr	r3, [r7, #4]
 8002662:	691b      	ldr	r3, [r3, #16]
 8002664:	2b00      	cmp	r3, #0
 8002666:	d017      	beq.n	8002698 <HAL_ADC_Init+0x288>
      {
        SET_BIT(hadc->Instance->CFGR2, ADC_CFGR2_GCOMP);
 8002668:	687b      	ldr	r3, [r7, #4]
 800266a:	681b      	ldr	r3, [r3, #0]
 800266c:	691a      	ldr	r2, [r3, #16]
 800266e:	687b      	ldr	r3, [r7, #4]
 8002670:	681b      	ldr	r3, [r3, #0]
 8002672:	f442 3280 	orr.w	r2, r2, #65536	; 0x10000
 8002676:	611a      	str	r2, [r3, #16]
        MODIFY_REG(hadc->Instance->GCOMP, ADC_GCOMP_GCOMPCOEFF, hadc->Init.GainCompensation);
 8002678:	687b      	ldr	r3, [r7, #4]
 800267a:	681b      	ldr	r3, [r3, #0]
 800267c:	f8d3 30c0 	ldr.w	r3, [r3, #192]	; 0xc0
 8002680:	f423 537f 	bic.w	r3, r3, #16320	; 0x3fc0
 8002684:	f023 033f 	bic.w	r3, r3, #63	; 0x3f
 8002688:	687a      	ldr	r2, [r7, #4]
 800268a:	6911      	ldr	r1, [r2, #16]
 800268c:	687a      	ldr	r2, [r7, #4]
 800268e:	6812      	ldr	r2, [r2, #0]
 8002690:	430b      	orrs	r3, r1
 8002692:	f8c2 30c0 	str.w	r3, [r2, #192]	; 0xc0
 8002696:	e013      	b.n	80026c0 <HAL_ADC_Init+0x2b0>
      }
      else
      {
        CLEAR_BIT(hadc->Instance->CFGR2, ADC_CFGR2_GCOMP);
 8002698:	687b      	ldr	r3, [r7, #4]
 800269a:	681b      	ldr	r3, [r3, #0]
 800269c:	691a      	ldr	r2, [r3, #16]
 800269e:	687b      	ldr	r3, [r7, #4]
 80026a0:	681b      	ldr	r3, [r3, #0]
 80026a2:	f422 3280 	bic.w	r2, r2, #65536	; 0x10000
 80026a6:	611a      	str	r2, [r3, #16]
        MODIFY_REG(hadc->Instance->GCOMP, ADC_GCOMP_GCOMPCOEFF, 0UL);
 80026a8:	687b      	ldr	r3, [r7, #4]
 80026aa:	681b      	ldr	r3, [r3, #0]
 80026ac:	f8d3 30c0 	ldr.w	r3, [r3, #192]	; 0xc0
 80026b0:	687a      	ldr	r2, [r7, #4]
 80026b2:	6812      	ldr	r2, [r2, #0]
 80026b4:	f423 537f 	bic.w	r3, r3, #16320	; 0x3fc0
 80026b8:	f023 033f 	bic.w	r3, r3, #63	; 0x3f
 80026bc:	f8c2 30c0 	str.w	r3, [r2, #192]	; 0xc0
      }

      if (hadc->Init.OversamplingMode == ENABLE)
 80026c0:	687b      	ldr	r3, [r7, #4]
 80026c2:	f893 3040 	ldrb.w	r3, [r3, #64]	; 0x40
 80026c6:	2b01      	cmp	r3, #1
 80026c8:	d12a      	bne.n	8002720 <HAL_ADC_Init+0x310>
        /* Configuration of Oversampler:                                      */
        /*  - Oversampling Ratio                                              */
        /*  - Right bit shift                                                 */
        /*  - Triggered mode                                                  */
        /*  - Oversampling mode (continued/resumed)                           */
        MODIFY_REG(hadc->Instance->CFGR2,
 80026ca:	687b      	ldr	r3, [r7, #4]
 80026cc:	681b      	ldr	r3, [r3, #0]
 80026ce:	691b      	ldr	r3, [r3, #16]
 80026d0:	f423 63ff 	bic.w	r3, r3, #2040	; 0x7f8
 80026d4:	f023 0304 	bic.w	r3, r3, #4
 80026d8:	687a      	ldr	r2, [r7, #4]
 80026da:	6c51      	ldr	r1, [r2, #68]	; 0x44
 80026dc:	687a      	ldr	r2, [r7, #4]
 80026de:	6c92      	ldr	r2, [r2, #72]	; 0x48
 80026e0:	4311      	orrs	r1, r2
 80026e2:	687a      	ldr	r2, [r7, #4]
 80026e4:	6cd2      	ldr	r2, [r2, #76]	; 0x4c
 80026e6:	4311      	orrs	r1, r2
 80026e8:	687a      	ldr	r2, [r7, #4]
 80026ea:	6d12      	ldr	r2, [r2, #80]	; 0x50
 80026ec:	430a      	orrs	r2, r1
 80026ee:	431a      	orrs	r2, r3
 80026f0:	687b      	ldr	r3, [r7, #4]
 80026f2:	681b      	ldr	r3, [r3, #0]
 80026f4:	f042 0201 	orr.w	r2, r2, #1
 80026f8:	611a      	str	r2, [r3, #16]
 80026fa:	e019      	b.n	8002730 <HAL_ADC_Init+0x320>
 80026fc:	20001f44 	.word	0x20001f44
 8002700:	053e2d63 	.word	0x053e2d63
 8002704:	50000100 	.word	0x50000100
 8002708:	50000400 	.word	0x50000400
 800270c:	50000500 	.word	0x50000500
 8002710:	50000600 	.word	0x50000600
 8002714:	50000300 	.word	0x50000300
 8002718:	50000700 	.word	0x50000700
 800271c:	fff04007 	.word	0xfff04007
                  );
      }
      else
      {
        /* Disable ADC oversampling scope on ADC group regular */
        CLEAR_BIT(hadc->Instance->CFGR2, ADC_CFGR2_ROVSE);
 8002720:	687b      	ldr	r3, [r7, #4]
 8002722:	681b      	ldr	r3, [r3, #0]
 8002724:	691a      	ldr	r2, [r3, #16]
 8002726:	687b      	ldr	r3, [r7, #4]
 8002728:	681b      	ldr	r3, [r3, #0]
 800272a:	f022 0201 	bic.w	r2, r2, #1
 800272e:	611a      	str	r2, [r3, #16]
    /*   Note: Scan mode is not present by hardware on this device, but       */
    /*   emulated by software for alignment over all STM32 devices.           */
    /* - if scan mode is enabled, regular channels sequence length is set to  */
    /*   parameter "NbrOfConversion".                                         */

    if (hadc->Init.ScanConvMode == ADC_SCAN_ENABLE)
 8002730:	687b      	ldr	r3, [r7, #4]
 8002732:	695b      	ldr	r3, [r3, #20]
 8002734:	2b01      	cmp	r3, #1
 8002736:	d10c      	bne.n	8002752 <HAL_ADC_Init+0x342>
    {
      /* Set number of ranks in regular group sequencer */
      MODIFY_REG(hadc->Instance->SQR1, ADC_SQR1_L, (hadc->Init.NbrOfConversion - (uint8_t)1));
 8002738:	687b      	ldr	r3, [r7, #4]
 800273a:	681b      	ldr	r3, [r3, #0]
 800273c:	6b1b      	ldr	r3, [r3, #48]	; 0x30
 800273e:	f023 010f 	bic.w	r1, r3, #15
 8002742:	687b      	ldr	r3, [r7, #4]
 8002744:	6a1b      	ldr	r3, [r3, #32]
 8002746:	1e5a      	subs	r2, r3, #1
 8002748:	687b      	ldr	r3, [r7, #4]
 800274a:	681b      	ldr	r3, [r3, #0]
 800274c:	430a      	orrs	r2, r1
 800274e:	631a      	str	r2, [r3, #48]	; 0x30
 8002750:	e007      	b.n	8002762 <HAL_ADC_Init+0x352>
    }
    else
    {
      CLEAR_BIT(hadc->Instance->SQR1, ADC_SQR1_L);
 8002752:	687b      	ldr	r3, [r7, #4]
 8002754:	681b      	ldr	r3, [r3, #0]
 8002756:	6b1a      	ldr	r2, [r3, #48]	; 0x30
 8002758:	687b      	ldr	r3, [r7, #4]
 800275a:	681b      	ldr	r3, [r3, #0]
 800275c:	f022 020f 	bic.w	r2, r2, #15
 8002760:	631a      	str	r2, [r3, #48]	; 0x30
    }

    /* Initialize the ADC state */
    /* Clear HAL_ADC_STATE_BUSY_INTERNAL bit, set HAL_ADC_STATE_READY bit */
    ADC_STATE_CLR_SET(hadc->State, HAL_ADC_STATE_BUSY_INTERNAL, HAL_ADC_STATE_READY);
 8002762:	687b      	ldr	r3, [r7, #4]
 8002764:	6ddb      	ldr	r3, [r3, #92]	; 0x5c
 8002766:	f023 0303 	bic.w	r3, r3, #3
 800276a:	f043 0201 	orr.w	r2, r3, #1
 800276e:	687b      	ldr	r3, [r7, #4]
 8002770:	65da      	str	r2, [r3, #92]	; 0x5c
 8002772:	e007      	b.n	8002784 <HAL_ADC_Init+0x374>
  }
  else
  {
    /* Update ADC state machine to error */
    SET_BIT(hadc->State, HAL_ADC_STATE_ERROR_INTERNAL);
 8002774:	687b      	ldr	r3, [r7, #4]
 8002776:	6ddb      	ldr	r3, [r3, #92]	; 0x5c
 8002778:	f043 0210 	orr.w	r2, r3, #16
 800277c:	687b      	ldr	r3, [r7, #4]
 800277e:	65da      	str	r2, [r3, #92]	; 0x5c

    tmp_hal_status = HAL_ERROR;
 8002780:	2301      	movs	r3, #1
 8002782:	77fb      	strb	r3, [r7, #31]
  }

  /* Return function status */
  return tmp_hal_status;
 8002784:	7ffb      	ldrb	r3, [r7, #31]
}
 8002786:	4618      	mov	r0, r3
 8002788:	3724      	adds	r7, #36	; 0x24
 800278a:	46bd      	mov	sp, r7
 800278c:	bd90      	pop	{r4, r7, pc}
 800278e:	bf00      	nop

08002790 <HAL_ADC_ConfigChannel>:
  * @param hadc ADC handle
  * @param sConfig Structure of ADC channel assigned to ADC group regular.
  * @retval HAL status
  */
HAL_StatusTypeDef HAL_ADC_ConfigChannel(ADC_HandleTypeDef *hadc, ADC_ChannelConfTypeDef *sConfig)
{
 8002790:	b580      	push	{r7, lr}
 8002792:	b0a6      	sub	sp, #152	; 0x98
 8002794:	af00      	add	r7, sp, #0
 8002796:	6078      	str	r0, [r7, #4]
 8002798:	6039      	str	r1, [r7, #0]
  HAL_StatusTypeDef tmp_hal_status = HAL_OK;
 800279a:	2300      	movs	r3, #0
 800279c:	f887 3097 	strb.w	r3, [r7, #151]	; 0x97
  uint32_t tmpOffsetShifted;
  uint32_t tmp_config_internal_channel;
  __IO uint32_t wait_loop_index = 0;
 80027a0:	2300      	movs	r3, #0
 80027a2:	60bb      	str	r3, [r7, #8]
  {
    assert_param(IS_ADC_DIFF_CHANNEL(hadc, sConfig->Channel));
  }

  /* Process locked */
  __HAL_LOCK(hadc);
 80027a4:	687b      	ldr	r3, [r7, #4]
 80027a6:	f893 3058 	ldrb.w	r3, [r3, #88]	; 0x58
 80027aa:	2b01      	cmp	r3, #1
 80027ac:	d101      	bne.n	80027b2 <HAL_ADC_ConfigChannel+0x22>
 80027ae:	2302      	movs	r3, #2
 80027b0:	e38e      	b.n	8002ed0 <HAL_ADC_ConfigChannel+0x740>
 80027b2:	687b      	ldr	r3, [r7, #4]
 80027b4:	2201      	movs	r2, #1
 80027b6:	f883 2058 	strb.w	r2, [r3, #88]	; 0x58
  /* Parameters update conditioned to ADC state:                              */
  /* Parameters that can be updated when ADC is disabled or enabled without   */
  /* conversion on going on regular group:                                    */
  /*  - Channel number                                                        */
  /*  - Channel rank                                                          */
  if (LL_ADC_REG_IsConversionOngoing(hadc->Instance) == 0UL)
 80027ba:	687b      	ldr	r3, [r7, #4]
 80027bc:	681b      	ldr	r3, [r3, #0]
 80027be:	4618      	mov	r0, r3
 80027c0:	f7ff fdff 	bl	80023c2 <LL_ADC_REG_IsConversionOngoing>
 80027c4:	4603      	mov	r3, r0
 80027c6:	2b00      	cmp	r3, #0
 80027c8:	f040 836f 	bne.w	8002eaa <HAL_ADC_ConfigChannel+0x71a>
  {
    /* Set ADC group regular sequence: channel on the selected scan sequence rank */
    LL_ADC_REG_SetSequencerRanks(hadc->Instance, sConfig->Rank, sConfig->Channel);
 80027cc:	687b      	ldr	r3, [r7, #4]
 80027ce:	6818      	ldr	r0, [r3, #0]
 80027d0:	683b      	ldr	r3, [r7, #0]
 80027d2:	6859      	ldr	r1, [r3, #4]
 80027d4:	683b      	ldr	r3, [r7, #0]
 80027d6:	681b      	ldr	r3, [r3, #0]
 80027d8:	461a      	mov	r2, r3
 80027da:	f7ff fd1c 	bl	8002216 <LL_ADC_REG_SetSequencerRanks>
    /* Parameters update conditioned to ADC state:                              */
    /* Parameters that can be updated when ADC is disabled or enabled without   */
    /* conversion on going on regular group:                                    */
    /*  - Channel sampling time                                                 */
    /*  - Channel offset                                                        */
    tmp_adc_is_conversion_on_going_regular = LL_ADC_REG_IsConversionOngoing(hadc->Instance);
 80027de:	687b      	ldr	r3, [r7, #4]
 80027e0:	681b      	ldr	r3, [r3, #0]
 80027e2:	4618      	mov	r0, r3
 80027e4:	f7ff fded 	bl	80023c2 <LL_ADC_REG_IsConversionOngoing>
 80027e8:	f8c7 0090 	str.w	r0, [r7, #144]	; 0x90
    tmp_adc_is_conversion_on_going_injected = LL_ADC_INJ_IsConversionOngoing(hadc->Instance);
 80027ec:	687b      	ldr	r3, [r7, #4]
 80027ee:	681b      	ldr	r3, [r3, #0]
 80027f0:	4618      	mov	r0, r3
 80027f2:	f7ff fdf9 	bl	80023e8 <LL_ADC_INJ_IsConversionOngoing>
 80027f6:	f8c7 008c 	str.w	r0, [r7, #140]	; 0x8c
    if ((tmp_adc_is_conversion_on_going_regular == 0UL)
 80027fa:	f8d7 3090 	ldr.w	r3, [r7, #144]	; 0x90
 80027fe:	2b00      	cmp	r3, #0
 8002800:	f040 817b 	bne.w	8002afa <HAL_ADC_ConfigChannel+0x36a>
        && (tmp_adc_is_conversion_on_going_injected == 0UL)
 8002804:	f8d7 308c 	ldr.w	r3, [r7, #140]	; 0x8c
 8002808:	2b00      	cmp	r3, #0
 800280a:	f040 8176 	bne.w	8002afa <HAL_ADC_ConfigChannel+0x36a>
       )
    {
      /* Manage specific case of sampling time 3.5 cycles replacing 2.5 cyles */
      if (sConfig->SamplingTime == ADC_SAMPLETIME_3CYCLES_5)
 800280e:	683b      	ldr	r3, [r7, #0]
 8002810:	689b      	ldr	r3, [r3, #8]
 8002812:	f1b3 4f00 	cmp.w	r3, #2147483648	; 0x80000000
 8002816:	d10f      	bne.n	8002838 <HAL_ADC_ConfigChannel+0xa8>
      {
        /* Set sampling time of the selected ADC channel */
        LL_ADC_SetChannelSamplingTime(hadc->Instance, sConfig->Channel, LL_ADC_SAMPLINGTIME_2CYCLES_5);
 8002818:	687b      	ldr	r3, [r7, #4]
 800281a:	6818      	ldr	r0, [r3, #0]
 800281c:	683b      	ldr	r3, [r7, #0]
 800281e:	681b      	ldr	r3, [r3, #0]
 8002820:	2200      	movs	r2, #0
 8002822:	4619      	mov	r1, r3
 8002824:	f7ff fd20 	bl	8002268 <LL_ADC_SetChannelSamplingTime>

        /* Set ADC sampling time common configuration */
        LL_ADC_SetSamplingTimeCommonConfig(hadc->Instance, LL_ADC_SAMPLINGTIME_COMMON_3C5_REPL_2C5);
 8002828:	687b      	ldr	r3, [r7, #4]
 800282a:	681b      	ldr	r3, [r3, #0]
 800282c:	f04f 4100 	mov.w	r1, #2147483648	; 0x80000000
 8002830:	4618      	mov	r0, r3
 8002832:	f7ff fcdd 	bl	80021f0 <LL_ADC_SetSamplingTimeCommonConfig>
 8002836:	e00e      	b.n	8002856 <HAL_ADC_ConfigChannel+0xc6>
      }
      else
      {
        /* Set sampling time of the selected ADC channel */
        LL_ADC_SetChannelSamplingTime(hadc->Instance, sConfig->Channel, sConfig->SamplingTime);
 8002838:	687b      	ldr	r3, [r7, #4]
 800283a:	6818      	ldr	r0, [r3, #0]
 800283c:	683b      	ldr	r3, [r7, #0]
 800283e:	6819      	ldr	r1, [r3, #0]
 8002840:	683b      	ldr	r3, [r7, #0]
 8002842:	689b      	ldr	r3, [r3, #8]
 8002844:	461a      	mov	r2, r3
 8002846:	f7ff fd0f 	bl	8002268 <LL_ADC_SetChannelSamplingTime>

        /* Set ADC sampling time common configuration */
        LL_ADC_SetSamplingTimeCommonConfig(hadc->Instance, LL_ADC_SAMPLINGTIME_COMMON_DEFAULT);
 800284a:	687b      	ldr	r3, [r7, #4]
 800284c:	681b      	ldr	r3, [r3, #0]
 800284e:	2100      	movs	r1, #0
 8002850:	4618      	mov	r0, r3
 8002852:	f7ff fccd 	bl	80021f0 <LL_ADC_SetSamplingTimeCommonConfig>

      /* Configure the offset: offset enable/disable, channel, offset value */

      /* Shift the offset with respect to the selected ADC resolution. */
      /* Offset has to be left-aligned on bit 11, the LSB (right bits) are set to 0 */
      tmpOffsetShifted = ADC_OFFSET_SHIFT_RESOLUTION(hadc, (uint32_t)sConfig->Offset);
 8002856:	683b      	ldr	r3, [r7, #0]
 8002858:	695a      	ldr	r2, [r3, #20]
 800285a:	687b      	ldr	r3, [r7, #4]
 800285c:	681b      	ldr	r3, [r3, #0]
 800285e:	68db      	ldr	r3, [r3, #12]
 8002860:	08db      	lsrs	r3, r3, #3
 8002862:	f003 0303 	and.w	r3, r3, #3
 8002866:	005b      	lsls	r3, r3, #1
 8002868:	fa02 f303 	lsl.w	r3, r2, r3
 800286c:	f8c7 3088 	str.w	r3, [r7, #136]	; 0x88

      if (sConfig->OffsetNumber != ADC_OFFSET_NONE)
 8002870:	683b      	ldr	r3, [r7, #0]
 8002872:	691b      	ldr	r3, [r3, #16]
 8002874:	2b04      	cmp	r3, #4
 8002876:	d022      	beq.n	80028be <HAL_ADC_ConfigChannel+0x12e>
      {
        /* Set ADC selected offset number */
        LL_ADC_SetOffset(hadc->Instance, sConfig->OffsetNumber, sConfig->Channel, tmpOffsetShifted);
 8002878:	687b      	ldr	r3, [r7, #4]
 800287a:	6818      	ldr	r0, [r3, #0]
 800287c:	683b      	ldr	r3, [r7, #0]
 800287e:	6919      	ldr	r1, [r3, #16]
 8002880:	683b      	ldr	r3, [r7, #0]
 8002882:	681a      	ldr	r2, [r3, #0]
 8002884:	f8d7 3088 	ldr.w	r3, [r7, #136]	; 0x88
 8002888:	f7ff fc34 	bl	80020f4 <LL_ADC_SetOffset>

        assert_param(IS_ADC_OFFSET_SIGN(sConfig->OffsetSign));
        assert_param(IS_FUNCTIONAL_STATE(sConfig->OffsetSaturation));
        /* Set ADC selected offset sign & saturation */
        LL_ADC_SetOffsetSign(hadc->Instance, sConfig->OffsetNumber, sConfig->OffsetSign);
 800288c:	687b      	ldr	r3, [r7, #4]
 800288e:	6818      	ldr	r0, [r3, #0]
 8002890:	683b      	ldr	r3, [r7, #0]
 8002892:	6919      	ldr	r1, [r3, #16]
 8002894:	683b      	ldr	r3, [r7, #0]
 8002896:	699b      	ldr	r3, [r3, #24]
 8002898:	461a      	mov	r2, r3
 800289a:	f7ff fc79 	bl	8002190 <LL_ADC_SetOffsetSign>
        LL_ADC_SetOffsetSaturation(hadc->Instance, sConfig->OffsetNumber, (sConfig->OffsetSaturation == ENABLE) ? LL_ADC_OFFSET_SATURATION_ENABLE : LL_ADC_OFFSET_SATURATION_DISABLE);
 800289e:	687b      	ldr	r3, [r7, #4]
 80028a0:	6818      	ldr	r0, [r3, #0]
 80028a2:	683b      	ldr	r3, [r7, #0]
 80028a4:	6919      	ldr	r1, [r3, #16]
 80028a6:	683b      	ldr	r3, [r7, #0]
 80028a8:	7f1b      	ldrb	r3, [r3, #28]
 80028aa:	2b01      	cmp	r3, #1
 80028ac:	d102      	bne.n	80028b4 <HAL_ADC_ConfigChannel+0x124>
 80028ae:	f04f 7300 	mov.w	r3, #33554432	; 0x2000000
 80028b2:	e000      	b.n	80028b6 <HAL_ADC_ConfigChannel+0x126>
 80028b4:	2300      	movs	r3, #0
 80028b6:	461a      	mov	r2, r3
 80028b8:	f7ff fc82 	bl	80021c0 <LL_ADC_SetOffsetSaturation>
 80028bc:	e11d      	b.n	8002afa <HAL_ADC_ConfigChannel+0x36a>
      }
      else
      {
        /* Scan each offset register to check if the selected channel is targeted. */
        /* If this is the case, the corresponding offset number is disabled.       */
        if(__LL_ADC_CHANNEL_TO_DECIMAL_NB(LL_ADC_GetOffsetChannel(hadc->Instance, LL_ADC_OFFSET_1)) == __LL_ADC_CHANNEL_TO_DECIMAL_NB(sConfig->Channel))
 80028be:	687b      	ldr	r3, [r7, #4]
 80028c0:	681b      	ldr	r3, [r3, #0]
 80028c2:	2100      	movs	r1, #0
 80028c4:	4618      	mov	r0, r3
 80028c6:	f7ff fc37 	bl	8002138 <LL_ADC_GetOffsetChannel>
 80028ca:	4603      	mov	r3, r0
 80028cc:	f3c3 0312 	ubfx	r3, r3, #0, #19
 80028d0:	2b00      	cmp	r3, #0
 80028d2:	d10a      	bne.n	80028ea <HAL_ADC_ConfigChannel+0x15a>
 80028d4:	687b      	ldr	r3, [r7, #4]
 80028d6:	681b      	ldr	r3, [r3, #0]
 80028d8:	2100      	movs	r1, #0
 80028da:	4618      	mov	r0, r3
 80028dc:	f7ff fc2c 	bl	8002138 <LL_ADC_GetOffsetChannel>
 80028e0:	4603      	mov	r3, r0
 80028e2:	0e9b      	lsrs	r3, r3, #26
 80028e4:	f003 021f 	and.w	r2, r3, #31
 80028e8:	e012      	b.n	8002910 <HAL_ADC_ConfigChannel+0x180>
 80028ea:	687b      	ldr	r3, [r7, #4]
 80028ec:	681b      	ldr	r3, [r3, #0]
 80028ee:	2100      	movs	r1, #0
 80028f0:	4618      	mov	r0, r3
 80028f2:	f7ff fc21 	bl	8002138 <LL_ADC_GetOffsetChannel>
 80028f6:	4603      	mov	r3, r0
 80028f8:	f8c7 3080 	str.w	r3, [r7, #128]	; 0x80
   __ASM volatile ("rbit %0, %1" : "=r" (result) : "r" (value) );
 80028fc:	f8d7 3080 	ldr.w	r3, [r7, #128]	; 0x80
 8002900:	fa93 f3a3 	rbit	r3, r3
 8002904:	67fb      	str	r3, [r7, #124]	; 0x7c
  return result;
 8002906:	6ffb      	ldr	r3, [r7, #124]	; 0x7c
 8002908:	fab3 f383 	clz	r3, r3
 800290c:	b2db      	uxtb	r3, r3
 800290e:	461a      	mov	r2, r3
 8002910:	683b      	ldr	r3, [r7, #0]
 8002912:	681b      	ldr	r3, [r3, #0]
 8002914:	f3c3 0312 	ubfx	r3, r3, #0, #19
 8002918:	2b00      	cmp	r3, #0
 800291a:	d105      	bne.n	8002928 <HAL_ADC_ConfigChannel+0x198>
 800291c:	683b      	ldr	r3, [r7, #0]
 800291e:	681b      	ldr	r3, [r3, #0]
 8002920:	0e9b      	lsrs	r3, r3, #26
 8002922:	f003 031f 	and.w	r3, r3, #31
 8002926:	e00a      	b.n	800293e <HAL_ADC_ConfigChannel+0x1ae>
 8002928:	683b      	ldr	r3, [r7, #0]
 800292a:	681b      	ldr	r3, [r3, #0]
 800292c:	67bb      	str	r3, [r7, #120]	; 0x78
   __ASM volatile ("rbit %0, %1" : "=r" (result) : "r" (value) );
 800292e:	6fbb      	ldr	r3, [r7, #120]	; 0x78
 8002930:	fa93 f3a3 	rbit	r3, r3
 8002934:	677b      	str	r3, [r7, #116]	; 0x74
  return result;
 8002936:	6f7b      	ldr	r3, [r7, #116]	; 0x74
 8002938:	fab3 f383 	clz	r3, r3
 800293c:	b2db      	uxtb	r3, r3
 800293e:	429a      	cmp	r2, r3
 8002940:	d106      	bne.n	8002950 <HAL_ADC_ConfigChannel+0x1c0>
        {
          LL_ADC_SetOffsetState(hadc->Instance, LL_ADC_OFFSET_1, LL_ADC_OFFSET_DISABLE);
 8002942:	687b      	ldr	r3, [r7, #4]
 8002944:	681b      	ldr	r3, [r3, #0]
 8002946:	2200      	movs	r2, #0
 8002948:	2100      	movs	r1, #0
 800294a:	4618      	mov	r0, r3
 800294c:	f7ff fc08 	bl	8002160 <LL_ADC_SetOffsetState>
        }
        if(__LL_ADC_CHANNEL_TO_DECIMAL_NB(LL_ADC_GetOffsetChannel(hadc->Instance, LL_ADC_OFFSET_2)) == __LL_ADC_CHANNEL_TO_DECIMAL_NB(sConfig->Channel))
 8002950:	687b      	ldr	r3, [r7, #4]
 8002952:	681b      	ldr	r3, [r3, #0]
 8002954:	2101      	movs	r1, #1
 8002956:	4618      	mov	r0, r3
 8002958:	f7ff fbee 	bl	8002138 <LL_ADC_GetOffsetChannel>
 800295c:	4603      	mov	r3, r0
 800295e:	f3c3 0312 	ubfx	r3, r3, #0, #19
 8002962:	2b00      	cmp	r3, #0
 8002964:	d10a      	bne.n	800297c <HAL_ADC_ConfigChannel+0x1ec>
 8002966:	687b      	ldr	r3, [r7, #4]
 8002968:	681b      	ldr	r3, [r3, #0]
 800296a:	2101      	movs	r1, #1
 800296c:	4618      	mov	r0, r3
 800296e:	f7ff fbe3 	bl	8002138 <LL_ADC_GetOffsetChannel>
 8002972:	4603      	mov	r3, r0
 8002974:	0e9b      	lsrs	r3, r3, #26
 8002976:	f003 021f 	and.w	r2, r3, #31
 800297a:	e010      	b.n	800299e <HAL_ADC_ConfigChannel+0x20e>
 800297c:	687b      	ldr	r3, [r7, #4]
 800297e:	681b      	ldr	r3, [r3, #0]
 8002980:	2101      	movs	r1, #1
 8002982:	4618      	mov	r0, r3
 8002984:	f7ff fbd8 	bl	8002138 <LL_ADC_GetOffsetChannel>
 8002988:	4603      	mov	r3, r0
 800298a:	673b      	str	r3, [r7, #112]	; 0x70
   __ASM volatile ("rbit %0, %1" : "=r" (result) : "r" (value) );
 800298c:	6f3b      	ldr	r3, [r7, #112]	; 0x70
 800298e:	fa93 f3a3 	rbit	r3, r3
 8002992:	66fb      	str	r3, [r7, #108]	; 0x6c
  return result;
 8002994:	6efb      	ldr	r3, [r7, #108]	; 0x6c
 8002996:	fab3 f383 	clz	r3, r3
 800299a:	b2db      	uxtb	r3, r3
 800299c:	461a      	mov	r2, r3
 800299e:	683b      	ldr	r3, [r7, #0]
 80029a0:	681b      	ldr	r3, [r3, #0]
 80029a2:	f3c3 0312 	ubfx	r3, r3, #0, #19
 80029a6:	2b00      	cmp	r3, #0
 80029a8:	d105      	bne.n	80029b6 <HAL_ADC_ConfigChannel+0x226>
 80029aa:	683b      	ldr	r3, [r7, #0]
 80029ac:	681b      	ldr	r3, [r3, #0]
 80029ae:	0e9b      	lsrs	r3, r3, #26
 80029b0:	f003 031f 	and.w	r3, r3, #31
 80029b4:	e00a      	b.n	80029cc <HAL_ADC_ConfigChannel+0x23c>
 80029b6:	683b      	ldr	r3, [r7, #0]
 80029b8:	681b      	ldr	r3, [r3, #0]
 80029ba:	66bb      	str	r3, [r7, #104]	; 0x68
   __ASM volatile ("rbit %0, %1" : "=r" (result) : "r" (value) );
 80029bc:	6ebb      	ldr	r3, [r7, #104]	; 0x68
 80029be:	fa93 f3a3 	rbit	r3, r3
 80029c2:	667b      	str	r3, [r7, #100]	; 0x64
  return result;
 80029c4:	6e7b      	ldr	r3, [r7, #100]	; 0x64
 80029c6:	fab3 f383 	clz	r3, r3
 80029ca:	b2db      	uxtb	r3, r3
 80029cc:	429a      	cmp	r2, r3
 80029ce:	d106      	bne.n	80029de <HAL_ADC_ConfigChannel+0x24e>
        {
          LL_ADC_SetOffsetState(hadc->Instance, LL_ADC_OFFSET_2, LL_ADC_OFFSET_DISABLE);
 80029d0:	687b      	ldr	r3, [r7, #4]
 80029d2:	681b      	ldr	r3, [r3, #0]
 80029d4:	2200      	movs	r2, #0
 80029d6:	2101      	movs	r1, #1
 80029d8:	4618      	mov	r0, r3
 80029da:	f7ff fbc1 	bl	8002160 <LL_ADC_SetOffsetState>
        }
        if(__LL_ADC_CHANNEL_TO_DECIMAL_NB(LL_ADC_GetOffsetChannel(hadc->Instance, LL_ADC_OFFSET_3)) == __LL_ADC_CHANNEL_TO_DECIMAL_NB(sConfig->Channel))
 80029de:	687b      	ldr	r3, [r7, #4]
 80029e0:	681b      	ldr	r3, [r3, #0]
 80029e2:	2102      	movs	r1, #2
 80029e4:	4618      	mov	r0, r3
 80029e6:	f7ff fba7 	bl	8002138 <LL_ADC_GetOffsetChannel>
 80029ea:	4603      	mov	r3, r0
 80029ec:	f3c3 0312 	ubfx	r3, r3, #0, #19
 80029f0:	2b00      	cmp	r3, #0
 80029f2:	d10a      	bne.n	8002a0a <HAL_ADC_ConfigChannel+0x27a>
 80029f4:	687b      	ldr	r3, [r7, #4]
 80029f6:	681b      	ldr	r3, [r3, #0]
 80029f8:	2102      	movs	r1, #2
 80029fa:	4618      	mov	r0, r3
 80029fc:	f7ff fb9c 	bl	8002138 <LL_ADC_GetOffsetChannel>
 8002a00:	4603      	mov	r3, r0
 8002a02:	0e9b      	lsrs	r3, r3, #26
 8002a04:	f003 021f 	and.w	r2, r3, #31
 8002a08:	e010      	b.n	8002a2c <HAL_ADC_ConfigChannel+0x29c>
 8002a0a:	687b      	ldr	r3, [r7, #4]
 8002a0c:	681b      	ldr	r3, [r3, #0]
 8002a0e:	2102      	movs	r1, #2
 8002a10:	4618      	mov	r0, r3
 8002a12:	f7ff fb91 	bl	8002138 <LL_ADC_GetOffsetChannel>
 8002a16:	4603      	mov	r3, r0
 8002a18:	663b      	str	r3, [r7, #96]	; 0x60
   __ASM volatile ("rbit %0, %1" : "=r" (result) : "r" (value) );
 8002a1a:	6e3b      	ldr	r3, [r7, #96]	; 0x60
 8002a1c:	fa93 f3a3 	rbit	r3, r3
 8002a20:	65fb      	str	r3, [r7, #92]	; 0x5c
  return result;
 8002a22:	6dfb      	ldr	r3, [r7, #92]	; 0x5c
 8002a24:	fab3 f383 	clz	r3, r3
 8002a28:	b2db      	uxtb	r3, r3
 8002a2a:	461a      	mov	r2, r3
 8002a2c:	683b      	ldr	r3, [r7, #0]
 8002a2e:	681b      	ldr	r3, [r3, #0]
 8002a30:	f3c3 0312 	ubfx	r3, r3, #0, #19
 8002a34:	2b00      	cmp	r3, #0
 8002a36:	d105      	bne.n	8002a44 <HAL_ADC_ConfigChannel+0x2b4>
 8002a38:	683b      	ldr	r3, [r7, #0]
 8002a3a:	681b      	ldr	r3, [r3, #0]
 8002a3c:	0e9b      	lsrs	r3, r3, #26
 8002a3e:	f003 031f 	and.w	r3, r3, #31
 8002a42:	e00a      	b.n	8002a5a <HAL_ADC_ConfigChannel+0x2ca>
 8002a44:	683b      	ldr	r3, [r7, #0]
 8002a46:	681b      	ldr	r3, [r3, #0]
 8002a48:	65bb      	str	r3, [r7, #88]	; 0x58
   __ASM volatile ("rbit %0, %1" : "=r" (result) : "r" (value) );
 8002a4a:	6dbb      	ldr	r3, [r7, #88]	; 0x58
 8002a4c:	fa93 f3a3 	rbit	r3, r3
 8002a50:	657b      	str	r3, [r7, #84]	; 0x54
  return result;
 8002a52:	6d7b      	ldr	r3, [r7, #84]	; 0x54
 8002a54:	fab3 f383 	clz	r3, r3
 8002a58:	b2db      	uxtb	r3, r3
 8002a5a:	429a      	cmp	r2, r3
 8002a5c:	d106      	bne.n	8002a6c <HAL_ADC_ConfigChannel+0x2dc>
        {
          LL_ADC_SetOffsetState(hadc->Instance, LL_ADC_OFFSET_3, LL_ADC_OFFSET_DISABLE);
 8002a5e:	687b      	ldr	r3, [r7, #4]
 8002a60:	681b      	ldr	r3, [r3, #0]
 8002a62:	2200      	movs	r2, #0
 8002a64:	2102      	movs	r1, #2
 8002a66:	4618      	mov	r0, r3
 8002a68:	f7ff fb7a 	bl	8002160 <LL_ADC_SetOffsetState>
        }
        if(__LL_ADC_CHANNEL_TO_DECIMAL_NB(LL_ADC_GetOffsetChannel(hadc->Instance, LL_ADC_OFFSET_4)) == __LL_ADC_CHANNEL_TO_DECIMAL_NB(sConfig->Channel))
 8002a6c:	687b      	ldr	r3, [r7, #4]
 8002a6e:	681b      	ldr	r3, [r3, #0]
 8002a70:	2103      	movs	r1, #3
 8002a72:	4618      	mov	r0, r3
 8002a74:	f7ff fb60 	bl	8002138 <LL_ADC_GetOffsetChannel>
 8002a78:	4603      	mov	r3, r0
 8002a7a:	f3c3 0312 	ubfx	r3, r3, #0, #19
 8002a7e:	2b00      	cmp	r3, #0
 8002a80:	d10a      	bne.n	8002a98 <HAL_ADC_ConfigChannel+0x308>
 8002a82:	687b      	ldr	r3, [r7, #4]
 8002a84:	681b      	ldr	r3, [r3, #0]
 8002a86:	2103      	movs	r1, #3
 8002a88:	4618      	mov	r0, r3
 8002a8a:	f7ff fb55 	bl	8002138 <LL_ADC_GetOffsetChannel>
 8002a8e:	4603      	mov	r3, r0
 8002a90:	0e9b      	lsrs	r3, r3, #26
 8002a92:	f003 021f 	and.w	r2, r3, #31
 8002a96:	e010      	b.n	8002aba <HAL_ADC_ConfigChannel+0x32a>
 8002a98:	687b      	ldr	r3, [r7, #4]
 8002a9a:	681b      	ldr	r3, [r3, #0]
 8002a9c:	2103      	movs	r1, #3
 8002a9e:	4618      	mov	r0, r3
 8002aa0:	f7ff fb4a 	bl	8002138 <LL_ADC_GetOffsetChannel>
 8002aa4:	4603      	mov	r3, r0
 8002aa6:	653b      	str	r3, [r7, #80]	; 0x50
   __ASM volatile ("rbit %0, %1" : "=r" (result) : "r" (value) );
 8002aa8:	6d3b      	ldr	r3, [r7, #80]	; 0x50
 8002aaa:	fa93 f3a3 	rbit	r3, r3
 8002aae:	64fb      	str	r3, [r7, #76]	; 0x4c
  return result;
 8002ab0:	6cfb      	ldr	r3, [r7, #76]	; 0x4c
 8002ab2:	fab3 f383 	clz	r3, r3
 8002ab6:	b2db      	uxtb	r3, r3
 8002ab8:	461a      	mov	r2, r3
 8002aba:	683b      	ldr	r3, [r7, #0]
 8002abc:	681b      	ldr	r3, [r3, #0]
 8002abe:	f3c3 0312 	ubfx	r3, r3, #0, #19
 8002ac2:	2b00      	cmp	r3, #0
 8002ac4:	d105      	bne.n	8002ad2 <HAL_ADC_ConfigChannel+0x342>
 8002ac6:	683b      	ldr	r3, [r7, #0]
 8002ac8:	681b      	ldr	r3, [r3, #0]
 8002aca:	0e9b      	lsrs	r3, r3, #26
 8002acc:	f003 031f 	and.w	r3, r3, #31
 8002ad0:	e00a      	b.n	8002ae8 <HAL_ADC_ConfigChannel+0x358>
 8002ad2:	683b      	ldr	r3, [r7, #0]
 8002ad4:	681b      	ldr	r3, [r3, #0]
 8002ad6:	64bb      	str	r3, [r7, #72]	; 0x48
   __ASM volatile ("rbit %0, %1" : "=r" (result) : "r" (value) );
 8002ad8:	6cbb      	ldr	r3, [r7, #72]	; 0x48
 8002ada:	fa93 f3a3 	rbit	r3, r3
 8002ade:	647b      	str	r3, [r7, #68]	; 0x44
  return result;
 8002ae0:	6c7b      	ldr	r3, [r7, #68]	; 0x44
 8002ae2:	fab3 f383 	clz	r3, r3
 8002ae6:	b2db      	uxtb	r3, r3
 8002ae8:	429a      	cmp	r2, r3
 8002aea:	d106      	bne.n	8002afa <HAL_ADC_ConfigChannel+0x36a>
        {
          LL_ADC_SetOffsetState(hadc->Instance, LL_ADC_OFFSET_4, LL_ADC_OFFSET_DISABLE);
 8002aec:	687b      	ldr	r3, [r7, #4]
 8002aee:	681b      	ldr	r3, [r3, #0]
 8002af0:	2200      	movs	r2, #0
 8002af2:	2103      	movs	r1, #3
 8002af4:	4618      	mov	r0, r3
 8002af6:	f7ff fb33 	bl	8002160 <LL_ADC_SetOffsetState>
    }

    /* Parameters update conditioned to ADC state:                              */
    /* Parameters that can be updated only when ADC is disabled:                */
    /*  - Single or differential mode                                           */
    if (LL_ADC_IsEnabled(hadc->Instance) == 0UL)
 8002afa:	687b      	ldr	r3, [r7, #4]
 8002afc:	681b      	ldr	r3, [r3, #0]
 8002afe:	4618      	mov	r0, r3
 8002b00:	f7ff fc4c 	bl	800239c <LL_ADC_IsEnabled>
 8002b04:	4603      	mov	r3, r0
 8002b06:	2b00      	cmp	r3, #0
 8002b08:	f040 810c 	bne.w	8002d24 <HAL_ADC_ConfigChannel+0x594>
    {
      /* Set mode single-ended or differential input of the selected ADC channel */
      LL_ADC_SetChannelSingleDiff(hadc->Instance, sConfig->Channel, sConfig->SingleDiff);
 8002b0c:	687b      	ldr	r3, [r7, #4]
 8002b0e:	6818      	ldr	r0, [r3, #0]
 8002b10:	683b      	ldr	r3, [r7, #0]
 8002b12:	6819      	ldr	r1, [r3, #0]
 8002b14:	683b      	ldr	r3, [r7, #0]
 8002b16:	68db      	ldr	r3, [r3, #12]
 8002b18:	461a      	mov	r2, r3
 8002b1a:	f7ff fbcd 	bl	80022b8 <LL_ADC_SetChannelSingleDiff>

      /* Configuration of differential mode */
      if (sConfig->SingleDiff == ADC_DIFFERENTIAL_ENDED)
 8002b1e:	683b      	ldr	r3, [r7, #0]
 8002b20:	68db      	ldr	r3, [r3, #12]
 8002b22:	4aaf      	ldr	r2, [pc, #700]	; (8002de0 <HAL_ADC_ConfigChannel+0x650>)
 8002b24:	4293      	cmp	r3, r2
 8002b26:	f040 80fd 	bne.w	8002d24 <HAL_ADC_ConfigChannel+0x594>
      {
        /* Set sampling time of the selected ADC channel */
        /* Note: ADC channel number masked with value "0x1F" to ensure shift value within 32 bits range */
        LL_ADC_SetChannelSamplingTime(hadc->Instance,
 8002b2a:	687b      	ldr	r3, [r7, #4]
 8002b2c:	6818      	ldr	r0, [r3, #0]
                                      (uint32_t)(__LL_ADC_DECIMAL_NB_TO_CHANNEL((__LL_ADC_CHANNEL_TO_DECIMAL_NB((uint32_t)sConfig->Channel) + 1UL) & 0x1FUL)),
 8002b2e:	683b      	ldr	r3, [r7, #0]
 8002b30:	681b      	ldr	r3, [r3, #0]
 8002b32:	f3c3 0312 	ubfx	r3, r3, #0, #19
 8002b36:	2b00      	cmp	r3, #0
 8002b38:	d10b      	bne.n	8002b52 <HAL_ADC_ConfigChannel+0x3c2>
 8002b3a:	683b      	ldr	r3, [r7, #0]
 8002b3c:	681b      	ldr	r3, [r3, #0]
 8002b3e:	0e9b      	lsrs	r3, r3, #26
 8002b40:	3301      	adds	r3, #1
 8002b42:	f003 031f 	and.w	r3, r3, #31
 8002b46:	2b09      	cmp	r3, #9
 8002b48:	bf94      	ite	ls
 8002b4a:	2301      	movls	r3, #1
 8002b4c:	2300      	movhi	r3, #0
 8002b4e:	b2db      	uxtb	r3, r3
 8002b50:	e012      	b.n	8002b78 <HAL_ADC_ConfigChannel+0x3e8>
 8002b52:	683b      	ldr	r3, [r7, #0]
 8002b54:	681b      	ldr	r3, [r3, #0]
 8002b56:	643b      	str	r3, [r7, #64]	; 0x40
   __ASM volatile ("rbit %0, %1" : "=r" (result) : "r" (value) );
 8002b58:	6c3b      	ldr	r3, [r7, #64]	; 0x40
 8002b5a:	fa93 f3a3 	rbit	r3, r3
 8002b5e:	63fb      	str	r3, [r7, #60]	; 0x3c
  return result;
 8002b60:	6bfb      	ldr	r3, [r7, #60]	; 0x3c
 8002b62:	fab3 f383 	clz	r3, r3
 8002b66:	b2db      	uxtb	r3, r3
 8002b68:	3301      	adds	r3, #1
 8002b6a:	f003 031f 	and.w	r3, r3, #31
 8002b6e:	2b09      	cmp	r3, #9
 8002b70:	bf94      	ite	ls
 8002b72:	2301      	movls	r3, #1
 8002b74:	2300      	movhi	r3, #0
 8002b76:	b2db      	uxtb	r3, r3
        LL_ADC_SetChannelSamplingTime(hadc->Instance,
 8002b78:	2b00      	cmp	r3, #0
 8002b7a:	d064      	beq.n	8002c46 <HAL_ADC_ConfigChannel+0x4b6>
                                      (uint32_t)(__LL_ADC_DECIMAL_NB_TO_CHANNEL((__LL_ADC_CHANNEL_TO_DECIMAL_NB((uint32_t)sConfig->Channel) + 1UL) & 0x1FUL)),
 8002b7c:	683b      	ldr	r3, [r7, #0]
 8002b7e:	681b      	ldr	r3, [r3, #0]
 8002b80:	f3c3 0312 	ubfx	r3, r3, #0, #19
 8002b84:	2b00      	cmp	r3, #0
 8002b86:	d107      	bne.n	8002b98 <HAL_ADC_ConfigChannel+0x408>
 8002b88:	683b      	ldr	r3, [r7, #0]
 8002b8a:	681b      	ldr	r3, [r3, #0]
 8002b8c:	0e9b      	lsrs	r3, r3, #26
 8002b8e:	3301      	adds	r3, #1
 8002b90:	069b      	lsls	r3, r3, #26
 8002b92:	f003 42f8 	and.w	r2, r3, #2080374784	; 0x7c000000
 8002b96:	e00e      	b.n	8002bb6 <HAL_ADC_ConfigChannel+0x426>
 8002b98:	683b      	ldr	r3, [r7, #0]
 8002b9a:	681b      	ldr	r3, [r3, #0]
 8002b9c:	63bb      	str	r3, [r7, #56]	; 0x38
   __ASM volatile ("rbit %0, %1" : "=r" (result) : "r" (value) );
 8002b9e:	6bbb      	ldr	r3, [r7, #56]	; 0x38
 8002ba0:	fa93 f3a3 	rbit	r3, r3
 8002ba4:	637b      	str	r3, [r7, #52]	; 0x34
  return result;
 8002ba6:	6b7b      	ldr	r3, [r7, #52]	; 0x34
 8002ba8:	fab3 f383 	clz	r3, r3
 8002bac:	b2db      	uxtb	r3, r3
 8002bae:	3301      	adds	r3, #1
 8002bb0:	069b      	lsls	r3, r3, #26
 8002bb2:	f003 42f8 	and.w	r2, r3, #2080374784	; 0x7c000000
 8002bb6:	683b      	ldr	r3, [r7, #0]
 8002bb8:	681b      	ldr	r3, [r3, #0]
 8002bba:	f3c3 0312 	ubfx	r3, r3, #0, #19
 8002bbe:	2b00      	cmp	r3, #0
 8002bc0:	d109      	bne.n	8002bd6 <HAL_ADC_ConfigChannel+0x446>
 8002bc2:	683b      	ldr	r3, [r7, #0]
 8002bc4:	681b      	ldr	r3, [r3, #0]
 8002bc6:	0e9b      	lsrs	r3, r3, #26
 8002bc8:	3301      	adds	r3, #1
 8002bca:	f003 031f 	and.w	r3, r3, #31
 8002bce:	2101      	movs	r1, #1
 8002bd0:	fa01 f303 	lsl.w	r3, r1, r3
 8002bd4:	e010      	b.n	8002bf8 <HAL_ADC_ConfigChannel+0x468>
 8002bd6:	683b      	ldr	r3, [r7, #0]
 8002bd8:	681b      	ldr	r3, [r3, #0]
 8002bda:	633b      	str	r3, [r7, #48]	; 0x30
   __ASM volatile ("rbit %0, %1" : "=r" (result) : "r" (value) );
 8002bdc:	6b3b      	ldr	r3, [r7, #48]	; 0x30
 8002bde:	fa93 f3a3 	rbit	r3, r3
 8002be2:	62fb      	str	r3, [r7, #44]	; 0x2c
  return result;
 8002be4:	6afb      	ldr	r3, [r7, #44]	; 0x2c
 8002be6:	fab3 f383 	clz	r3, r3
 8002bea:	b2db      	uxtb	r3, r3
 8002bec:	3301      	adds	r3, #1
 8002bee:	f003 031f 	and.w	r3, r3, #31
 8002bf2:	2101      	movs	r1, #1
 8002bf4:	fa01 f303 	lsl.w	r3, r1, r3
 8002bf8:	ea42 0103 	orr.w	r1, r2, r3
 8002bfc:	683b      	ldr	r3, [r7, #0]
 8002bfe:	681b      	ldr	r3, [r3, #0]
 8002c00:	f3c3 0312 	ubfx	r3, r3, #0, #19
 8002c04:	2b00      	cmp	r3, #0
 8002c06:	d10a      	bne.n	8002c1e <HAL_ADC_ConfigChannel+0x48e>
 8002c08:	683b      	ldr	r3, [r7, #0]
 8002c0a:	681b      	ldr	r3, [r3, #0]
 8002c0c:	0e9b      	lsrs	r3, r3, #26
 8002c0e:	3301      	adds	r3, #1
 8002c10:	f003 021f 	and.w	r2, r3, #31
 8002c14:	4613      	mov	r3, r2
 8002c16:	005b      	lsls	r3, r3, #1
 8002c18:	4413      	add	r3, r2
 8002c1a:	051b      	lsls	r3, r3, #20
 8002c1c:	e011      	b.n	8002c42 <HAL_ADC_ConfigChannel+0x4b2>
 8002c1e:	683b      	ldr	r3, [r7, #0]
 8002c20:	681b      	ldr	r3, [r3, #0]
 8002c22:	62bb      	str	r3, [r7, #40]	; 0x28
   __ASM volatile ("rbit %0, %1" : "=r" (result) : "r" (value) );
 8002c24:	6abb      	ldr	r3, [r7, #40]	; 0x28
 8002c26:	fa93 f3a3 	rbit	r3, r3
 8002c2a:	627b      	str	r3, [r7, #36]	; 0x24
  return result;
 8002c2c:	6a7b      	ldr	r3, [r7, #36]	; 0x24
 8002c2e:	fab3 f383 	clz	r3, r3
 8002c32:	b2db      	uxtb	r3, r3
 8002c34:	3301      	adds	r3, #1
 8002c36:	f003 021f 	and.w	r2, r3, #31
 8002c3a:	4613      	mov	r3, r2
 8002c3c:	005b      	lsls	r3, r3, #1
 8002c3e:	4413      	add	r3, r2
 8002c40:	051b      	lsls	r3, r3, #20
        LL_ADC_SetChannelSamplingTime(hadc->Instance,
 8002c42:	430b      	orrs	r3, r1
 8002c44:	e069      	b.n	8002d1a <HAL_ADC_ConfigChannel+0x58a>
                                      (uint32_t)(__LL_ADC_DECIMAL_NB_TO_CHANNEL((__LL_ADC_CHANNEL_TO_DECIMAL_NB((uint32_t)sConfig->Channel) + 1UL) & 0x1FUL)),
 8002c46:	683b      	ldr	r3, [r7, #0]
 8002c48:	681b      	ldr	r3, [r3, #0]
 8002c4a:	f3c3 0312 	ubfx	r3, r3, #0, #19
 8002c4e:	2b00      	cmp	r3, #0
 8002c50:	d107      	bne.n	8002c62 <HAL_ADC_ConfigChannel+0x4d2>
 8002c52:	683b      	ldr	r3, [r7, #0]
 8002c54:	681b      	ldr	r3, [r3, #0]
 8002c56:	0e9b      	lsrs	r3, r3, #26
 8002c58:	3301      	adds	r3, #1
 8002c5a:	069b      	lsls	r3, r3, #26
 8002c5c:	f003 42f8 	and.w	r2, r3, #2080374784	; 0x7c000000
 8002c60:	e00e      	b.n	8002c80 <HAL_ADC_ConfigChannel+0x4f0>
 8002c62:	683b      	ldr	r3, [r7, #0]
 8002c64:	681b      	ldr	r3, [r3, #0]
 8002c66:	623b      	str	r3, [r7, #32]
   __ASM volatile ("rbit %0, %1" : "=r" (result) : "r" (value) );
 8002c68:	6a3b      	ldr	r3, [r7, #32]
 8002c6a:	fa93 f3a3 	rbit	r3, r3
 8002c6e:	61fb      	str	r3, [r7, #28]
  return result;
 8002c70:	69fb      	ldr	r3, [r7, #28]
 8002c72:	fab3 f383 	clz	r3, r3
 8002c76:	b2db      	uxtb	r3, r3
 8002c78:	3301      	adds	r3, #1
 8002c7a:	069b      	lsls	r3, r3, #26
 8002c7c:	f003 42f8 	and.w	r2, r3, #2080374784	; 0x7c000000
 8002c80:	683b      	ldr	r3, [r7, #0]
 8002c82:	681b      	ldr	r3, [r3, #0]
 8002c84:	f3c3 0312 	ubfx	r3, r3, #0, #19
 8002c88:	2b00      	cmp	r3, #0
 8002c8a:	d109      	bne.n	8002ca0 <HAL_ADC_ConfigChannel+0x510>
 8002c8c:	683b      	ldr	r3, [r7, #0]
 8002c8e:	681b      	ldr	r3, [r3, #0]
 8002c90:	0e9b      	lsrs	r3, r3, #26
 8002c92:	3301      	adds	r3, #1
 8002c94:	f003 031f 	and.w	r3, r3, #31
 8002c98:	2101      	movs	r1, #1
 8002c9a:	fa01 f303 	lsl.w	r3, r1, r3
 8002c9e:	e010      	b.n	8002cc2 <HAL_ADC_ConfigChannel+0x532>
 8002ca0:	683b      	ldr	r3, [r7, #0]
 8002ca2:	681b      	ldr	r3, [r3, #0]
 8002ca4:	61bb      	str	r3, [r7, #24]
   __ASM volatile ("rbit %0, %1" : "=r" (result) : "r" (value) );
 8002ca6:	69bb      	ldr	r3, [r7, #24]
 8002ca8:	fa93 f3a3 	rbit	r3, r3
 8002cac:	617b      	str	r3, [r7, #20]
  return result;
 8002cae:	697b      	ldr	r3, [r7, #20]
 8002cb0:	fab3 f383 	clz	r3, r3
 8002cb4:	b2db      	uxtb	r3, r3
 8002cb6:	3301      	adds	r3, #1
 8002cb8:	f003 031f 	and.w	r3, r3, #31
 8002cbc:	2101      	movs	r1, #1
 8002cbe:	fa01 f303 	lsl.w	r3, r1, r3
 8002cc2:	ea42 0103 	orr.w	r1, r2, r3
 8002cc6:	683b      	ldr	r3, [r7, #0]
 8002cc8:	681b      	ldr	r3, [r3, #0]
 8002cca:	f3c3 0312 	ubfx	r3, r3, #0, #19
 8002cce:	2b00      	cmp	r3, #0
 8002cd0:	d10d      	bne.n	8002cee <HAL_ADC_ConfigChannel+0x55e>
 8002cd2:	683b      	ldr	r3, [r7, #0]
 8002cd4:	681b      	ldr	r3, [r3, #0]
 8002cd6:	0e9b      	lsrs	r3, r3, #26
 8002cd8:	3301      	adds	r3, #1
 8002cda:	f003 021f 	and.w	r2, r3, #31
 8002cde:	4613      	mov	r3, r2
 8002ce0:	005b      	lsls	r3, r3, #1
 8002ce2:	4413      	add	r3, r2
 8002ce4:	3b1e      	subs	r3, #30
 8002ce6:	051b      	lsls	r3, r3, #20
 8002ce8:	f043 7300 	orr.w	r3, r3, #33554432	; 0x2000000
 8002cec:	e014      	b.n	8002d18 <HAL_ADC_ConfigChannel+0x588>
 8002cee:	683b      	ldr	r3, [r7, #0]
 8002cf0:	681b      	ldr	r3, [r3, #0]
 8002cf2:	613b      	str	r3, [r7, #16]
   __ASM volatile ("rbit %0, %1" : "=r" (result) : "r" (value) );
 8002cf4:	693b      	ldr	r3, [r7, #16]
 8002cf6:	fa93 f3a3 	rbit	r3, r3
 8002cfa:	60fb      	str	r3, [r7, #12]
  return result;
 8002cfc:	68fb      	ldr	r3, [r7, #12]
 8002cfe:	fab3 f383 	clz	r3, r3
 8002d02:	b2db      	uxtb	r3, r3
 8002d04:	3301      	adds	r3, #1
 8002d06:	f003 021f 	and.w	r2, r3, #31
 8002d0a:	4613      	mov	r3, r2
 8002d0c:	005b      	lsls	r3, r3, #1
 8002d0e:	4413      	add	r3, r2
 8002d10:	3b1e      	subs	r3, #30
 8002d12:	051b      	lsls	r3, r3, #20
 8002d14:	f043 7300 	orr.w	r3, r3, #33554432	; 0x2000000
        LL_ADC_SetChannelSamplingTime(hadc->Instance,
 8002d18:	430b      	orrs	r3, r1
 8002d1a:	683a      	ldr	r2, [r7, #0]
 8002d1c:	6892      	ldr	r2, [r2, #8]
 8002d1e:	4619      	mov	r1, r3
 8002d20:	f7ff faa2 	bl	8002268 <LL_ADC_SetChannelSamplingTime>
    /* If internal channel selected, enable dedicated internal buffers and    */
    /* paths.                                                                 */
    /* Note: these internal measurement paths can be disabled using           */
    /* HAL_ADC_DeInit().                                                      */

    if (__LL_ADC_IS_CHANNEL_INTERNAL(sConfig->Channel))
 8002d24:	683b      	ldr	r3, [r7, #0]
 8002d26:	681a      	ldr	r2, [r3, #0]
 8002d28:	4b2e      	ldr	r3, [pc, #184]	; (8002de4 <HAL_ADC_ConfigChannel+0x654>)
 8002d2a:	4013      	ands	r3, r2
 8002d2c:	2b00      	cmp	r3, #0
 8002d2e:	f000 80c9 	beq.w	8002ec4 <HAL_ADC_ConfigChannel+0x734>
    {
      tmp_config_internal_channel = LL_ADC_GetCommonPathInternalCh(__LL_ADC_COMMON_INSTANCE(hadc->Instance));
 8002d32:	687b      	ldr	r3, [r7, #4]
 8002d34:	681b      	ldr	r3, [r3, #0]
 8002d36:	f1b3 4fa0 	cmp.w	r3, #1342177280	; 0x50000000
 8002d3a:	d004      	beq.n	8002d46 <HAL_ADC_ConfigChannel+0x5b6>
 8002d3c:	687b      	ldr	r3, [r7, #4]
 8002d3e:	681b      	ldr	r3, [r3, #0]
 8002d40:	4a29      	ldr	r2, [pc, #164]	; (8002de8 <HAL_ADC_ConfigChannel+0x658>)
 8002d42:	4293      	cmp	r3, r2
 8002d44:	d101      	bne.n	8002d4a <HAL_ADC_ConfigChannel+0x5ba>
 8002d46:	4b29      	ldr	r3, [pc, #164]	; (8002dec <HAL_ADC_ConfigChannel+0x65c>)
 8002d48:	e000      	b.n	8002d4c <HAL_ADC_ConfigChannel+0x5bc>
 8002d4a:	4b29      	ldr	r3, [pc, #164]	; (8002df0 <HAL_ADC_ConfigChannel+0x660>)
 8002d4c:	4618      	mov	r0, r3
 8002d4e:	f7ff f9c3 	bl	80020d8 <LL_ADC_GetCommonPathInternalCh>
 8002d52:	f8c7 0084 	str.w	r0, [r7, #132]	; 0x84

      /* If the requested internal measurement path has already been enabled, */
      /* bypass the configuration processing.                                 */
      if (((sConfig->Channel == ADC_CHANNEL_TEMPSENSOR_ADC1) || (sConfig->Channel == ADC_CHANNEL_TEMPSENSOR_ADC5))
 8002d56:	683b      	ldr	r3, [r7, #0]
 8002d58:	681b      	ldr	r3, [r3, #0]
 8002d5a:	4a26      	ldr	r2, [pc, #152]	; (8002df4 <HAL_ADC_ConfigChannel+0x664>)
 8002d5c:	4293      	cmp	r3, r2
 8002d5e:	d004      	beq.n	8002d6a <HAL_ADC_ConfigChannel+0x5da>
 8002d60:	683b      	ldr	r3, [r7, #0]
 8002d62:	681b      	ldr	r3, [r3, #0]
 8002d64:	4a24      	ldr	r2, [pc, #144]	; (8002df8 <HAL_ADC_ConfigChannel+0x668>)
 8002d66:	4293      	cmp	r3, r2
 8002d68:	d14e      	bne.n	8002e08 <HAL_ADC_ConfigChannel+0x678>
          && ((tmp_config_internal_channel & LL_ADC_PATH_INTERNAL_TEMPSENSOR) == 0UL))
 8002d6a:	f8d7 3084 	ldr.w	r3, [r7, #132]	; 0x84
 8002d6e:	f403 0300 	and.w	r3, r3, #8388608	; 0x800000
 8002d72:	2b00      	cmp	r3, #0
 8002d74:	d148      	bne.n	8002e08 <HAL_ADC_ConfigChannel+0x678>
      {
        if (ADC_TEMPERATURE_SENSOR_INSTANCE(hadc))
 8002d76:	687b      	ldr	r3, [r7, #4]
 8002d78:	681b      	ldr	r3, [r3, #0]
 8002d7a:	f1b3 4fa0 	cmp.w	r3, #1342177280	; 0x50000000
 8002d7e:	d005      	beq.n	8002d8c <HAL_ADC_ConfigChannel+0x5fc>
 8002d80:	687b      	ldr	r3, [r7, #4]
 8002d82:	681b      	ldr	r3, [r3, #0]
 8002d84:	4a1d      	ldr	r2, [pc, #116]	; (8002dfc <HAL_ADC_ConfigChannel+0x66c>)
 8002d86:	4293      	cmp	r3, r2
 8002d88:	f040 8099 	bne.w	8002ebe <HAL_ADC_ConfigChannel+0x72e>
        {
          LL_ADC_SetCommonPathInternalCh(__LL_ADC_COMMON_INSTANCE(hadc->Instance),
 8002d8c:	687b      	ldr	r3, [r7, #4]
 8002d8e:	681b      	ldr	r3, [r3, #0]
 8002d90:	f1b3 4fa0 	cmp.w	r3, #1342177280	; 0x50000000
 8002d94:	d004      	beq.n	8002da0 <HAL_ADC_ConfigChannel+0x610>
 8002d96:	687b      	ldr	r3, [r7, #4]
 8002d98:	681b      	ldr	r3, [r3, #0]
 8002d9a:	4a13      	ldr	r2, [pc, #76]	; (8002de8 <HAL_ADC_ConfigChannel+0x658>)
 8002d9c:	4293      	cmp	r3, r2
 8002d9e:	d101      	bne.n	8002da4 <HAL_ADC_ConfigChannel+0x614>
 8002da0:	4a12      	ldr	r2, [pc, #72]	; (8002dec <HAL_ADC_ConfigChannel+0x65c>)
 8002da2:	e000      	b.n	8002da6 <HAL_ADC_ConfigChannel+0x616>
 8002da4:	4a12      	ldr	r2, [pc, #72]	; (8002df0 <HAL_ADC_ConfigChannel+0x660>)
 8002da6:	f8d7 3084 	ldr.w	r3, [r7, #132]	; 0x84
 8002daa:	f443 0300 	orr.w	r3, r3, #8388608	; 0x800000
 8002dae:	4619      	mov	r1, r3
 8002db0:	4610      	mov	r0, r2
 8002db2:	f7ff f97e 	bl	80020b2 <LL_ADC_SetCommonPathInternalCh>
          /* Delay for temperature sensor stabilization time */
          /* Wait loop initialization and execution */
          /* Note: Variable divided by 2 to compensate partially              */
          /*       CPU processing cycles, scaling in us split to not          */
          /*       exceed 32 bits register capacity and handle low frequency. */
          wait_loop_index = ((LL_ADC_DELAY_TEMPSENSOR_STAB_US / 10UL) * (SystemCoreClock / (100000UL * 2UL)));
 8002db6:	4b12      	ldr	r3, [pc, #72]	; (8002e00 <HAL_ADC_ConfigChannel+0x670>)
 8002db8:	681b      	ldr	r3, [r3, #0]
 8002dba:	099b      	lsrs	r3, r3, #6
 8002dbc:	4a11      	ldr	r2, [pc, #68]	; (8002e04 <HAL_ADC_ConfigChannel+0x674>)
 8002dbe:	fba2 2303 	umull	r2, r3, r2, r3
 8002dc2:	099a      	lsrs	r2, r3, #6
 8002dc4:	4613      	mov	r3, r2
 8002dc6:	005b      	lsls	r3, r3, #1
 8002dc8:	4413      	add	r3, r2
 8002dca:	009b      	lsls	r3, r3, #2
 8002dcc:	60bb      	str	r3, [r7, #8]
          while (wait_loop_index != 0UL)
 8002dce:	e002      	b.n	8002dd6 <HAL_ADC_ConfigChannel+0x646>
          {
            wait_loop_index--;
 8002dd0:	68bb      	ldr	r3, [r7, #8]
 8002dd2:	3b01      	subs	r3, #1
 8002dd4:	60bb      	str	r3, [r7, #8]
          while (wait_loop_index != 0UL)
 8002dd6:	68bb      	ldr	r3, [r7, #8]
 8002dd8:	2b00      	cmp	r3, #0
 8002dda:	d1f9      	bne.n	8002dd0 <HAL_ADC_ConfigChannel+0x640>
        if (ADC_TEMPERATURE_SENSOR_INSTANCE(hadc))
 8002ddc:	e06f      	b.n	8002ebe <HAL_ADC_ConfigChannel+0x72e>
 8002dde:	bf00      	nop
 8002de0:	407f0000 	.word	0x407f0000
 8002de4:	80080000 	.word	0x80080000
 8002de8:	50000100 	.word	0x50000100
 8002dec:	50000300 	.word	0x50000300
 8002df0:	50000700 	.word	0x50000700
 8002df4:	c3210000 	.word	0xc3210000
 8002df8:	90c00010 	.word	0x90c00010
 8002dfc:	50000600 	.word	0x50000600
 8002e00:	20001f44 	.word	0x20001f44
 8002e04:	053e2d63 	.word	0x053e2d63
          }
        }
      }
      else if ((sConfig->Channel == ADC_CHANNEL_VBAT) && ((tmp_config_internal_channel & LL_ADC_PATH_INTERNAL_VBAT) == 0UL))
 8002e08:	683b      	ldr	r3, [r7, #0]
 8002e0a:	681b      	ldr	r3, [r3, #0]
 8002e0c:	4a32      	ldr	r2, [pc, #200]	; (8002ed8 <HAL_ADC_ConfigChannel+0x748>)
 8002e0e:	4293      	cmp	r3, r2
 8002e10:	d125      	bne.n	8002e5e <HAL_ADC_ConfigChannel+0x6ce>
 8002e12:	f8d7 3084 	ldr.w	r3, [r7, #132]	; 0x84
 8002e16:	f003 7380 	and.w	r3, r3, #16777216	; 0x1000000
 8002e1a:	2b00      	cmp	r3, #0
 8002e1c:	d11f      	bne.n	8002e5e <HAL_ADC_ConfigChannel+0x6ce>
      {
        if (ADC_BATTERY_VOLTAGE_INSTANCE(hadc))
 8002e1e:	687b      	ldr	r3, [r7, #4]
 8002e20:	681b      	ldr	r3, [r3, #0]
 8002e22:	4a2e      	ldr	r2, [pc, #184]	; (8002edc <HAL_ADC_ConfigChannel+0x74c>)
 8002e24:	4293      	cmp	r3, r2
 8002e26:	d104      	bne.n	8002e32 <HAL_ADC_ConfigChannel+0x6a2>
 8002e28:	687b      	ldr	r3, [r7, #4]
 8002e2a:	681b      	ldr	r3, [r3, #0]
 8002e2c:	4a2c      	ldr	r2, [pc, #176]	; (8002ee0 <HAL_ADC_ConfigChannel+0x750>)
 8002e2e:	4293      	cmp	r3, r2
 8002e30:	d047      	beq.n	8002ec2 <HAL_ADC_ConfigChannel+0x732>
        {
          LL_ADC_SetCommonPathInternalCh(__LL_ADC_COMMON_INSTANCE(hadc->Instance),
 8002e32:	687b      	ldr	r3, [r7, #4]
 8002e34:	681b      	ldr	r3, [r3, #0]
 8002e36:	f1b3 4fa0 	cmp.w	r3, #1342177280	; 0x50000000
 8002e3a:	d004      	beq.n	8002e46 <HAL_ADC_ConfigChannel+0x6b6>
 8002e3c:	687b      	ldr	r3, [r7, #4]
 8002e3e:	681b      	ldr	r3, [r3, #0]
 8002e40:	4a26      	ldr	r2, [pc, #152]	; (8002edc <HAL_ADC_ConfigChannel+0x74c>)
 8002e42:	4293      	cmp	r3, r2
 8002e44:	d101      	bne.n	8002e4a <HAL_ADC_ConfigChannel+0x6ba>
 8002e46:	4a27      	ldr	r2, [pc, #156]	; (8002ee4 <HAL_ADC_ConfigChannel+0x754>)
 8002e48:	e000      	b.n	8002e4c <HAL_ADC_ConfigChannel+0x6bc>
 8002e4a:	4a27      	ldr	r2, [pc, #156]	; (8002ee8 <HAL_ADC_ConfigChannel+0x758>)
 8002e4c:	f8d7 3084 	ldr.w	r3, [r7, #132]	; 0x84
 8002e50:	f043 7380 	orr.w	r3, r3, #16777216	; 0x1000000
 8002e54:	4619      	mov	r1, r3
 8002e56:	4610      	mov	r0, r2
 8002e58:	f7ff f92b 	bl	80020b2 <LL_ADC_SetCommonPathInternalCh>
        if (ADC_BATTERY_VOLTAGE_INSTANCE(hadc))
 8002e5c:	e031      	b.n	8002ec2 <HAL_ADC_ConfigChannel+0x732>
                                         LL_ADC_PATH_INTERNAL_VBAT | tmp_config_internal_channel);
        }
      }
      else if ((sConfig->Channel == ADC_CHANNEL_VREFINT)
 8002e5e:	683b      	ldr	r3, [r7, #0]
 8002e60:	681b      	ldr	r3, [r3, #0]
 8002e62:	4a22      	ldr	r2, [pc, #136]	; (8002eec <HAL_ADC_ConfigChannel+0x75c>)
 8002e64:	4293      	cmp	r3, r2
 8002e66:	d12d      	bne.n	8002ec4 <HAL_ADC_ConfigChannel+0x734>
               && ((tmp_config_internal_channel & LL_ADC_PATH_INTERNAL_VREFINT) == 0UL))
 8002e68:	f8d7 3084 	ldr.w	r3, [r7, #132]	; 0x84
 8002e6c:	f403 0380 	and.w	r3, r3, #4194304	; 0x400000
 8002e70:	2b00      	cmp	r3, #0
 8002e72:	d127      	bne.n	8002ec4 <HAL_ADC_ConfigChannel+0x734>
      {
        if (ADC_VREFINT_INSTANCE(hadc))
 8002e74:	687b      	ldr	r3, [r7, #4]
 8002e76:	681b      	ldr	r3, [r3, #0]
 8002e78:	4a18      	ldr	r2, [pc, #96]	; (8002edc <HAL_ADC_ConfigChannel+0x74c>)
 8002e7a:	4293      	cmp	r3, r2
 8002e7c:	d022      	beq.n	8002ec4 <HAL_ADC_ConfigChannel+0x734>
        {
          LL_ADC_SetCommonPathInternalCh(__LL_ADC_COMMON_INSTANCE(hadc->Instance),
 8002e7e:	687b      	ldr	r3, [r7, #4]
 8002e80:	681b      	ldr	r3, [r3, #0]
 8002e82:	f1b3 4fa0 	cmp.w	r3, #1342177280	; 0x50000000
 8002e86:	d004      	beq.n	8002e92 <HAL_ADC_ConfigChannel+0x702>
 8002e88:	687b      	ldr	r3, [r7, #4]
 8002e8a:	681b      	ldr	r3, [r3, #0]
 8002e8c:	4a13      	ldr	r2, [pc, #76]	; (8002edc <HAL_ADC_ConfigChannel+0x74c>)
 8002e8e:	4293      	cmp	r3, r2
 8002e90:	d101      	bne.n	8002e96 <HAL_ADC_ConfigChannel+0x706>
 8002e92:	4a14      	ldr	r2, [pc, #80]	; (8002ee4 <HAL_ADC_ConfigChannel+0x754>)
 8002e94:	e000      	b.n	8002e98 <HAL_ADC_ConfigChannel+0x708>
 8002e96:	4a14      	ldr	r2, [pc, #80]	; (8002ee8 <HAL_ADC_ConfigChannel+0x758>)
 8002e98:	f8d7 3084 	ldr.w	r3, [r7, #132]	; 0x84
 8002e9c:	f443 0380 	orr.w	r3, r3, #4194304	; 0x400000
 8002ea0:	4619      	mov	r1, r3
 8002ea2:	4610      	mov	r0, r2
 8002ea4:	f7ff f905 	bl	80020b2 <LL_ADC_SetCommonPathInternalCh>
 8002ea8:	e00c      	b.n	8002ec4 <HAL_ADC_ConfigChannel+0x734>
  /* channel could be done on neither of the channel configuration structure  */
  /* parameters.                                                              */
  else
  {
    /* Update ADC state machine to error */
    SET_BIT(hadc->State, HAL_ADC_STATE_ERROR_CONFIG);
 8002eaa:	687b      	ldr	r3, [r7, #4]
 8002eac:	6ddb      	ldr	r3, [r3, #92]	; 0x5c
 8002eae:	f043 0220 	orr.w	r2, r3, #32
 8002eb2:	687b      	ldr	r3, [r7, #4]
 8002eb4:	65da      	str	r2, [r3, #92]	; 0x5c

    tmp_hal_status = HAL_ERROR;
 8002eb6:	2301      	movs	r3, #1
 8002eb8:	f887 3097 	strb.w	r3, [r7, #151]	; 0x97
 8002ebc:	e002      	b.n	8002ec4 <HAL_ADC_ConfigChannel+0x734>
        if (ADC_TEMPERATURE_SENSOR_INSTANCE(hadc))
 8002ebe:	bf00      	nop
 8002ec0:	e000      	b.n	8002ec4 <HAL_ADC_ConfigChannel+0x734>
        if (ADC_BATTERY_VOLTAGE_INSTANCE(hadc))
 8002ec2:	bf00      	nop
  }

  /* Process unlocked */
  __HAL_UNLOCK(hadc);
 8002ec4:	687b      	ldr	r3, [r7, #4]
 8002ec6:	2200      	movs	r2, #0
 8002ec8:	f883 2058 	strb.w	r2, [r3, #88]	; 0x58

  /* Return function status */
  return tmp_hal_status;
 8002ecc:	f897 3097 	ldrb.w	r3, [r7, #151]	; 0x97
}
 8002ed0:	4618      	mov	r0, r3
 8002ed2:	3798      	adds	r7, #152	; 0x98
 8002ed4:	46bd      	mov	sp, r7
 8002ed6:	bd80      	pop	{r7, pc}
 8002ed8:	c7520000 	.word	0xc7520000
 8002edc:	50000100 	.word	0x50000100
 8002ee0:	50000500 	.word	0x50000500
 8002ee4:	50000300 	.word	0x50000300
 8002ee8:	50000700 	.word	0x50000700
 8002eec:	cb840000 	.word	0xcb840000

08002ef0 <LL_ADC_IsEnabled>:
{
 8002ef0:	b480      	push	{r7}
 8002ef2:	b083      	sub	sp, #12
 8002ef4:	af00      	add	r7, sp, #0
 8002ef6:	6078      	str	r0, [r7, #4]
  return ((READ_BIT(ADCx->CR, ADC_CR_ADEN) == (ADC_CR_ADEN)) ? 1UL : 0UL);
 8002ef8:	687b      	ldr	r3, [r7, #4]
 8002efa:	689b      	ldr	r3, [r3, #8]
 8002efc:	f003 0301 	and.w	r3, r3, #1
 8002f00:	2b01      	cmp	r3, #1
 8002f02:	d101      	bne.n	8002f08 <LL_ADC_IsEnabled+0x18>
 8002f04:	2301      	movs	r3, #1
 8002f06:	e000      	b.n	8002f0a <LL_ADC_IsEnabled+0x1a>
 8002f08:	2300      	movs	r3, #0
}
 8002f0a:	4618      	mov	r0, r3
 8002f0c:	370c      	adds	r7, #12
 8002f0e:	46bd      	mov	sp, r7
 8002f10:	f85d 7b04 	ldr.w	r7, [sp], #4
 8002f14:	4770      	bx	lr

08002f16 <LL_ADC_REG_IsConversionOngoing>:
{
 8002f16:	b480      	push	{r7}
 8002f18:	b083      	sub	sp, #12
 8002f1a:	af00      	add	r7, sp, #0
 8002f1c:	6078      	str	r0, [r7, #4]
  return ((READ_BIT(ADCx->CR, ADC_CR_ADSTART) == (ADC_CR_ADSTART)) ? 1UL : 0UL);
 8002f1e:	687b      	ldr	r3, [r7, #4]
 8002f20:	689b      	ldr	r3, [r3, #8]
 8002f22:	f003 0304 	and.w	r3, r3, #4
 8002f26:	2b04      	cmp	r3, #4
 8002f28:	d101      	bne.n	8002f2e <LL_ADC_REG_IsConversionOngoing+0x18>
 8002f2a:	2301      	movs	r3, #1
 8002f2c:	e000      	b.n	8002f30 <LL_ADC_REG_IsConversionOngoing+0x1a>
 8002f2e:	2300      	movs	r3, #0
}
 8002f30:	4618      	mov	r0, r3
 8002f32:	370c      	adds	r7, #12
 8002f34:	46bd      	mov	sp, r7
 8002f36:	f85d 7b04 	ldr.w	r7, [sp], #4
 8002f3a:	4770      	bx	lr

08002f3c <HAL_ADCEx_MultiModeConfigChannel>:
  * @param hadc Master ADC handle
  * @param multimode Structure of ADC multimode configuration
  * @retval HAL status
  */
HAL_StatusTypeDef HAL_ADCEx_MultiModeConfigChannel(ADC_HandleTypeDef *hadc, ADC_MultiModeTypeDef *multimode)
{
 8002f3c:	b590      	push	{r4, r7, lr}
 8002f3e:	b0a1      	sub	sp, #132	; 0x84
 8002f40:	af00      	add	r7, sp, #0
 8002f42:	6078      	str	r0, [r7, #4]
 8002f44:	6039      	str	r1, [r7, #0]
  HAL_StatusTypeDef tmp_hal_status = HAL_OK;
 8002f46:	2300      	movs	r3, #0
 8002f48:	f887 307f 	strb.w	r3, [r7, #127]	; 0x7f
    assert_param(IS_ADC_DMA_ACCESS_MULTIMODE(multimode->DMAAccessMode));
    assert_param(IS_ADC_SAMPLING_DELAY(multimode->TwoSamplingDelay));
  }

  /* Process locked */
  __HAL_LOCK(hadc);
 8002f4c:	687b      	ldr	r3, [r7, #4]
 8002f4e:	f893 3058 	ldrb.w	r3, [r3, #88]	; 0x58
 8002f52:	2b01      	cmp	r3, #1
 8002f54:	d101      	bne.n	8002f5a <HAL_ADCEx_MultiModeConfigChannel+0x1e>
 8002f56:	2302      	movs	r3, #2
 8002f58:	e0e3      	b.n	8003122 <HAL_ADCEx_MultiModeConfigChannel+0x1e6>
 8002f5a:	687b      	ldr	r3, [r7, #4]
 8002f5c:	2201      	movs	r2, #1
 8002f5e:	f883 2058 	strb.w	r2, [r3, #88]	; 0x58

  ADC_MULTI_SLAVE(hadc, &tmphadcSlave);
 8002f62:	687b      	ldr	r3, [r7, #4]
 8002f64:	681b      	ldr	r3, [r3, #0]
 8002f66:	f1b3 4fa0 	cmp.w	r3, #1342177280	; 0x50000000
 8002f6a:	d102      	bne.n	8002f72 <HAL_ADCEx_MultiModeConfigChannel+0x36>
 8002f6c:	4b6f      	ldr	r3, [pc, #444]	; (800312c <HAL_ADCEx_MultiModeConfigChannel+0x1f0>)
 8002f6e:	60bb      	str	r3, [r7, #8]
 8002f70:	e009      	b.n	8002f86 <HAL_ADCEx_MultiModeConfigChannel+0x4a>
 8002f72:	687b      	ldr	r3, [r7, #4]
 8002f74:	681b      	ldr	r3, [r3, #0]
 8002f76:	4a6e      	ldr	r2, [pc, #440]	; (8003130 <HAL_ADCEx_MultiModeConfigChannel+0x1f4>)
 8002f78:	4293      	cmp	r3, r2
 8002f7a:	d102      	bne.n	8002f82 <HAL_ADCEx_MultiModeConfigChannel+0x46>
 8002f7c:	4b6d      	ldr	r3, [pc, #436]	; (8003134 <HAL_ADCEx_MultiModeConfigChannel+0x1f8>)
 8002f7e:	60bb      	str	r3, [r7, #8]
 8002f80:	e001      	b.n	8002f86 <HAL_ADCEx_MultiModeConfigChannel+0x4a>
 8002f82:	2300      	movs	r3, #0
 8002f84:	60bb      	str	r3, [r7, #8]

  if (tmphadcSlave.Instance == NULL)
 8002f86:	68bb      	ldr	r3, [r7, #8]
 8002f88:	2b00      	cmp	r3, #0
 8002f8a:	d10b      	bne.n	8002fa4 <HAL_ADCEx_MultiModeConfigChannel+0x68>
  {
    /* Update ADC state machine to error */
    SET_BIT(hadc->State, HAL_ADC_STATE_ERROR_CONFIG);
 8002f8c:	687b      	ldr	r3, [r7, #4]
 8002f8e:	6ddb      	ldr	r3, [r3, #92]	; 0x5c
 8002f90:	f043 0220 	orr.w	r2, r3, #32
 8002f94:	687b      	ldr	r3, [r7, #4]
 8002f96:	65da      	str	r2, [r3, #92]	; 0x5c

    /* Process unlocked */
    __HAL_UNLOCK(hadc);
 8002f98:	687b      	ldr	r3, [r7, #4]
 8002f9a:	2200      	movs	r2, #0
 8002f9c:	f883 2058 	strb.w	r2, [r3, #88]	; 0x58

    return HAL_ERROR;
 8002fa0:	2301      	movs	r3, #1
 8002fa2:	e0be      	b.n	8003122 <HAL_ADCEx_MultiModeConfigChannel+0x1e6>
  /* Parameters update conditioned to ADC state:                              */
  /* Parameters that can be updated when ADC is disabled or enabled without   */
  /* conversion on going on regular group:                                    */
  /*  - Multimode DMA configuration                                           */
  /*  - Multimode DMA mode                                                    */
  tmphadcSlave_conversion_on_going = LL_ADC_REG_IsConversionOngoing((&tmphadcSlave)->Instance);
 8002fa4:	68bb      	ldr	r3, [r7, #8]
 8002fa6:	4618      	mov	r0, r3
 8002fa8:	f7ff ffb5 	bl	8002f16 <LL_ADC_REG_IsConversionOngoing>
 8002fac:	67b8      	str	r0, [r7, #120]	; 0x78
  if ((LL_ADC_REG_IsConversionOngoing(hadc->Instance) == 0UL)
 8002fae:	687b      	ldr	r3, [r7, #4]
 8002fb0:	681b      	ldr	r3, [r3, #0]
 8002fb2:	4618      	mov	r0, r3
 8002fb4:	f7ff ffaf 	bl	8002f16 <LL_ADC_REG_IsConversionOngoing>
 8002fb8:	4603      	mov	r3, r0
 8002fba:	2b00      	cmp	r3, #0
 8002fbc:	f040 80a0 	bne.w	8003100 <HAL_ADCEx_MultiModeConfigChannel+0x1c4>
      && (tmphadcSlave_conversion_on_going == 0UL))
 8002fc0:	6fbb      	ldr	r3, [r7, #120]	; 0x78
 8002fc2:	2b00      	cmp	r3, #0
 8002fc4:	f040 809c 	bne.w	8003100 <HAL_ADCEx_MultiModeConfigChannel+0x1c4>
  {
    /* Pointer to the common control register */
    tmpADC_Common = __LL_ADC_COMMON_INSTANCE(hadc->Instance);
 8002fc8:	687b      	ldr	r3, [r7, #4]
 8002fca:	681b      	ldr	r3, [r3, #0]
 8002fcc:	f1b3 4fa0 	cmp.w	r3, #1342177280	; 0x50000000
 8002fd0:	d004      	beq.n	8002fdc <HAL_ADCEx_MultiModeConfigChannel+0xa0>
 8002fd2:	687b      	ldr	r3, [r7, #4]
 8002fd4:	681b      	ldr	r3, [r3, #0]
 8002fd6:	4a55      	ldr	r2, [pc, #340]	; (800312c <HAL_ADCEx_MultiModeConfigChannel+0x1f0>)
 8002fd8:	4293      	cmp	r3, r2
 8002fda:	d101      	bne.n	8002fe0 <HAL_ADCEx_MultiModeConfigChannel+0xa4>
 8002fdc:	4b56      	ldr	r3, [pc, #344]	; (8003138 <HAL_ADCEx_MultiModeConfigChannel+0x1fc>)
 8002fde:	e000      	b.n	8002fe2 <HAL_ADCEx_MultiModeConfigChannel+0xa6>
 8002fe0:	4b56      	ldr	r3, [pc, #344]	; (800313c <HAL_ADCEx_MultiModeConfigChannel+0x200>)
 8002fe2:	677b      	str	r3, [r7, #116]	; 0x74

    /* If multimode is selected, configure all multimode parameters.          */
    /* Otherwise, reset multimode parameters (can be used in case of          */
    /* transition from multimode to independent mode).                        */
    if (multimode->Mode != ADC_MODE_INDEPENDENT)
 8002fe4:	683b      	ldr	r3, [r7, #0]
 8002fe6:	681b      	ldr	r3, [r3, #0]
 8002fe8:	2b00      	cmp	r3, #0
 8002fea:	d04b      	beq.n	8003084 <HAL_ADCEx_MultiModeConfigChannel+0x148>
    {
      MODIFY_REG(tmpADC_Common->CCR, ADC_CCR_MDMA | ADC_CCR_DMACFG,
 8002fec:	6f7b      	ldr	r3, [r7, #116]	; 0x74
 8002fee:	689b      	ldr	r3, [r3, #8]
 8002ff0:	f423 4260 	bic.w	r2, r3, #57344	; 0xe000
 8002ff4:	683b      	ldr	r3, [r7, #0]
 8002ff6:	6859      	ldr	r1, [r3, #4]
 8002ff8:	687b      	ldr	r3, [r7, #4]
 8002ffa:	f893 3038 	ldrb.w	r3, [r3, #56]	; 0x38
 8002ffe:	035b      	lsls	r3, r3, #13
 8003000:	430b      	orrs	r3, r1
 8003002:	431a      	orrs	r2, r3
 8003004:	6f7b      	ldr	r3, [r7, #116]	; 0x74
 8003006:	609a      	str	r2, [r3, #8]
      /*      from 1 to 10 clock cycles for 10 bits,                              */
      /*      from 1 to 8 clock cycles for 8 bits                                 */
      /*      from 1 to 6 clock cycles for 6 bits                                 */
      /*    If a higher delay is selected, it will be clipped to maximum delay    */
      /*    range                                                                 */
      if (__LL_ADC_IS_ENABLED_ALL_COMMON_INSTANCE(__LL_ADC_COMMON_INSTANCE(hadc->Instance)) == 0UL)
 8003008:	687b      	ldr	r3, [r7, #4]
 800300a:	681b      	ldr	r3, [r3, #0]
 800300c:	f1b3 4fa0 	cmp.w	r3, #1342177280	; 0x50000000
 8003010:	d004      	beq.n	800301c <HAL_ADCEx_MultiModeConfigChannel+0xe0>
 8003012:	687b      	ldr	r3, [r7, #4]
 8003014:	681b      	ldr	r3, [r3, #0]
 8003016:	4a45      	ldr	r2, [pc, #276]	; (800312c <HAL_ADCEx_MultiModeConfigChannel+0x1f0>)
 8003018:	4293      	cmp	r3, r2
 800301a:	d10f      	bne.n	800303c <HAL_ADCEx_MultiModeConfigChannel+0x100>
 800301c:	f04f 40a0 	mov.w	r0, #1342177280	; 0x50000000
 8003020:	f7ff ff66 	bl	8002ef0 <LL_ADC_IsEnabled>
 8003024:	4604      	mov	r4, r0
 8003026:	4841      	ldr	r0, [pc, #260]	; (800312c <HAL_ADCEx_MultiModeConfigChannel+0x1f0>)
 8003028:	f7ff ff62 	bl	8002ef0 <LL_ADC_IsEnabled>
 800302c:	4603      	mov	r3, r0
 800302e:	4323      	orrs	r3, r4
 8003030:	2b00      	cmp	r3, #0
 8003032:	bf0c      	ite	eq
 8003034:	2301      	moveq	r3, #1
 8003036:	2300      	movne	r3, #0
 8003038:	b2db      	uxtb	r3, r3
 800303a:	e012      	b.n	8003062 <HAL_ADCEx_MultiModeConfigChannel+0x126>
 800303c:	483c      	ldr	r0, [pc, #240]	; (8003130 <HAL_ADCEx_MultiModeConfigChannel+0x1f4>)
 800303e:	f7ff ff57 	bl	8002ef0 <LL_ADC_IsEnabled>
 8003042:	4604      	mov	r4, r0
 8003044:	483b      	ldr	r0, [pc, #236]	; (8003134 <HAL_ADCEx_MultiModeConfigChannel+0x1f8>)
 8003046:	f7ff ff53 	bl	8002ef0 <LL_ADC_IsEnabled>
 800304a:	4603      	mov	r3, r0
 800304c:	431c      	orrs	r4, r3
 800304e:	483c      	ldr	r0, [pc, #240]	; (8003140 <HAL_ADCEx_MultiModeConfigChannel+0x204>)
 8003050:	f7ff ff4e 	bl	8002ef0 <LL_ADC_IsEnabled>
 8003054:	4603      	mov	r3, r0
 8003056:	4323      	orrs	r3, r4
 8003058:	2b00      	cmp	r3, #0
 800305a:	bf0c      	ite	eq
 800305c:	2301      	moveq	r3, #1
 800305e:	2300      	movne	r3, #0
 8003060:	b2db      	uxtb	r3, r3
 8003062:	2b00      	cmp	r3, #0
 8003064:	d056      	beq.n	8003114 <HAL_ADCEx_MultiModeConfigChannel+0x1d8>
      {
        MODIFY_REG(tmpADC_Common->CCR,
 8003066:	6f7b      	ldr	r3, [r7, #116]	; 0x74
 8003068:	689b      	ldr	r3, [r3, #8]
 800306a:	f423 6371 	bic.w	r3, r3, #3856	; 0xf10
 800306e:	f023 030f 	bic.w	r3, r3, #15
 8003072:	683a      	ldr	r2, [r7, #0]
 8003074:	6811      	ldr	r1, [r2, #0]
 8003076:	683a      	ldr	r2, [r7, #0]
 8003078:	6892      	ldr	r2, [r2, #8]
 800307a:	430a      	orrs	r2, r1
 800307c:	431a      	orrs	r2, r3
 800307e:	6f7b      	ldr	r3, [r7, #116]	; 0x74
 8003080:	609a      	str	r2, [r3, #8]
    if (multimode->Mode != ADC_MODE_INDEPENDENT)
 8003082:	e047      	b.n	8003114 <HAL_ADCEx_MultiModeConfigChannel+0x1d8>
                  );
      }
    }
    else /* ADC_MODE_INDEPENDENT */
    {
      CLEAR_BIT(tmpADC_Common->CCR, ADC_CCR_MDMA | ADC_CCR_DMACFG);
 8003084:	6f7b      	ldr	r3, [r7, #116]	; 0x74
 8003086:	689b      	ldr	r3, [r3, #8]
 8003088:	f423 4260 	bic.w	r2, r3, #57344	; 0xe000
 800308c:	6f7b      	ldr	r3, [r7, #116]	; 0x74
 800308e:	609a      	str	r2, [r3, #8]

      /* Parameters that can be updated only when ADC is disabled:                */
      /*  - Multimode mode selection                                              */
      /*  - Multimode delay                                                       */
      if (__LL_ADC_IS_ENABLED_ALL_COMMON_INSTANCE(__LL_ADC_COMMON_INSTANCE(hadc->Instance)) == 0UL)
 8003090:	687b      	ldr	r3, [r7, #4]
 8003092:	681b      	ldr	r3, [r3, #0]
 8003094:	f1b3 4fa0 	cmp.w	r3, #1342177280	; 0x50000000
 8003098:	d004      	beq.n	80030a4 <HAL_ADCEx_MultiModeConfigChannel+0x168>
 800309a:	687b      	ldr	r3, [r7, #4]
 800309c:	681b      	ldr	r3, [r3, #0]
 800309e:	4a23      	ldr	r2, [pc, #140]	; (800312c <HAL_ADCEx_MultiModeConfigChannel+0x1f0>)
 80030a0:	4293      	cmp	r3, r2
 80030a2:	d10f      	bne.n	80030c4 <HAL_ADCEx_MultiModeConfigChannel+0x188>
 80030a4:	f04f 40a0 	mov.w	r0, #1342177280	; 0x50000000
 80030a8:	f7ff ff22 	bl	8002ef0 <LL_ADC_IsEnabled>
 80030ac:	4604      	mov	r4, r0
 80030ae:	481f      	ldr	r0, [pc, #124]	; (800312c <HAL_ADCEx_MultiModeConfigChannel+0x1f0>)
 80030b0:	f7ff ff1e 	bl	8002ef0 <LL_ADC_IsEnabled>
 80030b4:	4603      	mov	r3, r0
 80030b6:	4323      	orrs	r3, r4
 80030b8:	2b00      	cmp	r3, #0
 80030ba:	bf0c      	ite	eq
 80030bc:	2301      	moveq	r3, #1
 80030be:	2300      	movne	r3, #0
 80030c0:	b2db      	uxtb	r3, r3
 80030c2:	e012      	b.n	80030ea <HAL_ADCEx_MultiModeConfigChannel+0x1ae>
 80030c4:	481a      	ldr	r0, [pc, #104]	; (8003130 <HAL_ADCEx_MultiModeConfigChannel+0x1f4>)
 80030c6:	f7ff ff13 	bl	8002ef0 <LL_ADC_IsEnabled>
 80030ca:	4604      	mov	r4, r0
 80030cc:	4819      	ldr	r0, [pc, #100]	; (8003134 <HAL_ADCEx_MultiModeConfigChannel+0x1f8>)
 80030ce:	f7ff ff0f 	bl	8002ef0 <LL_ADC_IsEnabled>
 80030d2:	4603      	mov	r3, r0
 80030d4:	431c      	orrs	r4, r3
 80030d6:	481a      	ldr	r0, [pc, #104]	; (8003140 <HAL_ADCEx_MultiModeConfigChannel+0x204>)
 80030d8:	f7ff ff0a 	bl	8002ef0 <LL_ADC_IsEnabled>
 80030dc:	4603      	mov	r3, r0
 80030de:	4323      	orrs	r3, r4
 80030e0:	2b00      	cmp	r3, #0
 80030e2:	bf0c      	ite	eq
 80030e4:	2301      	moveq	r3, #1
 80030e6:	2300      	movne	r3, #0
 80030e8:	b2db      	uxtb	r3, r3
 80030ea:	2b00      	cmp	r3, #0
 80030ec:	d012      	beq.n	8003114 <HAL_ADCEx_MultiModeConfigChannel+0x1d8>
      {
        CLEAR_BIT(tmpADC_Common->CCR, ADC_CCR_DUAL | ADC_CCR_DELAY);
 80030ee:	6f7b      	ldr	r3, [r7, #116]	; 0x74
 80030f0:	689b      	ldr	r3, [r3, #8]
 80030f2:	f423 6371 	bic.w	r3, r3, #3856	; 0xf10
 80030f6:	f023 030f 	bic.w	r3, r3, #15
 80030fa:	6f7a      	ldr	r2, [r7, #116]	; 0x74
 80030fc:	6093      	str	r3, [r2, #8]
    if (multimode->Mode != ADC_MODE_INDEPENDENT)
 80030fe:	e009      	b.n	8003114 <HAL_ADCEx_MultiModeConfigChannel+0x1d8>
  /* If one of the ADC sharing the same common group is enabled, no update    */
  /* could be done on neither of the multimode structure parameters.          */
  else
  {
    /* Update ADC state machine to error */
    SET_BIT(hadc->State, HAL_ADC_STATE_ERROR_CONFIG);
 8003100:	687b      	ldr	r3, [r7, #4]
 8003102:	6ddb      	ldr	r3, [r3, #92]	; 0x5c
 8003104:	f043 0220 	orr.w	r2, r3, #32
 8003108:	687b      	ldr	r3, [r7, #4]
 800310a:	65da      	str	r2, [r3, #92]	; 0x5c

    tmp_hal_status = HAL_ERROR;
 800310c:	2301      	movs	r3, #1
 800310e:	f887 307f 	strb.w	r3, [r7, #127]	; 0x7f
 8003112:	e000      	b.n	8003116 <HAL_ADCEx_MultiModeConfigChannel+0x1da>
    if (multimode->Mode != ADC_MODE_INDEPENDENT)
 8003114:	bf00      	nop
  }

  /* Process unlocked */
  __HAL_UNLOCK(hadc);
 8003116:	687b      	ldr	r3, [r7, #4]
 8003118:	2200      	movs	r2, #0
 800311a:	f883 2058 	strb.w	r2, [r3, #88]	; 0x58

  /* Return function status */
  return tmp_hal_status;
 800311e:	f897 307f 	ldrb.w	r3, [r7, #127]	; 0x7f
}
 8003122:	4618      	mov	r0, r3
 8003124:	3784      	adds	r7, #132	; 0x84
 8003126:	46bd      	mov	sp, r7
 8003128:	bd90      	pop	{r4, r7, pc}
 800312a:	bf00      	nop
 800312c:	50000100 	.word	0x50000100
 8003130:	50000400 	.word	0x50000400
 8003134:	50000500 	.word	0x50000500
 8003138:	50000300 	.word	0x50000300
 800313c:	50000700 	.word	0x50000700
 8003140:	50000600 	.word	0x50000600

08003144 <LL_EXTI_EnableIT_0_31>:
{
 8003144:	b480      	push	{r7}
 8003146:	b083      	sub	sp, #12
 8003148:	af00      	add	r7, sp, #0
 800314a:	6078      	str	r0, [r7, #4]
  SET_BIT(EXTI->IMR1, ExtiLine);
 800314c:	4b05      	ldr	r3, [pc, #20]	; (8003164 <LL_EXTI_EnableIT_0_31+0x20>)
 800314e:	681a      	ldr	r2, [r3, #0]
 8003150:	4904      	ldr	r1, [pc, #16]	; (8003164 <LL_EXTI_EnableIT_0_31+0x20>)
 8003152:	687b      	ldr	r3, [r7, #4]
 8003154:	4313      	orrs	r3, r2
 8003156:	600b      	str	r3, [r1, #0]
}
 8003158:	bf00      	nop
 800315a:	370c      	adds	r7, #12
 800315c:	46bd      	mov	sp, r7
 800315e:	f85d 7b04 	ldr.w	r7, [sp], #4
 8003162:	4770      	bx	lr
 8003164:	40010400 	.word	0x40010400

08003168 <LL_EXTI_EnableIT_32_63>:
{
 8003168:	b480      	push	{r7}
 800316a:	b083      	sub	sp, #12
 800316c:	af00      	add	r7, sp, #0
 800316e:	6078      	str	r0, [r7, #4]
  SET_BIT(EXTI->IMR2, ExtiLine);
 8003170:	4b05      	ldr	r3, [pc, #20]	; (8003188 <LL_EXTI_EnableIT_32_63+0x20>)
 8003172:	6a1a      	ldr	r2, [r3, #32]
 8003174:	4904      	ldr	r1, [pc, #16]	; (8003188 <LL_EXTI_EnableIT_32_63+0x20>)
 8003176:	687b      	ldr	r3, [r7, #4]
 8003178:	4313      	orrs	r3, r2
 800317a:	620b      	str	r3, [r1, #32]
}
 800317c:	bf00      	nop
 800317e:	370c      	adds	r7, #12
 8003180:	46bd      	mov	sp, r7
 8003182:	f85d 7b04 	ldr.w	r7, [sp], #4
 8003186:	4770      	bx	lr
 8003188:	40010400 	.word	0x40010400

0800318c <LL_EXTI_DisableIT_0_31>:
{
 800318c:	b480      	push	{r7}
 800318e:	b083      	sub	sp, #12
 8003190:	af00      	add	r7, sp, #0
 8003192:	6078      	str	r0, [r7, #4]
  CLEAR_BIT(EXTI->IMR1, ExtiLine);
 8003194:	4b06      	ldr	r3, [pc, #24]	; (80031b0 <LL_EXTI_DisableIT_0_31+0x24>)
 8003196:	681a      	ldr	r2, [r3, #0]
 8003198:	687b      	ldr	r3, [r7, #4]
 800319a:	43db      	mvns	r3, r3
 800319c:	4904      	ldr	r1, [pc, #16]	; (80031b0 <LL_EXTI_DisableIT_0_31+0x24>)
 800319e:	4013      	ands	r3, r2
 80031a0:	600b      	str	r3, [r1, #0]
}
 80031a2:	bf00      	nop
 80031a4:	370c      	adds	r7, #12
 80031a6:	46bd      	mov	sp, r7
 80031a8:	f85d 7b04 	ldr.w	r7, [sp], #4
 80031ac:	4770      	bx	lr
 80031ae:	bf00      	nop
 80031b0:	40010400 	.word	0x40010400

080031b4 <LL_EXTI_DisableIT_32_63>:
{
 80031b4:	b480      	push	{r7}
 80031b6:	b083      	sub	sp, #12
 80031b8:	af00      	add	r7, sp, #0
 80031ba:	6078      	str	r0, [r7, #4]
  CLEAR_BIT(EXTI->IMR2, ExtiLine);
 80031bc:	4b06      	ldr	r3, [pc, #24]	; (80031d8 <LL_EXTI_DisableIT_32_63+0x24>)
 80031be:	6a1a      	ldr	r2, [r3, #32]
 80031c0:	687b      	ldr	r3, [r7, #4]
 80031c2:	43db      	mvns	r3, r3
 80031c4:	4904      	ldr	r1, [pc, #16]	; (80031d8 <LL_EXTI_DisableIT_32_63+0x24>)
 80031c6:	4013      	ands	r3, r2
 80031c8:	620b      	str	r3, [r1, #32]
}
 80031ca:	bf00      	nop
 80031cc:	370c      	adds	r7, #12
 80031ce:	46bd      	mov	sp, r7
 80031d0:	f85d 7b04 	ldr.w	r7, [sp], #4
 80031d4:	4770      	bx	lr
 80031d6:	bf00      	nop
 80031d8:	40010400 	.word	0x40010400

080031dc <LL_EXTI_EnableEvent_0_31>:
{
 80031dc:	b480      	push	{r7}
 80031de:	b083      	sub	sp, #12
 80031e0:	af00      	add	r7, sp, #0
 80031e2:	6078      	str	r0, [r7, #4]
  SET_BIT(EXTI->EMR1, ExtiLine);
 80031e4:	4b05      	ldr	r3, [pc, #20]	; (80031fc <LL_EXTI_EnableEvent_0_31+0x20>)
 80031e6:	685a      	ldr	r2, [r3, #4]
 80031e8:	4904      	ldr	r1, [pc, #16]	; (80031fc <LL_EXTI_EnableEvent_0_31+0x20>)
 80031ea:	687b      	ldr	r3, [r7, #4]
 80031ec:	4313      	orrs	r3, r2
 80031ee:	604b      	str	r3, [r1, #4]
}
 80031f0:	bf00      	nop
 80031f2:	370c      	adds	r7, #12
 80031f4:	46bd      	mov	sp, r7
 80031f6:	f85d 7b04 	ldr.w	r7, [sp], #4
 80031fa:	4770      	bx	lr
 80031fc:	40010400 	.word	0x40010400

08003200 <LL_EXTI_EnableEvent_32_63>:
{
 8003200:	b480      	push	{r7}
 8003202:	b083      	sub	sp, #12
 8003204:	af00      	add	r7, sp, #0
 8003206:	6078      	str	r0, [r7, #4]
  SET_BIT(EXTI->EMR2, ExtiLine);
 8003208:	4b05      	ldr	r3, [pc, #20]	; (8003220 <LL_EXTI_EnableEvent_32_63+0x20>)
 800320a:	6a5a      	ldr	r2, [r3, #36]	; 0x24
 800320c:	4904      	ldr	r1, [pc, #16]	; (8003220 <LL_EXTI_EnableEvent_32_63+0x20>)
 800320e:	687b      	ldr	r3, [r7, #4]
 8003210:	4313      	orrs	r3, r2
 8003212:	624b      	str	r3, [r1, #36]	; 0x24
}
 8003214:	bf00      	nop
 8003216:	370c      	adds	r7, #12
 8003218:	46bd      	mov	sp, r7
 800321a:	f85d 7b04 	ldr.w	r7, [sp], #4
 800321e:	4770      	bx	lr
 8003220:	40010400 	.word	0x40010400

08003224 <LL_EXTI_DisableEvent_0_31>:
{
 8003224:	b480      	push	{r7}
 8003226:	b083      	sub	sp, #12
 8003228:	af00      	add	r7, sp, #0
 800322a:	6078      	str	r0, [r7, #4]
  CLEAR_BIT(EXTI->EMR1, ExtiLine);
 800322c:	4b06      	ldr	r3, [pc, #24]	; (8003248 <LL_EXTI_DisableEvent_0_31+0x24>)
 800322e:	685a      	ldr	r2, [r3, #4]
 8003230:	687b      	ldr	r3, [r7, #4]
 8003232:	43db      	mvns	r3, r3
 8003234:	4904      	ldr	r1, [pc, #16]	; (8003248 <LL_EXTI_DisableEvent_0_31+0x24>)
 8003236:	4013      	ands	r3, r2
 8003238:	604b      	str	r3, [r1, #4]
}
 800323a:	bf00      	nop
 800323c:	370c      	adds	r7, #12
 800323e:	46bd      	mov	sp, r7
 8003240:	f85d 7b04 	ldr.w	r7, [sp], #4
 8003244:	4770      	bx	lr
 8003246:	bf00      	nop
 8003248:	40010400 	.word	0x40010400

0800324c <LL_EXTI_DisableEvent_32_63>:
{
 800324c:	b480      	push	{r7}
 800324e:	b083      	sub	sp, #12
 8003250:	af00      	add	r7, sp, #0
 8003252:	6078      	str	r0, [r7, #4]
  CLEAR_BIT(EXTI->EMR2, ExtiLine);
 8003254:	4b06      	ldr	r3, [pc, #24]	; (8003270 <LL_EXTI_DisableEvent_32_63+0x24>)
 8003256:	6a5a      	ldr	r2, [r3, #36]	; 0x24
 8003258:	687b      	ldr	r3, [r7, #4]
 800325a:	43db      	mvns	r3, r3
 800325c:	4904      	ldr	r1, [pc, #16]	; (8003270 <LL_EXTI_DisableEvent_32_63+0x24>)
 800325e:	4013      	ands	r3, r2
 8003260:	624b      	str	r3, [r1, #36]	; 0x24
}
 8003262:	bf00      	nop
 8003264:	370c      	adds	r7, #12
 8003266:	46bd      	mov	sp, r7
 8003268:	f85d 7b04 	ldr.w	r7, [sp], #4
 800326c:	4770      	bx	lr
 800326e:	bf00      	nop
 8003270:	40010400 	.word	0x40010400

08003274 <LL_EXTI_EnableRisingTrig_0_31>:
{
 8003274:	b480      	push	{r7}
 8003276:	b083      	sub	sp, #12
 8003278:	af00      	add	r7, sp, #0
 800327a:	6078      	str	r0, [r7, #4]
  SET_BIT(EXTI->RTSR1, ExtiLine);
 800327c:	4b05      	ldr	r3, [pc, #20]	; (8003294 <LL_EXTI_EnableRisingTrig_0_31+0x20>)
 800327e:	689a      	ldr	r2, [r3, #8]
 8003280:	4904      	ldr	r1, [pc, #16]	; (8003294 <LL_EXTI_EnableRisingTrig_0_31+0x20>)
 8003282:	687b      	ldr	r3, [r7, #4]
 8003284:	4313      	orrs	r3, r2
 8003286:	608b      	str	r3, [r1, #8]
}
 8003288:	bf00      	nop
 800328a:	370c      	adds	r7, #12
 800328c:	46bd      	mov	sp, r7
 800328e:	f85d 7b04 	ldr.w	r7, [sp], #4
 8003292:	4770      	bx	lr
 8003294:	40010400 	.word	0x40010400

08003298 <LL_EXTI_EnableRisingTrig_32_63>:
{
 8003298:	b480      	push	{r7}
 800329a:	b083      	sub	sp, #12
 800329c:	af00      	add	r7, sp, #0
 800329e:	6078      	str	r0, [r7, #4]
  SET_BIT(EXTI->RTSR2, ExtiLine);
 80032a0:	4b05      	ldr	r3, [pc, #20]	; (80032b8 <LL_EXTI_EnableRisingTrig_32_63+0x20>)
 80032a2:	6a9a      	ldr	r2, [r3, #40]	; 0x28
 80032a4:	4904      	ldr	r1, [pc, #16]	; (80032b8 <LL_EXTI_EnableRisingTrig_32_63+0x20>)
 80032a6:	687b      	ldr	r3, [r7, #4]
 80032a8:	4313      	orrs	r3, r2
 80032aa:	628b      	str	r3, [r1, #40]	; 0x28
}
 80032ac:	bf00      	nop
 80032ae:	370c      	adds	r7, #12
 80032b0:	46bd      	mov	sp, r7
 80032b2:	f85d 7b04 	ldr.w	r7, [sp], #4
 80032b6:	4770      	bx	lr
 80032b8:	40010400 	.word	0x40010400

080032bc <LL_EXTI_DisableRisingTrig_0_31>:
{
 80032bc:	b480      	push	{r7}
 80032be:	b083      	sub	sp, #12
 80032c0:	af00      	add	r7, sp, #0
 80032c2:	6078      	str	r0, [r7, #4]
  CLEAR_BIT(EXTI->RTSR1, ExtiLine);
 80032c4:	4b06      	ldr	r3, [pc, #24]	; (80032e0 <LL_EXTI_DisableRisingTrig_0_31+0x24>)
 80032c6:	689a      	ldr	r2, [r3, #8]
 80032c8:	687b      	ldr	r3, [r7, #4]
 80032ca:	43db      	mvns	r3, r3
 80032cc:	4904      	ldr	r1, [pc, #16]	; (80032e0 <LL_EXTI_DisableRisingTrig_0_31+0x24>)
 80032ce:	4013      	ands	r3, r2
 80032d0:	608b      	str	r3, [r1, #8]
}
 80032d2:	bf00      	nop
 80032d4:	370c      	adds	r7, #12
 80032d6:	46bd      	mov	sp, r7
 80032d8:	f85d 7b04 	ldr.w	r7, [sp], #4
 80032dc:	4770      	bx	lr
 80032de:	bf00      	nop
 80032e0:	40010400 	.word	0x40010400

080032e4 <LL_EXTI_DisableRisingTrig_32_63>:
{
 80032e4:	b480      	push	{r7}
 80032e6:	b083      	sub	sp, #12
 80032e8:	af00      	add	r7, sp, #0
 80032ea:	6078      	str	r0, [r7, #4]
  CLEAR_BIT(EXTI->RTSR2, ExtiLine);
 80032ec:	4b06      	ldr	r3, [pc, #24]	; (8003308 <LL_EXTI_DisableRisingTrig_32_63+0x24>)
 80032ee:	6a9a      	ldr	r2, [r3, #40]	; 0x28
 80032f0:	687b      	ldr	r3, [r7, #4]
 80032f2:	43db      	mvns	r3, r3
 80032f4:	4904      	ldr	r1, [pc, #16]	; (8003308 <LL_EXTI_DisableRisingTrig_32_63+0x24>)
 80032f6:	4013      	ands	r3, r2
 80032f8:	628b      	str	r3, [r1, #40]	; 0x28
}
 80032fa:	bf00      	nop
 80032fc:	370c      	adds	r7, #12
 80032fe:	46bd      	mov	sp, r7
 8003300:	f85d 7b04 	ldr.w	r7, [sp], #4
 8003304:	4770      	bx	lr
 8003306:	bf00      	nop
 8003308:	40010400 	.word	0x40010400

0800330c <LL_EXTI_EnableFallingTrig_0_31>:
{
 800330c:	b480      	push	{r7}
 800330e:	b083      	sub	sp, #12
 8003310:	af00      	add	r7, sp, #0
 8003312:	6078      	str	r0, [r7, #4]
  SET_BIT(EXTI->FTSR1, ExtiLine);
 8003314:	4b05      	ldr	r3, [pc, #20]	; (800332c <LL_EXTI_EnableFallingTrig_0_31+0x20>)
 8003316:	68da      	ldr	r2, [r3, #12]
 8003318:	4904      	ldr	r1, [pc, #16]	; (800332c <LL_EXTI_EnableFallingTrig_0_31+0x20>)
 800331a:	687b      	ldr	r3, [r7, #4]
 800331c:	4313      	orrs	r3, r2
 800331e:	60cb      	str	r3, [r1, #12]
}
 8003320:	bf00      	nop
 8003322:	370c      	adds	r7, #12
 8003324:	46bd      	mov	sp, r7
 8003326:	f85d 7b04 	ldr.w	r7, [sp], #4
 800332a:	4770      	bx	lr
 800332c:	40010400 	.word	0x40010400

08003330 <LL_EXTI_EnableFallingTrig_32_63>:
{
 8003330:	b480      	push	{r7}
 8003332:	b083      	sub	sp, #12
 8003334:	af00      	add	r7, sp, #0
 8003336:	6078      	str	r0, [r7, #4]
  SET_BIT(EXTI->FTSR2, ExtiLine);
 8003338:	4b05      	ldr	r3, [pc, #20]	; (8003350 <LL_EXTI_EnableFallingTrig_32_63+0x20>)
 800333a:	6ada      	ldr	r2, [r3, #44]	; 0x2c
 800333c:	4904      	ldr	r1, [pc, #16]	; (8003350 <LL_EXTI_EnableFallingTrig_32_63+0x20>)
 800333e:	687b      	ldr	r3, [r7, #4]
 8003340:	4313      	orrs	r3, r2
 8003342:	62cb      	str	r3, [r1, #44]	; 0x2c
}
 8003344:	bf00      	nop
 8003346:	370c      	adds	r7, #12
 8003348:	46bd      	mov	sp, r7
 800334a:	f85d 7b04 	ldr.w	r7, [sp], #4
 800334e:	4770      	bx	lr
 8003350:	40010400 	.word	0x40010400

08003354 <LL_EXTI_DisableFallingTrig_0_31>:
{
 8003354:	b480      	push	{r7}
 8003356:	b083      	sub	sp, #12
 8003358:	af00      	add	r7, sp, #0
 800335a:	6078      	str	r0, [r7, #4]
  CLEAR_BIT(EXTI->FTSR1, ExtiLine);
 800335c:	4b06      	ldr	r3, [pc, #24]	; (8003378 <LL_EXTI_DisableFallingTrig_0_31+0x24>)
 800335e:	68da      	ldr	r2, [r3, #12]
 8003360:	687b      	ldr	r3, [r7, #4]
 8003362:	43db      	mvns	r3, r3
 8003364:	4904      	ldr	r1, [pc, #16]	; (8003378 <LL_EXTI_DisableFallingTrig_0_31+0x24>)
 8003366:	4013      	ands	r3, r2
 8003368:	60cb      	str	r3, [r1, #12]
}
 800336a:	bf00      	nop
 800336c:	370c      	adds	r7, #12
 800336e:	46bd      	mov	sp, r7
 8003370:	f85d 7b04 	ldr.w	r7, [sp], #4
 8003374:	4770      	bx	lr
 8003376:	bf00      	nop
 8003378:	40010400 	.word	0x40010400

0800337c <LL_EXTI_DisableFallingTrig_32_63>:
{
 800337c:	b480      	push	{r7}
 800337e:	b083      	sub	sp, #12
 8003380:	af00      	add	r7, sp, #0
 8003382:	6078      	str	r0, [r7, #4]
  CLEAR_BIT(EXTI->FTSR2, ExtiLine);
 8003384:	4b06      	ldr	r3, [pc, #24]	; (80033a0 <LL_EXTI_DisableFallingTrig_32_63+0x24>)
 8003386:	6ada      	ldr	r2, [r3, #44]	; 0x2c
 8003388:	687b      	ldr	r3, [r7, #4]
 800338a:	43db      	mvns	r3, r3
 800338c:	4904      	ldr	r1, [pc, #16]	; (80033a0 <LL_EXTI_DisableFallingTrig_32_63+0x24>)
 800338e:	4013      	ands	r3, r2
 8003390:	62cb      	str	r3, [r1, #44]	; 0x2c
}
 8003392:	bf00      	nop
 8003394:	370c      	adds	r7, #12
 8003396:	46bd      	mov	sp, r7
 8003398:	f85d 7b04 	ldr.w	r7, [sp], #4
 800339c:	4770      	bx	lr
 800339e:	bf00      	nop
 80033a0:	40010400 	.word	0x40010400

080033a4 <LL_EXTI_ClearFlag_0_31>:
{
 80033a4:	b480      	push	{r7}
 80033a6:	b083      	sub	sp, #12
 80033a8:	af00      	add	r7, sp, #0
 80033aa:	6078      	str	r0, [r7, #4]
  WRITE_REG(EXTI->PR1, ExtiLine);
 80033ac:	4a04      	ldr	r2, [pc, #16]	; (80033c0 <LL_EXTI_ClearFlag_0_31+0x1c>)
 80033ae:	687b      	ldr	r3, [r7, #4]
 80033b0:	6153      	str	r3, [r2, #20]
}
 80033b2:	bf00      	nop
 80033b4:	370c      	adds	r7, #12
 80033b6:	46bd      	mov	sp, r7
 80033b8:	f85d 7b04 	ldr.w	r7, [sp], #4
 80033bc:	4770      	bx	lr
 80033be:	bf00      	nop
 80033c0:	40010400 	.word	0x40010400

080033c4 <LL_EXTI_ClearFlag_32_63>:
  *         @arg @ref LL_EXTI_LINE_41
  * @note   (*): Available in some devices
  * @retval None
  */
__STATIC_INLINE void LL_EXTI_ClearFlag_32_63(uint32_t ExtiLine)
{
 80033c4:	b480      	push	{r7}
 80033c6:	b083      	sub	sp, #12
 80033c8:	af00      	add	r7, sp, #0
 80033ca:	6078      	str	r0, [r7, #4]
  WRITE_REG(EXTI->PR2, ExtiLine);
 80033cc:	4a04      	ldr	r2, [pc, #16]	; (80033e0 <LL_EXTI_ClearFlag_32_63+0x1c>)
 80033ce:	687b      	ldr	r3, [r7, #4]
 80033d0:	6353      	str	r3, [r2, #52]	; 0x34
}
 80033d2:	bf00      	nop
 80033d4:	370c      	adds	r7, #12
 80033d6:	46bd      	mov	sp, r7
 80033d8:	f85d 7b04 	ldr.w	r7, [sp], #4
 80033dc:	4770      	bx	lr
 80033de:	bf00      	nop
 80033e0:	40010400 	.word	0x40010400

080033e4 <HAL_COMP_Init>:
  *         To unlock the configuration, perform a system reset.
  * @param  hcomp  COMP handle
  * @retval HAL status
  */
HAL_StatusTypeDef HAL_COMP_Init(COMP_HandleTypeDef *hcomp)
{
 80033e4:	b580      	push	{r7, lr}
 80033e6:	b088      	sub	sp, #32
 80033e8:	af00      	add	r7, sp, #0
 80033ea:	6078      	str	r0, [r7, #4]
  uint32_t tmp_csr;
  uint32_t exti_line;
  uint32_t comp_voltage_scaler_initialized; /* Value "0" if comparator voltage scaler is not initialized */
  __IO uint32_t wait_loop_index = 0UL;
 80033ec:	2300      	movs	r3, #0
 80033ee:	60fb      	str	r3, [r7, #12]
  HAL_StatusTypeDef status = HAL_OK;
 80033f0:	2300      	movs	r3, #0
 80033f2:	77fb      	strb	r3, [r7, #31]

  /* Check the COMP handle allocation and lock status */
  if(hcomp == NULL)
 80033f4:	687b      	ldr	r3, [r7, #4]
 80033f6:	2b00      	cmp	r3, #0
 80033f8:	d102      	bne.n	8003400 <HAL_COMP_Init+0x1c>
  {
    status = HAL_ERROR;
 80033fa:	2301      	movs	r3, #1
 80033fc:	77fb      	strb	r3, [r7, #31]
 80033fe:	e180      	b.n	8003702 <HAL_COMP_Init+0x31e>
  }
  else if(__HAL_COMP_IS_LOCKED(hcomp))
 8003400:	687b      	ldr	r3, [r7, #4]
 8003402:	681b      	ldr	r3, [r3, #0]
 8003404:	681b      	ldr	r3, [r3, #0]
 8003406:	f003 4300 	and.w	r3, r3, #2147483648	; 0x80000000
 800340a:	f1b3 4f00 	cmp.w	r3, #2147483648	; 0x80000000
 800340e:	d102      	bne.n	8003416 <HAL_COMP_Init+0x32>
  {
    status = HAL_ERROR;
 8003410:	2301      	movs	r3, #1
 8003412:	77fb      	strb	r3, [r7, #31]
 8003414:	e175      	b.n	8003702 <HAL_COMP_Init+0x31e>
    assert_param(IS_COMP_OUTPUTPOL(hcomp->Init.OutputPol));
    assert_param(IS_COMP_HYSTERESIS(hcomp->Init.Hysteresis));
    assert_param(IS_COMP_BLANKINGSRC_INSTANCE(hcomp->Instance, hcomp->Init.BlankingSrce));
    assert_param(IS_COMP_TRIGGERMODE(hcomp->Init.TriggerMode));

    if(hcomp->State == HAL_COMP_STATE_RESET)
 8003416:	687b      	ldr	r3, [r7, #4]
 8003418:	7f5b      	ldrb	r3, [r3, #29]
 800341a:	b2db      	uxtb	r3, r3
 800341c:	2b00      	cmp	r3, #0
 800341e:	d108      	bne.n	8003432 <HAL_COMP_Init+0x4e>
    {
      /* Allocate lock resource and initialize it */
      hcomp->Lock = HAL_UNLOCKED;
 8003420:	687b      	ldr	r3, [r7, #4]
 8003422:	2200      	movs	r2, #0
 8003424:	771a      	strb	r2, [r3, #28]

      /* Set COMP error code to none */
      COMP_CLEAR_ERRORCODE(hcomp);
 8003426:	687b      	ldr	r3, [r7, #4]
 8003428:	2200      	movs	r2, #0
 800342a:	621a      	str	r2, [r3, #32]
#else
      /* Init the low level hardware */
      /* Note: Internal control clock of the comparators must                 */
      /*       be enabled in "HAL_COMP_MspInit()"                             */
      /*       using "__HAL_RCC_SYSCFG_CLK_ENABLE()".                         */
      HAL_COMP_MspInit(hcomp);
 800342c:	6878      	ldr	r0, [r7, #4]
 800342e:	f7fd f853 	bl	80004d8 <HAL_COMP_MspInit>
#endif /* USE_HAL_COMP_REGISTER_CALLBACKS */
    }

    /* Memorize voltage scaler state before initialization */
    comp_voltage_scaler_initialized = READ_BIT(hcomp->Instance->CSR, COMP_CSR_SCALEN);
 8003432:	687b      	ldr	r3, [r7, #4]
 8003434:	681b      	ldr	r3, [r3, #0]
 8003436:	681b      	ldr	r3, [r3, #0]
 8003438:	f403 0300 	and.w	r3, r3, #8388608	; 0x800000
 800343c:	61bb      	str	r3, [r7, #24]

    /* Set COMP parameters */
    tmp_csr = (  hcomp->Init.InputMinus
 800343e:	687b      	ldr	r3, [r7, #4]
 8003440:	689a      	ldr	r2, [r3, #8]
               | hcomp->Init.InputPlus
 8003442:	687b      	ldr	r3, [r7, #4]
 8003444:	685b      	ldr	r3, [r3, #4]
 8003446:	431a      	orrs	r2, r3
               | hcomp->Init.BlankingSrce
 8003448:	687b      	ldr	r3, [r7, #4]
 800344a:	695b      	ldr	r3, [r3, #20]
 800344c:	431a      	orrs	r2, r3
               | hcomp->Init.Hysteresis
 800344e:	687b      	ldr	r3, [r7, #4]
 8003450:	68db      	ldr	r3, [r3, #12]
 8003452:	431a      	orrs	r2, r3
               | hcomp->Init.OutputPol
 8003454:	687b      	ldr	r3, [r7, #4]
 8003456:	691b      	ldr	r3, [r3, #16]
    tmp_csr = (  hcomp->Init.InputMinus
 8003458:	4313      	orrs	r3, r2
 800345a:	617b      	str	r3, [r7, #20]
              );

    /* Set parameters in COMP register */
    /* Note: Update all bits except read-only, lock and enable bits */
    MODIFY_REG(hcomp->Instance->CSR,
 800345c:	687b      	ldr	r3, [r7, #4]
 800345e:	681b      	ldr	r3, [r3, #0]
 8003460:	681a      	ldr	r2, [r3, #0]
 8003462:	4b98      	ldr	r3, [pc, #608]	; (80036c4 <HAL_COMP_Init+0x2e0>)
 8003464:	4013      	ands	r3, r2
 8003466:	687a      	ldr	r2, [r7, #4]
 8003468:	6812      	ldr	r2, [r2, #0]
 800346a:	6979      	ldr	r1, [r7, #20]
 800346c:	430b      	orrs	r3, r1
 800346e:	6013      	str	r3, [r2, #0]
               tmp_csr
              );

    /* Delay for COMP scaler bridge voltage stabilization */
    /* Apply the delay if voltage scaler bridge is required and not already enabled */
    if ((READ_BIT(hcomp->Instance->CSR, COMP_CSR_SCALEN) != 0UL) &&
 8003470:	687b      	ldr	r3, [r7, #4]
 8003472:	681b      	ldr	r3, [r3, #0]
 8003474:	681b      	ldr	r3, [r3, #0]
 8003476:	f403 0300 	and.w	r3, r3, #8388608	; 0x800000
 800347a:	2b00      	cmp	r3, #0
 800347c:	d015      	beq.n	80034aa <HAL_COMP_Init+0xc6>
 800347e:	69bb      	ldr	r3, [r7, #24]
 8003480:	2b00      	cmp	r3, #0
 8003482:	d112      	bne.n	80034aa <HAL_COMP_Init+0xc6>
    {
      /* Wait loop initialization and execution */
      /* Note: Variable divided by 2 to compensate partially              */
      /*       CPU processing cycles, scaling in us split to not          */
      /*       exceed 32 bits register capacity and handle low frequency. */
      wait_loop_index = ((COMP_DELAY_VOLTAGE_SCALER_STAB_US / 10UL) * (SystemCoreClock / (100000UL * 2UL)));
 8003484:	4b90      	ldr	r3, [pc, #576]	; (80036c8 <HAL_COMP_Init+0x2e4>)
 8003486:	681b      	ldr	r3, [r3, #0]
 8003488:	099b      	lsrs	r3, r3, #6
 800348a:	4a90      	ldr	r2, [pc, #576]	; (80036cc <HAL_COMP_Init+0x2e8>)
 800348c:	fba2 2303 	umull	r2, r3, r2, r3
 8003490:	099a      	lsrs	r2, r3, #6
 8003492:	4613      	mov	r3, r2
 8003494:	009b      	lsls	r3, r3, #2
 8003496:	4413      	add	r3, r2
 8003498:	009b      	lsls	r3, r3, #2
 800349a:	60fb      	str	r3, [r7, #12]
      while(wait_loop_index != 0UL)
 800349c:	e002      	b.n	80034a4 <HAL_COMP_Init+0xc0>
      {
        wait_loop_index--;
 800349e:	68fb      	ldr	r3, [r7, #12]
 80034a0:	3b01      	subs	r3, #1
 80034a2:	60fb      	str	r3, [r7, #12]
      while(wait_loop_index != 0UL)
 80034a4:	68fb      	ldr	r3, [r7, #12]
 80034a6:	2b00      	cmp	r3, #0
 80034a8:	d1f9      	bne.n	800349e <HAL_COMP_Init+0xba>
      }
    }

    /* Get the EXTI line corresponding to the selected COMP instance */
    exti_line = COMP_GET_EXTI_LINE(hcomp->Instance);
 80034aa:	687b      	ldr	r3, [r7, #4]
 80034ac:	681b      	ldr	r3, [r3, #0]
 80034ae:	4a88      	ldr	r2, [pc, #544]	; (80036d0 <HAL_COMP_Init+0x2ec>)
 80034b0:	4293      	cmp	r3, r2
 80034b2:	d028      	beq.n	8003506 <HAL_COMP_Init+0x122>
 80034b4:	687b      	ldr	r3, [r7, #4]
 80034b6:	681b      	ldr	r3, [r3, #0]
 80034b8:	4a86      	ldr	r2, [pc, #536]	; (80036d4 <HAL_COMP_Init+0x2f0>)
 80034ba:	4293      	cmp	r3, r2
 80034bc:	d020      	beq.n	8003500 <HAL_COMP_Init+0x11c>
 80034be:	687b      	ldr	r3, [r7, #4]
 80034c0:	681b      	ldr	r3, [r3, #0]
 80034c2:	4a85      	ldr	r2, [pc, #532]	; (80036d8 <HAL_COMP_Init+0x2f4>)
 80034c4:	4293      	cmp	r3, r2
 80034c6:	d018      	beq.n	80034fa <HAL_COMP_Init+0x116>
 80034c8:	687b      	ldr	r3, [r7, #4]
 80034ca:	681b      	ldr	r3, [r3, #0]
 80034cc:	4a83      	ldr	r2, [pc, #524]	; (80036dc <HAL_COMP_Init+0x2f8>)
 80034ce:	4293      	cmp	r3, r2
 80034d0:	d010      	beq.n	80034f4 <HAL_COMP_Init+0x110>
 80034d2:	687b      	ldr	r3, [r7, #4]
 80034d4:	681b      	ldr	r3, [r3, #0]
 80034d6:	4a82      	ldr	r2, [pc, #520]	; (80036e0 <HAL_COMP_Init+0x2fc>)
 80034d8:	4293      	cmp	r3, r2
 80034da:	d008      	beq.n	80034ee <HAL_COMP_Init+0x10a>
 80034dc:	687b      	ldr	r3, [r7, #4]
 80034de:	681b      	ldr	r3, [r3, #0]
 80034e0:	4a80      	ldr	r2, [pc, #512]	; (80036e4 <HAL_COMP_Init+0x300>)
 80034e2:	4293      	cmp	r3, r2
 80034e4:	d101      	bne.n	80034ea <HAL_COMP_Init+0x106>
 80034e6:	2301      	movs	r3, #1
 80034e8:	e00f      	b.n	800350a <HAL_COMP_Init+0x126>
 80034ea:	2302      	movs	r3, #2
 80034ec:	e00d      	b.n	800350a <HAL_COMP_Init+0x126>
 80034ee:	f04f 4300 	mov.w	r3, #2147483648	; 0x80000000
 80034f2:	e00a      	b.n	800350a <HAL_COMP_Init+0x126>
 80034f4:	f04f 4380 	mov.w	r3, #1073741824	; 0x40000000
 80034f8:	e007      	b.n	800350a <HAL_COMP_Init+0x126>
 80034fa:	f04f 5300 	mov.w	r3, #536870912	; 0x20000000
 80034fe:	e004      	b.n	800350a <HAL_COMP_Init+0x126>
 8003500:	f44f 0380 	mov.w	r3, #4194304	; 0x400000
 8003504:	e001      	b.n	800350a <HAL_COMP_Init+0x126>
 8003506:	f44f 1300 	mov.w	r3, #2097152	; 0x200000
 800350a:	613b      	str	r3, [r7, #16]

    /* Manage EXTI settings */
    if((hcomp->Init.TriggerMode & (COMP_EXTI_IT | COMP_EXTI_EVENT)) != 0UL)
 800350c:	687b      	ldr	r3, [r7, #4]
 800350e:	699b      	ldr	r3, [r3, #24]
 8003510:	f003 0303 	and.w	r3, r3, #3
 8003514:	2b00      	cmp	r3, #0
 8003516:	f000 80b6 	beq.w	8003686 <HAL_COMP_Init+0x2a2>
    {
      /* Configure EXTI rising edge */
      if((hcomp->Init.TriggerMode & COMP_EXTI_RISING) != 0UL)
 800351a:	687b      	ldr	r3, [r7, #4]
 800351c:	699b      	ldr	r3, [r3, #24]
 800351e:	f003 0310 	and.w	r3, r3, #16
 8003522:	2b00      	cmp	r3, #0
 8003524:	d011      	beq.n	800354a <HAL_COMP_Init+0x166>
      {
#if defined(STM32G474xx) || defined(STM32G484xx) || defined(STM32G473xx) || defined(STM32G483xx)
        if((hcomp->Instance == COMP6) || (hcomp->Instance == COMP7))
 8003526:	687b      	ldr	r3, [r7, #4]
 8003528:	681b      	ldr	r3, [r3, #0]
 800352a:	4a6e      	ldr	r2, [pc, #440]	; (80036e4 <HAL_COMP_Init+0x300>)
 800352c:	4293      	cmp	r3, r2
 800352e:	d004      	beq.n	800353a <HAL_COMP_Init+0x156>
 8003530:	687b      	ldr	r3, [r7, #4]
 8003532:	681b      	ldr	r3, [r3, #0]
 8003534:	4a6c      	ldr	r2, [pc, #432]	; (80036e8 <HAL_COMP_Init+0x304>)
 8003536:	4293      	cmp	r3, r2
 8003538:	d103      	bne.n	8003542 <HAL_COMP_Init+0x15e>
        {
          LL_EXTI_EnableRisingTrig_32_63(exti_line);
 800353a:	6938      	ldr	r0, [r7, #16]
 800353c:	f7ff feac 	bl	8003298 <LL_EXTI_EnableRisingTrig_32_63>
 8003540:	e014      	b.n	800356c <HAL_COMP_Init+0x188>
        }
        else
        {
          LL_EXTI_EnableRisingTrig_0_31(exti_line);
 8003542:	6938      	ldr	r0, [r7, #16]
 8003544:	f7ff fe96 	bl	8003274 <LL_EXTI_EnableRisingTrig_0_31>
 8003548:	e010      	b.n	800356c <HAL_COMP_Init+0x188>
#endif
      }
      else
      {
#if defined(STM32G474xx) || defined(STM32G484xx) || defined(STM32G473xx) || defined(STM32G483xx)
        if((hcomp->Instance == COMP6) || (hcomp->Instance == COMP7))
 800354a:	687b      	ldr	r3, [r7, #4]
 800354c:	681b      	ldr	r3, [r3, #0]
 800354e:	4a65      	ldr	r2, [pc, #404]	; (80036e4 <HAL_COMP_Init+0x300>)
 8003550:	4293      	cmp	r3, r2
 8003552:	d004      	beq.n	800355e <HAL_COMP_Init+0x17a>
 8003554:	687b      	ldr	r3, [r7, #4]
 8003556:	681b      	ldr	r3, [r3, #0]
 8003558:	4a63      	ldr	r2, [pc, #396]	; (80036e8 <HAL_COMP_Init+0x304>)
 800355a:	4293      	cmp	r3, r2
 800355c:	d103      	bne.n	8003566 <HAL_COMP_Init+0x182>
        {
          LL_EXTI_DisableRisingTrig_32_63(exti_line);
 800355e:	6938      	ldr	r0, [r7, #16]
 8003560:	f7ff fec0 	bl	80032e4 <LL_EXTI_DisableRisingTrig_32_63>
 8003564:	e002      	b.n	800356c <HAL_COMP_Init+0x188>
        }
        else
        {
          LL_EXTI_DisableRisingTrig_0_31(exti_line);
 8003566:	6938      	ldr	r0, [r7, #16]
 8003568:	f7ff fea8 	bl	80032bc <LL_EXTI_DisableRisingTrig_0_31>
        LL_EXTI_DisableRisingTrig_0_31(exti_line);
#endif
      }

      /* Configure EXTI falling edge */
      if((hcomp->Init.TriggerMode & COMP_EXTI_FALLING) != 0UL)
 800356c:	687b      	ldr	r3, [r7, #4]
 800356e:	699b      	ldr	r3, [r3, #24]
 8003570:	f003 0320 	and.w	r3, r3, #32
 8003574:	2b00      	cmp	r3, #0
 8003576:	d011      	beq.n	800359c <HAL_COMP_Init+0x1b8>
      {
#if defined(STM32G474xx) || defined(STM32G484xx) || defined(STM32G473xx) || defined(STM32G483xx)
        if((hcomp->Instance == COMP6) || (hcomp->Instance == COMP7))
 8003578:	687b      	ldr	r3, [r7, #4]
 800357a:	681b      	ldr	r3, [r3, #0]
 800357c:	4a59      	ldr	r2, [pc, #356]	; (80036e4 <HAL_COMP_Init+0x300>)
 800357e:	4293      	cmp	r3, r2
 8003580:	d004      	beq.n	800358c <HAL_COMP_Init+0x1a8>
 8003582:	687b      	ldr	r3, [r7, #4]
 8003584:	681b      	ldr	r3, [r3, #0]
 8003586:	4a58      	ldr	r2, [pc, #352]	; (80036e8 <HAL_COMP_Init+0x304>)
 8003588:	4293      	cmp	r3, r2
 800358a:	d103      	bne.n	8003594 <HAL_COMP_Init+0x1b0>
        {
          LL_EXTI_EnableFallingTrig_32_63(exti_line);
 800358c:	6938      	ldr	r0, [r7, #16]
 800358e:	f7ff fecf 	bl	8003330 <LL_EXTI_EnableFallingTrig_32_63>
 8003592:	e014      	b.n	80035be <HAL_COMP_Init+0x1da>
        }
        else
        {
          LL_EXTI_EnableFallingTrig_0_31(exti_line);
 8003594:	6938      	ldr	r0, [r7, #16]
 8003596:	f7ff feb9 	bl	800330c <LL_EXTI_EnableFallingTrig_0_31>
 800359a:	e010      	b.n	80035be <HAL_COMP_Init+0x1da>
#endif
      }
      else
      {
#if defined(STM32G474xx) || defined(STM32G484xx) || defined(STM32G473xx) || defined(STM32G483xx)
        if((hcomp->Instance == COMP6) || (hcomp->Instance == COMP7))
 800359c:	687b      	ldr	r3, [r7, #4]
 800359e:	681b      	ldr	r3, [r3, #0]
 80035a0:	4a50      	ldr	r2, [pc, #320]	; (80036e4 <HAL_COMP_Init+0x300>)
 80035a2:	4293      	cmp	r3, r2
 80035a4:	d004      	beq.n	80035b0 <HAL_COMP_Init+0x1cc>
 80035a6:	687b      	ldr	r3, [r7, #4]
 80035a8:	681b      	ldr	r3, [r3, #0]
 80035aa:	4a4f      	ldr	r2, [pc, #316]	; (80036e8 <HAL_COMP_Init+0x304>)
 80035ac:	4293      	cmp	r3, r2
 80035ae:	d103      	bne.n	80035b8 <HAL_COMP_Init+0x1d4>
        {
          LL_EXTI_DisableFallingTrig_32_63(exti_line);
 80035b0:	6938      	ldr	r0, [r7, #16]
 80035b2:	f7ff fee3 	bl	800337c <LL_EXTI_DisableFallingTrig_32_63>
 80035b6:	e002      	b.n	80035be <HAL_COMP_Init+0x1da>
        }
        else
        {
          LL_EXTI_DisableFallingTrig_0_31(exti_line);
 80035b8:	6938      	ldr	r0, [r7, #16]
 80035ba:	f7ff fecb 	bl	8003354 <LL_EXTI_DisableFallingTrig_0_31>
#endif
      }

      /* Clear COMP EXTI pending bit (if any) */
#if defined(STM32G474xx) || defined(STM32G484xx) || defined(STM32G473xx) || defined(STM32G483xx)
      if((hcomp->Instance == COMP6) || (hcomp->Instance == COMP7))
 80035be:	687b      	ldr	r3, [r7, #4]
 80035c0:	681b      	ldr	r3, [r3, #0]
 80035c2:	4a48      	ldr	r2, [pc, #288]	; (80036e4 <HAL_COMP_Init+0x300>)
 80035c4:	4293      	cmp	r3, r2
 80035c6:	d004      	beq.n	80035d2 <HAL_COMP_Init+0x1ee>
 80035c8:	687b      	ldr	r3, [r7, #4]
 80035ca:	681b      	ldr	r3, [r3, #0]
 80035cc:	4a46      	ldr	r2, [pc, #280]	; (80036e8 <HAL_COMP_Init+0x304>)
 80035ce:	4293      	cmp	r3, r2
 80035d0:	d103      	bne.n	80035da <HAL_COMP_Init+0x1f6>
      {
        LL_EXTI_ClearFlag_32_63(exti_line);
 80035d2:	6938      	ldr	r0, [r7, #16]
 80035d4:	f7ff fef6 	bl	80033c4 <LL_EXTI_ClearFlag_32_63>
 80035d8:	e002      	b.n	80035e0 <HAL_COMP_Init+0x1fc>
      }
      else
      {
        LL_EXTI_ClearFlag_0_31(exti_line);
 80035da:	6938      	ldr	r0, [r7, #16]
 80035dc:	f7ff fee2 	bl	80033a4 <LL_EXTI_ClearFlag_0_31>
#else
      LL_EXTI_ClearFlag_0_31(exti_line);
#endif

      /* Configure EXTI event mode */
      if((hcomp->Init.TriggerMode & COMP_EXTI_EVENT) != 0UL)
 80035e0:	687b      	ldr	r3, [r7, #4]
 80035e2:	699b      	ldr	r3, [r3, #24]
 80035e4:	f003 0302 	and.w	r3, r3, #2
 80035e8:	2b00      	cmp	r3, #0
 80035ea:	d011      	beq.n	8003610 <HAL_COMP_Init+0x22c>
      {
#if defined(STM32G474xx) || defined(STM32G484xx) || defined(STM32G473xx) || defined(STM32G483xx)
        if((hcomp->Instance == COMP6) || (hcomp->Instance == COMP7))
 80035ec:	687b      	ldr	r3, [r7, #4]
 80035ee:	681b      	ldr	r3, [r3, #0]
 80035f0:	4a3c      	ldr	r2, [pc, #240]	; (80036e4 <HAL_COMP_Init+0x300>)
 80035f2:	4293      	cmp	r3, r2
 80035f4:	d004      	beq.n	8003600 <HAL_COMP_Init+0x21c>
 80035f6:	687b      	ldr	r3, [r7, #4]
 80035f8:	681b      	ldr	r3, [r3, #0]
 80035fa:	4a3b      	ldr	r2, [pc, #236]	; (80036e8 <HAL_COMP_Init+0x304>)
 80035fc:	4293      	cmp	r3, r2
 80035fe:	d103      	bne.n	8003608 <HAL_COMP_Init+0x224>
        {
          LL_EXTI_EnableEvent_32_63(exti_line);
 8003600:	6938      	ldr	r0, [r7, #16]
 8003602:	f7ff fdfd 	bl	8003200 <LL_EXTI_EnableEvent_32_63>
 8003606:	e014      	b.n	8003632 <HAL_COMP_Init+0x24e>
        }
        else
        {
          LL_EXTI_EnableEvent_0_31(exti_line);
 8003608:	6938      	ldr	r0, [r7, #16]
 800360a:	f7ff fde7 	bl	80031dc <LL_EXTI_EnableEvent_0_31>
 800360e:	e010      	b.n	8003632 <HAL_COMP_Init+0x24e>
#endif
      }
      else
      {
#if defined(STM32G474xx) || defined(STM32G484xx) || defined(STM32G473xx) || defined(STM32G483xx)
        if((hcomp->Instance == COMP6) || (hcomp->Instance == COMP7))
 8003610:	687b      	ldr	r3, [r7, #4]
 8003612:	681b      	ldr	r3, [r3, #0]
 8003614:	4a33      	ldr	r2, [pc, #204]	; (80036e4 <HAL_COMP_Init+0x300>)
 8003616:	4293      	cmp	r3, r2
 8003618:	d004      	beq.n	8003624 <HAL_COMP_Init+0x240>
 800361a:	687b      	ldr	r3, [r7, #4]
 800361c:	681b      	ldr	r3, [r3, #0]
 800361e:	4a32      	ldr	r2, [pc, #200]	; (80036e8 <HAL_COMP_Init+0x304>)
 8003620:	4293      	cmp	r3, r2
 8003622:	d103      	bne.n	800362c <HAL_COMP_Init+0x248>
        {
          LL_EXTI_DisableEvent_32_63(exti_line);
 8003624:	6938      	ldr	r0, [r7, #16]
 8003626:	f7ff fe11 	bl	800324c <LL_EXTI_DisableEvent_32_63>
 800362a:	e002      	b.n	8003632 <HAL_COMP_Init+0x24e>
        }
        else
        {
          LL_EXTI_DisableEvent_0_31(exti_line);
 800362c:	6938      	ldr	r0, [r7, #16]
 800362e:	f7ff fdf9 	bl	8003224 <LL_EXTI_DisableEvent_0_31>
        LL_EXTI_DisableEvent_0_31(exti_line);
#endif
      }

      /* Configure EXTI interrupt mode */
      if((hcomp->Init.TriggerMode & COMP_EXTI_IT) != 0UL)
 8003632:	687b      	ldr	r3, [r7, #4]
 8003634:	699b      	ldr	r3, [r3, #24]
 8003636:	f003 0301 	and.w	r3, r3, #1
 800363a:	2b00      	cmp	r3, #0
 800363c:	d011      	beq.n	8003662 <HAL_COMP_Init+0x27e>
      {
#if defined(STM32G474xx) || defined(STM32G484xx) || defined(STM32G473xx) || defined(STM32G483xx)
        if((hcomp->Instance == COMP6) || (hcomp->Instance == COMP7))
 800363e:	687b      	ldr	r3, [r7, #4]
 8003640:	681b      	ldr	r3, [r3, #0]
 8003642:	4a28      	ldr	r2, [pc, #160]	; (80036e4 <HAL_COMP_Init+0x300>)
 8003644:	4293      	cmp	r3, r2
 8003646:	d004      	beq.n	8003652 <HAL_COMP_Init+0x26e>
 8003648:	687b      	ldr	r3, [r7, #4]
 800364a:	681b      	ldr	r3, [r3, #0]
 800364c:	4a26      	ldr	r2, [pc, #152]	; (80036e8 <HAL_COMP_Init+0x304>)
 800364e:	4293      	cmp	r3, r2
 8003650:	d103      	bne.n	800365a <HAL_COMP_Init+0x276>
        {
          LL_EXTI_EnableIT_32_63(exti_line);
 8003652:	6938      	ldr	r0, [r7, #16]
 8003654:	f7ff fd88 	bl	8003168 <LL_EXTI_EnableIT_32_63>
 8003658:	e04b      	b.n	80036f2 <HAL_COMP_Init+0x30e>
        }
        else
        {
          LL_EXTI_EnableIT_0_31(exti_line);
 800365a:	6938      	ldr	r0, [r7, #16]
 800365c:	f7ff fd72 	bl	8003144 <LL_EXTI_EnableIT_0_31>
 8003660:	e047      	b.n	80036f2 <HAL_COMP_Init+0x30e>
#endif
      }
      else
      {
#if defined(STM32G474xx) || defined(STM32G484xx) || defined(STM32G473xx) || defined(STM32G483xx)
        if((hcomp->Instance == COMP6) || (hcomp->Instance == COMP7))
 8003662:	687b      	ldr	r3, [r7, #4]
 8003664:	681b      	ldr	r3, [r3, #0]
 8003666:	4a1f      	ldr	r2, [pc, #124]	; (80036e4 <HAL_COMP_Init+0x300>)
 8003668:	4293      	cmp	r3, r2
 800366a:	d004      	beq.n	8003676 <HAL_COMP_Init+0x292>
 800366c:	687b      	ldr	r3, [r7, #4]
 800366e:	681b      	ldr	r3, [r3, #0]
 8003670:	4a1d      	ldr	r2, [pc, #116]	; (80036e8 <HAL_COMP_Init+0x304>)
 8003672:	4293      	cmp	r3, r2
 8003674:	d103      	bne.n	800367e <HAL_COMP_Init+0x29a>
        {
          LL_EXTI_DisableIT_32_63(exti_line);
 8003676:	6938      	ldr	r0, [r7, #16]
 8003678:	f7ff fd9c 	bl	80031b4 <LL_EXTI_DisableIT_32_63>
 800367c:	e039      	b.n	80036f2 <HAL_COMP_Init+0x30e>
        }
        else
        {
          LL_EXTI_DisableIT_0_31(exti_line);
 800367e:	6938      	ldr	r0, [r7, #16]
 8003680:	f7ff fd84 	bl	800318c <LL_EXTI_DisableIT_0_31>
 8003684:	e035      	b.n	80036f2 <HAL_COMP_Init+0x30e>
    }
    else
    {
      /* Disable EXTI event mode */
#if defined(STM32G474xx) || defined(STM32G484xx) || defined(STM32G473xx) || defined(STM32G483xx)
      if((hcomp->Instance == COMP6) || (hcomp->Instance == COMP7))
 8003686:	687b      	ldr	r3, [r7, #4]
 8003688:	681b      	ldr	r3, [r3, #0]
 800368a:	4a16      	ldr	r2, [pc, #88]	; (80036e4 <HAL_COMP_Init+0x300>)
 800368c:	4293      	cmp	r3, r2
 800368e:	d004      	beq.n	800369a <HAL_COMP_Init+0x2b6>
 8003690:	687b      	ldr	r3, [r7, #4]
 8003692:	681b      	ldr	r3, [r3, #0]
 8003694:	4a14      	ldr	r2, [pc, #80]	; (80036e8 <HAL_COMP_Init+0x304>)
 8003696:	4293      	cmp	r3, r2
 8003698:	d103      	bne.n	80036a2 <HAL_COMP_Init+0x2be>
      {
        LL_EXTI_DisableEvent_32_63(exti_line);
 800369a:	6938      	ldr	r0, [r7, #16]
 800369c:	f7ff fdd6 	bl	800324c <LL_EXTI_DisableEvent_32_63>
 80036a0:	e002      	b.n	80036a8 <HAL_COMP_Init+0x2c4>
      }
      else
      {
        LL_EXTI_DisableEvent_0_31(exti_line);
 80036a2:	6938      	ldr	r0, [r7, #16]
 80036a4:	f7ff fdbe 	bl	8003224 <LL_EXTI_DisableEvent_0_31>
      LL_EXTI_DisableEvent_0_31(exti_line);
#endif

      /* Disable EXTI interrupt mode */
#if defined(STM32G474xx) || defined(STM32G484xx) || defined(STM32G473xx) || defined(STM32G483xx)
      if((hcomp->Instance == COMP6) || (hcomp->Instance == COMP7))
 80036a8:	687b      	ldr	r3, [r7, #4]
 80036aa:	681b      	ldr	r3, [r3, #0]
 80036ac:	4a0d      	ldr	r2, [pc, #52]	; (80036e4 <HAL_COMP_Init+0x300>)
 80036ae:	4293      	cmp	r3, r2
 80036b0:	d004      	beq.n	80036bc <HAL_COMP_Init+0x2d8>
 80036b2:	687b      	ldr	r3, [r7, #4]
 80036b4:	681b      	ldr	r3, [r3, #0]
 80036b6:	4a0c      	ldr	r2, [pc, #48]	; (80036e8 <HAL_COMP_Init+0x304>)
 80036b8:	4293      	cmp	r3, r2
 80036ba:	d117      	bne.n	80036ec <HAL_COMP_Init+0x308>
      {
        LL_EXTI_DisableIT_32_63(exti_line);
 80036bc:	6938      	ldr	r0, [r7, #16]
 80036be:	f7ff fd79 	bl	80031b4 <LL_EXTI_DisableIT_32_63>
 80036c2:	e016      	b.n	80036f2 <HAL_COMP_Init+0x30e>
 80036c4:	ff007e0f 	.word	0xff007e0f
 80036c8:	20001f44 	.word	0x20001f44
 80036cc:	053e2d63 	.word	0x053e2d63
 80036d0:	40010200 	.word	0x40010200
 80036d4:	40010204 	.word	0x40010204
 80036d8:	40010208 	.word	0x40010208
 80036dc:	4001020c 	.word	0x4001020c
 80036e0:	40010210 	.word	0x40010210
 80036e4:	40010214 	.word	0x40010214
 80036e8:	40010218 	.word	0x40010218
      }
      else
      {
        LL_EXTI_DisableIT_0_31(exti_line);
 80036ec:	6938      	ldr	r0, [r7, #16]
 80036ee:	f7ff fd4d 	bl	800318c <LL_EXTI_DisableIT_0_31>
    }

    /* Set HAL COMP handle state */
    /* Note: Transition from state reset to state ready,                      */
    /*       otherwise (coming from state ready or busy) no state update.     */
    if (hcomp->State == HAL_COMP_STATE_RESET)
 80036f2:	687b      	ldr	r3, [r7, #4]
 80036f4:	7f5b      	ldrb	r3, [r3, #29]
 80036f6:	b2db      	uxtb	r3, r3
 80036f8:	2b00      	cmp	r3, #0
 80036fa:	d102      	bne.n	8003702 <HAL_COMP_Init+0x31e>
    {
      hcomp->State = HAL_COMP_STATE_READY;
 80036fc:	687b      	ldr	r3, [r7, #4]
 80036fe:	2201      	movs	r2, #1
 8003700:	775a      	strb	r2, [r3, #29]
    }
  }

  return status;
 8003702:	7ffb      	ldrb	r3, [r7, #31]
}
 8003704:	4618      	mov	r0, r3
 8003706:	3720      	adds	r7, #32
 8003708:	46bd      	mov	sp, r7
 800370a:	bd80      	pop	{r7, pc}

0800370c <__NVIC_SetPriorityGrouping>:
{
 800370c:	b480      	push	{r7}
 800370e:	b085      	sub	sp, #20
 8003710:	af00      	add	r7, sp, #0
 8003712:	6078      	str	r0, [r7, #4]
  uint32_t PriorityGroupTmp = (PriorityGroup & (uint32_t)0x07UL);             /* only values 0..7 are used          */
 8003714:	687b      	ldr	r3, [r7, #4]
 8003716:	f003 0307 	and.w	r3, r3, #7
 800371a:	60fb      	str	r3, [r7, #12]
  reg_value  =  SCB->AIRCR;                                                   /* read old register configuration    */
 800371c:	4b0c      	ldr	r3, [pc, #48]	; (8003750 <__NVIC_SetPriorityGrouping+0x44>)
 800371e:	68db      	ldr	r3, [r3, #12]
 8003720:	60bb      	str	r3, [r7, #8]
  reg_value &= ~((uint32_t)(SCB_AIRCR_VECTKEY_Msk | SCB_AIRCR_PRIGROUP_Msk)); /* clear bits to change               */
 8003722:	68ba      	ldr	r2, [r7, #8]
 8003724:	f64f 03ff 	movw	r3, #63743	; 0xf8ff
 8003728:	4013      	ands	r3, r2
 800372a:	60bb      	str	r3, [r7, #8]
                (PriorityGroupTmp << SCB_AIRCR_PRIGROUP_Pos)  );              /* Insert write key and priority group */
 800372c:	68fb      	ldr	r3, [r7, #12]
 800372e:	021a      	lsls	r2, r3, #8
                ((uint32_t)0x5FAUL << SCB_AIRCR_VECTKEY_Pos) |
 8003730:	68bb      	ldr	r3, [r7, #8]
 8003732:	4313      	orrs	r3, r2
  reg_value  =  (reg_value                                   |
 8003734:	f043 63bf 	orr.w	r3, r3, #100139008	; 0x5f80000
 8003738:	f443 3300 	orr.w	r3, r3, #131072	; 0x20000
 800373c:	60bb      	str	r3, [r7, #8]
  SCB->AIRCR =  reg_value;
 800373e:	4a04      	ldr	r2, [pc, #16]	; (8003750 <__NVIC_SetPriorityGrouping+0x44>)
 8003740:	68bb      	ldr	r3, [r7, #8]
 8003742:	60d3      	str	r3, [r2, #12]
}
 8003744:	bf00      	nop
 8003746:	3714      	adds	r7, #20
 8003748:	46bd      	mov	sp, r7
 800374a:	f85d 7b04 	ldr.w	r7, [sp], #4
 800374e:	4770      	bx	lr
 8003750:	e000ed00 	.word	0xe000ed00

08003754 <__NVIC_GetPriorityGrouping>:
{
 8003754:	b480      	push	{r7}
 8003756:	af00      	add	r7, sp, #0
  return ((uint32_t)((SCB->AIRCR & SCB_AIRCR_PRIGROUP_Msk) >> SCB_AIRCR_PRIGROUP_Pos));
 8003758:	4b04      	ldr	r3, [pc, #16]	; (800376c <__NVIC_GetPriorityGrouping+0x18>)
 800375a:	68db      	ldr	r3, [r3, #12]
 800375c:	0a1b      	lsrs	r3, r3, #8
 800375e:	f003 0307 	and.w	r3, r3, #7
}
 8003762:	4618      	mov	r0, r3
 8003764:	46bd      	mov	sp, r7
 8003766:	f85d 7b04 	ldr.w	r7, [sp], #4
 800376a:	4770      	bx	lr
 800376c:	e000ed00 	.word	0xe000ed00

08003770 <__NVIC_EnableIRQ>:
{
 8003770:	b480      	push	{r7}
 8003772:	b083      	sub	sp, #12
 8003774:	af00      	add	r7, sp, #0
 8003776:	4603      	mov	r3, r0
 8003778:	71fb      	strb	r3, [r7, #7]
  if ((int32_t)(IRQn) >= 0)
 800377a:	f997 3007 	ldrsb.w	r3, [r7, #7]
 800377e:	2b00      	cmp	r3, #0
 8003780:	db0b      	blt.n	800379a <__NVIC_EnableIRQ+0x2a>
    NVIC->ISER[(((uint32_t)IRQn) >> 5UL)] = (uint32_t)(1UL << (((uint32_t)IRQn) & 0x1FUL));
 8003782:	79fb      	ldrb	r3, [r7, #7]
 8003784:	f003 021f 	and.w	r2, r3, #31
 8003788:	4907      	ldr	r1, [pc, #28]	; (80037a8 <__NVIC_EnableIRQ+0x38>)
 800378a:	f997 3007 	ldrsb.w	r3, [r7, #7]
 800378e:	095b      	lsrs	r3, r3, #5
 8003790:	2001      	movs	r0, #1
 8003792:	fa00 f202 	lsl.w	r2, r0, r2
 8003796:	f841 2023 	str.w	r2, [r1, r3, lsl #2]
}
 800379a:	bf00      	nop
 800379c:	370c      	adds	r7, #12
 800379e:	46bd      	mov	sp, r7
 80037a0:	f85d 7b04 	ldr.w	r7, [sp], #4
 80037a4:	4770      	bx	lr
 80037a6:	bf00      	nop
 80037a8:	e000e100 	.word	0xe000e100

080037ac <__NVIC_SetPriority>:
{
 80037ac:	b480      	push	{r7}
 80037ae:	b083      	sub	sp, #12
 80037b0:	af00      	add	r7, sp, #0
 80037b2:	4603      	mov	r3, r0
 80037b4:	6039      	str	r1, [r7, #0]
 80037b6:	71fb      	strb	r3, [r7, #7]
  if ((int32_t)(IRQn) >= 0)
 80037b8:	f997 3007 	ldrsb.w	r3, [r7, #7]
 80037bc:	2b00      	cmp	r3, #0
 80037be:	db0a      	blt.n	80037d6 <__NVIC_SetPriority+0x2a>
    NVIC->IP[((uint32_t)IRQn)]               = (uint8_t)((priority << (8U - __NVIC_PRIO_BITS)) & (uint32_t)0xFFUL);
 80037c0:	683b      	ldr	r3, [r7, #0]
 80037c2:	b2da      	uxtb	r2, r3
 80037c4:	490c      	ldr	r1, [pc, #48]	; (80037f8 <__NVIC_SetPriority+0x4c>)
 80037c6:	f997 3007 	ldrsb.w	r3, [r7, #7]
 80037ca:	0112      	lsls	r2, r2, #4
 80037cc:	b2d2      	uxtb	r2, r2
 80037ce:	440b      	add	r3, r1
 80037d0:	f883 2300 	strb.w	r2, [r3, #768]	; 0x300
}
 80037d4:	e00a      	b.n	80037ec <__NVIC_SetPriority+0x40>
    SCB->SHP[(((uint32_t)IRQn) & 0xFUL)-4UL] = (uint8_t)((priority << (8U - __NVIC_PRIO_BITS)) & (uint32_t)0xFFUL);
 80037d6:	683b      	ldr	r3, [r7, #0]
 80037d8:	b2da      	uxtb	r2, r3
 80037da:	4908      	ldr	r1, [pc, #32]	; (80037fc <__NVIC_SetPriority+0x50>)
 80037dc:	79fb      	ldrb	r3, [r7, #7]
 80037de:	f003 030f 	and.w	r3, r3, #15
 80037e2:	3b04      	subs	r3, #4
 80037e4:	0112      	lsls	r2, r2, #4
 80037e6:	b2d2      	uxtb	r2, r2
 80037e8:	440b      	add	r3, r1
 80037ea:	761a      	strb	r2, [r3, #24]
}
 80037ec:	bf00      	nop
 80037ee:	370c      	adds	r7, #12
 80037f0:	46bd      	mov	sp, r7
 80037f2:	f85d 7b04 	ldr.w	r7, [sp], #4
 80037f6:	4770      	bx	lr
 80037f8:	e000e100 	.word	0xe000e100
 80037fc:	e000ed00 	.word	0xe000ed00

08003800 <NVIC_EncodePriority>:
{
 8003800:	b480      	push	{r7}
 8003802:	b089      	sub	sp, #36	; 0x24
 8003804:	af00      	add	r7, sp, #0
 8003806:	60f8      	str	r0, [r7, #12]
 8003808:	60b9      	str	r1, [r7, #8]
 800380a:	607a      	str	r2, [r7, #4]
  uint32_t PriorityGroupTmp = (PriorityGroup & (uint32_t)0x07UL);   /* only values 0..7 are used          */
 800380c:	68fb      	ldr	r3, [r7, #12]
 800380e:	f003 0307 	and.w	r3, r3, #7
 8003812:	61fb      	str	r3, [r7, #28]
  PreemptPriorityBits = ((7UL - PriorityGroupTmp) > (uint32_t)(__NVIC_PRIO_BITS)) ? (uint32_t)(__NVIC_PRIO_BITS) : (uint32_t)(7UL - PriorityGroupTmp);
 8003814:	69fb      	ldr	r3, [r7, #28]
 8003816:	f1c3 0307 	rsb	r3, r3, #7
 800381a:	2b04      	cmp	r3, #4
 800381c:	bf28      	it	cs
 800381e:	2304      	movcs	r3, #4
 8003820:	61bb      	str	r3, [r7, #24]
  SubPriorityBits     = ((PriorityGroupTmp + (uint32_t)(__NVIC_PRIO_BITS)) < (uint32_t)7UL) ? (uint32_t)0UL : (uint32_t)((PriorityGroupTmp - 7UL) + (uint32_t)(__NVIC_PRIO_BITS));
 8003822:	69fb      	ldr	r3, [r7, #28]
 8003824:	3304      	adds	r3, #4
 8003826:	2b06      	cmp	r3, #6
 8003828:	d902      	bls.n	8003830 <NVIC_EncodePriority+0x30>
 800382a:	69fb      	ldr	r3, [r7, #28]
 800382c:	3b03      	subs	r3, #3
 800382e:	e000      	b.n	8003832 <NVIC_EncodePriority+0x32>
 8003830:	2300      	movs	r3, #0
 8003832:	617b      	str	r3, [r7, #20]
           ((PreemptPriority & (uint32_t)((1UL << (PreemptPriorityBits)) - 1UL)) << SubPriorityBits) |
 8003834:	f04f 32ff 	mov.w	r2, #4294967295	; 0xffffffff
 8003838:	69bb      	ldr	r3, [r7, #24]
 800383a:	fa02 f303 	lsl.w	r3, r2, r3
 800383e:	43da      	mvns	r2, r3
 8003840:	68bb      	ldr	r3, [r7, #8]
 8003842:	401a      	ands	r2, r3
 8003844:	697b      	ldr	r3, [r7, #20]
 8003846:	409a      	lsls	r2, r3
           ((SubPriority     & (uint32_t)((1UL << (SubPriorityBits    )) - 1UL)))
 8003848:	f04f 31ff 	mov.w	r1, #4294967295	; 0xffffffff
 800384c:	697b      	ldr	r3, [r7, #20]
 800384e:	fa01 f303 	lsl.w	r3, r1, r3
 8003852:	43d9      	mvns	r1, r3
 8003854:	687b      	ldr	r3, [r7, #4]
 8003856:	400b      	ands	r3, r1
           ((PreemptPriority & (uint32_t)((1UL << (PreemptPriorityBits)) - 1UL)) << SubPriorityBits) |
 8003858:	4313      	orrs	r3, r2
}
 800385a:	4618      	mov	r0, r3
 800385c:	3724      	adds	r7, #36	; 0x24
 800385e:	46bd      	mov	sp, r7
 8003860:	f85d 7b04 	ldr.w	r7, [sp], #4
 8003864:	4770      	bx	lr
	...

08003868 <SysTick_Config>:
{
 8003868:	b580      	push	{r7, lr}
 800386a:	b082      	sub	sp, #8
 800386c:	af00      	add	r7, sp, #0
 800386e:	6078      	str	r0, [r7, #4]
  if ((ticks - 1UL) > SysTick_LOAD_RELOAD_Msk)
 8003870:	687b      	ldr	r3, [r7, #4]
 8003872:	3b01      	subs	r3, #1
 8003874:	f1b3 7f80 	cmp.w	r3, #16777216	; 0x1000000
 8003878:	d301      	bcc.n	800387e <SysTick_Config+0x16>
    return (1UL);                                                   /* Reload value impossible */
 800387a:	2301      	movs	r3, #1
 800387c:	e00f      	b.n	800389e <SysTick_Config+0x36>
  SysTick->LOAD  = (uint32_t)(ticks - 1UL);                         /* set reload register */
 800387e:	4a0a      	ldr	r2, [pc, #40]	; (80038a8 <SysTick_Config+0x40>)
 8003880:	687b      	ldr	r3, [r7, #4]
 8003882:	3b01      	subs	r3, #1
 8003884:	6053      	str	r3, [r2, #4]
  NVIC_SetPriority (SysTick_IRQn, (1UL << __NVIC_PRIO_BITS) - 1UL); /* set Priority for Systick Interrupt */
 8003886:	210f      	movs	r1, #15
 8003888:	f04f 30ff 	mov.w	r0, #4294967295	; 0xffffffff
 800388c:	f7ff ff8e 	bl	80037ac <__NVIC_SetPriority>
  SysTick->VAL   = 0UL;                                             /* Load the SysTick Counter Value */
 8003890:	4b05      	ldr	r3, [pc, #20]	; (80038a8 <SysTick_Config+0x40>)
 8003892:	2200      	movs	r2, #0
 8003894:	609a      	str	r2, [r3, #8]
  SysTick->CTRL  = SysTick_CTRL_CLKSOURCE_Msk |
 8003896:	4b04      	ldr	r3, [pc, #16]	; (80038a8 <SysTick_Config+0x40>)
 8003898:	2207      	movs	r2, #7
 800389a:	601a      	str	r2, [r3, #0]
  return (0UL);                                                     /* Function successful */
 800389c:	2300      	movs	r3, #0
}
 800389e:	4618      	mov	r0, r3
 80038a0:	3708      	adds	r7, #8
 80038a2:	46bd      	mov	sp, r7
 80038a4:	bd80      	pop	{r7, pc}
 80038a6:	bf00      	nop
 80038a8:	e000e010 	.word	0xe000e010

080038ac <HAL_NVIC_SetPriorityGrouping>:
  * @note   When the NVIC_PriorityGroup_0 is selected, IRQ pre-emption is no more possible.
  *         The pending IRQ priority will be managed only by the subpriority.
  * @retval None
  */
void HAL_NVIC_SetPriorityGrouping(uint32_t PriorityGroup)
{
 80038ac:	b580      	push	{r7, lr}
 80038ae:	b082      	sub	sp, #8
 80038b0:	af00      	add	r7, sp, #0
 80038b2:	6078      	str	r0, [r7, #4]
  /* Check the parameters */
  assert_param(IS_NVIC_PRIORITY_GROUP(PriorityGroup));

  /* Set the PRIGROUP[10:8] bits according to the PriorityGroup parameter value */
  NVIC_SetPriorityGrouping(PriorityGroup);
 80038b4:	6878      	ldr	r0, [r7, #4]
 80038b6:	f7ff ff29 	bl	800370c <__NVIC_SetPriorityGrouping>
}
 80038ba:	bf00      	nop
 80038bc:	3708      	adds	r7, #8
 80038be:	46bd      	mov	sp, r7
 80038c0:	bd80      	pop	{r7, pc}

080038c2 <HAL_NVIC_SetPriority>:
  *         This parameter can be a value between 0 and 15
  *         A lower priority value indicates a higher priority.
  * @retval None
  */
void HAL_NVIC_SetPriority(IRQn_Type IRQn, uint32_t PreemptPriority, uint32_t SubPriority)
{
 80038c2:	b580      	push	{r7, lr}
 80038c4:	b086      	sub	sp, #24
 80038c6:	af00      	add	r7, sp, #0
 80038c8:	4603      	mov	r3, r0
 80038ca:	60b9      	str	r1, [r7, #8]
 80038cc:	607a      	str	r2, [r7, #4]
 80038ce:	73fb      	strb	r3, [r7, #15]

  /* Check the parameters */
  assert_param(IS_NVIC_SUB_PRIORITY(SubPriority));
  assert_param(IS_NVIC_PREEMPTION_PRIORITY(PreemptPriority));

  prioritygroup = NVIC_GetPriorityGrouping();
 80038d0:	f7ff ff40 	bl	8003754 <__NVIC_GetPriorityGrouping>
 80038d4:	6178      	str	r0, [r7, #20]

  NVIC_SetPriority(IRQn, NVIC_EncodePriority(prioritygroup, PreemptPriority, SubPriority));
 80038d6:	687a      	ldr	r2, [r7, #4]
 80038d8:	68b9      	ldr	r1, [r7, #8]
 80038da:	6978      	ldr	r0, [r7, #20]
 80038dc:	f7ff ff90 	bl	8003800 <NVIC_EncodePriority>
 80038e0:	4602      	mov	r2, r0
 80038e2:	f997 300f 	ldrsb.w	r3, [r7, #15]
 80038e6:	4611      	mov	r1, r2
 80038e8:	4618      	mov	r0, r3
 80038ea:	f7ff ff5f 	bl	80037ac <__NVIC_SetPriority>
}
 80038ee:	bf00      	nop
 80038f0:	3718      	adds	r7, #24
 80038f2:	46bd      	mov	sp, r7
 80038f4:	bd80      	pop	{r7, pc}

080038f6 <HAL_NVIC_EnableIRQ>:
  *         This parameter can be an enumerator of IRQn_Type enumeration
  *         (For the complete STM32 Devices IRQ Channels list, please refer to the appropriate CMSIS device file (stm32g4xxxx.h))
  * @retval None
  */
void HAL_NVIC_EnableIRQ(IRQn_Type IRQn)
{
 80038f6:	b580      	push	{r7, lr}
 80038f8:	b082      	sub	sp, #8
 80038fa:	af00      	add	r7, sp, #0
 80038fc:	4603      	mov	r3, r0
 80038fe:	71fb      	strb	r3, [r7, #7]
  /* Check the parameters */
  assert_param(IS_NVIC_DEVICE_IRQ(IRQn));
  
  /* Enable interrupt */
  NVIC_EnableIRQ(IRQn);
 8003900:	f997 3007 	ldrsb.w	r3, [r7, #7]
 8003904:	4618      	mov	r0, r3
 8003906:	f7ff ff33 	bl	8003770 <__NVIC_EnableIRQ>
}
 800390a:	bf00      	nop
 800390c:	3708      	adds	r7, #8
 800390e:	46bd      	mov	sp, r7
 8003910:	bd80      	pop	{r7, pc}

08003912 <HAL_SYSTICK_Config>:
  * @param  TicksNumb: Specifies the ticks Number of ticks between two interrupts.
  * @retval status:  - 0  Function succeeded.
  *                  - 1  Function failed.
  */
uint32_t HAL_SYSTICK_Config(uint32_t TicksNumb)
{
 8003912:	b580      	push	{r7, lr}
 8003914:	b082      	sub	sp, #8
 8003916:	af00      	add	r7, sp, #0
 8003918:	6078      	str	r0, [r7, #4]
   return SysTick_Config(TicksNumb);
 800391a:	6878      	ldr	r0, [r7, #4]
 800391c:	f7ff ffa4 	bl	8003868 <SysTick_Config>
 8003920:	4603      	mov	r3, r0
}
 8003922:	4618      	mov	r0, r3
 8003924:	3708      	adds	r7, #8
 8003926:	46bd      	mov	sp, r7
 8003928:	bd80      	pop	{r7, pc}

0800392a <HAL_DAC_Init>:
  * @param  hdac pointer to a DAC_HandleTypeDef structure that contains
  *         the configuration information for the specified DAC.
  * @retval HAL status
  */
HAL_StatusTypeDef HAL_DAC_Init(DAC_HandleTypeDef *hdac)
{
 800392a:	b580      	push	{r7, lr}
 800392c:	b082      	sub	sp, #8
 800392e:	af00      	add	r7, sp, #0
 8003930:	6078      	str	r0, [r7, #4]
  /* Check DAC handle */
  if (hdac == NULL)
 8003932:	687b      	ldr	r3, [r7, #4]
 8003934:	2b00      	cmp	r3, #0
 8003936:	d101      	bne.n	800393c <HAL_DAC_Init+0x12>
  {
    return HAL_ERROR;
 8003938:	2301      	movs	r3, #1
 800393a:	e014      	b.n	8003966 <HAL_DAC_Init+0x3c>
  }
  /* Check the parameters */
  assert_param(IS_DAC_ALL_INSTANCE(hdac->Instance));

  if (hdac->State == HAL_DAC_STATE_RESET)
 800393c:	687b      	ldr	r3, [r7, #4]
 800393e:	791b      	ldrb	r3, [r3, #4]
 8003940:	b2db      	uxtb	r3, r3
 8003942:	2b00      	cmp	r3, #0
 8003944:	d105      	bne.n	8003952 <HAL_DAC_Init+0x28>
      hdac->MspInitCallback             = HAL_DAC_MspInit;
    }
#endif /* USE_HAL_DAC_REGISTER_CALLBACKS */

    /* Allocate lock resource and initialize it */
    hdac->Lock = HAL_UNLOCKED;
 8003946:	687b      	ldr	r3, [r7, #4]
 8003948:	2200      	movs	r2, #0
 800394a:	715a      	strb	r2, [r3, #5]
#if (USE_HAL_DAC_REGISTER_CALLBACKS == 1)
    /* Init the low level hardware */
    hdac->MspInitCallback(hdac);
#else
    /* Init the low level hardware */
    HAL_DAC_MspInit(hdac);
 800394c:	6878      	ldr	r0, [r7, #4]
 800394e:	f7fc fe77 	bl	8000640 <HAL_DAC_MspInit>
#endif /* USE_HAL_DAC_REGISTER_CALLBACKS */
  }

  /* Initialize the DAC state*/
  hdac->State = HAL_DAC_STATE_BUSY;
 8003952:	687b      	ldr	r3, [r7, #4]
 8003954:	2202      	movs	r2, #2
 8003956:	711a      	strb	r2, [r3, #4]

  /* Set DAC error code to none */
  hdac->ErrorCode = HAL_DAC_ERROR_NONE;
 8003958:	687b      	ldr	r3, [r7, #4]
 800395a:	2200      	movs	r2, #0
 800395c:	611a      	str	r2, [r3, #16]

  /* Initialize the DAC state*/
  hdac->State = HAL_DAC_STATE_READY;
 800395e:	687b      	ldr	r3, [r7, #4]
 8003960:	2201      	movs	r2, #1
 8003962:	711a      	strb	r2, [r3, #4]

  /* Return function status */
  return HAL_OK;
 8003964:	2300      	movs	r3, #0
}
 8003966:	4618      	mov	r0, r3
 8003968:	3708      	adds	r7, #8
 800396a:	46bd      	mov	sp, r7
 800396c:	bd80      	pop	{r7, pc}

0800396e <HAL_DAC_Start>:
  *         (1) On this STM32 serie, parameter not available on all instances.
  *             Refer to device datasheet for channels availability.
  * @retval HAL status
  */
HAL_StatusTypeDef HAL_DAC_Start(DAC_HandleTypeDef *hdac, uint32_t Channel)
{
 800396e:	b580      	push	{r7, lr}
 8003970:	b082      	sub	sp, #8
 8003972:	af00      	add	r7, sp, #0
 8003974:	6078      	str	r0, [r7, #4]
 8003976:	6039      	str	r1, [r7, #0]
  /* Check the parameters */
  assert_param(IS_DAC_CHANNEL(hdac->Instance, Channel));

  /* Process locked */
  __HAL_LOCK(hdac);
 8003978:	687b      	ldr	r3, [r7, #4]
 800397a:	795b      	ldrb	r3, [r3, #5]
 800397c:	2b01      	cmp	r3, #1
 800397e:	d101      	bne.n	8003984 <HAL_DAC_Start+0x16>
 8003980:	2302      	movs	r3, #2
 8003982:	e043      	b.n	8003a0c <HAL_DAC_Start+0x9e>
 8003984:	687b      	ldr	r3, [r7, #4]
 8003986:	2201      	movs	r2, #1
 8003988:	715a      	strb	r2, [r3, #5]

  /* Change DAC state */
  hdac->State = HAL_DAC_STATE_BUSY;
 800398a:	687b      	ldr	r3, [r7, #4]
 800398c:	2202      	movs	r2, #2
 800398e:	711a      	strb	r2, [r3, #4]

  /* Enable the Peripheral */
  __HAL_DAC_ENABLE(hdac, Channel);
 8003990:	687b      	ldr	r3, [r7, #4]
 8003992:	681b      	ldr	r3, [r3, #0]
 8003994:	6819      	ldr	r1, [r3, #0]
 8003996:	683b      	ldr	r3, [r7, #0]
 8003998:	f003 0310 	and.w	r3, r3, #16
 800399c:	2201      	movs	r2, #1
 800399e:	409a      	lsls	r2, r3
 80039a0:	687b      	ldr	r3, [r7, #4]
 80039a2:	681b      	ldr	r3, [r3, #0]
 80039a4:	430a      	orrs	r2, r1
 80039a6:	601a      	str	r2, [r3, #0]
  /* Ensure minimum wait before using peripheral after enabling it */
  HAL_Delay(1);
 80039a8:	2001      	movs	r0, #1
 80039aa:	f7fe fb4d 	bl	8002048 <HAL_Delay>

  if (Channel == DAC_CHANNEL_1)
 80039ae:	683b      	ldr	r3, [r7, #0]
 80039b0:	2b00      	cmp	r3, #0
 80039b2:	d10f      	bne.n	80039d4 <HAL_DAC_Start+0x66>
  {
    /* Check if software trigger enabled */
    if ((hdac->Instance->CR & (DAC_CR_TEN1 | DAC_CR_TSEL1)) == DAC_TRIGGER_SOFTWARE)
 80039b4:	687b      	ldr	r3, [r7, #4]
 80039b6:	681b      	ldr	r3, [r3, #0]
 80039b8:	681b      	ldr	r3, [r3, #0]
 80039ba:	f003 033e 	and.w	r3, r3, #62	; 0x3e
 80039be:	2b02      	cmp	r3, #2
 80039c0:	d11d      	bne.n	80039fe <HAL_DAC_Start+0x90>
    {
      /* Enable the selected DAC software conversion */
      SET_BIT(hdac->Instance->SWTRIGR, DAC_SWTRIGR_SWTRIG1);
 80039c2:	687b      	ldr	r3, [r7, #4]
 80039c4:	681b      	ldr	r3, [r3, #0]
 80039c6:	685a      	ldr	r2, [r3, #4]
 80039c8:	687b      	ldr	r3, [r7, #4]
 80039ca:	681b      	ldr	r3, [r3, #0]
 80039cc:	f042 0201 	orr.w	r2, r2, #1
 80039d0:	605a      	str	r2, [r3, #4]
 80039d2:	e014      	b.n	80039fe <HAL_DAC_Start+0x90>
    }
  }
  else
  {
    /* Check if software trigger enabled */
    if ((hdac->Instance->CR & (DAC_CR_TEN2 | DAC_CR_TSEL2)) == (DAC_TRIGGER_SOFTWARE << (Channel & 0x10UL)))
 80039d4:	687b      	ldr	r3, [r7, #4]
 80039d6:	681b      	ldr	r3, [r3, #0]
 80039d8:	681b      	ldr	r3, [r3, #0]
 80039da:	f403 1278 	and.w	r2, r3, #4063232	; 0x3e0000
 80039de:	683b      	ldr	r3, [r7, #0]
 80039e0:	f003 0310 	and.w	r3, r3, #16
 80039e4:	2102      	movs	r1, #2
 80039e6:	fa01 f303 	lsl.w	r3, r1, r3
 80039ea:	429a      	cmp	r2, r3
 80039ec:	d107      	bne.n	80039fe <HAL_DAC_Start+0x90>
    {
      /* Enable the selected DAC software conversion*/
      SET_BIT(hdac->Instance->SWTRIGR, DAC_SWTRIGR_SWTRIG2);
 80039ee:	687b      	ldr	r3, [r7, #4]
 80039f0:	681b      	ldr	r3, [r3, #0]
 80039f2:	685a      	ldr	r2, [r3, #4]
 80039f4:	687b      	ldr	r3, [r7, #4]
 80039f6:	681b      	ldr	r3, [r3, #0]
 80039f8:	f042 0202 	orr.w	r2, r2, #2
 80039fc:	605a      	str	r2, [r3, #4]
    }
  }

  /* Change DAC state */
  hdac->State = HAL_DAC_STATE_READY;
 80039fe:	687b      	ldr	r3, [r7, #4]
 8003a00:	2201      	movs	r2, #1
 8003a02:	711a      	strb	r2, [r3, #4]

  /* Process unlocked */
  __HAL_UNLOCK(hdac);
 8003a04:	687b      	ldr	r3, [r7, #4]
 8003a06:	2200      	movs	r2, #0
 8003a08:	715a      	strb	r2, [r3, #5]

  /* Return function status */
  return HAL_OK;
 8003a0a:	2300      	movs	r3, #0
}
 8003a0c:	4618      	mov	r0, r3
 8003a0e:	3708      	adds	r7, #8
 8003a10:	46bd      	mov	sp, r7
 8003a12:	bd80      	pop	{r7, pc}

08003a14 <HAL_DAC_Start_DMA>:
  *            @arg DAC_ALIGN_12B_R: 12bit right data alignment selected
  * @retval HAL status
  */
HAL_StatusTypeDef HAL_DAC_Start_DMA(DAC_HandleTypeDef *hdac, uint32_t Channel, uint32_t *pData, uint32_t Length,
                                    uint32_t Alignment)
{
 8003a14:	b580      	push	{r7, lr}
 8003a16:	b086      	sub	sp, #24
 8003a18:	af00      	add	r7, sp, #0
 8003a1a:	60f8      	str	r0, [r7, #12]
 8003a1c:	60b9      	str	r1, [r7, #8]
 8003a1e:	607a      	str	r2, [r7, #4]
 8003a20:	603b      	str	r3, [r7, #0]
  HAL_StatusTypeDef status;
  uint32_t tmpreg = 0U;
 8003a22:	2300      	movs	r3, #0
 8003a24:	613b      	str	r3, [r7, #16]
  /* Check the parameters */
  assert_param(IS_DAC_CHANNEL(hdac->Instance, Channel));
  assert_param(IS_DAC_ALIGN(Alignment));

  /* Process locked */
  __HAL_LOCK(hdac);
 8003a26:	68fb      	ldr	r3, [r7, #12]
 8003a28:	795b      	ldrb	r3, [r3, #5]
 8003a2a:	2b01      	cmp	r3, #1
 8003a2c:	d101      	bne.n	8003a32 <HAL_DAC_Start_DMA+0x1e>
 8003a2e:	2302      	movs	r3, #2
 8003a30:	e0a1      	b.n	8003b76 <HAL_DAC_Start_DMA+0x162>
 8003a32:	68fb      	ldr	r3, [r7, #12]
 8003a34:	2201      	movs	r2, #1
 8003a36:	715a      	strb	r2, [r3, #5]

  /* Change DAC state */
  hdac->State = HAL_DAC_STATE_BUSY;
 8003a38:	68fb      	ldr	r3, [r7, #12]
 8003a3a:	2202      	movs	r2, #2
 8003a3c:	711a      	strb	r2, [r3, #4]

  if (Channel == DAC_CHANNEL_1)
 8003a3e:	68bb      	ldr	r3, [r7, #8]
 8003a40:	2b00      	cmp	r3, #0
 8003a42:	d12a      	bne.n	8003a9a <HAL_DAC_Start_DMA+0x86>
  {
    /* Set the DMA transfer complete callback for channel1 */
    hdac->DMA_Handle1->XferCpltCallback = DAC_DMAConvCpltCh1;
 8003a44:	68fb      	ldr	r3, [r7, #12]
 8003a46:	689b      	ldr	r3, [r3, #8]
 8003a48:	4a4d      	ldr	r2, [pc, #308]	; (8003b80 <HAL_DAC_Start_DMA+0x16c>)
 8003a4a:	62da      	str	r2, [r3, #44]	; 0x2c

    /* Set the DMA half transfer complete callback for channel1 */
    hdac->DMA_Handle1->XferHalfCpltCallback = DAC_DMAHalfConvCpltCh1;
 8003a4c:	68fb      	ldr	r3, [r7, #12]
 8003a4e:	689b      	ldr	r3, [r3, #8]
 8003a50:	4a4c      	ldr	r2, [pc, #304]	; (8003b84 <HAL_DAC_Start_DMA+0x170>)
 8003a52:	631a      	str	r2, [r3, #48]	; 0x30

    /* Set the DMA error callback for channel1 */
    hdac->DMA_Handle1->XferErrorCallback = DAC_DMAErrorCh1;
 8003a54:	68fb      	ldr	r3, [r7, #12]
 8003a56:	689b      	ldr	r3, [r3, #8]
 8003a58:	4a4b      	ldr	r2, [pc, #300]	; (8003b88 <HAL_DAC_Start_DMA+0x174>)
 8003a5a:	635a      	str	r2, [r3, #52]	; 0x34

    /* Enable the selected DAC channel1 DMA request */
    SET_BIT(hdac->Instance->CR, DAC_CR_DMAEN1);
 8003a5c:	68fb      	ldr	r3, [r7, #12]
 8003a5e:	681b      	ldr	r3, [r3, #0]
 8003a60:	681a      	ldr	r2, [r3, #0]
 8003a62:	68fb      	ldr	r3, [r7, #12]
 8003a64:	681b      	ldr	r3, [r3, #0]
 8003a66:	f442 5280 	orr.w	r2, r2, #4096	; 0x1000
 8003a6a:	601a      	str	r2, [r3, #0]

    /* Case of use of channel 1 */
    switch (Alignment)
 8003a6c:	6a3b      	ldr	r3, [r7, #32]
 8003a6e:	2b04      	cmp	r3, #4
 8003a70:	d009      	beq.n	8003a86 <HAL_DAC_Start_DMA+0x72>
 8003a72:	2b08      	cmp	r3, #8
 8003a74:	d00c      	beq.n	8003a90 <HAL_DAC_Start_DMA+0x7c>
 8003a76:	2b00      	cmp	r3, #0
 8003a78:	d000      	beq.n	8003a7c <HAL_DAC_Start_DMA+0x68>
      case DAC_ALIGN_8B_R:
        /* Get DHR8R1 address */
        tmpreg = (uint32_t)&hdac->Instance->DHR8R1;
        break;
      default:
        break;
 8003a7a:	e039      	b.n	8003af0 <HAL_DAC_Start_DMA+0xdc>
        tmpreg = (uint32_t)&hdac->Instance->DHR12R1;
 8003a7c:	68fb      	ldr	r3, [r7, #12]
 8003a7e:	681b      	ldr	r3, [r3, #0]
 8003a80:	3308      	adds	r3, #8
 8003a82:	613b      	str	r3, [r7, #16]
        break;
 8003a84:	e034      	b.n	8003af0 <HAL_DAC_Start_DMA+0xdc>
        tmpreg = (uint32_t)&hdac->Instance->DHR12L1;
 8003a86:	68fb      	ldr	r3, [r7, #12]
 8003a88:	681b      	ldr	r3, [r3, #0]
 8003a8a:	330c      	adds	r3, #12
 8003a8c:	613b      	str	r3, [r7, #16]
        break;
 8003a8e:	e02f      	b.n	8003af0 <HAL_DAC_Start_DMA+0xdc>
        tmpreg = (uint32_t)&hdac->Instance->DHR8R1;
 8003a90:	68fb      	ldr	r3, [r7, #12]
 8003a92:	681b      	ldr	r3, [r3, #0]
 8003a94:	3310      	adds	r3, #16
 8003a96:	613b      	str	r3, [r7, #16]
        break;
 8003a98:	e02a      	b.n	8003af0 <HAL_DAC_Start_DMA+0xdc>
    }
  }
  else
  {
    /* Set the DMA transfer complete callback for channel2 */
    hdac->DMA_Handle2->XferCpltCallback = DAC_DMAConvCpltCh2;
 8003a9a:	68fb      	ldr	r3, [r7, #12]
 8003a9c:	68db      	ldr	r3, [r3, #12]
 8003a9e:	4a3b      	ldr	r2, [pc, #236]	; (8003b8c <HAL_DAC_Start_DMA+0x178>)
 8003aa0:	62da      	str	r2, [r3, #44]	; 0x2c

    /* Set the DMA half transfer complete callback for channel2 */
    hdac->DMA_Handle2->XferHalfCpltCallback = DAC_DMAHalfConvCpltCh2;
 8003aa2:	68fb      	ldr	r3, [r7, #12]
 8003aa4:	68db      	ldr	r3, [r3, #12]
 8003aa6:	4a3a      	ldr	r2, [pc, #232]	; (8003b90 <HAL_DAC_Start_DMA+0x17c>)
 8003aa8:	631a      	str	r2, [r3, #48]	; 0x30

    /* Set the DMA error callback for channel2 */
    hdac->DMA_Handle2->XferErrorCallback = DAC_DMAErrorCh2;
 8003aaa:	68fb      	ldr	r3, [r7, #12]
 8003aac:	68db      	ldr	r3, [r3, #12]
 8003aae:	4a39      	ldr	r2, [pc, #228]	; (8003b94 <HAL_DAC_Start_DMA+0x180>)
 8003ab0:	635a      	str	r2, [r3, #52]	; 0x34

    /* Enable the selected DAC channel2 DMA request */
    SET_BIT(hdac->Instance->CR, DAC_CR_DMAEN2);
 8003ab2:	68fb      	ldr	r3, [r7, #12]
 8003ab4:	681b      	ldr	r3, [r3, #0]
 8003ab6:	681a      	ldr	r2, [r3, #0]
 8003ab8:	68fb      	ldr	r3, [r7, #12]
 8003aba:	681b      	ldr	r3, [r3, #0]
 8003abc:	f042 5280 	orr.w	r2, r2, #268435456	; 0x10000000
 8003ac0:	601a      	str	r2, [r3, #0]

    /* Case of use of channel 2 */
    switch (Alignment)
 8003ac2:	6a3b      	ldr	r3, [r7, #32]
 8003ac4:	2b04      	cmp	r3, #4
 8003ac6:	d009      	beq.n	8003adc <HAL_DAC_Start_DMA+0xc8>
 8003ac8:	2b08      	cmp	r3, #8
 8003aca:	d00c      	beq.n	8003ae6 <HAL_DAC_Start_DMA+0xd2>
 8003acc:	2b00      	cmp	r3, #0
 8003ace:	d000      	beq.n	8003ad2 <HAL_DAC_Start_DMA+0xbe>
      case DAC_ALIGN_8B_R:
        /* Get DHR8R2 address */
        tmpreg = (uint32_t)&hdac->Instance->DHR8R2;
        break;
      default:
        break;
 8003ad0:	e00e      	b.n	8003af0 <HAL_DAC_Start_DMA+0xdc>
        tmpreg = (uint32_t)&hdac->Instance->DHR12R2;
 8003ad2:	68fb      	ldr	r3, [r7, #12]
 8003ad4:	681b      	ldr	r3, [r3, #0]
 8003ad6:	3314      	adds	r3, #20
 8003ad8:	613b      	str	r3, [r7, #16]
        break;
 8003ada:	e009      	b.n	8003af0 <HAL_DAC_Start_DMA+0xdc>
        tmpreg = (uint32_t)&hdac->Instance->DHR12L2;
 8003adc:	68fb      	ldr	r3, [r7, #12]
 8003ade:	681b      	ldr	r3, [r3, #0]
 8003ae0:	3318      	adds	r3, #24
 8003ae2:	613b      	str	r3, [r7, #16]
        break;
 8003ae4:	e004      	b.n	8003af0 <HAL_DAC_Start_DMA+0xdc>
        tmpreg = (uint32_t)&hdac->Instance->DHR8R2;
 8003ae6:	68fb      	ldr	r3, [r7, #12]
 8003ae8:	681b      	ldr	r3, [r3, #0]
 8003aea:	331c      	adds	r3, #28
 8003aec:	613b      	str	r3, [r7, #16]
        break;
 8003aee:	bf00      	nop
    }
  }

  /* Enable the DMA channel */
  if (Channel == DAC_CHANNEL_1)
 8003af0:	68bb      	ldr	r3, [r7, #8]
 8003af2:	2b00      	cmp	r3, #0
 8003af4:	d111      	bne.n	8003b1a <HAL_DAC_Start_DMA+0x106>
  {
    /* Enable the DAC DMA underrun interrupt */
    __HAL_DAC_ENABLE_IT(hdac, DAC_IT_DMAUDR1);
 8003af6:	68fb      	ldr	r3, [r7, #12]
 8003af8:	681b      	ldr	r3, [r3, #0]
 8003afa:	681a      	ldr	r2, [r3, #0]
 8003afc:	68fb      	ldr	r3, [r7, #12]
 8003afe:	681b      	ldr	r3, [r3, #0]
 8003b00:	f442 5200 	orr.w	r2, r2, #8192	; 0x2000
 8003b04:	601a      	str	r2, [r3, #0]

    /* Enable the DMA channel */
    status = HAL_DMA_Start_IT(hdac->DMA_Handle1, (uint32_t)pData, tmpreg, Length);
 8003b06:	68fb      	ldr	r3, [r7, #12]
 8003b08:	6898      	ldr	r0, [r3, #8]
 8003b0a:	6879      	ldr	r1, [r7, #4]
 8003b0c:	683b      	ldr	r3, [r7, #0]
 8003b0e:	693a      	ldr	r2, [r7, #16]
 8003b10:	f000 fb66 	bl	80041e0 <HAL_DMA_Start_IT>
 8003b14:	4603      	mov	r3, r0
 8003b16:	75fb      	strb	r3, [r7, #23]
 8003b18:	e010      	b.n	8003b3c <HAL_DAC_Start_DMA+0x128>
  }
  else
  {
    /* Enable the DAC DMA underrun interrupt */
    __HAL_DAC_ENABLE_IT(hdac, DAC_IT_DMAUDR2);
 8003b1a:	68fb      	ldr	r3, [r7, #12]
 8003b1c:	681b      	ldr	r3, [r3, #0]
 8003b1e:	681a      	ldr	r2, [r3, #0]
 8003b20:	68fb      	ldr	r3, [r7, #12]
 8003b22:	681b      	ldr	r3, [r3, #0]
 8003b24:	f042 5200 	orr.w	r2, r2, #536870912	; 0x20000000
 8003b28:	601a      	str	r2, [r3, #0]

    /* Enable the DMA channel */
    status = HAL_DMA_Start_IT(hdac->DMA_Handle2, (uint32_t)pData, tmpreg, Length);
 8003b2a:	68fb      	ldr	r3, [r7, #12]
 8003b2c:	68d8      	ldr	r0, [r3, #12]
 8003b2e:	6879      	ldr	r1, [r7, #4]
 8003b30:	683b      	ldr	r3, [r7, #0]
 8003b32:	693a      	ldr	r2, [r7, #16]
 8003b34:	f000 fb54 	bl	80041e0 <HAL_DMA_Start_IT>
 8003b38:	4603      	mov	r3, r0
 8003b3a:	75fb      	strb	r3, [r7, #23]
  }

  /* Process Unlocked */
  __HAL_UNLOCK(hdac);
 8003b3c:	68fb      	ldr	r3, [r7, #12]
 8003b3e:	2200      	movs	r2, #0
 8003b40:	715a      	strb	r2, [r3, #5]

  if (status == HAL_OK)
 8003b42:	7dfb      	ldrb	r3, [r7, #23]
 8003b44:	2b00      	cmp	r3, #0
 8003b46:	d10f      	bne.n	8003b68 <HAL_DAC_Start_DMA+0x154>
  {
    /* Enable the Peripheral */
    __HAL_DAC_ENABLE(hdac, Channel);
 8003b48:	68fb      	ldr	r3, [r7, #12]
 8003b4a:	681b      	ldr	r3, [r3, #0]
 8003b4c:	6819      	ldr	r1, [r3, #0]
 8003b4e:	68bb      	ldr	r3, [r7, #8]
 8003b50:	f003 0310 	and.w	r3, r3, #16
 8003b54:	2201      	movs	r2, #1
 8003b56:	409a      	lsls	r2, r3
 8003b58:	68fb      	ldr	r3, [r7, #12]
 8003b5a:	681b      	ldr	r3, [r3, #0]
 8003b5c:	430a      	orrs	r2, r1
 8003b5e:	601a      	str	r2, [r3, #0]
    /* Ensure minimum wait before using peripheral after enabling it */
    HAL_Delay(1);
 8003b60:	2001      	movs	r0, #1
 8003b62:	f7fe fa71 	bl	8002048 <HAL_Delay>
 8003b66:	e005      	b.n	8003b74 <HAL_DAC_Start_DMA+0x160>
  }
  else
  {
    hdac->ErrorCode |= HAL_DAC_ERROR_DMA;
 8003b68:	68fb      	ldr	r3, [r7, #12]
 8003b6a:	691b      	ldr	r3, [r3, #16]
 8003b6c:	f043 0204 	orr.w	r2, r3, #4
 8003b70:	68fb      	ldr	r3, [r7, #12]
 8003b72:	611a      	str	r2, [r3, #16]
  }

  /* Return function status */
  return status;
 8003b74:	7dfb      	ldrb	r3, [r7, #23]
}
 8003b76:	4618      	mov	r0, r3
 8003b78:	3718      	adds	r7, #24
 8003b7a:	46bd      	mov	sp, r7
 8003b7c:	bd80      	pop	{r7, pc}
 8003b7e:	bf00      	nop
 8003b80:	08003f7d 	.word	0x08003f7d
 8003b84:	08003f9f 	.word	0x08003f9f
 8003b88:	08003fbb 	.word	0x08003fbb
 8003b8c:	08004025 	.word	0x08004025
 8003b90:	08004047 	.word	0x08004047
 8003b94:	08004063 	.word	0x08004063

08003b98 <HAL_DAC_SetValue>:
  *            @arg DAC_ALIGN_12B_R: 12bit right data alignment selected
  * @param  Data Data to be loaded in the selected data holding register.
  * @retval HAL status
  */
HAL_StatusTypeDef HAL_DAC_SetValue(DAC_HandleTypeDef *hdac, uint32_t Channel, uint32_t Alignment, uint32_t Data)
{
 8003b98:	b480      	push	{r7}
 8003b9a:	b087      	sub	sp, #28
 8003b9c:	af00      	add	r7, sp, #0
 8003b9e:	60f8      	str	r0, [r7, #12]
 8003ba0:	60b9      	str	r1, [r7, #8]
 8003ba2:	607a      	str	r2, [r7, #4]
 8003ba4:	603b      	str	r3, [r7, #0]
  __IO uint32_t tmp = 0;
 8003ba6:	2300      	movs	r3, #0
 8003ba8:	617b      	str	r3, [r7, #20]

  /* Check the parameters */
  assert_param(IS_DAC_CHANNEL(hdac->Instance, Channel));
  assert_param(IS_DAC_ALIGN(Alignment));
  /* In case DMA Double data mode is activated, DATA range is almost full uin32_t one: no check */
  if ((hdac->Instance->MCR & (DAC_MCR_DMADOUBLE1 << (Channel & 0x10UL))) == 0UL)
 8003baa:	68fb      	ldr	r3, [r7, #12]
 8003bac:	681b      	ldr	r3, [r3, #0]
 8003bae:	6bdb      	ldr	r3, [r3, #60]	; 0x3c
  {
    assert_param(IS_DAC_DATA(Data));
  }

  tmp = (uint32_t)hdac->Instance;
 8003bb0:	68fb      	ldr	r3, [r7, #12]
 8003bb2:	681b      	ldr	r3, [r3, #0]
 8003bb4:	617b      	str	r3, [r7, #20]
  if (Channel == DAC_CHANNEL_1)
 8003bb6:	68bb      	ldr	r3, [r7, #8]
 8003bb8:	2b00      	cmp	r3, #0
 8003bba:	d105      	bne.n	8003bc8 <HAL_DAC_SetValue+0x30>
  {
    tmp += DAC_DHR12R1_ALIGNMENT(Alignment);
 8003bbc:	697a      	ldr	r2, [r7, #20]
 8003bbe:	687b      	ldr	r3, [r7, #4]
 8003bc0:	4413      	add	r3, r2
 8003bc2:	3308      	adds	r3, #8
 8003bc4:	617b      	str	r3, [r7, #20]
 8003bc6:	e004      	b.n	8003bd2 <HAL_DAC_SetValue+0x3a>
  }
  else
  {
    tmp += DAC_DHR12R2_ALIGNMENT(Alignment);
 8003bc8:	697a      	ldr	r2, [r7, #20]
 8003bca:	687b      	ldr	r3, [r7, #4]
 8003bcc:	4413      	add	r3, r2
 8003bce:	3314      	adds	r3, #20
 8003bd0:	617b      	str	r3, [r7, #20]
  }

  /* Set the DAC channel selected data holding register */
  *(__IO uint32_t *) tmp = Data;
 8003bd2:	697b      	ldr	r3, [r7, #20]
 8003bd4:	461a      	mov	r2, r3
 8003bd6:	683b      	ldr	r3, [r7, #0]
 8003bd8:	6013      	str	r3, [r2, #0]

  /* Return function status */
  return HAL_OK;
 8003bda:	2300      	movs	r3, #0
}
 8003bdc:	4618      	mov	r0, r3
 8003bde:	371c      	adds	r7, #28
 8003be0:	46bd      	mov	sp, r7
 8003be2:	f85d 7b04 	ldr.w	r7, [sp], #4
 8003be6:	4770      	bx	lr

08003be8 <HAL_DAC_ConvCpltCallbackCh1>:
  * @param  hdac pointer to a DAC_HandleTypeDef structure that contains
  *         the configuration information for the specified DAC.
  * @retval None
  */
__weak void HAL_DAC_ConvCpltCallbackCh1(DAC_HandleTypeDef *hdac)
{
 8003be8:	b480      	push	{r7}
 8003bea:	b083      	sub	sp, #12
 8003bec:	af00      	add	r7, sp, #0
 8003bee:	6078      	str	r0, [r7, #4]
  UNUSED(hdac);

  /* NOTE : This function should not be modified, when the callback is needed,
            the HAL_DAC_ConvCpltCallbackCh1 could be implemented in the user file
   */
}
 8003bf0:	bf00      	nop
 8003bf2:	370c      	adds	r7, #12
 8003bf4:	46bd      	mov	sp, r7
 8003bf6:	f85d 7b04 	ldr.w	r7, [sp], #4
 8003bfa:	4770      	bx	lr

08003bfc <HAL_DAC_ConvHalfCpltCallbackCh1>:
  * @param  hdac pointer to a DAC_HandleTypeDef structure that contains
  *         the configuration information for the specified DAC.
  * @retval None
  */
__weak void HAL_DAC_ConvHalfCpltCallbackCh1(DAC_HandleTypeDef *hdac)
{
 8003bfc:	b480      	push	{r7}
 8003bfe:	b083      	sub	sp, #12
 8003c00:	af00      	add	r7, sp, #0
 8003c02:	6078      	str	r0, [r7, #4]
  UNUSED(hdac);

  /* NOTE : This function should not be modified, when the callback is needed,
            the HAL_DAC_ConvHalfCpltCallbackCh1 could be implemented in the user file
   */
}
 8003c04:	bf00      	nop
 8003c06:	370c      	adds	r7, #12
 8003c08:	46bd      	mov	sp, r7
 8003c0a:	f85d 7b04 	ldr.w	r7, [sp], #4
 8003c0e:	4770      	bx	lr

08003c10 <HAL_DAC_ErrorCallbackCh1>:
  * @param  hdac pointer to a DAC_HandleTypeDef structure that contains
  *         the configuration information for the specified DAC.
  * @retval None
  */
__weak void HAL_DAC_ErrorCallbackCh1(DAC_HandleTypeDef *hdac)
{
 8003c10:	b480      	push	{r7}
 8003c12:	b083      	sub	sp, #12
 8003c14:	af00      	add	r7, sp, #0
 8003c16:	6078      	str	r0, [r7, #4]
  UNUSED(hdac);

  /* NOTE : This function should not be modified, when the callback is needed,
            the HAL_DAC_ErrorCallbackCh1 could be implemented in the user file
   */
}
 8003c18:	bf00      	nop
 8003c1a:	370c      	adds	r7, #12
 8003c1c:	46bd      	mov	sp, r7
 8003c1e:	f85d 7b04 	ldr.w	r7, [sp], #4
 8003c22:	4770      	bx	lr

08003c24 <HAL_DAC_ConfigChannel>:
  *         (1) On this STM32 serie, parameter not available on all instances.
  *             Refer to device datasheet for channels availability.
  * @retval HAL status
  */
HAL_StatusTypeDef HAL_DAC_ConfigChannel(DAC_HandleTypeDef *hdac, DAC_ChannelConfTypeDef *sConfig, uint32_t Channel)
{
 8003c24:	b580      	push	{r7, lr}
 8003c26:	b08a      	sub	sp, #40	; 0x28
 8003c28:	af00      	add	r7, sp, #0
 8003c2a:	60f8      	str	r0, [r7, #12]
 8003c2c:	60b9      	str	r1, [r7, #8]
 8003c2e:	607a      	str	r2, [r7, #4]
  uint32_t tmpreg1;
  uint32_t tmpreg2;
  uint32_t tickstart = 0U;
 8003c30:	2300      	movs	r3, #0
 8003c32:	61fb      	str	r3, [r7, #28]
  assert_param(IS_DAC_CHANNEL(hdac->Instance, Channel));
  assert_param(IS_FUNCTIONAL_STATE(sConfig->DAC_DMADoubleDataMode));
  assert_param(IS_FUNCTIONAL_STATE(sConfig->DAC_SignedFormat));

  /* Process locked */
  __HAL_LOCK(hdac);
 8003c34:	68fb      	ldr	r3, [r7, #12]
 8003c36:	795b      	ldrb	r3, [r3, #5]
 8003c38:	2b01      	cmp	r3, #1
 8003c3a:	d101      	bne.n	8003c40 <HAL_DAC_ConfigChannel+0x1c>
 8003c3c:	2302      	movs	r3, #2
 8003c3e:	e194      	b.n	8003f6a <HAL_DAC_ConfigChannel+0x346>
 8003c40:	68fb      	ldr	r3, [r7, #12]
 8003c42:	2201      	movs	r2, #1
 8003c44:	715a      	strb	r2, [r3, #5]

  /* Change DAC state */
  hdac->State = HAL_DAC_STATE_BUSY;
 8003c46:	68fb      	ldr	r3, [r7, #12]
 8003c48:	2202      	movs	r2, #2
 8003c4a:	711a      	strb	r2, [r3, #4]

  if (sConfig->DAC_SampleAndHold == DAC_SAMPLEANDHOLD_ENABLE)
 8003c4c:	68bb      	ldr	r3, [r7, #8]
 8003c4e:	689b      	ldr	r3, [r3, #8]
 8003c50:	2b04      	cmp	r3, #4
 8003c52:	d174      	bne.n	8003d3e <HAL_DAC_ConfigChannel+0x11a>
    /* Sample on old configuration */
  {
    /* SampleTime */
    if (Channel == DAC_CHANNEL_1)
 8003c54:	687b      	ldr	r3, [r7, #4]
 8003c56:	2b00      	cmp	r3, #0
 8003c58:	d137      	bne.n	8003cca <HAL_DAC_ConfigChannel+0xa6>
    {
      /* Get timeout */
      tickstart = HAL_GetTick();
 8003c5a:	f7fe f9e9 	bl	8002030 <HAL_GetTick>
 8003c5e:	61f8      	str	r0, [r7, #28]

      /* SHSR1 can be written when BWST1 is cleared */
      while (((hdac->Instance->SR) & DAC_SR_BWST1) != 0UL)
 8003c60:	e011      	b.n	8003c86 <HAL_DAC_ConfigChannel+0x62>
      {
        /* Check for the Timeout */
        if ((HAL_GetTick() - tickstart) > TIMEOUT_DAC_CALIBCONFIG)
 8003c62:	f7fe f9e5 	bl	8002030 <HAL_GetTick>
 8003c66:	4602      	mov	r2, r0
 8003c68:	69fb      	ldr	r3, [r7, #28]
 8003c6a:	1ad3      	subs	r3, r2, r3
 8003c6c:	2b01      	cmp	r3, #1
 8003c6e:	d90a      	bls.n	8003c86 <HAL_DAC_ConfigChannel+0x62>
        {
          /* Update error code */
          SET_BIT(hdac->ErrorCode, HAL_DAC_ERROR_TIMEOUT);
 8003c70:	68fb      	ldr	r3, [r7, #12]
 8003c72:	691b      	ldr	r3, [r3, #16]
 8003c74:	f043 0208 	orr.w	r2, r3, #8
 8003c78:	68fb      	ldr	r3, [r7, #12]
 8003c7a:	611a      	str	r2, [r3, #16]

          /* Change the DMA state */
          hdac->State = HAL_DAC_STATE_TIMEOUT;
 8003c7c:	68fb      	ldr	r3, [r7, #12]
 8003c7e:	2203      	movs	r2, #3
 8003c80:	711a      	strb	r2, [r3, #4]

          return HAL_TIMEOUT;
 8003c82:	2303      	movs	r3, #3
 8003c84:	e171      	b.n	8003f6a <HAL_DAC_ConfigChannel+0x346>
      while (((hdac->Instance->SR) & DAC_SR_BWST1) != 0UL)
 8003c86:	68fb      	ldr	r3, [r7, #12]
 8003c88:	681b      	ldr	r3, [r3, #0]
 8003c8a:	6b5b      	ldr	r3, [r3, #52]	; 0x34
 8003c8c:	f403 4300 	and.w	r3, r3, #32768	; 0x8000
 8003c90:	2b00      	cmp	r3, #0
 8003c92:	d1e6      	bne.n	8003c62 <HAL_DAC_ConfigChannel+0x3e>
        }
      }
      HAL_Delay(1);
 8003c94:	2001      	movs	r0, #1
 8003c96:	f7fe f9d7 	bl	8002048 <HAL_Delay>
      hdac->Instance->SHSR1 = sConfig->DAC_SampleAndHoldConfig.DAC_SampleTime;
 8003c9a:	68fb      	ldr	r3, [r7, #12]
 8003c9c:	681b      	ldr	r3, [r3, #0]
 8003c9e:	68ba      	ldr	r2, [r7, #8]
 8003ca0:	6a52      	ldr	r2, [r2, #36]	; 0x24
 8003ca2:	641a      	str	r2, [r3, #64]	; 0x40
 8003ca4:	e01e      	b.n	8003ce4 <HAL_DAC_ConfigChannel+0xc0>
      /* SHSR2 can be written when BWST2 is cleared */

      while (((hdac->Instance->SR) & DAC_SR_BWST2) != 0UL)
      {
        /* Check for the Timeout */
        if ((HAL_GetTick() - tickstart) > TIMEOUT_DAC_CALIBCONFIG)
 8003ca6:	f7fe f9c3 	bl	8002030 <HAL_GetTick>
 8003caa:	4602      	mov	r2, r0
 8003cac:	69fb      	ldr	r3, [r7, #28]
 8003cae:	1ad3      	subs	r3, r2, r3
 8003cb0:	2b01      	cmp	r3, #1
 8003cb2:	d90a      	bls.n	8003cca <HAL_DAC_ConfigChannel+0xa6>
        {
          /* Update error code */
          SET_BIT(hdac->ErrorCode, HAL_DAC_ERROR_TIMEOUT);
 8003cb4:	68fb      	ldr	r3, [r7, #12]
 8003cb6:	691b      	ldr	r3, [r3, #16]
 8003cb8:	f043 0208 	orr.w	r2, r3, #8
 8003cbc:	68fb      	ldr	r3, [r7, #12]
 8003cbe:	611a      	str	r2, [r3, #16]

          /* Change the DMA state */
          hdac->State = HAL_DAC_STATE_TIMEOUT;
 8003cc0:	68fb      	ldr	r3, [r7, #12]
 8003cc2:	2203      	movs	r2, #3
 8003cc4:	711a      	strb	r2, [r3, #4]

          return HAL_TIMEOUT;
 8003cc6:	2303      	movs	r3, #3
 8003cc8:	e14f      	b.n	8003f6a <HAL_DAC_ConfigChannel+0x346>
      while (((hdac->Instance->SR) & DAC_SR_BWST2) != 0UL)
 8003cca:	68fb      	ldr	r3, [r7, #12]
 8003ccc:	681b      	ldr	r3, [r3, #0]
 8003cce:	6b5b      	ldr	r3, [r3, #52]	; 0x34
 8003cd0:	2b00      	cmp	r3, #0
 8003cd2:	dbe8      	blt.n	8003ca6 <HAL_DAC_ConfigChannel+0x82>
        }
      }
      HAL_Delay(1U);
 8003cd4:	2001      	movs	r0, #1
 8003cd6:	f7fe f9b7 	bl	8002048 <HAL_Delay>
      hdac->Instance->SHSR2 = sConfig->DAC_SampleAndHoldConfig.DAC_SampleTime;
 8003cda:	68fb      	ldr	r3, [r7, #12]
 8003cdc:	681b      	ldr	r3, [r3, #0]
 8003cde:	68ba      	ldr	r2, [r7, #8]
 8003ce0:	6a52      	ldr	r2, [r2, #36]	; 0x24
 8003ce2:	645a      	str	r2, [r3, #68]	; 0x44
    }

    /* HoldTime */
    MODIFY_REG(hdac->Instance->SHHR, DAC_SHHR_THOLD1 << (Channel & 0x10UL), (sConfig->DAC_SampleAndHoldConfig.DAC_HoldTime) << (Channel & 0x10UL));
 8003ce4:	68fb      	ldr	r3, [r7, #12]
 8003ce6:	681b      	ldr	r3, [r3, #0]
 8003ce8:	6c9a      	ldr	r2, [r3, #72]	; 0x48
 8003cea:	687b      	ldr	r3, [r7, #4]
 8003cec:	f003 0310 	and.w	r3, r3, #16
 8003cf0:	f240 31ff 	movw	r1, #1023	; 0x3ff
 8003cf4:	fa01 f303 	lsl.w	r3, r1, r3
 8003cf8:	43db      	mvns	r3, r3
 8003cfa:	ea02 0103 	and.w	r1, r2, r3
 8003cfe:	68bb      	ldr	r3, [r7, #8]
 8003d00:	6a9a      	ldr	r2, [r3, #40]	; 0x28
 8003d02:	687b      	ldr	r3, [r7, #4]
 8003d04:	f003 0310 	and.w	r3, r3, #16
 8003d08:	409a      	lsls	r2, r3
 8003d0a:	68fb      	ldr	r3, [r7, #12]
 8003d0c:	681b      	ldr	r3, [r3, #0]
 8003d0e:	430a      	orrs	r2, r1
 8003d10:	649a      	str	r2, [r3, #72]	; 0x48
    /* RefreshTime */
    MODIFY_REG(hdac->Instance->SHRR, DAC_SHRR_TREFRESH1 << (Channel & 0x10UL), (sConfig->DAC_SampleAndHoldConfig.DAC_RefreshTime) << (Channel & 0x10UL));
 8003d12:	68fb      	ldr	r3, [r7, #12]
 8003d14:	681b      	ldr	r3, [r3, #0]
 8003d16:	6cda      	ldr	r2, [r3, #76]	; 0x4c
 8003d18:	687b      	ldr	r3, [r7, #4]
 8003d1a:	f003 0310 	and.w	r3, r3, #16
 8003d1e:	21ff      	movs	r1, #255	; 0xff
 8003d20:	fa01 f303 	lsl.w	r3, r1, r3
 8003d24:	43db      	mvns	r3, r3
 8003d26:	ea02 0103 	and.w	r1, r2, r3
 8003d2a:	68bb      	ldr	r3, [r7, #8]
 8003d2c:	6ada      	ldr	r2, [r3, #44]	; 0x2c
 8003d2e:	687b      	ldr	r3, [r7, #4]
 8003d30:	f003 0310 	and.w	r3, r3, #16
 8003d34:	409a      	lsls	r2, r3
 8003d36:	68fb      	ldr	r3, [r7, #12]
 8003d38:	681b      	ldr	r3, [r3, #0]
 8003d3a:	430a      	orrs	r2, r1
 8003d3c:	64da      	str	r2, [r3, #76]	; 0x4c
  }

  if (sConfig->DAC_UserTrimming == DAC_TRIMMING_USER)
 8003d3e:	68bb      	ldr	r3, [r7, #8]
 8003d40:	69db      	ldr	r3, [r3, #28]
 8003d42:	2b01      	cmp	r3, #1
 8003d44:	d11d      	bne.n	8003d82 <HAL_DAC_ConfigChannel+0x15e>
    /* USER TRIMMING */
  {
    /* Get the DAC CCR value */
    tmpreg1 = hdac->Instance->CCR;
 8003d46:	68fb      	ldr	r3, [r7, #12]
 8003d48:	681b      	ldr	r3, [r3, #0]
 8003d4a:	6b9b      	ldr	r3, [r3, #56]	; 0x38
 8003d4c:	627b      	str	r3, [r7, #36]	; 0x24
    /* Clear trimming value */
    tmpreg1 &= ~(((uint32_t)(DAC_CCR_OTRIM1)) << (Channel & 0x10UL));
 8003d4e:	687b      	ldr	r3, [r7, #4]
 8003d50:	f003 0310 	and.w	r3, r3, #16
 8003d54:	221f      	movs	r2, #31
 8003d56:	fa02 f303 	lsl.w	r3, r2, r3
 8003d5a:	43db      	mvns	r3, r3
 8003d5c:	6a7a      	ldr	r2, [r7, #36]	; 0x24
 8003d5e:	4013      	ands	r3, r2
 8003d60:	627b      	str	r3, [r7, #36]	; 0x24
    /* Configure for the selected trimming offset */
    tmpreg2 = sConfig->DAC_TrimmingValue;
 8003d62:	68bb      	ldr	r3, [r7, #8]
 8003d64:	6a1b      	ldr	r3, [r3, #32]
 8003d66:	61bb      	str	r3, [r7, #24]
    /* Calculate CCR register value depending on DAC_Channel */
    tmpreg1 |= tmpreg2 << (Channel & 0x10UL);
 8003d68:	687b      	ldr	r3, [r7, #4]
 8003d6a:	f003 0310 	and.w	r3, r3, #16
 8003d6e:	69ba      	ldr	r2, [r7, #24]
 8003d70:	fa02 f303 	lsl.w	r3, r2, r3
 8003d74:	6a7a      	ldr	r2, [r7, #36]	; 0x24
 8003d76:	4313      	orrs	r3, r2
 8003d78:	627b      	str	r3, [r7, #36]	; 0x24
    /* Write to DAC CCR */
    hdac->Instance->CCR = tmpreg1;
 8003d7a:	68fb      	ldr	r3, [r7, #12]
 8003d7c:	681b      	ldr	r3, [r3, #0]
 8003d7e:	6a7a      	ldr	r2, [r7, #36]	; 0x24
 8003d80:	639a      	str	r2, [r3, #56]	; 0x38
  }
  /* else factory trimming is used (factory setting are available at reset)*/
  /* SW Nothing has nothing to do */

  /* Get the DAC MCR value */
  tmpreg1 = hdac->Instance->MCR;
 8003d82:	68fb      	ldr	r3, [r7, #12]
 8003d84:	681b      	ldr	r3, [r3, #0]
 8003d86:	6bdb      	ldr	r3, [r3, #60]	; 0x3c
 8003d88:	627b      	str	r3, [r7, #36]	; 0x24
  /* Clear DAC_MCR_MODEx bits */
  tmpreg1 &= ~(((uint32_t)(DAC_MCR_MODE1)) << (Channel & 0x10UL));
 8003d8a:	687b      	ldr	r3, [r7, #4]
 8003d8c:	f003 0310 	and.w	r3, r3, #16
 8003d90:	2207      	movs	r2, #7
 8003d92:	fa02 f303 	lsl.w	r3, r2, r3
 8003d96:	43db      	mvns	r3, r3
 8003d98:	6a7a      	ldr	r2, [r7, #36]	; 0x24
 8003d9a:	4013      	ands	r3, r2
 8003d9c:	627b      	str	r3, [r7, #36]	; 0x24
  /* Configure for the selected DAC channel: mode, buffer output & on chip peripheral connect */
  if ((sConfig->DAC_ConnectOnChipPeripheral & DAC_CHIPCONNECT_EXTERNAL) == DAC_CHIPCONNECT_EXTERNAL)
 8003d9e:	68bb      	ldr	r3, [r7, #8]
 8003da0:	699b      	ldr	r3, [r3, #24]
 8003da2:	f003 0301 	and.w	r3, r3, #1
 8003da6:	2b00      	cmp	r3, #0
 8003da8:	d002      	beq.n	8003db0 <HAL_DAC_ConfigChannel+0x18c>
  {
    connectOnChip = 0x00000000UL;
 8003daa:	2300      	movs	r3, #0
 8003dac:	623b      	str	r3, [r7, #32]
 8003dae:	e011      	b.n	8003dd4 <HAL_DAC_ConfigChannel+0x1b0>
  }
  else if ((sConfig->DAC_ConnectOnChipPeripheral & DAC_CHIPCONNECT_INTERNAL) == DAC_CHIPCONNECT_INTERNAL)
 8003db0:	68bb      	ldr	r3, [r7, #8]
 8003db2:	699b      	ldr	r3, [r3, #24]
 8003db4:	f003 0302 	and.w	r3, r3, #2
 8003db8:	2b00      	cmp	r3, #0
 8003dba:	d002      	beq.n	8003dc2 <HAL_DAC_ConfigChannel+0x19e>
  {
    connectOnChip = DAC_MCR_MODE1_0;
 8003dbc:	2301      	movs	r3, #1
 8003dbe:	623b      	str	r3, [r7, #32]
 8003dc0:	e008      	b.n	8003dd4 <HAL_DAC_ConfigChannel+0x1b0>
  }
  else /* (sConfig->DAC_ConnectOnChipPeripheral & DAC_CHIPCONNECT_BOTH) == DAC_CHIPCONNECT_BOTH */
  {
    if (sConfig->DAC_OutputBuffer == DAC_OUTPUTBUFFER_ENABLE)
 8003dc2:	68bb      	ldr	r3, [r7, #8]
 8003dc4:	695b      	ldr	r3, [r3, #20]
 8003dc6:	2b00      	cmp	r3, #0
 8003dc8:	d102      	bne.n	8003dd0 <HAL_DAC_ConfigChannel+0x1ac>
    {
      connectOnChip = DAC_MCR_MODE1_0;
 8003dca:	2301      	movs	r3, #1
 8003dcc:	623b      	str	r3, [r7, #32]
 8003dce:	e001      	b.n	8003dd4 <HAL_DAC_ConfigChannel+0x1b0>
    }
    else
    {
      connectOnChip = 0x00000000UL;
 8003dd0:	2300      	movs	r3, #0
 8003dd2:	623b      	str	r3, [r7, #32]
    }
  }
  tmpreg2 = (sConfig->DAC_SampleAndHold | sConfig->DAC_OutputBuffer | connectOnChip);
 8003dd4:	68bb      	ldr	r3, [r7, #8]
 8003dd6:	689a      	ldr	r2, [r3, #8]
 8003dd8:	68bb      	ldr	r3, [r7, #8]
 8003dda:	695b      	ldr	r3, [r3, #20]
 8003ddc:	4313      	orrs	r3, r2
 8003dde:	6a3a      	ldr	r2, [r7, #32]
 8003de0:	4313      	orrs	r3, r2
 8003de2:	61bb      	str	r3, [r7, #24]
  /* Clear DAC_MCR_DMADOUBLEx */
  tmpreg1 &= ~(((uint32_t)(DAC_MCR_DMADOUBLE1)) << (Channel & 0x10UL));
 8003de4:	687b      	ldr	r3, [r7, #4]
 8003de6:	f003 0310 	and.w	r3, r3, #16
 8003dea:	f44f 7280 	mov.w	r2, #256	; 0x100
 8003dee:	fa02 f303 	lsl.w	r3, r2, r3
 8003df2:	43db      	mvns	r3, r3
 8003df4:	6a7a      	ldr	r2, [r7, #36]	; 0x24
 8003df6:	4013      	ands	r3, r2
 8003df8:	627b      	str	r3, [r7, #36]	; 0x24
  /* Configure for the selected DAC channel: DMA double data mode */
  tmpreg2 |= (sConfig->DAC_DMADoubleDataMode == ENABLE) ? DAC_MCR_DMADOUBLE1 : 0UL;
 8003dfa:	68bb      	ldr	r3, [r7, #8]
 8003dfc:	791b      	ldrb	r3, [r3, #4]
 8003dfe:	2b01      	cmp	r3, #1
 8003e00:	d102      	bne.n	8003e08 <HAL_DAC_ConfigChannel+0x1e4>
 8003e02:	f44f 7380 	mov.w	r3, #256	; 0x100
 8003e06:	e000      	b.n	8003e0a <HAL_DAC_ConfigChannel+0x1e6>
 8003e08:	2300      	movs	r3, #0
 8003e0a:	69ba      	ldr	r2, [r7, #24]
 8003e0c:	4313      	orrs	r3, r2
 8003e0e:	61bb      	str	r3, [r7, #24]
  /* Clear DAC_MCR_SINFORMATx */
  tmpreg1 &= ~(((uint32_t)(DAC_MCR_SINFORMAT1)) << (Channel & 0x10UL));
 8003e10:	687b      	ldr	r3, [r7, #4]
 8003e12:	f003 0310 	and.w	r3, r3, #16
 8003e16:	f44f 7200 	mov.w	r2, #512	; 0x200
 8003e1a:	fa02 f303 	lsl.w	r3, r2, r3
 8003e1e:	43db      	mvns	r3, r3
 8003e20:	6a7a      	ldr	r2, [r7, #36]	; 0x24
 8003e22:	4013      	ands	r3, r2
 8003e24:	627b      	str	r3, [r7, #36]	; 0x24
  /* Configure for the selected DAC channel: Signed format */
  tmpreg2 |= (sConfig->DAC_SignedFormat == ENABLE) ? DAC_MCR_SINFORMAT1 : 0UL;
 8003e26:	68bb      	ldr	r3, [r7, #8]
 8003e28:	795b      	ldrb	r3, [r3, #5]
 8003e2a:	2b01      	cmp	r3, #1
 8003e2c:	d102      	bne.n	8003e34 <HAL_DAC_ConfigChannel+0x210>
 8003e2e:	f44f 7300 	mov.w	r3, #512	; 0x200
 8003e32:	e000      	b.n	8003e36 <HAL_DAC_ConfigChannel+0x212>
 8003e34:	2300      	movs	r3, #0
 8003e36:	69ba      	ldr	r2, [r7, #24]
 8003e38:	4313      	orrs	r3, r2
 8003e3a:	61bb      	str	r3, [r7, #24]
  /* Clear DAC_MCR_HFSEL bits */
  tmpreg1 &= ~(DAC_MCR_HFSEL);
 8003e3c:	6a7b      	ldr	r3, [r7, #36]	; 0x24
 8003e3e:	f423 4340 	bic.w	r3, r3, #49152	; 0xc000
 8003e42:	627b      	str	r3, [r7, #36]	; 0x24
  /* Configure for both DAC channels: high frequency mode */
  if (DAC_HIGH_FREQUENCY_INTERFACE_MODE_AUTOMATIC == sConfig->DAC_HighFrequency)
 8003e44:	68bb      	ldr	r3, [r7, #8]
 8003e46:	681b      	ldr	r3, [r3, #0]
 8003e48:	2b02      	cmp	r3, #2
 8003e4a:	d114      	bne.n	8003e76 <HAL_DAC_ConfigChannel+0x252>
  {
    hclkfreq = HAL_RCC_GetHCLKFreq();
 8003e4c:	f001 fa9e 	bl	800538c <HAL_RCC_GetHCLKFreq>
 8003e50:	6178      	str	r0, [r7, #20]
    if (hclkfreq > HFSEL_ENABLE_THRESHOLD_160MHZ)
 8003e52:	697b      	ldr	r3, [r7, #20]
 8003e54:	4a47      	ldr	r2, [pc, #284]	; (8003f74 <HAL_DAC_ConfigChannel+0x350>)
 8003e56:	4293      	cmp	r3, r2
 8003e58:	d904      	bls.n	8003e64 <HAL_DAC_ConfigChannel+0x240>
    {
      tmpreg1 |= DAC_HIGH_FREQUENCY_INTERFACE_MODE_ABOVE_160MHZ;
 8003e5a:	6a7b      	ldr	r3, [r7, #36]	; 0x24
 8003e5c:	f443 4300 	orr.w	r3, r3, #32768	; 0x8000
 8003e60:	627b      	str	r3, [r7, #36]	; 0x24
 8003e62:	e00d      	b.n	8003e80 <HAL_DAC_ConfigChannel+0x25c>
    }
    else if (hclkfreq > HFSEL_ENABLE_THRESHOLD_80MHZ)
 8003e64:	697b      	ldr	r3, [r7, #20]
 8003e66:	4a44      	ldr	r2, [pc, #272]	; (8003f78 <HAL_DAC_ConfigChannel+0x354>)
 8003e68:	4293      	cmp	r3, r2
 8003e6a:	d909      	bls.n	8003e80 <HAL_DAC_ConfigChannel+0x25c>
    {
      tmpreg1 |= DAC_HIGH_FREQUENCY_INTERFACE_MODE_ABOVE_80MHZ;
 8003e6c:	6a7b      	ldr	r3, [r7, #36]	; 0x24
 8003e6e:	f443 4380 	orr.w	r3, r3, #16384	; 0x4000
 8003e72:	627b      	str	r3, [r7, #36]	; 0x24
 8003e74:	e004      	b.n	8003e80 <HAL_DAC_ConfigChannel+0x25c>
      tmpreg1 |= DAC_HIGH_FREQUENCY_INTERFACE_MODE_DISABLE;
    }
  }
  else
  {
    tmpreg1 |= sConfig->DAC_HighFrequency;
 8003e76:	68bb      	ldr	r3, [r7, #8]
 8003e78:	681b      	ldr	r3, [r3, #0]
 8003e7a:	6a7a      	ldr	r2, [r7, #36]	; 0x24
 8003e7c:	4313      	orrs	r3, r2
 8003e7e:	627b      	str	r3, [r7, #36]	; 0x24
  }
  /* Calculate MCR register value depending on DAC_Channel */
  tmpreg1 |= tmpreg2 << (Channel & 0x10UL);
 8003e80:	687b      	ldr	r3, [r7, #4]
 8003e82:	f003 0310 	and.w	r3, r3, #16
 8003e86:	69ba      	ldr	r2, [r7, #24]
 8003e88:	fa02 f303 	lsl.w	r3, r2, r3
 8003e8c:	6a7a      	ldr	r2, [r7, #36]	; 0x24
 8003e8e:	4313      	orrs	r3, r2
 8003e90:	627b      	str	r3, [r7, #36]	; 0x24
  /* Write to DAC MCR */
  hdac->Instance->MCR = tmpreg1;
 8003e92:	68fb      	ldr	r3, [r7, #12]
 8003e94:	681b      	ldr	r3, [r3, #0]
 8003e96:	6a7a      	ldr	r2, [r7, #36]	; 0x24
 8003e98:	63da      	str	r2, [r3, #60]	; 0x3c

  /* DAC in normal operating mode hence clear DAC_CR_CENx bit */
  CLEAR_BIT(hdac->Instance->CR, DAC_CR_CEN1 << (Channel & 0x10UL));
 8003e9a:	68fb      	ldr	r3, [r7, #12]
 8003e9c:	681b      	ldr	r3, [r3, #0]
 8003e9e:	6819      	ldr	r1, [r3, #0]
 8003ea0:	687b      	ldr	r3, [r7, #4]
 8003ea2:	f003 0310 	and.w	r3, r3, #16
 8003ea6:	f44f 4280 	mov.w	r2, #16384	; 0x4000
 8003eaa:	fa02 f303 	lsl.w	r3, r2, r3
 8003eae:	43da      	mvns	r2, r3
 8003eb0:	68fb      	ldr	r3, [r7, #12]
 8003eb2:	681b      	ldr	r3, [r3, #0]
 8003eb4:	400a      	ands	r2, r1
 8003eb6:	601a      	str	r2, [r3, #0]

  /* Get the DAC CR value */
  tmpreg1 = hdac->Instance->CR;
 8003eb8:	68fb      	ldr	r3, [r7, #12]
 8003eba:	681b      	ldr	r3, [r3, #0]
 8003ebc:	681b      	ldr	r3, [r3, #0]
 8003ebe:	627b      	str	r3, [r7, #36]	; 0x24
  /* Clear TENx, TSELx, WAVEx and MAMPx bits */
  tmpreg1 &= ~(((uint32_t)(DAC_CR_MAMP1 | DAC_CR_WAVE1 | DAC_CR_TSEL1 | DAC_CR_TEN1)) << (Channel & 0x10UL));
 8003ec0:	687b      	ldr	r3, [r7, #4]
 8003ec2:	f003 0310 	and.w	r3, r3, #16
 8003ec6:	f640 72fe 	movw	r2, #4094	; 0xffe
 8003eca:	fa02 f303 	lsl.w	r3, r2, r3
 8003ece:	43db      	mvns	r3, r3
 8003ed0:	6a7a      	ldr	r2, [r7, #36]	; 0x24
 8003ed2:	4013      	ands	r3, r2
 8003ed4:	627b      	str	r3, [r7, #36]	; 0x24
  /* Configure for the selected DAC channel: trigger */
  /* Set TSELx and TENx bits according to DAC_Trigger value */
  tmpreg2 = sConfig->DAC_Trigger;
 8003ed6:	68bb      	ldr	r3, [r7, #8]
 8003ed8:	68db      	ldr	r3, [r3, #12]
 8003eda:	61bb      	str	r3, [r7, #24]
  /* Calculate CR register value depending on DAC_Channel */
  tmpreg1 |= tmpreg2 << (Channel & 0x10UL);
 8003edc:	687b      	ldr	r3, [r7, #4]
 8003ede:	f003 0310 	and.w	r3, r3, #16
 8003ee2:	69ba      	ldr	r2, [r7, #24]
 8003ee4:	fa02 f303 	lsl.w	r3, r2, r3
 8003ee8:	6a7a      	ldr	r2, [r7, #36]	; 0x24
 8003eea:	4313      	orrs	r3, r2
 8003eec:	627b      	str	r3, [r7, #36]	; 0x24
  /* Write to DAC CR */
  hdac->Instance->CR = tmpreg1;
 8003eee:	68fb      	ldr	r3, [r7, #12]
 8003ef0:	681b      	ldr	r3, [r3, #0]
 8003ef2:	6a7a      	ldr	r2, [r7, #36]	; 0x24
 8003ef4:	601a      	str	r2, [r3, #0]
  /* Disable wave generation */
  hdac->Instance->CR &= ~(DAC_CR_WAVE1 << (Channel & 0x10UL));
 8003ef6:	68fb      	ldr	r3, [r7, #12]
 8003ef8:	681b      	ldr	r3, [r3, #0]
 8003efa:	6819      	ldr	r1, [r3, #0]
 8003efc:	687b      	ldr	r3, [r7, #4]
 8003efe:	f003 0310 	and.w	r3, r3, #16
 8003f02:	22c0      	movs	r2, #192	; 0xc0
 8003f04:	fa02 f303 	lsl.w	r3, r2, r3
 8003f08:	43da      	mvns	r2, r3
 8003f0a:	68fb      	ldr	r3, [r7, #12]
 8003f0c:	681b      	ldr	r3, [r3, #0]
 8003f0e:	400a      	ands	r2, r1
 8003f10:	601a      	str	r2, [r3, #0]

  /* Set STRSTTRIGSELx and STINCTRIGSELx bits according to DAC_Trigger & DAC_Trigger2 values */
  tmpreg2 = ((sConfig->DAC_Trigger & DAC_CR_TSEL1) >> DAC_CR_TSEL1_Pos) << DAC_STMODR_STRSTTRIGSEL1_Pos;
 8003f12:	68bb      	ldr	r3, [r7, #8]
 8003f14:	68db      	ldr	r3, [r3, #12]
 8003f16:	089b      	lsrs	r3, r3, #2
 8003f18:	f003 030f 	and.w	r3, r3, #15
 8003f1c:	61bb      	str	r3, [r7, #24]
  tmpreg2 |= ((sConfig->DAC_Trigger2 & DAC_CR_TSEL1) >> DAC_CR_TSEL1_Pos) << DAC_STMODR_STINCTRIGSEL1_Pos;
 8003f1e:	68bb      	ldr	r3, [r7, #8]
 8003f20:	691b      	ldr	r3, [r3, #16]
 8003f22:	089b      	lsrs	r3, r3, #2
 8003f24:	021b      	lsls	r3, r3, #8
 8003f26:	f403 6370 	and.w	r3, r3, #3840	; 0xf00
 8003f2a:	69ba      	ldr	r2, [r7, #24]
 8003f2c:	4313      	orrs	r3, r2
 8003f2e:	61bb      	str	r3, [r7, #24]
  /* Modify STMODR register value depending on DAC_Channel */
  MODIFY_REG(hdac->Instance->STMODR, (DAC_STMODR_STINCTRIGSEL1 | DAC_STMODR_STRSTTRIGSEL1) << (Channel & 0x10UL), tmpreg2 << (Channel & 0x10UL));
 8003f30:	68fb      	ldr	r3, [r7, #12]
 8003f32:	681b      	ldr	r3, [r3, #0]
 8003f34:	6e1a      	ldr	r2, [r3, #96]	; 0x60
 8003f36:	687b      	ldr	r3, [r7, #4]
 8003f38:	f003 0310 	and.w	r3, r3, #16
 8003f3c:	f640 710f 	movw	r1, #3855	; 0xf0f
 8003f40:	fa01 f303 	lsl.w	r3, r1, r3
 8003f44:	43db      	mvns	r3, r3
 8003f46:	ea02 0103 	and.w	r1, r2, r3
 8003f4a:	687b      	ldr	r3, [r7, #4]
 8003f4c:	f003 0310 	and.w	r3, r3, #16
 8003f50:	69ba      	ldr	r2, [r7, #24]
 8003f52:	409a      	lsls	r2, r3
 8003f54:	68fb      	ldr	r3, [r7, #12]
 8003f56:	681b      	ldr	r3, [r3, #0]
 8003f58:	430a      	orrs	r2, r1
 8003f5a:	661a      	str	r2, [r3, #96]	; 0x60
  /* Change DAC state */
  hdac->State = HAL_DAC_STATE_READY;
 8003f5c:	68fb      	ldr	r3, [r7, #12]
 8003f5e:	2201      	movs	r2, #1
 8003f60:	711a      	strb	r2, [r3, #4]

  /* Process unlocked */
  __HAL_UNLOCK(hdac);
 8003f62:	68fb      	ldr	r3, [r7, #12]
 8003f64:	2200      	movs	r2, #0
 8003f66:	715a      	strb	r2, [r3, #5]

  /* Return function status */
  return HAL_OK;
 8003f68:	2300      	movs	r3, #0
}
 8003f6a:	4618      	mov	r0, r3
 8003f6c:	3728      	adds	r7, #40	; 0x28
 8003f6e:	46bd      	mov	sp, r7
 8003f70:	bd80      	pop	{r7, pc}
 8003f72:	bf00      	nop
 8003f74:	09896800 	.word	0x09896800
 8003f78:	04c4b400 	.word	0x04c4b400

08003f7c <DAC_DMAConvCpltCh1>:
  * @param  hdma pointer to a DMA_HandleTypeDef structure that contains
  *                the configuration information for the specified DMA module.
  * @retval None
  */
void DAC_DMAConvCpltCh1(DMA_HandleTypeDef *hdma)
{
 8003f7c:	b580      	push	{r7, lr}
 8003f7e:	b084      	sub	sp, #16
 8003f80:	af00      	add	r7, sp, #0
 8003f82:	6078      	str	r0, [r7, #4]
  DAC_HandleTypeDef *hdac = (DAC_HandleTypeDef *)((DMA_HandleTypeDef *)hdma)->Parent;
 8003f84:	687b      	ldr	r3, [r7, #4]
 8003f86:	6a9b      	ldr	r3, [r3, #40]	; 0x28
 8003f88:	60fb      	str	r3, [r7, #12]

#if (USE_HAL_DAC_REGISTER_CALLBACKS == 1)
  hdac->ConvCpltCallbackCh1(hdac);
#else
  HAL_DAC_ConvCpltCallbackCh1(hdac);
 8003f8a:	68f8      	ldr	r0, [r7, #12]
 8003f8c:	f7ff fe2c 	bl	8003be8 <HAL_DAC_ConvCpltCallbackCh1>
#endif /* USE_HAL_DAC_REGISTER_CALLBACKS */

  hdac->State = HAL_DAC_STATE_READY;
 8003f90:	68fb      	ldr	r3, [r7, #12]
 8003f92:	2201      	movs	r2, #1
 8003f94:	711a      	strb	r2, [r3, #4]
}
 8003f96:	bf00      	nop
 8003f98:	3710      	adds	r7, #16
 8003f9a:	46bd      	mov	sp, r7
 8003f9c:	bd80      	pop	{r7, pc}

08003f9e <DAC_DMAHalfConvCpltCh1>:
  * @param  hdma pointer to a DMA_HandleTypeDef structure that contains
  *                the configuration information for the specified DMA module.
  * @retval None
  */
void DAC_DMAHalfConvCpltCh1(DMA_HandleTypeDef *hdma)
{
 8003f9e:	b580      	push	{r7, lr}
 8003fa0:	b084      	sub	sp, #16
 8003fa2:	af00      	add	r7, sp, #0
 8003fa4:	6078      	str	r0, [r7, #4]
  DAC_HandleTypeDef *hdac = (DAC_HandleTypeDef *)((DMA_HandleTypeDef *)hdma)->Parent;
 8003fa6:	687b      	ldr	r3, [r7, #4]
 8003fa8:	6a9b      	ldr	r3, [r3, #40]	; 0x28
 8003faa:	60fb      	str	r3, [r7, #12]
  /* Conversion complete callback */
#if (USE_HAL_DAC_REGISTER_CALLBACKS == 1)
  hdac->ConvHalfCpltCallbackCh1(hdac);
#else
  HAL_DAC_ConvHalfCpltCallbackCh1(hdac);
 8003fac:	68f8      	ldr	r0, [r7, #12]
 8003fae:	f7ff fe25 	bl	8003bfc <HAL_DAC_ConvHalfCpltCallbackCh1>
#endif  /* USE_HAL_DAC_REGISTER_CALLBACKS */
}
 8003fb2:	bf00      	nop
 8003fb4:	3710      	adds	r7, #16
 8003fb6:	46bd      	mov	sp, r7
 8003fb8:	bd80      	pop	{r7, pc}

08003fba <DAC_DMAErrorCh1>:
  * @param  hdma pointer to a DMA_HandleTypeDef structure that contains
  *                the configuration information for the specified DMA module.
  * @retval None
  */
void DAC_DMAErrorCh1(DMA_HandleTypeDef *hdma)
{
 8003fba:	b580      	push	{r7, lr}
 8003fbc:	b084      	sub	sp, #16
 8003fbe:	af00      	add	r7, sp, #0
 8003fc0:	6078      	str	r0, [r7, #4]
  DAC_HandleTypeDef *hdac = (DAC_HandleTypeDef *)((DMA_HandleTypeDef *)hdma)->Parent;
 8003fc2:	687b      	ldr	r3, [r7, #4]
 8003fc4:	6a9b      	ldr	r3, [r3, #40]	; 0x28
 8003fc6:	60fb      	str	r3, [r7, #12]

  /* Set DAC error code to DMA error */
  hdac->ErrorCode |= HAL_DAC_ERROR_DMA;
 8003fc8:	68fb      	ldr	r3, [r7, #12]
 8003fca:	691b      	ldr	r3, [r3, #16]
 8003fcc:	f043 0204 	orr.w	r2, r3, #4
 8003fd0:	68fb      	ldr	r3, [r7, #12]
 8003fd2:	611a      	str	r2, [r3, #16]

#if (USE_HAL_DAC_REGISTER_CALLBACKS == 1)
  hdac->ErrorCallbackCh1(hdac);
#else
  HAL_DAC_ErrorCallbackCh1(hdac);
 8003fd4:	68f8      	ldr	r0, [r7, #12]
 8003fd6:	f7ff fe1b 	bl	8003c10 <HAL_DAC_ErrorCallbackCh1>
#endif /* USE_HAL_DAC_REGISTER_CALLBACKS */

  hdac->State = HAL_DAC_STATE_READY;
 8003fda:	68fb      	ldr	r3, [r7, #12]
 8003fdc:	2201      	movs	r2, #1
 8003fde:	711a      	strb	r2, [r3, #4]
}
 8003fe0:	bf00      	nop
 8003fe2:	3710      	adds	r7, #16
 8003fe4:	46bd      	mov	sp, r7
 8003fe6:	bd80      	pop	{r7, pc}

08003fe8 <HAL_DACEx_ConvCpltCallbackCh2>:
  * @param  hdac pointer to a DAC_HandleTypeDef structure that contains
  *         the configuration information for the specified DAC.
  * @retval None
  */
__weak void HAL_DACEx_ConvCpltCallbackCh2(DAC_HandleTypeDef *hdac)
{
 8003fe8:	b480      	push	{r7}
 8003fea:	b083      	sub	sp, #12
 8003fec:	af00      	add	r7, sp, #0
 8003fee:	6078      	str	r0, [r7, #4]
  UNUSED(hdac);

  /* NOTE : This function should not be modified, when the callback is needed,
            the HAL_DACEx_ConvCpltCallbackCh2 could be implemented in the user file
   */
}
 8003ff0:	bf00      	nop
 8003ff2:	370c      	adds	r7, #12
 8003ff4:	46bd      	mov	sp, r7
 8003ff6:	f85d 7b04 	ldr.w	r7, [sp], #4
 8003ffa:	4770      	bx	lr

08003ffc <HAL_DACEx_ConvHalfCpltCallbackCh2>:
  * @param  hdac pointer to a DAC_HandleTypeDef structure that contains
  *         the configuration information for the specified DAC.
  * @retval None
  */
__weak void HAL_DACEx_ConvHalfCpltCallbackCh2(DAC_HandleTypeDef *hdac)
{
 8003ffc:	b480      	push	{r7}
 8003ffe:	b083      	sub	sp, #12
 8004000:	af00      	add	r7, sp, #0
 8004002:	6078      	str	r0, [r7, #4]
  UNUSED(hdac);

  /* NOTE : This function should not be modified, when the callback is needed,
            the HAL_DACEx_ConvHalfCpltCallbackCh2 could be implemented in the user file
   */
}
 8004004:	bf00      	nop
 8004006:	370c      	adds	r7, #12
 8004008:	46bd      	mov	sp, r7
 800400a:	f85d 7b04 	ldr.w	r7, [sp], #4
 800400e:	4770      	bx	lr

08004010 <HAL_DACEx_ErrorCallbackCh2>:
  * @param  hdac pointer to a DAC_HandleTypeDef structure that contains
  *         the configuration information for the specified DAC.
  * @retval None
  */
__weak void HAL_DACEx_ErrorCallbackCh2(DAC_HandleTypeDef *hdac)
{
 8004010:	b480      	push	{r7}
 8004012:	b083      	sub	sp, #12
 8004014:	af00      	add	r7, sp, #0
 8004016:	6078      	str	r0, [r7, #4]
  UNUSED(hdac);

  /* NOTE : This function should not be modified, when the callback is needed,
            the HAL_DACEx_ErrorCallbackCh2 could be implemented in the user file
   */
}
 8004018:	bf00      	nop
 800401a:	370c      	adds	r7, #12
 800401c:	46bd      	mov	sp, r7
 800401e:	f85d 7b04 	ldr.w	r7, [sp], #4
 8004022:	4770      	bx	lr

08004024 <DAC_DMAConvCpltCh2>:
  * @param  hdma pointer to a DMA_HandleTypeDef structure that contains
  *                the configuration information for the specified DMA module.
  * @retval None
  */
void DAC_DMAConvCpltCh2(DMA_HandleTypeDef *hdma)
{
 8004024:	b580      	push	{r7, lr}
 8004026:	b084      	sub	sp, #16
 8004028:	af00      	add	r7, sp, #0
 800402a:	6078      	str	r0, [r7, #4]
  DAC_HandleTypeDef *hdac = (DAC_HandleTypeDef *)((DMA_HandleTypeDef *)hdma)->Parent;
 800402c:	687b      	ldr	r3, [r7, #4]
 800402e:	6a9b      	ldr	r3, [r3, #40]	; 0x28
 8004030:	60fb      	str	r3, [r7, #12]

#if (USE_HAL_DAC_REGISTER_CALLBACKS == 1)
  hdac->ConvCpltCallbackCh2(hdac);
#else
  HAL_DACEx_ConvCpltCallbackCh2(hdac);
 8004032:	68f8      	ldr	r0, [r7, #12]
 8004034:	f7ff ffd8 	bl	8003fe8 <HAL_DACEx_ConvCpltCallbackCh2>
#endif /* USE_HAL_DAC_REGISTER_CALLBACKS */

  hdac->State = HAL_DAC_STATE_READY;
 8004038:	68fb      	ldr	r3, [r7, #12]
 800403a:	2201      	movs	r2, #1
 800403c:	711a      	strb	r2, [r3, #4]
}
 800403e:	bf00      	nop
 8004040:	3710      	adds	r7, #16
 8004042:	46bd      	mov	sp, r7
 8004044:	bd80      	pop	{r7, pc}

08004046 <DAC_DMAHalfConvCpltCh2>:
  * @param  hdma pointer to a DMA_HandleTypeDef structure that contains
  *                the configuration information for the specified DMA module.
  * @retval None
  */
void DAC_DMAHalfConvCpltCh2(DMA_HandleTypeDef *hdma)
{
 8004046:	b580      	push	{r7, lr}
 8004048:	b084      	sub	sp, #16
 800404a:	af00      	add	r7, sp, #0
 800404c:	6078      	str	r0, [r7, #4]
  DAC_HandleTypeDef *hdac = (DAC_HandleTypeDef *)((DMA_HandleTypeDef *)hdma)->Parent;
 800404e:	687b      	ldr	r3, [r7, #4]
 8004050:	6a9b      	ldr	r3, [r3, #40]	; 0x28
 8004052:	60fb      	str	r3, [r7, #12]
  /* Conversion complete callback */
#if (USE_HAL_DAC_REGISTER_CALLBACKS == 1)
  hdac->ConvHalfCpltCallbackCh2(hdac);
#else
  HAL_DACEx_ConvHalfCpltCallbackCh2(hdac);
 8004054:	68f8      	ldr	r0, [r7, #12]
 8004056:	f7ff ffd1 	bl	8003ffc <HAL_DACEx_ConvHalfCpltCallbackCh2>
#endif /* USE_HAL_DAC_REGISTER_CALLBACKS */
}
 800405a:	bf00      	nop
 800405c:	3710      	adds	r7, #16
 800405e:	46bd      	mov	sp, r7
 8004060:	bd80      	pop	{r7, pc}

08004062 <DAC_DMAErrorCh2>:
  * @param  hdma pointer to a DMA_HandleTypeDef structure that contains
  *                the configuration information for the specified DMA module.
  * @retval None
  */
void DAC_DMAErrorCh2(DMA_HandleTypeDef *hdma)
{
 8004062:	b580      	push	{r7, lr}
 8004064:	b084      	sub	sp, #16
 8004066:	af00      	add	r7, sp, #0
 8004068:	6078      	str	r0, [r7, #4]
  DAC_HandleTypeDef *hdac = (DAC_HandleTypeDef *)((DMA_HandleTypeDef *)hdma)->Parent;
 800406a:	687b      	ldr	r3, [r7, #4]
 800406c:	6a9b      	ldr	r3, [r3, #40]	; 0x28
 800406e:	60fb      	str	r3, [r7, #12]

  /* Set DAC error code to DMA error */
  hdac->ErrorCode |= HAL_DAC_ERROR_DMA;
 8004070:	68fb      	ldr	r3, [r7, #12]
 8004072:	691b      	ldr	r3, [r3, #16]
 8004074:	f043 0204 	orr.w	r2, r3, #4
 8004078:	68fb      	ldr	r3, [r7, #12]
 800407a:	611a      	str	r2, [r3, #16]

#if (USE_HAL_DAC_REGISTER_CALLBACKS == 1)
  hdac->ErrorCallbackCh2(hdac);
#else
  HAL_DACEx_ErrorCallbackCh2(hdac);
 800407c:	68f8      	ldr	r0, [r7, #12]
 800407e:	f7ff ffc7 	bl	8004010 <HAL_DACEx_ErrorCallbackCh2>
#endif /* USE_HAL_DAC_REGISTER_CALLBACKS */

  hdac->State = HAL_DAC_STATE_READY;
 8004082:	68fb      	ldr	r3, [r7, #12]
 8004084:	2201      	movs	r2, #1
 8004086:	711a      	strb	r2, [r3, #4]
}
 8004088:	bf00      	nop
 800408a:	3710      	adds	r7, #16
 800408c:	46bd      	mov	sp, r7
 800408e:	bd80      	pop	{r7, pc}

08004090 <HAL_DMA_Init>:
  * @param  hdma Pointer to a DMA_HandleTypeDef structure that contains
  *               the configuration information for the specified DMA Channel.
  * @retval HAL status
  */
HAL_StatusTypeDef HAL_DMA_Init(DMA_HandleTypeDef *hdma)
{
 8004090:	b580      	push	{r7, lr}
 8004092:	b084      	sub	sp, #16
 8004094:	af00      	add	r7, sp, #0
 8004096:	6078      	str	r0, [r7, #4]
  uint32_t tmp;

  /* Check the DMA handle allocation */
  if (hdma == NULL)
 8004098:	687b      	ldr	r3, [r7, #4]
 800409a:	2b00      	cmp	r3, #0
 800409c:	d101      	bne.n	80040a2 <HAL_DMA_Init+0x12>
  {
    return HAL_ERROR;
 800409e:	2301      	movs	r3, #1
 80040a0:	e08d      	b.n	80041be <HAL_DMA_Init+0x12e>
  assert_param(IS_DMA_PRIORITY(hdma->Init.Priority));

  assert_param(IS_DMA_ALL_REQUEST(hdma->Init.Request));

  /* Compute the channel index */
  if ((uint32_t)(hdma->Instance) < (uint32_t)(DMA2_Channel1))
 80040a2:	687b      	ldr	r3, [r7, #4]
 80040a4:	681b      	ldr	r3, [r3, #0]
 80040a6:	461a      	mov	r2, r3
 80040a8:	4b47      	ldr	r3, [pc, #284]	; (80041c8 <HAL_DMA_Init+0x138>)
 80040aa:	429a      	cmp	r2, r3
 80040ac:	d80f      	bhi.n	80040ce <HAL_DMA_Init+0x3e>
  {
    /* DMA1 */
    hdma->ChannelIndex = (((uint32_t)hdma->Instance - (uint32_t)DMA1_Channel1) / ((uint32_t)DMA1_Channel2 - (uint32_t)DMA1_Channel1)) << 2;
 80040ae:	687b      	ldr	r3, [r7, #4]
 80040b0:	681b      	ldr	r3, [r3, #0]
 80040b2:	461a      	mov	r2, r3
 80040b4:	4b45      	ldr	r3, [pc, #276]	; (80041cc <HAL_DMA_Init+0x13c>)
 80040b6:	4413      	add	r3, r2
 80040b8:	4a45      	ldr	r2, [pc, #276]	; (80041d0 <HAL_DMA_Init+0x140>)
 80040ba:	fba2 2303 	umull	r2, r3, r2, r3
 80040be:	091b      	lsrs	r3, r3, #4
 80040c0:	009a      	lsls	r2, r3, #2
 80040c2:	687b      	ldr	r3, [r7, #4]
 80040c4:	645a      	str	r2, [r3, #68]	; 0x44
    hdma->DmaBaseAddress = DMA1;
 80040c6:	687b      	ldr	r3, [r7, #4]
 80040c8:	4a42      	ldr	r2, [pc, #264]	; (80041d4 <HAL_DMA_Init+0x144>)
 80040ca:	641a      	str	r2, [r3, #64]	; 0x40
 80040cc:	e00e      	b.n	80040ec <HAL_DMA_Init+0x5c>
  }
  else
  {
    /* DMA2 */
    hdma->ChannelIndex = (((uint32_t)hdma->Instance - (uint32_t)DMA2_Channel1) / ((uint32_t)DMA2_Channel2 - (uint32_t)DMA2_Channel1)) << 2;
 80040ce:	687b      	ldr	r3, [r7, #4]
 80040d0:	681b      	ldr	r3, [r3, #0]
 80040d2:	461a      	mov	r2, r3
 80040d4:	4b40      	ldr	r3, [pc, #256]	; (80041d8 <HAL_DMA_Init+0x148>)
 80040d6:	4413      	add	r3, r2
 80040d8:	4a3d      	ldr	r2, [pc, #244]	; (80041d0 <HAL_DMA_Init+0x140>)
 80040da:	fba2 2303 	umull	r2, r3, r2, r3
 80040de:	091b      	lsrs	r3, r3, #4
 80040e0:	009a      	lsls	r2, r3, #2
 80040e2:	687b      	ldr	r3, [r7, #4]
 80040e4:	645a      	str	r2, [r3, #68]	; 0x44
    hdma->DmaBaseAddress = DMA2;
 80040e6:	687b      	ldr	r3, [r7, #4]
 80040e8:	4a3c      	ldr	r2, [pc, #240]	; (80041dc <HAL_DMA_Init+0x14c>)
 80040ea:	641a      	str	r2, [r3, #64]	; 0x40
  }

  /* Change DMA peripheral state */
  hdma->State = HAL_DMA_STATE_BUSY;
 80040ec:	687b      	ldr	r3, [r7, #4]
 80040ee:	2202      	movs	r2, #2
 80040f0:	f883 2025 	strb.w	r2, [r3, #37]	; 0x25

  /* Get the CR register value */
  tmp = hdma->Instance->CCR;
 80040f4:	687b      	ldr	r3, [r7, #4]
 80040f6:	681b      	ldr	r3, [r3, #0]
 80040f8:	681b      	ldr	r3, [r3, #0]
 80040fa:	60fb      	str	r3, [r7, #12]

  /* Clear PL, MSIZE, PSIZE, MINC, PINC, CIRC, DIR and MEM2MEM bits */
  tmp &= ((uint32_t)~(DMA_CCR_PL    | DMA_CCR_MSIZE  | DMA_CCR_PSIZE  |
 80040fc:	68fb      	ldr	r3, [r7, #12]
 80040fe:	f423 43ff 	bic.w	r3, r3, #32640	; 0x7f80
 8004102:	f023 0370 	bic.w	r3, r3, #112	; 0x70
 8004106:	60fb      	str	r3, [r7, #12]
                      DMA_CCR_MINC  | DMA_CCR_PINC   | DMA_CCR_CIRC   |
                      DMA_CCR_DIR   | DMA_CCR_MEM2MEM));

  /* Prepare the DMA Channel configuration */
  tmp |=  hdma->Init.Direction        |
 8004108:	687b      	ldr	r3, [r7, #4]
 800410a:	689a      	ldr	r2, [r3, #8]
          hdma->Init.PeriphInc           | hdma->Init.MemInc           |
 800410c:	687b      	ldr	r3, [r7, #4]
 800410e:	68db      	ldr	r3, [r3, #12]
  tmp |=  hdma->Init.Direction        |
 8004110:	431a      	orrs	r2, r3
          hdma->Init.PeriphInc           | hdma->Init.MemInc           |
 8004112:	687b      	ldr	r3, [r7, #4]
 8004114:	691b      	ldr	r3, [r3, #16]
 8004116:	431a      	orrs	r2, r3
          hdma->Init.PeriphDataAlignment | hdma->Init.MemDataAlignment |
 8004118:	687b      	ldr	r3, [r7, #4]
 800411a:	695b      	ldr	r3, [r3, #20]
          hdma->Init.PeriphInc           | hdma->Init.MemInc           |
 800411c:	431a      	orrs	r2, r3
          hdma->Init.PeriphDataAlignment | hdma->Init.MemDataAlignment |
 800411e:	687b      	ldr	r3, [r7, #4]
 8004120:	699b      	ldr	r3, [r3, #24]
 8004122:	431a      	orrs	r2, r3
          hdma->Init.Mode                | hdma->Init.Priority;
 8004124:	687b      	ldr	r3, [r7, #4]
 8004126:	69db      	ldr	r3, [r3, #28]
          hdma->Init.PeriphDataAlignment | hdma->Init.MemDataAlignment |
 8004128:	431a      	orrs	r2, r3
          hdma->Init.Mode                | hdma->Init.Priority;
 800412a:	687b      	ldr	r3, [r7, #4]
 800412c:	6a1b      	ldr	r3, [r3, #32]
 800412e:	4313      	orrs	r3, r2
  tmp |=  hdma->Init.Direction        |
 8004130:	68fa      	ldr	r2, [r7, #12]
 8004132:	4313      	orrs	r3, r2
 8004134:	60fb      	str	r3, [r7, #12]

  /* Write to DMA Channel CR register */
  hdma->Instance->CCR = tmp;
 8004136:	687b      	ldr	r3, [r7, #4]
 8004138:	681b      	ldr	r3, [r3, #0]
 800413a:	68fa      	ldr	r2, [r7, #12]
 800413c:	601a      	str	r2, [r3, #0]

  /* Initialize parameters for DMAMUX channel :
     DMAmuxChannel, DMAmuxChannelStatus and DMAmuxChannelStatusMask
  */
  DMA_CalcDMAMUXChannelBaseAndMask(hdma);
 800413e:	6878      	ldr	r0, [r7, #4]
 8004140:	f000 f9b6 	bl	80044b0 <DMA_CalcDMAMUXChannelBaseAndMask>

  if (hdma->Init.Direction == DMA_MEMORY_TO_MEMORY)
 8004144:	687b      	ldr	r3, [r7, #4]
 8004146:	689b      	ldr	r3, [r3, #8]
 8004148:	f5b3 4f80 	cmp.w	r3, #16384	; 0x4000
 800414c:	d102      	bne.n	8004154 <HAL_DMA_Init+0xc4>
  {
    /* if memory to memory force the request to 0*/
    hdma->Init.Request = DMA_REQUEST_MEM2MEM;
 800414e:	687b      	ldr	r3, [r7, #4]
 8004150:	2200      	movs	r2, #0
 8004152:	605a      	str	r2, [r3, #4]
  }

  /* Set peripheral request  to DMAMUX channel */
  hdma->DMAmuxChannel->CCR = (hdma->Init.Request & DMAMUX_CxCR_DMAREQ_ID);
 8004154:	687b      	ldr	r3, [r7, #4]
 8004156:	685a      	ldr	r2, [r3, #4]
 8004158:	687b      	ldr	r3, [r7, #4]
 800415a:	6c9b      	ldr	r3, [r3, #72]	; 0x48
 800415c:	b2d2      	uxtb	r2, r2
 800415e:	601a      	str	r2, [r3, #0]

  /* Clear the DMAMUX synchro overrun flag */
  hdma->DMAmuxChannelStatus->CFR = hdma->DMAmuxChannelStatusMask;
 8004160:	687b      	ldr	r3, [r7, #4]
 8004162:	6cdb      	ldr	r3, [r3, #76]	; 0x4c
 8004164:	687a      	ldr	r2, [r7, #4]
 8004166:	6d12      	ldr	r2, [r2, #80]	; 0x50
 8004168:	605a      	str	r2, [r3, #4]

  if (((hdma->Init.Request >  0U) && (hdma->Init.Request <= DMA_REQUEST_GENERATOR3)))
 800416a:	687b      	ldr	r3, [r7, #4]
 800416c:	685b      	ldr	r3, [r3, #4]
 800416e:	2b00      	cmp	r3, #0
 8004170:	d010      	beq.n	8004194 <HAL_DMA_Init+0x104>
 8004172:	687b      	ldr	r3, [r7, #4]
 8004174:	685b      	ldr	r3, [r3, #4]
 8004176:	2b04      	cmp	r3, #4
 8004178:	d80c      	bhi.n	8004194 <HAL_DMA_Init+0x104>
  {
    /* Initialize parameters for DMAMUX request generator :
       DMAmuxRequestGen, DMAmuxRequestGenStatus and DMAmuxRequestGenStatusMask
    */
    DMA_CalcDMAMUXRequestGenBaseAndMask(hdma);
 800417a:	6878      	ldr	r0, [r7, #4]
 800417c:	f000 f9d6 	bl	800452c <DMA_CalcDMAMUXRequestGenBaseAndMask>

    /* Reset the DMAMUX request generator register*/
    hdma->DMAmuxRequestGen->RGCR = 0U;
 8004180:	687b      	ldr	r3, [r7, #4]
 8004182:	6d5b      	ldr	r3, [r3, #84]	; 0x54
 8004184:	2200      	movs	r2, #0
 8004186:	601a      	str	r2, [r3, #0]

    /* Clear the DMAMUX request generator overrun flag */
    hdma->DMAmuxRequestGenStatus->RGCFR = hdma->DMAmuxRequestGenStatusMask;
 8004188:	687b      	ldr	r3, [r7, #4]
 800418a:	6d9b      	ldr	r3, [r3, #88]	; 0x58
 800418c:	687a      	ldr	r2, [r7, #4]
 800418e:	6dd2      	ldr	r2, [r2, #92]	; 0x5c
 8004190:	605a      	str	r2, [r3, #4]
 8004192:	e008      	b.n	80041a6 <HAL_DMA_Init+0x116>
  }
  else
  {
    hdma->DMAmuxRequestGen = 0U;
 8004194:	687b      	ldr	r3, [r7, #4]
 8004196:	2200      	movs	r2, #0
 8004198:	655a      	str	r2, [r3, #84]	; 0x54
    hdma->DMAmuxRequestGenStatus = 0U;
 800419a:	687b      	ldr	r3, [r7, #4]
 800419c:	2200      	movs	r2, #0
 800419e:	659a      	str	r2, [r3, #88]	; 0x58
    hdma->DMAmuxRequestGenStatusMask = 0U;
 80041a0:	687b      	ldr	r3, [r7, #4]
 80041a2:	2200      	movs	r2, #0
 80041a4:	65da      	str	r2, [r3, #92]	; 0x5c
  }

  /* Initialize the error code */
  hdma->ErrorCode = HAL_DMA_ERROR_NONE;
 80041a6:	687b      	ldr	r3, [r7, #4]
 80041a8:	2200      	movs	r2, #0
 80041aa:	63da      	str	r2, [r3, #60]	; 0x3c

  /* Initialize the DMA state*/
  hdma->State  = HAL_DMA_STATE_READY;
 80041ac:	687b      	ldr	r3, [r7, #4]
 80041ae:	2201      	movs	r2, #1
 80041b0:	f883 2025 	strb.w	r2, [r3, #37]	; 0x25

  /* Allocate lock resource and initialize it */
  hdma->Lock = HAL_UNLOCKED;
 80041b4:	687b      	ldr	r3, [r7, #4]
 80041b6:	2200      	movs	r2, #0
 80041b8:	f883 2024 	strb.w	r2, [r3, #36]	; 0x24

  return HAL_OK;
 80041bc:	2300      	movs	r3, #0
}
 80041be:	4618      	mov	r0, r3
 80041c0:	3710      	adds	r7, #16
 80041c2:	46bd      	mov	sp, r7
 80041c4:	bd80      	pop	{r7, pc}
 80041c6:	bf00      	nop
 80041c8:	40020407 	.word	0x40020407
 80041cc:	bffdfff8 	.word	0xbffdfff8
 80041d0:	cccccccd 	.word	0xcccccccd
 80041d4:	40020000 	.word	0x40020000
 80041d8:	bffdfbf8 	.word	0xbffdfbf8
 80041dc:	40020400 	.word	0x40020400

080041e0 <HAL_DMA_Start_IT>:
  * @param  DataLength The length of data to be transferred from source to destination (up to 256Kbytes-1)
  * @retval HAL status
  */
HAL_StatusTypeDef HAL_DMA_Start_IT(DMA_HandleTypeDef *hdma, uint32_t SrcAddress, uint32_t DstAddress,
                                   uint32_t DataLength)
{
 80041e0:	b580      	push	{r7, lr}
 80041e2:	b086      	sub	sp, #24
 80041e4:	af00      	add	r7, sp, #0
 80041e6:	60f8      	str	r0, [r7, #12]
 80041e8:	60b9      	str	r1, [r7, #8]
 80041ea:	607a      	str	r2, [r7, #4]
 80041ec:	603b      	str	r3, [r7, #0]
  HAL_StatusTypeDef status = HAL_OK;
 80041ee:	2300      	movs	r3, #0
 80041f0:	75fb      	strb	r3, [r7, #23]

  /* Check the parameters */
  assert_param(IS_DMA_BUFFER_SIZE(DataLength));

  /* Process locked */
  __HAL_LOCK(hdma);
 80041f2:	68fb      	ldr	r3, [r7, #12]
 80041f4:	f893 3024 	ldrb.w	r3, [r3, #36]	; 0x24
 80041f8:	2b01      	cmp	r3, #1
 80041fa:	d101      	bne.n	8004200 <HAL_DMA_Start_IT+0x20>
 80041fc:	2302      	movs	r3, #2
 80041fe:	e066      	b.n	80042ce <HAL_DMA_Start_IT+0xee>
 8004200:	68fb      	ldr	r3, [r7, #12]
 8004202:	2201      	movs	r2, #1
 8004204:	f883 2024 	strb.w	r2, [r3, #36]	; 0x24

  if (HAL_DMA_STATE_READY == hdma->State)
 8004208:	68fb      	ldr	r3, [r7, #12]
 800420a:	f893 3025 	ldrb.w	r3, [r3, #37]	; 0x25
 800420e:	b2db      	uxtb	r3, r3
 8004210:	2b01      	cmp	r3, #1
 8004212:	d155      	bne.n	80042c0 <HAL_DMA_Start_IT+0xe0>
  {
    /* Change DMA peripheral state */
    hdma->State = HAL_DMA_STATE_BUSY;
 8004214:	68fb      	ldr	r3, [r7, #12]
 8004216:	2202      	movs	r2, #2
 8004218:	f883 2025 	strb.w	r2, [r3, #37]	; 0x25
    hdma->ErrorCode = HAL_DMA_ERROR_NONE;
 800421c:	68fb      	ldr	r3, [r7, #12]
 800421e:	2200      	movs	r2, #0
 8004220:	63da      	str	r2, [r3, #60]	; 0x3c

    /* Disable the peripheral */
    __HAL_DMA_DISABLE(hdma);
 8004222:	68fb      	ldr	r3, [r7, #12]
 8004224:	681b      	ldr	r3, [r3, #0]
 8004226:	681a      	ldr	r2, [r3, #0]
 8004228:	68fb      	ldr	r3, [r7, #12]
 800422a:	681b      	ldr	r3, [r3, #0]
 800422c:	f022 0201 	bic.w	r2, r2, #1
 8004230:	601a      	str	r2, [r3, #0]

    /* Configure the source, destination address and the data length & clear flags*/
    DMA_SetConfig(hdma, SrcAddress, DstAddress, DataLength);
 8004232:	683b      	ldr	r3, [r7, #0]
 8004234:	687a      	ldr	r2, [r7, #4]
 8004236:	68b9      	ldr	r1, [r7, #8]
 8004238:	68f8      	ldr	r0, [r7, #12]
 800423a:	f000 f8fb 	bl	8004434 <DMA_SetConfig>

    /* Enable the transfer complete interrupt */
    /* Enable the transfer Error interrupt */
    if (NULL != hdma->XferHalfCpltCallback)
 800423e:	68fb      	ldr	r3, [r7, #12]
 8004240:	6b1b      	ldr	r3, [r3, #48]	; 0x30
 8004242:	2b00      	cmp	r3, #0
 8004244:	d008      	beq.n	8004258 <HAL_DMA_Start_IT+0x78>
    {
      /* Enable the Half transfer complete interrupt as well */
      __HAL_DMA_ENABLE_IT(hdma, (DMA_IT_TC | DMA_IT_HT | DMA_IT_TE));
 8004246:	68fb      	ldr	r3, [r7, #12]
 8004248:	681b      	ldr	r3, [r3, #0]
 800424a:	681a      	ldr	r2, [r3, #0]
 800424c:	68fb      	ldr	r3, [r7, #12]
 800424e:	681b      	ldr	r3, [r3, #0]
 8004250:	f042 020e 	orr.w	r2, r2, #14
 8004254:	601a      	str	r2, [r3, #0]
 8004256:	e00f      	b.n	8004278 <HAL_DMA_Start_IT+0x98>
    }
    else
    {
      __HAL_DMA_DISABLE_IT(hdma, DMA_IT_HT);
 8004258:	68fb      	ldr	r3, [r7, #12]
 800425a:	681b      	ldr	r3, [r3, #0]
 800425c:	681a      	ldr	r2, [r3, #0]
 800425e:	68fb      	ldr	r3, [r7, #12]
 8004260:	681b      	ldr	r3, [r3, #0]
 8004262:	f022 0204 	bic.w	r2, r2, #4
 8004266:	601a      	str	r2, [r3, #0]
      __HAL_DMA_ENABLE_IT(hdma, (DMA_IT_TC | DMA_IT_TE));
 8004268:	68fb      	ldr	r3, [r7, #12]
 800426a:	681b      	ldr	r3, [r3, #0]
 800426c:	681a      	ldr	r2, [r3, #0]
 800426e:	68fb      	ldr	r3, [r7, #12]
 8004270:	681b      	ldr	r3, [r3, #0]
 8004272:	f042 020a 	orr.w	r2, r2, #10
 8004276:	601a      	str	r2, [r3, #0]
    }

    /* Check if DMAMUX Synchronization is enabled*/
    if ((hdma->DMAmuxChannel->CCR & DMAMUX_CxCR_SE) != 0U)
 8004278:	68fb      	ldr	r3, [r7, #12]
 800427a:	6c9b      	ldr	r3, [r3, #72]	; 0x48
 800427c:	681b      	ldr	r3, [r3, #0]
 800427e:	f403 3380 	and.w	r3, r3, #65536	; 0x10000
 8004282:	2b00      	cmp	r3, #0
 8004284:	d007      	beq.n	8004296 <HAL_DMA_Start_IT+0xb6>
    {
      /* Enable DMAMUX sync overrun IT*/
      hdma->DMAmuxChannel->CCR |= DMAMUX_CxCR_SOIE;
 8004286:	68fb      	ldr	r3, [r7, #12]
 8004288:	6c9b      	ldr	r3, [r3, #72]	; 0x48
 800428a:	681a      	ldr	r2, [r3, #0]
 800428c:	68fb      	ldr	r3, [r7, #12]
 800428e:	6c9b      	ldr	r3, [r3, #72]	; 0x48
 8004290:	f442 7280 	orr.w	r2, r2, #256	; 0x100
 8004294:	601a      	str	r2, [r3, #0]
    }

    if (hdma->DMAmuxRequestGen != 0U)
 8004296:	68fb      	ldr	r3, [r7, #12]
 8004298:	6d5b      	ldr	r3, [r3, #84]	; 0x54
 800429a:	2b00      	cmp	r3, #0
 800429c:	d007      	beq.n	80042ae <HAL_DMA_Start_IT+0xce>
    {
      /* if using DMAMUX request generator, enable the DMAMUX request generator overrun IT*/
      /* enable the request gen overrun IT*/
      hdma->DMAmuxRequestGen->RGCR |= DMAMUX_RGxCR_OIE;
 800429e:	68fb      	ldr	r3, [r7, #12]
 80042a0:	6d5b      	ldr	r3, [r3, #84]	; 0x54
 80042a2:	681a      	ldr	r2, [r3, #0]
 80042a4:	68fb      	ldr	r3, [r7, #12]
 80042a6:	6d5b      	ldr	r3, [r3, #84]	; 0x54
 80042a8:	f442 7280 	orr.w	r2, r2, #256	; 0x100
 80042ac:	601a      	str	r2, [r3, #0]
    }

    /* Enable the Peripheral */
    __HAL_DMA_ENABLE(hdma);
 80042ae:	68fb      	ldr	r3, [r7, #12]
 80042b0:	681b      	ldr	r3, [r3, #0]
 80042b2:	681a      	ldr	r2, [r3, #0]
 80042b4:	68fb      	ldr	r3, [r7, #12]
 80042b6:	681b      	ldr	r3, [r3, #0]
 80042b8:	f042 0201 	orr.w	r2, r2, #1
 80042bc:	601a      	str	r2, [r3, #0]
 80042be:	e005      	b.n	80042cc <HAL_DMA_Start_IT+0xec>
  }
  else
  {
    /* Process Unlocked */
    __HAL_UNLOCK(hdma);
 80042c0:	68fb      	ldr	r3, [r7, #12]
 80042c2:	2200      	movs	r2, #0
 80042c4:	f883 2024 	strb.w	r2, [r3, #36]	; 0x24

    /* Remain BUSY */
    status = HAL_BUSY;
 80042c8:	2302      	movs	r3, #2
 80042ca:	75fb      	strb	r3, [r7, #23]
  }
  return status;
 80042cc:	7dfb      	ldrb	r3, [r7, #23]
}
 80042ce:	4618      	mov	r0, r3
 80042d0:	3718      	adds	r7, #24
 80042d2:	46bd      	mov	sp, r7
 80042d4:	bd80      	pop	{r7, pc}

080042d6 <HAL_DMA_IRQHandler>:
  * @param  hdma pointer to a DMA_HandleTypeDef structure that contains
  *               the configuration information for the specified DMA Channel.
  * @retval None
  */
void HAL_DMA_IRQHandler(DMA_HandleTypeDef *hdma)
{
 80042d6:	b580      	push	{r7, lr}
 80042d8:	b084      	sub	sp, #16
 80042da:	af00      	add	r7, sp, #0
 80042dc:	6078      	str	r0, [r7, #4]
  uint32_t flag_it = hdma->DmaBaseAddress->ISR;
 80042de:	687b      	ldr	r3, [r7, #4]
 80042e0:	6c1b      	ldr	r3, [r3, #64]	; 0x40
 80042e2:	681b      	ldr	r3, [r3, #0]
 80042e4:	60fb      	str	r3, [r7, #12]
  uint32_t source_it = hdma->Instance->CCR;
 80042e6:	687b      	ldr	r3, [r7, #4]
 80042e8:	681b      	ldr	r3, [r3, #0]
 80042ea:	681b      	ldr	r3, [r3, #0]
 80042ec:	60bb      	str	r3, [r7, #8]

  /* Half Transfer Complete Interrupt management ******************************/
  if ((0U != (flag_it & ((uint32_t)DMA_FLAG_HT1 << (hdma->ChannelIndex & 0x1FU)))) && (0U != (source_it & DMA_IT_HT)))
 80042ee:	687b      	ldr	r3, [r7, #4]
 80042f0:	6c5b      	ldr	r3, [r3, #68]	; 0x44
 80042f2:	f003 031f 	and.w	r3, r3, #31
 80042f6:	2204      	movs	r2, #4
 80042f8:	409a      	lsls	r2, r3
 80042fa:	68fb      	ldr	r3, [r7, #12]
 80042fc:	4013      	ands	r3, r2
 80042fe:	2b00      	cmp	r3, #0
 8004300:	d026      	beq.n	8004350 <HAL_DMA_IRQHandler+0x7a>
 8004302:	68bb      	ldr	r3, [r7, #8]
 8004304:	f003 0304 	and.w	r3, r3, #4
 8004308:	2b00      	cmp	r3, #0
 800430a:	d021      	beq.n	8004350 <HAL_DMA_IRQHandler+0x7a>
  {
    /* Disable the half transfer interrupt if the DMA mode is not CIRCULAR */
    if ((hdma->Instance->CCR & DMA_CCR_CIRC) == 0U)
 800430c:	687b      	ldr	r3, [r7, #4]
 800430e:	681b      	ldr	r3, [r3, #0]
 8004310:	681b      	ldr	r3, [r3, #0]
 8004312:	f003 0320 	and.w	r3, r3, #32
 8004316:	2b00      	cmp	r3, #0
 8004318:	d107      	bne.n	800432a <HAL_DMA_IRQHandler+0x54>
    {
      /* Disable the half transfer interrupt */
      __HAL_DMA_DISABLE_IT(hdma, DMA_IT_HT);
 800431a:	687b      	ldr	r3, [r7, #4]
 800431c:	681b      	ldr	r3, [r3, #0]
 800431e:	681a      	ldr	r2, [r3, #0]
 8004320:	687b      	ldr	r3, [r7, #4]
 8004322:	681b      	ldr	r3, [r3, #0]
 8004324:	f022 0204 	bic.w	r2, r2, #4
 8004328:	601a      	str	r2, [r3, #0]
    }
    /* Clear the half transfer complete flag */
    hdma->DmaBaseAddress->IFCR = ((uint32_t)DMA_ISR_HTIF1 << (hdma->ChannelIndex & 0x1FU));
 800432a:	687b      	ldr	r3, [r7, #4]
 800432c:	6c5b      	ldr	r3, [r3, #68]	; 0x44
 800432e:	f003 021f 	and.w	r2, r3, #31
 8004332:	687b      	ldr	r3, [r7, #4]
 8004334:	6c1b      	ldr	r3, [r3, #64]	; 0x40
 8004336:	2104      	movs	r1, #4
 8004338:	fa01 f202 	lsl.w	r2, r1, r2
 800433c:	605a      	str	r2, [r3, #4]

    /* DMA peripheral state is not updated in Half Transfer */
    /* but in Transfer Complete case */

    if (hdma->XferHalfCpltCallback != NULL)
 800433e:	687b      	ldr	r3, [r7, #4]
 8004340:	6b1b      	ldr	r3, [r3, #48]	; 0x30
 8004342:	2b00      	cmp	r3, #0
 8004344:	d071      	beq.n	800442a <HAL_DMA_IRQHandler+0x154>
    {
      /* Half transfer callback */
      hdma->XferHalfCpltCallback(hdma);
 8004346:	687b      	ldr	r3, [r7, #4]
 8004348:	6b1b      	ldr	r3, [r3, #48]	; 0x30
 800434a:	6878      	ldr	r0, [r7, #4]
 800434c:	4798      	blx	r3
    if (hdma->XferHalfCpltCallback != NULL)
 800434e:	e06c      	b.n	800442a <HAL_DMA_IRQHandler+0x154>
    }
  }
  /* Transfer Complete Interrupt management ***********************************/
  else if ((0U != (flag_it & ((uint32_t)DMA_FLAG_TC1 << (hdma->ChannelIndex & 0x1FU))))
 8004350:	687b      	ldr	r3, [r7, #4]
 8004352:	6c5b      	ldr	r3, [r3, #68]	; 0x44
 8004354:	f003 031f 	and.w	r3, r3, #31
 8004358:	2202      	movs	r2, #2
 800435a:	409a      	lsls	r2, r3
 800435c:	68fb      	ldr	r3, [r7, #12]
 800435e:	4013      	ands	r3, r2
 8004360:	2b00      	cmp	r3, #0
 8004362:	d02e      	beq.n	80043c2 <HAL_DMA_IRQHandler+0xec>
           && (0U != (source_it & DMA_IT_TC)))
 8004364:	68bb      	ldr	r3, [r7, #8]
 8004366:	f003 0302 	and.w	r3, r3, #2
 800436a:	2b00      	cmp	r3, #0
 800436c:	d029      	beq.n	80043c2 <HAL_DMA_IRQHandler+0xec>
  {
    if ((hdma->Instance->CCR & DMA_CCR_CIRC) == 0U)
 800436e:	687b      	ldr	r3, [r7, #4]
 8004370:	681b      	ldr	r3, [r3, #0]
 8004372:	681b      	ldr	r3, [r3, #0]
 8004374:	f003 0320 	and.w	r3, r3, #32
 8004378:	2b00      	cmp	r3, #0
 800437a:	d10b      	bne.n	8004394 <HAL_DMA_IRQHandler+0xbe>
    {
      /* Disable the transfer complete and error interrupt */
      __HAL_DMA_DISABLE_IT(hdma, DMA_IT_TE | DMA_IT_TC);
 800437c:	687b      	ldr	r3, [r7, #4]
 800437e:	681b      	ldr	r3, [r3, #0]
 8004380:	681a      	ldr	r2, [r3, #0]
 8004382:	687b      	ldr	r3, [r7, #4]
 8004384:	681b      	ldr	r3, [r3, #0]
 8004386:	f022 020a 	bic.w	r2, r2, #10
 800438a:	601a      	str	r2, [r3, #0]

      /* Change the DMA state */
      hdma->State = HAL_DMA_STATE_READY;
 800438c:	687b      	ldr	r3, [r7, #4]
 800438e:	2201      	movs	r2, #1
 8004390:	f883 2025 	strb.w	r2, [r3, #37]	; 0x25
    }
    /* Clear the transfer complete flag */
    hdma->DmaBaseAddress->IFCR = ((uint32_t)DMA_ISR_TCIF1 << (hdma->ChannelIndex & 0x1FU));
 8004394:	687b      	ldr	r3, [r7, #4]
 8004396:	6c5b      	ldr	r3, [r3, #68]	; 0x44
 8004398:	f003 021f 	and.w	r2, r3, #31
 800439c:	687b      	ldr	r3, [r7, #4]
 800439e:	6c1b      	ldr	r3, [r3, #64]	; 0x40
 80043a0:	2102      	movs	r1, #2
 80043a2:	fa01 f202 	lsl.w	r2, r1, r2
 80043a6:	605a      	str	r2, [r3, #4]

    /* Process Unlocked */
    __HAL_UNLOCK(hdma);
 80043a8:	687b      	ldr	r3, [r7, #4]
 80043aa:	2200      	movs	r2, #0
 80043ac:	f883 2024 	strb.w	r2, [r3, #36]	; 0x24

    if (hdma->XferCpltCallback != NULL)
 80043b0:	687b      	ldr	r3, [r7, #4]
 80043b2:	6adb      	ldr	r3, [r3, #44]	; 0x2c
 80043b4:	2b00      	cmp	r3, #0
 80043b6:	d038      	beq.n	800442a <HAL_DMA_IRQHandler+0x154>
    {
      /* Transfer complete callback */
      hdma->XferCpltCallback(hdma);
 80043b8:	687b      	ldr	r3, [r7, #4]
 80043ba:	6adb      	ldr	r3, [r3, #44]	; 0x2c
 80043bc:	6878      	ldr	r0, [r7, #4]
 80043be:	4798      	blx	r3
    if (hdma->XferCpltCallback != NULL)
 80043c0:	e033      	b.n	800442a <HAL_DMA_IRQHandler+0x154>
    }
  }
  /* Transfer Error Interrupt management **************************************/
  else if ((0U != (flag_it & ((uint32_t)DMA_FLAG_TE1 << (hdma->ChannelIndex & 0x1FU))))
 80043c2:	687b      	ldr	r3, [r7, #4]
 80043c4:	6c5b      	ldr	r3, [r3, #68]	; 0x44
 80043c6:	f003 031f 	and.w	r3, r3, #31
 80043ca:	2208      	movs	r2, #8
 80043cc:	409a      	lsls	r2, r3
 80043ce:	68fb      	ldr	r3, [r7, #12]
 80043d0:	4013      	ands	r3, r2
 80043d2:	2b00      	cmp	r3, #0
 80043d4:	d02a      	beq.n	800442c <HAL_DMA_IRQHandler+0x156>
           && (0U != (source_it & DMA_IT_TE)))
 80043d6:	68bb      	ldr	r3, [r7, #8]
 80043d8:	f003 0308 	and.w	r3, r3, #8
 80043dc:	2b00      	cmp	r3, #0
 80043de:	d025      	beq.n	800442c <HAL_DMA_IRQHandler+0x156>
  {
    /* When a DMA transfer error occurs */
    /* A hardware clear of its EN bits is performed */
    /* Disable ALL DMA IT */
    __HAL_DMA_DISABLE_IT(hdma, (DMA_IT_TC | DMA_IT_HT | DMA_IT_TE));
 80043e0:	687b      	ldr	r3, [r7, #4]
 80043e2:	681b      	ldr	r3, [r3, #0]
 80043e4:	681a      	ldr	r2, [r3, #0]
 80043e6:	687b      	ldr	r3, [r7, #4]
 80043e8:	681b      	ldr	r3, [r3, #0]
 80043ea:	f022 020e 	bic.w	r2, r2, #14
 80043ee:	601a      	str	r2, [r3, #0]

    /* Clear all flags */
    hdma->DmaBaseAddress->IFCR = ((uint32_t)DMA_ISR_GIF1 << (hdma->ChannelIndex & 0x1FU));
 80043f0:	687b      	ldr	r3, [r7, #4]
 80043f2:	6c5b      	ldr	r3, [r3, #68]	; 0x44
 80043f4:	f003 021f 	and.w	r2, r3, #31
 80043f8:	687b      	ldr	r3, [r7, #4]
 80043fa:	6c1b      	ldr	r3, [r3, #64]	; 0x40
 80043fc:	2101      	movs	r1, #1
 80043fe:	fa01 f202 	lsl.w	r2, r1, r2
 8004402:	605a      	str	r2, [r3, #4]

    /* Update error code */
    hdma->ErrorCode = HAL_DMA_ERROR_TE;
 8004404:	687b      	ldr	r3, [r7, #4]
 8004406:	2201      	movs	r2, #1
 8004408:	63da      	str	r2, [r3, #60]	; 0x3c

    /* Change the DMA state */
    hdma->State = HAL_DMA_STATE_READY;
 800440a:	687b      	ldr	r3, [r7, #4]
 800440c:	2201      	movs	r2, #1
 800440e:	f883 2025 	strb.w	r2, [r3, #37]	; 0x25

    /* Process Unlocked */
    __HAL_UNLOCK(hdma);
 8004412:	687b      	ldr	r3, [r7, #4]
 8004414:	2200      	movs	r2, #0
 8004416:	f883 2024 	strb.w	r2, [r3, #36]	; 0x24

    if (hdma->XferErrorCallback != NULL)
 800441a:	687b      	ldr	r3, [r7, #4]
 800441c:	6b5b      	ldr	r3, [r3, #52]	; 0x34
 800441e:	2b00      	cmp	r3, #0
 8004420:	d004      	beq.n	800442c <HAL_DMA_IRQHandler+0x156>
    {
      /* Transfer error callback */
      hdma->XferErrorCallback(hdma);
 8004422:	687b      	ldr	r3, [r7, #4]
 8004424:	6b5b      	ldr	r3, [r3, #52]	; 0x34
 8004426:	6878      	ldr	r0, [r7, #4]
 8004428:	4798      	blx	r3
  }
  else
  {
    /* Nothing To Do */
  }
  return;
 800442a:	bf00      	nop
 800442c:	bf00      	nop
}
 800442e:	3710      	adds	r7, #16
 8004430:	46bd      	mov	sp, r7
 8004432:	bd80      	pop	{r7, pc}

08004434 <DMA_SetConfig>:
  * @param  DstAddress The destination memory Buffer address
  * @param  DataLength The length of data to be transferred from source to destination
  * @retval HAL status
  */
static void DMA_SetConfig(DMA_HandleTypeDef *hdma, uint32_t SrcAddress, uint32_t DstAddress, uint32_t DataLength)
{
 8004434:	b480      	push	{r7}
 8004436:	b085      	sub	sp, #20
 8004438:	af00      	add	r7, sp, #0
 800443a:	60f8      	str	r0, [r7, #12]
 800443c:	60b9      	str	r1, [r7, #8]
 800443e:	607a      	str	r2, [r7, #4]
 8004440:	603b      	str	r3, [r7, #0]
  /* Clear the DMAMUX synchro overrun flag */
  hdma->DMAmuxChannelStatus->CFR = hdma->DMAmuxChannelStatusMask;
 8004442:	68fb      	ldr	r3, [r7, #12]
 8004444:	6cdb      	ldr	r3, [r3, #76]	; 0x4c
 8004446:	68fa      	ldr	r2, [r7, #12]
 8004448:	6d12      	ldr	r2, [r2, #80]	; 0x50
 800444a:	605a      	str	r2, [r3, #4]

  if (hdma->DMAmuxRequestGen != 0U)
 800444c:	68fb      	ldr	r3, [r7, #12]
 800444e:	6d5b      	ldr	r3, [r3, #84]	; 0x54
 8004450:	2b00      	cmp	r3, #0
 8004452:	d004      	beq.n	800445e <DMA_SetConfig+0x2a>
  {
    /* Clear the DMAMUX request generator overrun flag */
    hdma->DMAmuxRequestGenStatus->RGCFR = hdma->DMAmuxRequestGenStatusMask;
 8004454:	68fb      	ldr	r3, [r7, #12]
 8004456:	6d9b      	ldr	r3, [r3, #88]	; 0x58
 8004458:	68fa      	ldr	r2, [r7, #12]
 800445a:	6dd2      	ldr	r2, [r2, #92]	; 0x5c
 800445c:	605a      	str	r2, [r3, #4]
  }

  /* Clear all flags */
  hdma->DmaBaseAddress->IFCR = (DMA_ISR_GIF1 << (hdma->ChannelIndex & 0x1FU));
 800445e:	68fb      	ldr	r3, [r7, #12]
 8004460:	6c5b      	ldr	r3, [r3, #68]	; 0x44
 8004462:	f003 021f 	and.w	r2, r3, #31
 8004466:	68fb      	ldr	r3, [r7, #12]
 8004468:	6c1b      	ldr	r3, [r3, #64]	; 0x40
 800446a:	2101      	movs	r1, #1
 800446c:	fa01 f202 	lsl.w	r2, r1, r2
 8004470:	605a      	str	r2, [r3, #4]

  /* Configure DMA Channel data length */
  hdma->Instance->CNDTR = DataLength;
 8004472:	68fb      	ldr	r3, [r7, #12]
 8004474:	681b      	ldr	r3, [r3, #0]
 8004476:	683a      	ldr	r2, [r7, #0]
 8004478:	605a      	str	r2, [r3, #4]

  /* Memory to Peripheral */
  if ((hdma->Init.Direction) == DMA_MEMORY_TO_PERIPH)
 800447a:	68fb      	ldr	r3, [r7, #12]
 800447c:	689b      	ldr	r3, [r3, #8]
 800447e:	2b10      	cmp	r3, #16
 8004480:	d108      	bne.n	8004494 <DMA_SetConfig+0x60>
  {
    /* Configure DMA Channel destination address */
    hdma->Instance->CPAR = DstAddress;
 8004482:	68fb      	ldr	r3, [r7, #12]
 8004484:	681b      	ldr	r3, [r3, #0]
 8004486:	687a      	ldr	r2, [r7, #4]
 8004488:	609a      	str	r2, [r3, #8]

    /* Configure DMA Channel source address */
    hdma->Instance->CMAR = SrcAddress;
 800448a:	68fb      	ldr	r3, [r7, #12]
 800448c:	681b      	ldr	r3, [r3, #0]
 800448e:	68ba      	ldr	r2, [r7, #8]
 8004490:	60da      	str	r2, [r3, #12]
    hdma->Instance->CPAR = SrcAddress;

    /* Configure DMA Channel destination address */
    hdma->Instance->CMAR = DstAddress;
  }
}
 8004492:	e007      	b.n	80044a4 <DMA_SetConfig+0x70>
    hdma->Instance->CPAR = SrcAddress;
 8004494:	68fb      	ldr	r3, [r7, #12]
 8004496:	681b      	ldr	r3, [r3, #0]
 8004498:	68ba      	ldr	r2, [r7, #8]
 800449a:	609a      	str	r2, [r3, #8]
    hdma->Instance->CMAR = DstAddress;
 800449c:	68fb      	ldr	r3, [r7, #12]
 800449e:	681b      	ldr	r3, [r3, #0]
 80044a0:	687a      	ldr	r2, [r7, #4]
 80044a2:	60da      	str	r2, [r3, #12]
}
 80044a4:	bf00      	nop
 80044a6:	3714      	adds	r7, #20
 80044a8:	46bd      	mov	sp, r7
 80044aa:	f85d 7b04 	ldr.w	r7, [sp], #4
 80044ae:	4770      	bx	lr

080044b0 <DMA_CalcDMAMUXChannelBaseAndMask>:
  * @param  hdma        pointer to a DMA_HandleTypeDef structure that contains
  *                     the configuration information for the specified DMA Stream.
  * @retval None
  */
static void DMA_CalcDMAMUXChannelBaseAndMask(DMA_HandleTypeDef *hdma)
{
 80044b0:	b480      	push	{r7}
 80044b2:	b087      	sub	sp, #28
 80044b4:	af00      	add	r7, sp, #0
 80044b6:	6078      	str	r0, [r7, #4]
  uint32_t dmamux_base_addr;
  uint32_t channel_number;
  DMAMUX_Channel_TypeDef *DMAMUX1_ChannelBase;

  /* check if instance is not outside the DMA channel range */
  if ((uint32_t)hdma->Instance < (uint32_t)DMA2_Channel1)
 80044b8:	687b      	ldr	r3, [r7, #4]
 80044ba:	681b      	ldr	r3, [r3, #0]
 80044bc:	461a      	mov	r2, r3
 80044be:	4b16      	ldr	r3, [pc, #88]	; (8004518 <DMA_CalcDMAMUXChannelBaseAndMask+0x68>)
 80044c0:	429a      	cmp	r2, r3
 80044c2:	d802      	bhi.n	80044ca <DMA_CalcDMAMUXChannelBaseAndMask+0x1a>
  {
    /* DMA1 */
    DMAMUX1_ChannelBase = DMAMUX1_Channel0;
 80044c4:	4b15      	ldr	r3, [pc, #84]	; (800451c <DMA_CalcDMAMUXChannelBaseAndMask+0x6c>)
 80044c6:	617b      	str	r3, [r7, #20]
 80044c8:	e001      	b.n	80044ce <DMA_CalcDMAMUXChannelBaseAndMask+0x1e>
  }
  else
  {
    /* DMA2 */
#if defined (STM32G471xx) || defined (STM32G473xx) || defined (STM32G474xx) || defined (STM32G483xx) || defined (STM32G484xx)
    DMAMUX1_ChannelBase = DMAMUX1_Channel8;
 80044ca:	4b15      	ldr	r3, [pc, #84]	; (8004520 <DMA_CalcDMAMUXChannelBaseAndMask+0x70>)
 80044cc:	617b      	str	r3, [r7, #20]
    DMAMUX1_ChannelBase = DMAMUX1_Channel6;
#else
    DMAMUX1_ChannelBase = DMAMUX1_Channel7;
#endif /* STM32G4x1xx) */
  }
  dmamux_base_addr = (uint32_t)DMAMUX1_ChannelBase;
 80044ce:	697b      	ldr	r3, [r7, #20]
 80044d0:	613b      	str	r3, [r7, #16]
  channel_number = (((uint32_t)hdma->Instance & 0xFFU) - 8U) / 20U;
 80044d2:	687b      	ldr	r3, [r7, #4]
 80044d4:	681b      	ldr	r3, [r3, #0]
 80044d6:	b2db      	uxtb	r3, r3
 80044d8:	3b08      	subs	r3, #8
 80044da:	4a12      	ldr	r2, [pc, #72]	; (8004524 <DMA_CalcDMAMUXChannelBaseAndMask+0x74>)
 80044dc:	fba2 2303 	umull	r2, r3, r2, r3
 80044e0:	091b      	lsrs	r3, r3, #4
 80044e2:	60fb      	str	r3, [r7, #12]
  hdma->DMAmuxChannel = (DMAMUX_Channel_TypeDef *)(uint32_t)(dmamux_base_addr + ((hdma->ChannelIndex >> 2U) * ((uint32_t)DMAMUX1_Channel1 - (uint32_t)DMAMUX1_Channel0)));
 80044e4:	687b      	ldr	r3, [r7, #4]
 80044e6:	6c5b      	ldr	r3, [r3, #68]	; 0x44
 80044e8:	089b      	lsrs	r3, r3, #2
 80044ea:	009a      	lsls	r2, r3, #2
 80044ec:	693b      	ldr	r3, [r7, #16]
 80044ee:	4413      	add	r3, r2
 80044f0:	461a      	mov	r2, r3
 80044f2:	687b      	ldr	r3, [r7, #4]
 80044f4:	649a      	str	r2, [r3, #72]	; 0x48
  hdma->DMAmuxChannelStatus = DMAMUX1_ChannelStatus;
 80044f6:	687b      	ldr	r3, [r7, #4]
 80044f8:	4a0b      	ldr	r2, [pc, #44]	; (8004528 <DMA_CalcDMAMUXChannelBaseAndMask+0x78>)
 80044fa:	64da      	str	r2, [r3, #76]	; 0x4c
  hdma->DMAmuxChannelStatusMask = 1UL << (channel_number & 0x1FU);
 80044fc:	68fb      	ldr	r3, [r7, #12]
 80044fe:	f003 031f 	and.w	r3, r3, #31
 8004502:	2201      	movs	r2, #1
 8004504:	409a      	lsls	r2, r3
 8004506:	687b      	ldr	r3, [r7, #4]
 8004508:	651a      	str	r2, [r3, #80]	; 0x50
}
 800450a:	bf00      	nop
 800450c:	371c      	adds	r7, #28
 800450e:	46bd      	mov	sp, r7
 8004510:	f85d 7b04 	ldr.w	r7, [sp], #4
 8004514:	4770      	bx	lr
 8004516:	bf00      	nop
 8004518:	40020407 	.word	0x40020407
 800451c:	40020800 	.word	0x40020800
 8004520:	40020820 	.word	0x40020820
 8004524:	cccccccd 	.word	0xcccccccd
 8004528:	40020880 	.word	0x40020880

0800452c <DMA_CalcDMAMUXRequestGenBaseAndMask>:
  *                     the configuration information for the specified DMA Channel.
  * @retval None
  */

static void DMA_CalcDMAMUXRequestGenBaseAndMask(DMA_HandleTypeDef *hdma)
{
 800452c:	b480      	push	{r7}
 800452e:	b085      	sub	sp, #20
 8004530:	af00      	add	r7, sp, #0
 8004532:	6078      	str	r0, [r7, #4]
  uint32_t request =  hdma->Init.Request & DMAMUX_CxCR_DMAREQ_ID;
 8004534:	687b      	ldr	r3, [r7, #4]
 8004536:	685b      	ldr	r3, [r3, #4]
 8004538:	b2db      	uxtb	r3, r3
 800453a:	60fb      	str	r3, [r7, #12]

  /* DMA Channels are connected to DMAMUX1 request generator blocks*/
  hdma->DMAmuxRequestGen = (DMAMUX_RequestGen_TypeDef *)((uint32_t)(((uint32_t)DMAMUX1_RequestGenerator0) + ((request - 1U) * 4U)));
 800453c:	68fa      	ldr	r2, [r7, #12]
 800453e:	4b0b      	ldr	r3, [pc, #44]	; (800456c <DMA_CalcDMAMUXRequestGenBaseAndMask+0x40>)
 8004540:	4413      	add	r3, r2
 8004542:	009b      	lsls	r3, r3, #2
 8004544:	461a      	mov	r2, r3
 8004546:	687b      	ldr	r3, [r7, #4]
 8004548:	655a      	str	r2, [r3, #84]	; 0x54

  hdma->DMAmuxRequestGenStatus = DMAMUX1_RequestGenStatus;
 800454a:	687b      	ldr	r3, [r7, #4]
 800454c:	4a08      	ldr	r2, [pc, #32]	; (8004570 <DMA_CalcDMAMUXRequestGenBaseAndMask+0x44>)
 800454e:	659a      	str	r2, [r3, #88]	; 0x58

  hdma->DMAmuxRequestGenStatusMask = 1UL << ((request - 1U) & 0x1FU);
 8004550:	68fb      	ldr	r3, [r7, #12]
 8004552:	3b01      	subs	r3, #1
 8004554:	f003 031f 	and.w	r3, r3, #31
 8004558:	2201      	movs	r2, #1
 800455a:	409a      	lsls	r2, r3
 800455c:	687b      	ldr	r3, [r7, #4]
 800455e:	65da      	str	r2, [r3, #92]	; 0x5c
}
 8004560:	bf00      	nop
 8004562:	3714      	adds	r7, #20
 8004564:	46bd      	mov	sp, r7
 8004566:	f85d 7b04 	ldr.w	r7, [sp], #4
 800456a:	4770      	bx	lr
 800456c:	1000823f 	.word	0x1000823f
 8004570:	40020940 	.word	0x40020940

08004574 <HAL_GPIO_Init>:
  * @param  GPIO_Init pointer to a GPIO_InitTypeDef structure that contains
  *         the configuration information for the specified GPIO peripheral.
  * @retval None
  */
void HAL_GPIO_Init(GPIO_TypeDef  *GPIOx, GPIO_InitTypeDef *GPIO_Init)
{
 8004574:	b480      	push	{r7}
 8004576:	b087      	sub	sp, #28
 8004578:	af00      	add	r7, sp, #0
 800457a:	6078      	str	r0, [r7, #4]
 800457c:	6039      	str	r1, [r7, #0]
  uint32_t position = 0x00U;
 800457e:	2300      	movs	r3, #0
 8004580:	617b      	str	r3, [r7, #20]
  assert_param(IS_GPIO_PIN(GPIO_Init->Pin));
  assert_param(IS_GPIO_MODE(GPIO_Init->Mode));
  assert_param(IS_GPIO_PULL(GPIO_Init->Pull));

  /* Configure the port pins */
  while (((GPIO_Init->Pin) >> position) != 0U)
 8004582:	e15a      	b.n	800483a <HAL_GPIO_Init+0x2c6>
  {
    /* Get current io position */
    iocurrent = (GPIO_Init->Pin) & (1UL << position);
 8004584:	683b      	ldr	r3, [r7, #0]
 8004586:	681a      	ldr	r2, [r3, #0]
 8004588:	2101      	movs	r1, #1
 800458a:	697b      	ldr	r3, [r7, #20]
 800458c:	fa01 f303 	lsl.w	r3, r1, r3
 8004590:	4013      	ands	r3, r2
 8004592:	60fb      	str	r3, [r7, #12]

    if (iocurrent != 0x00u)
 8004594:	68fb      	ldr	r3, [r7, #12]
 8004596:	2b00      	cmp	r3, #0
 8004598:	f000 814c 	beq.w	8004834 <HAL_GPIO_Init+0x2c0>
    {
      /*--------------------- GPIO Mode Configuration ------------------------*/
      /* In case of Output or Alternate function mode selection */
      if ((GPIO_Init->Mode == GPIO_MODE_OUTPUT_PP) || (GPIO_Init->Mode == GPIO_MODE_AF_PP) ||
 800459c:	683b      	ldr	r3, [r7, #0]
 800459e:	685b      	ldr	r3, [r3, #4]
 80045a0:	2b01      	cmp	r3, #1
 80045a2:	d00b      	beq.n	80045bc <HAL_GPIO_Init+0x48>
 80045a4:	683b      	ldr	r3, [r7, #0]
 80045a6:	685b      	ldr	r3, [r3, #4]
 80045a8:	2b02      	cmp	r3, #2
 80045aa:	d007      	beq.n	80045bc <HAL_GPIO_Init+0x48>
          (GPIO_Init->Mode == GPIO_MODE_OUTPUT_OD) || (GPIO_Init->Mode == GPIO_MODE_AF_OD))
 80045ac:	683b      	ldr	r3, [r7, #0]
 80045ae:	685b      	ldr	r3, [r3, #4]
      if ((GPIO_Init->Mode == GPIO_MODE_OUTPUT_PP) || (GPIO_Init->Mode == GPIO_MODE_AF_PP) ||
 80045b0:	2b11      	cmp	r3, #17
 80045b2:	d003      	beq.n	80045bc <HAL_GPIO_Init+0x48>
          (GPIO_Init->Mode == GPIO_MODE_OUTPUT_OD) || (GPIO_Init->Mode == GPIO_MODE_AF_OD))
 80045b4:	683b      	ldr	r3, [r7, #0]
 80045b6:	685b      	ldr	r3, [r3, #4]
 80045b8:	2b12      	cmp	r3, #18
 80045ba:	d130      	bne.n	800461e <HAL_GPIO_Init+0xaa>
      {
        /* Check the Speed parameter */
        assert_param(IS_GPIO_SPEED(GPIO_Init->Speed));
        /* Configure the IO Speed */
        temp = GPIOx->OSPEEDR;
 80045bc:	687b      	ldr	r3, [r7, #4]
 80045be:	689b      	ldr	r3, [r3, #8]
 80045c0:	613b      	str	r3, [r7, #16]
        temp &= ~(GPIO_OSPEEDR_OSPEED0 << (position * 2U));
 80045c2:	697b      	ldr	r3, [r7, #20]
 80045c4:	005b      	lsls	r3, r3, #1
 80045c6:	2203      	movs	r2, #3
 80045c8:	fa02 f303 	lsl.w	r3, r2, r3
 80045cc:	43db      	mvns	r3, r3
 80045ce:	693a      	ldr	r2, [r7, #16]
 80045d0:	4013      	ands	r3, r2
 80045d2:	613b      	str	r3, [r7, #16]
        temp |= (GPIO_Init->Speed << (position * 2U));
 80045d4:	683b      	ldr	r3, [r7, #0]
 80045d6:	68da      	ldr	r2, [r3, #12]
 80045d8:	697b      	ldr	r3, [r7, #20]
 80045da:	005b      	lsls	r3, r3, #1
 80045dc:	fa02 f303 	lsl.w	r3, r2, r3
 80045e0:	693a      	ldr	r2, [r7, #16]
 80045e2:	4313      	orrs	r3, r2
 80045e4:	613b      	str	r3, [r7, #16]
        GPIOx->OSPEEDR = temp;
 80045e6:	687b      	ldr	r3, [r7, #4]
 80045e8:	693a      	ldr	r2, [r7, #16]
 80045ea:	609a      	str	r2, [r3, #8]

        /* Configure the IO Output Type */
        temp = GPIOx->OTYPER;
 80045ec:	687b      	ldr	r3, [r7, #4]
 80045ee:	685b      	ldr	r3, [r3, #4]
 80045f0:	613b      	str	r3, [r7, #16]
        temp &= ~(GPIO_OTYPER_OT0 << position) ;
 80045f2:	2201      	movs	r2, #1
 80045f4:	697b      	ldr	r3, [r7, #20]
 80045f6:	fa02 f303 	lsl.w	r3, r2, r3
 80045fa:	43db      	mvns	r3, r3
 80045fc:	693a      	ldr	r2, [r7, #16]
 80045fe:	4013      	ands	r3, r2
 8004600:	613b      	str	r3, [r7, #16]
        temp |= (((GPIO_Init->Mode & GPIO_OUTPUT_TYPE) >> 4U) << position);
 8004602:	683b      	ldr	r3, [r7, #0]
 8004604:	685b      	ldr	r3, [r3, #4]
 8004606:	091b      	lsrs	r3, r3, #4
 8004608:	f003 0201 	and.w	r2, r3, #1
 800460c:	697b      	ldr	r3, [r7, #20]
 800460e:	fa02 f303 	lsl.w	r3, r2, r3
 8004612:	693a      	ldr	r2, [r7, #16]
 8004614:	4313      	orrs	r3, r2
 8004616:	613b      	str	r3, [r7, #16]
        GPIOx->OTYPER = temp;
 8004618:	687b      	ldr	r3, [r7, #4]
 800461a:	693a      	ldr	r2, [r7, #16]
 800461c:	605a      	str	r2, [r3, #4]
      }

      /* Activate the Pull-up or Pull down resistor for the current IO */
      temp = GPIOx->PUPDR;
 800461e:	687b      	ldr	r3, [r7, #4]
 8004620:	68db      	ldr	r3, [r3, #12]
 8004622:	613b      	str	r3, [r7, #16]
      temp &= ~(GPIO_PUPDR_PUPD0 << (position * 2U));
 8004624:	697b      	ldr	r3, [r7, #20]
 8004626:	005b      	lsls	r3, r3, #1
 8004628:	2203      	movs	r2, #3
 800462a:	fa02 f303 	lsl.w	r3, r2, r3
 800462e:	43db      	mvns	r3, r3
 8004630:	693a      	ldr	r2, [r7, #16]
 8004632:	4013      	ands	r3, r2
 8004634:	613b      	str	r3, [r7, #16]
      temp |= ((GPIO_Init->Pull) << (position * 2U));
 8004636:	683b      	ldr	r3, [r7, #0]
 8004638:	689a      	ldr	r2, [r3, #8]
 800463a:	697b      	ldr	r3, [r7, #20]
 800463c:	005b      	lsls	r3, r3, #1
 800463e:	fa02 f303 	lsl.w	r3, r2, r3
 8004642:	693a      	ldr	r2, [r7, #16]
 8004644:	4313      	orrs	r3, r2
 8004646:	613b      	str	r3, [r7, #16]
      GPIOx->PUPDR = temp;
 8004648:	687b      	ldr	r3, [r7, #4]
 800464a:	693a      	ldr	r2, [r7, #16]
 800464c:	60da      	str	r2, [r3, #12]

      /* In case of Alternate function mode selection */
      if ((GPIO_Init->Mode == GPIO_MODE_AF_PP) || (GPIO_Init->Mode == GPIO_MODE_AF_OD))
 800464e:	683b      	ldr	r3, [r7, #0]
 8004650:	685b      	ldr	r3, [r3, #4]
 8004652:	2b02      	cmp	r3, #2
 8004654:	d003      	beq.n	800465e <HAL_GPIO_Init+0xea>
 8004656:	683b      	ldr	r3, [r7, #0]
 8004658:	685b      	ldr	r3, [r3, #4]
 800465a:	2b12      	cmp	r3, #18
 800465c:	d123      	bne.n	80046a6 <HAL_GPIO_Init+0x132>
        /* Check the Alternate function parameters */
        assert_param(IS_GPIO_AF_INSTANCE(GPIOx));
        assert_param(IS_GPIO_AF(GPIO_Init->Alternate));

        /* Configure Alternate function mapped with the current IO */
        temp = GPIOx->AFR[position >> 3U];
 800465e:	697b      	ldr	r3, [r7, #20]
 8004660:	08da      	lsrs	r2, r3, #3
 8004662:	687b      	ldr	r3, [r7, #4]
 8004664:	3208      	adds	r2, #8
 8004666:	f853 3022 	ldr.w	r3, [r3, r2, lsl #2]
 800466a:	613b      	str	r3, [r7, #16]
        temp &= ~(0xFU << ((position & 0x07U) * 4U));
 800466c:	697b      	ldr	r3, [r7, #20]
 800466e:	f003 0307 	and.w	r3, r3, #7
 8004672:	009b      	lsls	r3, r3, #2
 8004674:	220f      	movs	r2, #15
 8004676:	fa02 f303 	lsl.w	r3, r2, r3
 800467a:	43db      	mvns	r3, r3
 800467c:	693a      	ldr	r2, [r7, #16]
 800467e:	4013      	ands	r3, r2
 8004680:	613b      	str	r3, [r7, #16]
        temp |= ((GPIO_Init->Alternate) << ((position & 0x07U) * 4U));
 8004682:	683b      	ldr	r3, [r7, #0]
 8004684:	691a      	ldr	r2, [r3, #16]
 8004686:	697b      	ldr	r3, [r7, #20]
 8004688:	f003 0307 	and.w	r3, r3, #7
 800468c:	009b      	lsls	r3, r3, #2
 800468e:	fa02 f303 	lsl.w	r3, r2, r3
 8004692:	693a      	ldr	r2, [r7, #16]
 8004694:	4313      	orrs	r3, r2
 8004696:	613b      	str	r3, [r7, #16]
        GPIOx->AFR[position >> 3U] = temp;
 8004698:	697b      	ldr	r3, [r7, #20]
 800469a:	08da      	lsrs	r2, r3, #3
 800469c:	687b      	ldr	r3, [r7, #4]
 800469e:	3208      	adds	r2, #8
 80046a0:	6939      	ldr	r1, [r7, #16]
 80046a2:	f843 1022 	str.w	r1, [r3, r2, lsl #2]
      }

      /* Configure IO Direction mode (Input, Output, Alternate or Analog) */
      temp = GPIOx->MODER;
 80046a6:	687b      	ldr	r3, [r7, #4]
 80046a8:	681b      	ldr	r3, [r3, #0]
 80046aa:	613b      	str	r3, [r7, #16]
      temp &= ~(GPIO_MODER_MODE0 << (position * 2U));
 80046ac:	697b      	ldr	r3, [r7, #20]
 80046ae:	005b      	lsls	r3, r3, #1
 80046b0:	2203      	movs	r2, #3
 80046b2:	fa02 f303 	lsl.w	r3, r2, r3
 80046b6:	43db      	mvns	r3, r3
 80046b8:	693a      	ldr	r2, [r7, #16]
 80046ba:	4013      	ands	r3, r2
 80046bc:	613b      	str	r3, [r7, #16]
      temp |= ((GPIO_Init->Mode & GPIO_MODE) << (position * 2U));
 80046be:	683b      	ldr	r3, [r7, #0]
 80046c0:	685b      	ldr	r3, [r3, #4]
 80046c2:	f003 0203 	and.w	r2, r3, #3
 80046c6:	697b      	ldr	r3, [r7, #20]
 80046c8:	005b      	lsls	r3, r3, #1
 80046ca:	fa02 f303 	lsl.w	r3, r2, r3
 80046ce:	693a      	ldr	r2, [r7, #16]
 80046d0:	4313      	orrs	r3, r2
 80046d2:	613b      	str	r3, [r7, #16]
      GPIOx->MODER = temp;
 80046d4:	687b      	ldr	r3, [r7, #4]
 80046d6:	693a      	ldr	r2, [r7, #16]
 80046d8:	601a      	str	r2, [r3, #0]

      /*--------------------- EXTI Mode Configuration ------------------------*/
      /* Configure the External Interrupt or event for the current IO */
      if ((GPIO_Init->Mode & EXTI_MODE) == EXTI_MODE)
 80046da:	683b      	ldr	r3, [r7, #0]
 80046dc:	685b      	ldr	r3, [r3, #4]
 80046de:	f003 5380 	and.w	r3, r3, #268435456	; 0x10000000
 80046e2:	2b00      	cmp	r3, #0
 80046e4:	f000 80a6 	beq.w	8004834 <HAL_GPIO_Init+0x2c0>
      {
        /* Enable SYSCFG Clock */
        __HAL_RCC_SYSCFG_CLK_ENABLE();
 80046e8:	4b5b      	ldr	r3, [pc, #364]	; (8004858 <HAL_GPIO_Init+0x2e4>)
 80046ea:	6e1b      	ldr	r3, [r3, #96]	; 0x60
 80046ec:	4a5a      	ldr	r2, [pc, #360]	; (8004858 <HAL_GPIO_Init+0x2e4>)
 80046ee:	f043 0301 	orr.w	r3, r3, #1
 80046f2:	6613      	str	r3, [r2, #96]	; 0x60
 80046f4:	4b58      	ldr	r3, [pc, #352]	; (8004858 <HAL_GPIO_Init+0x2e4>)
 80046f6:	6e1b      	ldr	r3, [r3, #96]	; 0x60
 80046f8:	f003 0301 	and.w	r3, r3, #1
 80046fc:	60bb      	str	r3, [r7, #8]
 80046fe:	68bb      	ldr	r3, [r7, #8]

        temp = SYSCFG->EXTICR[position >> 2U];
 8004700:	4a56      	ldr	r2, [pc, #344]	; (800485c <HAL_GPIO_Init+0x2e8>)
 8004702:	697b      	ldr	r3, [r7, #20]
 8004704:	089b      	lsrs	r3, r3, #2
 8004706:	3302      	adds	r3, #2
 8004708:	f852 3023 	ldr.w	r3, [r2, r3, lsl #2]
 800470c:	613b      	str	r3, [r7, #16]
        temp &= ~(0x0FUL << (4U * (position & 0x03U)));
 800470e:	697b      	ldr	r3, [r7, #20]
 8004710:	f003 0303 	and.w	r3, r3, #3
 8004714:	009b      	lsls	r3, r3, #2
 8004716:	220f      	movs	r2, #15
 8004718:	fa02 f303 	lsl.w	r3, r2, r3
 800471c:	43db      	mvns	r3, r3
 800471e:	693a      	ldr	r2, [r7, #16]
 8004720:	4013      	ands	r3, r2
 8004722:	613b      	str	r3, [r7, #16]
        temp |= (GPIO_GET_INDEX(GPIOx) << (4U * (position & 0x03U)));
 8004724:	687b      	ldr	r3, [r7, #4]
 8004726:	f1b3 4f90 	cmp.w	r3, #1207959552	; 0x48000000
 800472a:	d01f      	beq.n	800476c <HAL_GPIO_Init+0x1f8>
 800472c:	687b      	ldr	r3, [r7, #4]
 800472e:	4a4c      	ldr	r2, [pc, #304]	; (8004860 <HAL_GPIO_Init+0x2ec>)
 8004730:	4293      	cmp	r3, r2
 8004732:	d019      	beq.n	8004768 <HAL_GPIO_Init+0x1f4>
 8004734:	687b      	ldr	r3, [r7, #4]
 8004736:	4a4b      	ldr	r2, [pc, #300]	; (8004864 <HAL_GPIO_Init+0x2f0>)
 8004738:	4293      	cmp	r3, r2
 800473a:	d013      	beq.n	8004764 <HAL_GPIO_Init+0x1f0>
 800473c:	687b      	ldr	r3, [r7, #4]
 800473e:	4a4a      	ldr	r2, [pc, #296]	; (8004868 <HAL_GPIO_Init+0x2f4>)
 8004740:	4293      	cmp	r3, r2
 8004742:	d00d      	beq.n	8004760 <HAL_GPIO_Init+0x1ec>
 8004744:	687b      	ldr	r3, [r7, #4]
 8004746:	4a49      	ldr	r2, [pc, #292]	; (800486c <HAL_GPIO_Init+0x2f8>)
 8004748:	4293      	cmp	r3, r2
 800474a:	d007      	beq.n	800475c <HAL_GPIO_Init+0x1e8>
 800474c:	687b      	ldr	r3, [r7, #4]
 800474e:	4a48      	ldr	r2, [pc, #288]	; (8004870 <HAL_GPIO_Init+0x2fc>)
 8004750:	4293      	cmp	r3, r2
 8004752:	d101      	bne.n	8004758 <HAL_GPIO_Init+0x1e4>
 8004754:	2305      	movs	r3, #5
 8004756:	e00a      	b.n	800476e <HAL_GPIO_Init+0x1fa>
 8004758:	2306      	movs	r3, #6
 800475a:	e008      	b.n	800476e <HAL_GPIO_Init+0x1fa>
 800475c:	2304      	movs	r3, #4
 800475e:	e006      	b.n	800476e <HAL_GPIO_Init+0x1fa>
 8004760:	2303      	movs	r3, #3
 8004762:	e004      	b.n	800476e <HAL_GPIO_Init+0x1fa>
 8004764:	2302      	movs	r3, #2
 8004766:	e002      	b.n	800476e <HAL_GPIO_Init+0x1fa>
 8004768:	2301      	movs	r3, #1
 800476a:	e000      	b.n	800476e <HAL_GPIO_Init+0x1fa>
 800476c:	2300      	movs	r3, #0
 800476e:	697a      	ldr	r2, [r7, #20]
 8004770:	f002 0203 	and.w	r2, r2, #3
 8004774:	0092      	lsls	r2, r2, #2
 8004776:	4093      	lsls	r3, r2
 8004778:	693a      	ldr	r2, [r7, #16]
 800477a:	4313      	orrs	r3, r2
 800477c:	613b      	str	r3, [r7, #16]
        SYSCFG->EXTICR[position >> 2U] = temp;
 800477e:	4937      	ldr	r1, [pc, #220]	; (800485c <HAL_GPIO_Init+0x2e8>)
 8004780:	697b      	ldr	r3, [r7, #20]
 8004782:	089b      	lsrs	r3, r3, #2
 8004784:	3302      	adds	r3, #2
 8004786:	693a      	ldr	r2, [r7, #16]
 8004788:	f841 2023 	str.w	r2, [r1, r3, lsl #2]

        /* Clear EXTI line configuration */
        temp = EXTI->IMR1;
 800478c:	4b39      	ldr	r3, [pc, #228]	; (8004874 <HAL_GPIO_Init+0x300>)
 800478e:	681b      	ldr	r3, [r3, #0]
 8004790:	613b      	str	r3, [r7, #16]
        temp &= ~(iocurrent);
 8004792:	68fb      	ldr	r3, [r7, #12]
 8004794:	43db      	mvns	r3, r3
 8004796:	693a      	ldr	r2, [r7, #16]
 8004798:	4013      	ands	r3, r2
 800479a:	613b      	str	r3, [r7, #16]
        if ((GPIO_Init->Mode & GPIO_MODE_IT) == GPIO_MODE_IT)
 800479c:	683b      	ldr	r3, [r7, #0]
 800479e:	685b      	ldr	r3, [r3, #4]
 80047a0:	f403 3380 	and.w	r3, r3, #65536	; 0x10000
 80047a4:	2b00      	cmp	r3, #0
 80047a6:	d003      	beq.n	80047b0 <HAL_GPIO_Init+0x23c>
        {
          temp |= iocurrent;
 80047a8:	693a      	ldr	r2, [r7, #16]
 80047aa:	68fb      	ldr	r3, [r7, #12]
 80047ac:	4313      	orrs	r3, r2
 80047ae:	613b      	str	r3, [r7, #16]
        }
        EXTI->IMR1 = temp;
 80047b0:	4a30      	ldr	r2, [pc, #192]	; (8004874 <HAL_GPIO_Init+0x300>)
 80047b2:	693b      	ldr	r3, [r7, #16]
 80047b4:	6013      	str	r3, [r2, #0]

        temp = EXTI->EMR1;
 80047b6:	4b2f      	ldr	r3, [pc, #188]	; (8004874 <HAL_GPIO_Init+0x300>)
 80047b8:	685b      	ldr	r3, [r3, #4]
 80047ba:	613b      	str	r3, [r7, #16]
        temp &= ~(iocurrent);
 80047bc:	68fb      	ldr	r3, [r7, #12]
 80047be:	43db      	mvns	r3, r3
 80047c0:	693a      	ldr	r2, [r7, #16]
 80047c2:	4013      	ands	r3, r2
 80047c4:	613b      	str	r3, [r7, #16]
        if ((GPIO_Init->Mode & GPIO_MODE_EVT) == GPIO_MODE_EVT)
 80047c6:	683b      	ldr	r3, [r7, #0]
 80047c8:	685b      	ldr	r3, [r3, #4]
 80047ca:	f403 3300 	and.w	r3, r3, #131072	; 0x20000
 80047ce:	2b00      	cmp	r3, #0
 80047d0:	d003      	beq.n	80047da <HAL_GPIO_Init+0x266>
        {
          temp |= iocurrent;
 80047d2:	693a      	ldr	r2, [r7, #16]
 80047d4:	68fb      	ldr	r3, [r7, #12]
 80047d6:	4313      	orrs	r3, r2
 80047d8:	613b      	str	r3, [r7, #16]
        }
        EXTI->EMR1 = temp;
 80047da:	4a26      	ldr	r2, [pc, #152]	; (8004874 <HAL_GPIO_Init+0x300>)
 80047dc:	693b      	ldr	r3, [r7, #16]
 80047de:	6053      	str	r3, [r2, #4]

        /* Clear Rising Falling edge configuration */
        temp = EXTI->RTSR1;
 80047e0:	4b24      	ldr	r3, [pc, #144]	; (8004874 <HAL_GPIO_Init+0x300>)
 80047e2:	689b      	ldr	r3, [r3, #8]
 80047e4:	613b      	str	r3, [r7, #16]
        temp &= ~(iocurrent);
 80047e6:	68fb      	ldr	r3, [r7, #12]
 80047e8:	43db      	mvns	r3, r3
 80047ea:	693a      	ldr	r2, [r7, #16]
 80047ec:	4013      	ands	r3, r2
 80047ee:	613b      	str	r3, [r7, #16]
        if ((GPIO_Init->Mode & RISING_EDGE) == RISING_EDGE)
 80047f0:	683b      	ldr	r3, [r7, #0]
 80047f2:	685b      	ldr	r3, [r3, #4]
 80047f4:	f403 1380 	and.w	r3, r3, #1048576	; 0x100000
 80047f8:	2b00      	cmp	r3, #0
 80047fa:	d003      	beq.n	8004804 <HAL_GPIO_Init+0x290>
        {
          temp |= iocurrent;
 80047fc:	693a      	ldr	r2, [r7, #16]
 80047fe:	68fb      	ldr	r3, [r7, #12]
 8004800:	4313      	orrs	r3, r2
 8004802:	613b      	str	r3, [r7, #16]
        }
        EXTI->RTSR1 = temp;
 8004804:	4a1b      	ldr	r2, [pc, #108]	; (8004874 <HAL_GPIO_Init+0x300>)
 8004806:	693b      	ldr	r3, [r7, #16]
 8004808:	6093      	str	r3, [r2, #8]

        temp = EXTI->FTSR1;
 800480a:	4b1a      	ldr	r3, [pc, #104]	; (8004874 <HAL_GPIO_Init+0x300>)
 800480c:	68db      	ldr	r3, [r3, #12]
 800480e:	613b      	str	r3, [r7, #16]
        temp &= ~(iocurrent);
 8004810:	68fb      	ldr	r3, [r7, #12]
 8004812:	43db      	mvns	r3, r3
 8004814:	693a      	ldr	r2, [r7, #16]
 8004816:	4013      	ands	r3, r2
 8004818:	613b      	str	r3, [r7, #16]
        if ((GPIO_Init->Mode & FALLING_EDGE) == FALLING_EDGE)
 800481a:	683b      	ldr	r3, [r7, #0]
 800481c:	685b      	ldr	r3, [r3, #4]
 800481e:	f403 1300 	and.w	r3, r3, #2097152	; 0x200000
 8004822:	2b00      	cmp	r3, #0
 8004824:	d003      	beq.n	800482e <HAL_GPIO_Init+0x2ba>
        {
          temp |= iocurrent;
 8004826:	693a      	ldr	r2, [r7, #16]
 8004828:	68fb      	ldr	r3, [r7, #12]
 800482a:	4313      	orrs	r3, r2
 800482c:	613b      	str	r3, [r7, #16]
        }
        EXTI->FTSR1 = temp;
 800482e:	4a11      	ldr	r2, [pc, #68]	; (8004874 <HAL_GPIO_Init+0x300>)
 8004830:	693b      	ldr	r3, [r7, #16]
 8004832:	60d3      	str	r3, [r2, #12]
      }
    }

    position++;
 8004834:	697b      	ldr	r3, [r7, #20]
 8004836:	3301      	adds	r3, #1
 8004838:	617b      	str	r3, [r7, #20]
  while (((GPIO_Init->Pin) >> position) != 0U)
 800483a:	683b      	ldr	r3, [r7, #0]
 800483c:	681a      	ldr	r2, [r3, #0]
 800483e:	697b      	ldr	r3, [r7, #20]
 8004840:	fa22 f303 	lsr.w	r3, r2, r3
 8004844:	2b00      	cmp	r3, #0
 8004846:	f47f ae9d 	bne.w	8004584 <HAL_GPIO_Init+0x10>
  }
}
 800484a:	bf00      	nop
 800484c:	371c      	adds	r7, #28
 800484e:	46bd      	mov	sp, r7
 8004850:	f85d 7b04 	ldr.w	r7, [sp], #4
 8004854:	4770      	bx	lr
 8004856:	bf00      	nop
 8004858:	40021000 	.word	0x40021000
 800485c:	40010000 	.word	0x40010000
 8004860:	48000400 	.word	0x48000400
 8004864:	48000800 	.word	0x48000800
 8004868:	48000c00 	.word	0x48000c00
 800486c:	48001000 	.word	0x48001000
 8004870:	48001400 	.word	0x48001400
 8004874:	40010400 	.word	0x40010400

08004878 <HAL_GPIO_ReadPin>:
  * @param  GPIO_Pin specifies the port bit to read.
  *         This parameter can be any combination of GPIO_PIN_x where x can be (0..15).
  * @retval The input port pin value.
  */
GPIO_PinState HAL_GPIO_ReadPin(GPIO_TypeDef *GPIOx, uint16_t GPIO_Pin)
{
 8004878:	b480      	push	{r7}
 800487a:	b085      	sub	sp, #20
 800487c:	af00      	add	r7, sp, #0
 800487e:	6078      	str	r0, [r7, #4]
 8004880:	460b      	mov	r3, r1
 8004882:	807b      	strh	r3, [r7, #2]
  GPIO_PinState bitstatus;

  /* Check the parameters */
  assert_param(IS_GPIO_PIN(GPIO_Pin));

  if ((GPIOx->IDR & GPIO_Pin) != 0x00U)
 8004884:	687b      	ldr	r3, [r7, #4]
 8004886:	691a      	ldr	r2, [r3, #16]
 8004888:	887b      	ldrh	r3, [r7, #2]
 800488a:	4013      	ands	r3, r2
 800488c:	2b00      	cmp	r3, #0
 800488e:	d002      	beq.n	8004896 <HAL_GPIO_ReadPin+0x1e>
  {
    bitstatus = GPIO_PIN_SET;
 8004890:	2301      	movs	r3, #1
 8004892:	73fb      	strb	r3, [r7, #15]
 8004894:	e001      	b.n	800489a <HAL_GPIO_ReadPin+0x22>
  }
  else
  {
    bitstatus = GPIO_PIN_RESET;
 8004896:	2300      	movs	r3, #0
 8004898:	73fb      	strb	r3, [r7, #15]
  }
  return bitstatus;
 800489a:	7bfb      	ldrb	r3, [r7, #15]
}
 800489c:	4618      	mov	r0, r3
 800489e:	3714      	adds	r7, #20
 80048a0:	46bd      	mov	sp, r7
 80048a2:	f85d 7b04 	ldr.w	r7, [sp], #4
 80048a6:	4770      	bx	lr

080048a8 <HAL_GPIO_WritePin>:
  *            @arg GPIO_PIN_RESET: to clear the port pin
  *            @arg GPIO_PIN_SET: to set the port pin
  * @retval None
  */
void HAL_GPIO_WritePin(GPIO_TypeDef *GPIOx, uint16_t GPIO_Pin, GPIO_PinState PinState)
{
 80048a8:	b480      	push	{r7}
 80048aa:	b083      	sub	sp, #12
 80048ac:	af00      	add	r7, sp, #0
 80048ae:	6078      	str	r0, [r7, #4]
 80048b0:	460b      	mov	r3, r1
 80048b2:	807b      	strh	r3, [r7, #2]
 80048b4:	4613      	mov	r3, r2
 80048b6:	707b      	strb	r3, [r7, #1]
  /* Check the parameters */
  assert_param(IS_GPIO_PIN(GPIO_Pin));
  assert_param(IS_GPIO_PIN_ACTION(PinState));

  if (PinState != GPIO_PIN_RESET)
 80048b8:	787b      	ldrb	r3, [r7, #1]
 80048ba:	2b00      	cmp	r3, #0
 80048bc:	d003      	beq.n	80048c6 <HAL_GPIO_WritePin+0x1e>
  {
    GPIOx->BSRR = (uint32_t)GPIO_Pin;
 80048be:	887a      	ldrh	r2, [r7, #2]
 80048c0:	687b      	ldr	r3, [r7, #4]
 80048c2:	619a      	str	r2, [r3, #24]
  }
  else
  {
    GPIOx->BRR = (uint32_t)GPIO_Pin;
  }
}
 80048c4:	e002      	b.n	80048cc <HAL_GPIO_WritePin+0x24>
    GPIOx->BRR = (uint32_t)GPIO_Pin;
 80048c6:	887a      	ldrh	r2, [r7, #2]
 80048c8:	687b      	ldr	r3, [r7, #4]
 80048ca:	629a      	str	r2, [r3, #40]	; 0x28
}
 80048cc:	bf00      	nop
 80048ce:	370c      	adds	r7, #12
 80048d0:	46bd      	mov	sp, r7
 80048d2:	f85d 7b04 	ldr.w	r7, [sp], #4
 80048d6:	4770      	bx	lr

080048d8 <HAL_PWREx_ControlVoltageScaling>:
  *        cleared before returning the status. If the flag is not cleared within
  *        50 microseconds, HAL_TIMEOUT status is reported.
  * @retval HAL Status
  */
HAL_StatusTypeDef HAL_PWREx_ControlVoltageScaling(uint32_t VoltageScaling)
{
 80048d8:	b480      	push	{r7}
 80048da:	b085      	sub	sp, #20
 80048dc:	af00      	add	r7, sp, #0
 80048de:	6078      	str	r0, [r7, #4]
  uint32_t wait_loop_index;

  assert_param(IS_PWR_VOLTAGE_SCALING_RANGE(VoltageScaling));

  if (VoltageScaling == PWR_REGULATOR_VOLTAGE_SCALE1_BOOST)
 80048e0:	687b      	ldr	r3, [r7, #4]
 80048e2:	2b00      	cmp	r3, #0
 80048e4:	d141      	bne.n	800496a <HAL_PWREx_ControlVoltageScaling+0x92>
  {
    /* If current range is range 2 */
    if (READ_BIT(PWR->CR1, PWR_CR1_VOS) == PWR_REGULATOR_VOLTAGE_SCALE2)
 80048e6:	4b4b      	ldr	r3, [pc, #300]	; (8004a14 <HAL_PWREx_ControlVoltageScaling+0x13c>)
 80048e8:	681b      	ldr	r3, [r3, #0]
 80048ea:	f403 63c0 	and.w	r3, r3, #1536	; 0x600
 80048ee:	f5b3 6f80 	cmp.w	r3, #1024	; 0x400
 80048f2:	d131      	bne.n	8004958 <HAL_PWREx_ControlVoltageScaling+0x80>
    {
      /* Make sure Range 1 Boost is enabled */
      CLEAR_BIT(PWR->CR5, PWR_CR5_R1MODE);
 80048f4:	4b47      	ldr	r3, [pc, #284]	; (8004a14 <HAL_PWREx_ControlVoltageScaling+0x13c>)
 80048f6:	f8d3 3080 	ldr.w	r3, [r3, #128]	; 0x80
 80048fa:	4a46      	ldr	r2, [pc, #280]	; (8004a14 <HAL_PWREx_ControlVoltageScaling+0x13c>)
 80048fc:	f423 7380 	bic.w	r3, r3, #256	; 0x100
 8004900:	f8c2 3080 	str.w	r3, [r2, #128]	; 0x80

      /* Set Range 1 */
      MODIFY_REG(PWR->CR1, PWR_CR1_VOS, PWR_REGULATOR_VOLTAGE_SCALE1);
 8004904:	4b43      	ldr	r3, [pc, #268]	; (8004a14 <HAL_PWREx_ControlVoltageScaling+0x13c>)
 8004906:	681b      	ldr	r3, [r3, #0]
 8004908:	f423 63c0 	bic.w	r3, r3, #1536	; 0x600
 800490c:	4a41      	ldr	r2, [pc, #260]	; (8004a14 <HAL_PWREx_ControlVoltageScaling+0x13c>)
 800490e:	f443 7300 	orr.w	r3, r3, #512	; 0x200
 8004912:	6013      	str	r3, [r2, #0]

      /* Wait until VOSF is cleared */
      wait_loop_index = ((PWR_FLAG_SETTING_DELAY_US * SystemCoreClock) / 1000000U) + 1U;
 8004914:	4b40      	ldr	r3, [pc, #256]	; (8004a18 <HAL_PWREx_ControlVoltageScaling+0x140>)
 8004916:	681b      	ldr	r3, [r3, #0]
 8004918:	2232      	movs	r2, #50	; 0x32
 800491a:	fb02 f303 	mul.w	r3, r2, r3
 800491e:	4a3f      	ldr	r2, [pc, #252]	; (8004a1c <HAL_PWREx_ControlVoltageScaling+0x144>)
 8004920:	fba2 2303 	umull	r2, r3, r2, r3
 8004924:	0c9b      	lsrs	r3, r3, #18
 8004926:	3301      	adds	r3, #1
 8004928:	60fb      	str	r3, [r7, #12]
      while ((HAL_IS_BIT_SET(PWR->SR2, PWR_SR2_VOSF)) && (wait_loop_index != 0U))
 800492a:	e002      	b.n	8004932 <HAL_PWREx_ControlVoltageScaling+0x5a>
      {
        wait_loop_index--;
 800492c:	68fb      	ldr	r3, [r7, #12]
 800492e:	3b01      	subs	r3, #1
 8004930:	60fb      	str	r3, [r7, #12]
      while ((HAL_IS_BIT_SET(PWR->SR2, PWR_SR2_VOSF)) && (wait_loop_index != 0U))
 8004932:	4b38      	ldr	r3, [pc, #224]	; (8004a14 <HAL_PWREx_ControlVoltageScaling+0x13c>)
 8004934:	695b      	ldr	r3, [r3, #20]
 8004936:	f403 6380 	and.w	r3, r3, #1024	; 0x400
 800493a:	f5b3 6f80 	cmp.w	r3, #1024	; 0x400
 800493e:	d102      	bne.n	8004946 <HAL_PWREx_ControlVoltageScaling+0x6e>
 8004940:	68fb      	ldr	r3, [r7, #12]
 8004942:	2b00      	cmp	r3, #0
 8004944:	d1f2      	bne.n	800492c <HAL_PWREx_ControlVoltageScaling+0x54>
      }
      if (HAL_IS_BIT_SET(PWR->SR2, PWR_SR2_VOSF))
 8004946:	4b33      	ldr	r3, [pc, #204]	; (8004a14 <HAL_PWREx_ControlVoltageScaling+0x13c>)
 8004948:	695b      	ldr	r3, [r3, #20]
 800494a:	f403 6380 	and.w	r3, r3, #1024	; 0x400
 800494e:	f5b3 6f80 	cmp.w	r3, #1024	; 0x400
 8004952:	d158      	bne.n	8004a06 <HAL_PWREx_ControlVoltageScaling+0x12e>
      {
        return HAL_TIMEOUT;
 8004954:	2303      	movs	r3, #3
 8004956:	e057      	b.n	8004a08 <HAL_PWREx_ControlVoltageScaling+0x130>
    }
    /* If current range is range 1 normal or boost mode */
    else
    {
      /* Enable Range 1 Boost (no issue if bit already reset) */
      CLEAR_BIT(PWR->CR5, PWR_CR5_R1MODE);
 8004958:	4b2e      	ldr	r3, [pc, #184]	; (8004a14 <HAL_PWREx_ControlVoltageScaling+0x13c>)
 800495a:	f8d3 3080 	ldr.w	r3, [r3, #128]	; 0x80
 800495e:	4a2d      	ldr	r2, [pc, #180]	; (8004a14 <HAL_PWREx_ControlVoltageScaling+0x13c>)
 8004960:	f423 7380 	bic.w	r3, r3, #256	; 0x100
 8004964:	f8c2 3080 	str.w	r3, [r2, #128]	; 0x80
 8004968:	e04d      	b.n	8004a06 <HAL_PWREx_ControlVoltageScaling+0x12e>
    }
  }
  else if (VoltageScaling == PWR_REGULATOR_VOLTAGE_SCALE1)
 800496a:	687b      	ldr	r3, [r7, #4]
 800496c:	f5b3 7f00 	cmp.w	r3, #512	; 0x200
 8004970:	d141      	bne.n	80049f6 <HAL_PWREx_ControlVoltageScaling+0x11e>
  {
    /* If current range is range 2 */
    if (READ_BIT(PWR->CR1, PWR_CR1_VOS) == PWR_REGULATOR_VOLTAGE_SCALE2)
 8004972:	4b28      	ldr	r3, [pc, #160]	; (8004a14 <HAL_PWREx_ControlVoltageScaling+0x13c>)
 8004974:	681b      	ldr	r3, [r3, #0]
 8004976:	f403 63c0 	and.w	r3, r3, #1536	; 0x600
 800497a:	f5b3 6f80 	cmp.w	r3, #1024	; 0x400
 800497e:	d131      	bne.n	80049e4 <HAL_PWREx_ControlVoltageScaling+0x10c>
    {
      /* Make sure Range 1 Boost is disabled */
      SET_BIT(PWR->CR5, PWR_CR5_R1MODE);
 8004980:	4b24      	ldr	r3, [pc, #144]	; (8004a14 <HAL_PWREx_ControlVoltageScaling+0x13c>)
 8004982:	f8d3 3080 	ldr.w	r3, [r3, #128]	; 0x80
 8004986:	4a23      	ldr	r2, [pc, #140]	; (8004a14 <HAL_PWREx_ControlVoltageScaling+0x13c>)
 8004988:	f443 7380 	orr.w	r3, r3, #256	; 0x100
 800498c:	f8c2 3080 	str.w	r3, [r2, #128]	; 0x80

      /* Set Range 1 */
      MODIFY_REG(PWR->CR1, PWR_CR1_VOS, PWR_REGULATOR_VOLTAGE_SCALE1);
 8004990:	4b20      	ldr	r3, [pc, #128]	; (8004a14 <HAL_PWREx_ControlVoltageScaling+0x13c>)
 8004992:	681b      	ldr	r3, [r3, #0]
 8004994:	f423 63c0 	bic.w	r3, r3, #1536	; 0x600
 8004998:	4a1e      	ldr	r2, [pc, #120]	; (8004a14 <HAL_PWREx_ControlVoltageScaling+0x13c>)
 800499a:	f443 7300 	orr.w	r3, r3, #512	; 0x200
 800499e:	6013      	str	r3, [r2, #0]

      /* Wait until VOSF is cleared */
      wait_loop_index = ((PWR_FLAG_SETTING_DELAY_US * SystemCoreClock) / 1000000U) + 1U;
 80049a0:	4b1d      	ldr	r3, [pc, #116]	; (8004a18 <HAL_PWREx_ControlVoltageScaling+0x140>)
 80049a2:	681b      	ldr	r3, [r3, #0]
 80049a4:	2232      	movs	r2, #50	; 0x32
 80049a6:	fb02 f303 	mul.w	r3, r2, r3
 80049aa:	4a1c      	ldr	r2, [pc, #112]	; (8004a1c <HAL_PWREx_ControlVoltageScaling+0x144>)
 80049ac:	fba2 2303 	umull	r2, r3, r2, r3
 80049b0:	0c9b      	lsrs	r3, r3, #18
 80049b2:	3301      	adds	r3, #1
 80049b4:	60fb      	str	r3, [r7, #12]
      while ((HAL_IS_BIT_SET(PWR->SR2, PWR_SR2_VOSF)) && (wait_loop_index != 0U))
 80049b6:	e002      	b.n	80049be <HAL_PWREx_ControlVoltageScaling+0xe6>
      {
        wait_loop_index--;
 80049b8:	68fb      	ldr	r3, [r7, #12]
 80049ba:	3b01      	subs	r3, #1
 80049bc:	60fb      	str	r3, [r7, #12]
      while ((HAL_IS_BIT_SET(PWR->SR2, PWR_SR2_VOSF)) && (wait_loop_index != 0U))
 80049be:	4b15      	ldr	r3, [pc, #84]	; (8004a14 <HAL_PWREx_ControlVoltageScaling+0x13c>)
 80049c0:	695b      	ldr	r3, [r3, #20]
 80049c2:	f403 6380 	and.w	r3, r3, #1024	; 0x400
 80049c6:	f5b3 6f80 	cmp.w	r3, #1024	; 0x400
 80049ca:	d102      	bne.n	80049d2 <HAL_PWREx_ControlVoltageScaling+0xfa>
 80049cc:	68fb      	ldr	r3, [r7, #12]
 80049ce:	2b00      	cmp	r3, #0
 80049d0:	d1f2      	bne.n	80049b8 <HAL_PWREx_ControlVoltageScaling+0xe0>
      }
      if (HAL_IS_BIT_SET(PWR->SR2, PWR_SR2_VOSF))
 80049d2:	4b10      	ldr	r3, [pc, #64]	; (8004a14 <HAL_PWREx_ControlVoltageScaling+0x13c>)
 80049d4:	695b      	ldr	r3, [r3, #20]
 80049d6:	f403 6380 	and.w	r3, r3, #1024	; 0x400
 80049da:	f5b3 6f80 	cmp.w	r3, #1024	; 0x400
 80049de:	d112      	bne.n	8004a06 <HAL_PWREx_ControlVoltageScaling+0x12e>
      {
        return HAL_TIMEOUT;
 80049e0:	2303      	movs	r3, #3
 80049e2:	e011      	b.n	8004a08 <HAL_PWREx_ControlVoltageScaling+0x130>
    }
     /* If current range is range 1 normal or boost mode */
    else
    {
      /* Disable Range 1 Boost (no issue if bit already set) */
      SET_BIT(PWR->CR5, PWR_CR5_R1MODE);
 80049e4:	4b0b      	ldr	r3, [pc, #44]	; (8004a14 <HAL_PWREx_ControlVoltageScaling+0x13c>)
 80049e6:	f8d3 3080 	ldr.w	r3, [r3, #128]	; 0x80
 80049ea:	4a0a      	ldr	r2, [pc, #40]	; (8004a14 <HAL_PWREx_ControlVoltageScaling+0x13c>)
 80049ec:	f443 7380 	orr.w	r3, r3, #256	; 0x100
 80049f0:	f8c2 3080 	str.w	r3, [r2, #128]	; 0x80
 80049f4:	e007      	b.n	8004a06 <HAL_PWREx_ControlVoltageScaling+0x12e>
    }
  }
  else
  {
    /* Set Range 2 */
    MODIFY_REG(PWR->CR1, PWR_CR1_VOS, PWR_REGULATOR_VOLTAGE_SCALE2);
 80049f6:	4b07      	ldr	r3, [pc, #28]	; (8004a14 <HAL_PWREx_ControlVoltageScaling+0x13c>)
 80049f8:	681b      	ldr	r3, [r3, #0]
 80049fa:	f423 63c0 	bic.w	r3, r3, #1536	; 0x600
 80049fe:	4a05      	ldr	r2, [pc, #20]	; (8004a14 <HAL_PWREx_ControlVoltageScaling+0x13c>)
 8004a00:	f443 6380 	orr.w	r3, r3, #1024	; 0x400
 8004a04:	6013      	str	r3, [r2, #0]
    /* No need to wait for VOSF to be cleared for this transition */
    /* PWR_CR5_R1MODE bit setting has no effect in Range 2        */
  }

  return HAL_OK;
 8004a06:	2300      	movs	r3, #0
}
 8004a08:	4618      	mov	r0, r3
 8004a0a:	3714      	adds	r7, #20
 8004a0c:	46bd      	mov	sp, r7
 8004a0e:	f85d 7b04 	ldr.w	r7, [sp], #4
 8004a12:	4770      	bx	lr
 8004a14:	40007000 	.word	0x40007000
 8004a18:	20001f44 	.word	0x20001f44
 8004a1c:	431bde83 	.word	0x431bde83

08004a20 <HAL_RCC_OscConfig>:
  *         supported by this macro. User should request a transition to HSE Off
  *         first and then HSE On or HSE Bypass.
  * @retval HAL status
  */
HAL_StatusTypeDef HAL_RCC_OscConfig(RCC_OscInitTypeDef  *RCC_OscInitStruct)
{
 8004a20:	b580      	push	{r7, lr}
 8004a22:	b088      	sub	sp, #32
 8004a24:	af00      	add	r7, sp, #0
 8004a26:	6078      	str	r0, [r7, #4]
  uint32_t tickstart;
  uint32_t temp_sysclksrc;
  uint32_t temp_pllckcfg;

  /* Check Null pointer */
  if (RCC_OscInitStruct == NULL)
 8004a28:	687b      	ldr	r3, [r7, #4]
 8004a2a:	2b00      	cmp	r3, #0
 8004a2c:	d101      	bne.n	8004a32 <HAL_RCC_OscConfig+0x12>
  {
    return HAL_ERROR;
 8004a2e:	2301      	movs	r3, #1
 8004a30:	e308      	b.n	8005044 <HAL_RCC_OscConfig+0x624>

  /* Check the parameters */
  assert_param(IS_RCC_OSCILLATORTYPE(RCC_OscInitStruct->OscillatorType));

  /*------------------------------- HSE Configuration ------------------------*/
  if (((RCC_OscInitStruct->OscillatorType) & RCC_OSCILLATORTYPE_HSE) == RCC_OSCILLATORTYPE_HSE)
 8004a32:	687b      	ldr	r3, [r7, #4]
 8004a34:	681b      	ldr	r3, [r3, #0]
 8004a36:	f003 0301 	and.w	r3, r3, #1
 8004a3a:	2b00      	cmp	r3, #0
 8004a3c:	d075      	beq.n	8004b2a <HAL_RCC_OscConfig+0x10a>
  {
    /* Check the parameters */
    assert_param(IS_RCC_HSE(RCC_OscInitStruct->HSEState));

    temp_sysclksrc = __HAL_RCC_GET_SYSCLK_SOURCE();
 8004a3e:	4ba3      	ldr	r3, [pc, #652]	; (8004ccc <HAL_RCC_OscConfig+0x2ac>)
 8004a40:	689b      	ldr	r3, [r3, #8]
 8004a42:	f003 030c 	and.w	r3, r3, #12
 8004a46:	61bb      	str	r3, [r7, #24]
    temp_pllckcfg = __HAL_RCC_GET_PLL_OSCSOURCE();
 8004a48:	4ba0      	ldr	r3, [pc, #640]	; (8004ccc <HAL_RCC_OscConfig+0x2ac>)
 8004a4a:	68db      	ldr	r3, [r3, #12]
 8004a4c:	f003 0303 	and.w	r3, r3, #3
 8004a50:	617b      	str	r3, [r7, #20]

    /* When the HSE is used as system clock or clock source for PLL in these cases it is not allowed to be disabled */
    if (((temp_sysclksrc == RCC_CFGR_SWS_PLL) && (temp_pllckcfg == RCC_PLLSOURCE_HSE)) || (temp_sysclksrc == RCC_CFGR_SWS_HSE))
 8004a52:	69bb      	ldr	r3, [r7, #24]
 8004a54:	2b0c      	cmp	r3, #12
 8004a56:	d102      	bne.n	8004a5e <HAL_RCC_OscConfig+0x3e>
 8004a58:	697b      	ldr	r3, [r7, #20]
 8004a5a:	2b03      	cmp	r3, #3
 8004a5c:	d002      	beq.n	8004a64 <HAL_RCC_OscConfig+0x44>
 8004a5e:	69bb      	ldr	r3, [r7, #24]
 8004a60:	2b08      	cmp	r3, #8
 8004a62:	d10b      	bne.n	8004a7c <HAL_RCC_OscConfig+0x5c>
    {
      if ((READ_BIT(RCC->CR, RCC_CR_HSERDY) != 0U) && (RCC_OscInitStruct->HSEState == RCC_HSE_OFF))
 8004a64:	4b99      	ldr	r3, [pc, #612]	; (8004ccc <HAL_RCC_OscConfig+0x2ac>)
 8004a66:	681b      	ldr	r3, [r3, #0]
 8004a68:	f403 3300 	and.w	r3, r3, #131072	; 0x20000
 8004a6c:	2b00      	cmp	r3, #0
 8004a6e:	d05b      	beq.n	8004b28 <HAL_RCC_OscConfig+0x108>
 8004a70:	687b      	ldr	r3, [r7, #4]
 8004a72:	685b      	ldr	r3, [r3, #4]
 8004a74:	2b00      	cmp	r3, #0
 8004a76:	d157      	bne.n	8004b28 <HAL_RCC_OscConfig+0x108>
      {
        return HAL_ERROR;
 8004a78:	2301      	movs	r3, #1
 8004a7a:	e2e3      	b.n	8005044 <HAL_RCC_OscConfig+0x624>
      }
    }
    else
    {
      /* Set the new HSE configuration ---------------------------------------*/
      __HAL_RCC_HSE_CONFIG(RCC_OscInitStruct->HSEState);
 8004a7c:	687b      	ldr	r3, [r7, #4]
 8004a7e:	685b      	ldr	r3, [r3, #4]
 8004a80:	f5b3 3f80 	cmp.w	r3, #65536	; 0x10000
 8004a84:	d106      	bne.n	8004a94 <HAL_RCC_OscConfig+0x74>
 8004a86:	4b91      	ldr	r3, [pc, #580]	; (8004ccc <HAL_RCC_OscConfig+0x2ac>)
 8004a88:	681b      	ldr	r3, [r3, #0]
 8004a8a:	4a90      	ldr	r2, [pc, #576]	; (8004ccc <HAL_RCC_OscConfig+0x2ac>)
 8004a8c:	f443 3380 	orr.w	r3, r3, #65536	; 0x10000
 8004a90:	6013      	str	r3, [r2, #0]
 8004a92:	e01d      	b.n	8004ad0 <HAL_RCC_OscConfig+0xb0>
 8004a94:	687b      	ldr	r3, [r7, #4]
 8004a96:	685b      	ldr	r3, [r3, #4]
 8004a98:	f5b3 2fa0 	cmp.w	r3, #327680	; 0x50000
 8004a9c:	d10c      	bne.n	8004ab8 <HAL_RCC_OscConfig+0x98>
 8004a9e:	4b8b      	ldr	r3, [pc, #556]	; (8004ccc <HAL_RCC_OscConfig+0x2ac>)
 8004aa0:	681b      	ldr	r3, [r3, #0]
 8004aa2:	4a8a      	ldr	r2, [pc, #552]	; (8004ccc <HAL_RCC_OscConfig+0x2ac>)
 8004aa4:	f443 2380 	orr.w	r3, r3, #262144	; 0x40000
 8004aa8:	6013      	str	r3, [r2, #0]
 8004aaa:	4b88      	ldr	r3, [pc, #544]	; (8004ccc <HAL_RCC_OscConfig+0x2ac>)
 8004aac:	681b      	ldr	r3, [r3, #0]
 8004aae:	4a87      	ldr	r2, [pc, #540]	; (8004ccc <HAL_RCC_OscConfig+0x2ac>)
 8004ab0:	f443 3380 	orr.w	r3, r3, #65536	; 0x10000
 8004ab4:	6013      	str	r3, [r2, #0]
 8004ab6:	e00b      	b.n	8004ad0 <HAL_RCC_OscConfig+0xb0>
 8004ab8:	4b84      	ldr	r3, [pc, #528]	; (8004ccc <HAL_RCC_OscConfig+0x2ac>)
 8004aba:	681b      	ldr	r3, [r3, #0]
 8004abc:	4a83      	ldr	r2, [pc, #524]	; (8004ccc <HAL_RCC_OscConfig+0x2ac>)
 8004abe:	f423 3380 	bic.w	r3, r3, #65536	; 0x10000
 8004ac2:	6013      	str	r3, [r2, #0]
 8004ac4:	4b81      	ldr	r3, [pc, #516]	; (8004ccc <HAL_RCC_OscConfig+0x2ac>)
 8004ac6:	681b      	ldr	r3, [r3, #0]
 8004ac8:	4a80      	ldr	r2, [pc, #512]	; (8004ccc <HAL_RCC_OscConfig+0x2ac>)
 8004aca:	f423 2380 	bic.w	r3, r3, #262144	; 0x40000
 8004ace:	6013      	str	r3, [r2, #0]

      /* Check the HSE State */
      if (RCC_OscInitStruct->HSEState != RCC_HSE_OFF)
 8004ad0:	687b      	ldr	r3, [r7, #4]
 8004ad2:	685b      	ldr	r3, [r3, #4]
 8004ad4:	2b00      	cmp	r3, #0
 8004ad6:	d013      	beq.n	8004b00 <HAL_RCC_OscConfig+0xe0>
      {
        /* Get Start Tick*/
        tickstart = HAL_GetTick();
 8004ad8:	f7fd faaa 	bl	8002030 <HAL_GetTick>
 8004adc:	6138      	str	r0, [r7, #16]

        /* Wait till HSE is ready */
        while (READ_BIT(RCC->CR, RCC_CR_HSERDY) == 0U)
 8004ade:	e008      	b.n	8004af2 <HAL_RCC_OscConfig+0xd2>
        {
          if ((HAL_GetTick() - tickstart) > HSE_TIMEOUT_VALUE)
 8004ae0:	f7fd faa6 	bl	8002030 <HAL_GetTick>
 8004ae4:	4602      	mov	r2, r0
 8004ae6:	693b      	ldr	r3, [r7, #16]
 8004ae8:	1ad3      	subs	r3, r2, r3
 8004aea:	2b64      	cmp	r3, #100	; 0x64
 8004aec:	d901      	bls.n	8004af2 <HAL_RCC_OscConfig+0xd2>
          {
            return HAL_TIMEOUT;
 8004aee:	2303      	movs	r3, #3
 8004af0:	e2a8      	b.n	8005044 <HAL_RCC_OscConfig+0x624>
        while (READ_BIT(RCC->CR, RCC_CR_HSERDY) == 0U)
 8004af2:	4b76      	ldr	r3, [pc, #472]	; (8004ccc <HAL_RCC_OscConfig+0x2ac>)
 8004af4:	681b      	ldr	r3, [r3, #0]
 8004af6:	f403 3300 	and.w	r3, r3, #131072	; 0x20000
 8004afa:	2b00      	cmp	r3, #0
 8004afc:	d0f0      	beq.n	8004ae0 <HAL_RCC_OscConfig+0xc0>
 8004afe:	e014      	b.n	8004b2a <HAL_RCC_OscConfig+0x10a>
        }
      }
      else
      {
        /* Get Start Tick*/
        tickstart = HAL_GetTick();
 8004b00:	f7fd fa96 	bl	8002030 <HAL_GetTick>
 8004b04:	6138      	str	r0, [r7, #16]

        /* Wait till HSE is disabled */
        while (READ_BIT(RCC->CR, RCC_CR_HSERDY) != 0U)
 8004b06:	e008      	b.n	8004b1a <HAL_RCC_OscConfig+0xfa>
        {
          if ((HAL_GetTick() - tickstart) > HSE_TIMEOUT_VALUE)
 8004b08:	f7fd fa92 	bl	8002030 <HAL_GetTick>
 8004b0c:	4602      	mov	r2, r0
 8004b0e:	693b      	ldr	r3, [r7, #16]
 8004b10:	1ad3      	subs	r3, r2, r3
 8004b12:	2b64      	cmp	r3, #100	; 0x64
 8004b14:	d901      	bls.n	8004b1a <HAL_RCC_OscConfig+0xfa>
          {
            return HAL_TIMEOUT;
 8004b16:	2303      	movs	r3, #3
 8004b18:	e294      	b.n	8005044 <HAL_RCC_OscConfig+0x624>
        while (READ_BIT(RCC->CR, RCC_CR_HSERDY) != 0U)
 8004b1a:	4b6c      	ldr	r3, [pc, #432]	; (8004ccc <HAL_RCC_OscConfig+0x2ac>)
 8004b1c:	681b      	ldr	r3, [r3, #0]
 8004b1e:	f403 3300 	and.w	r3, r3, #131072	; 0x20000
 8004b22:	2b00      	cmp	r3, #0
 8004b24:	d1f0      	bne.n	8004b08 <HAL_RCC_OscConfig+0xe8>
 8004b26:	e000      	b.n	8004b2a <HAL_RCC_OscConfig+0x10a>
      if ((READ_BIT(RCC->CR, RCC_CR_HSERDY) != 0U) && (RCC_OscInitStruct->HSEState == RCC_HSE_OFF))
 8004b28:	bf00      	nop
        }
      }
    }
  }
  /*----------------------------- HSI Configuration --------------------------*/
  if (((RCC_OscInitStruct->OscillatorType) & RCC_OSCILLATORTYPE_HSI) == RCC_OSCILLATORTYPE_HSI)
 8004b2a:	687b      	ldr	r3, [r7, #4]
 8004b2c:	681b      	ldr	r3, [r3, #0]
 8004b2e:	f003 0302 	and.w	r3, r3, #2
 8004b32:	2b00      	cmp	r3, #0
 8004b34:	d075      	beq.n	8004c22 <HAL_RCC_OscConfig+0x202>
    /* Check the parameters */
    assert_param(IS_RCC_HSI(RCC_OscInitStruct->HSIState));
    assert_param(IS_RCC_HSI_CALIBRATION_VALUE(RCC_OscInitStruct->HSICalibrationValue));

    /* Check if HSI is used as system clock or as PLL source when PLL is selected as system clock */
    temp_sysclksrc = __HAL_RCC_GET_SYSCLK_SOURCE();
 8004b36:	4b65      	ldr	r3, [pc, #404]	; (8004ccc <HAL_RCC_OscConfig+0x2ac>)
 8004b38:	689b      	ldr	r3, [r3, #8]
 8004b3a:	f003 030c 	and.w	r3, r3, #12
 8004b3e:	61bb      	str	r3, [r7, #24]
    temp_pllckcfg = __HAL_RCC_GET_PLL_OSCSOURCE();
 8004b40:	4b62      	ldr	r3, [pc, #392]	; (8004ccc <HAL_RCC_OscConfig+0x2ac>)
 8004b42:	68db      	ldr	r3, [r3, #12]
 8004b44:	f003 0303 	and.w	r3, r3, #3
 8004b48:	617b      	str	r3, [r7, #20]
    if (((temp_sysclksrc == RCC_CFGR_SWS_PLL) && (temp_pllckcfg == RCC_PLLSOURCE_HSI)) || (temp_sysclksrc == RCC_CFGR_SWS_HSI))
 8004b4a:	69bb      	ldr	r3, [r7, #24]
 8004b4c:	2b0c      	cmp	r3, #12
 8004b4e:	d102      	bne.n	8004b56 <HAL_RCC_OscConfig+0x136>
 8004b50:	697b      	ldr	r3, [r7, #20]
 8004b52:	2b02      	cmp	r3, #2
 8004b54:	d002      	beq.n	8004b5c <HAL_RCC_OscConfig+0x13c>
 8004b56:	69bb      	ldr	r3, [r7, #24]
 8004b58:	2b04      	cmp	r3, #4
 8004b5a:	d11f      	bne.n	8004b9c <HAL_RCC_OscConfig+0x17c>
    {
      /* When HSI is used as system clock it will not be disabled */
      if ((READ_BIT(RCC->CR, RCC_CR_HSIRDY) != 0U) && (RCC_OscInitStruct->HSIState == RCC_HSI_OFF))
 8004b5c:	4b5b      	ldr	r3, [pc, #364]	; (8004ccc <HAL_RCC_OscConfig+0x2ac>)
 8004b5e:	681b      	ldr	r3, [r3, #0]
 8004b60:	f403 6380 	and.w	r3, r3, #1024	; 0x400
 8004b64:	2b00      	cmp	r3, #0
 8004b66:	d005      	beq.n	8004b74 <HAL_RCC_OscConfig+0x154>
 8004b68:	687b      	ldr	r3, [r7, #4]
 8004b6a:	68db      	ldr	r3, [r3, #12]
 8004b6c:	2b00      	cmp	r3, #0
 8004b6e:	d101      	bne.n	8004b74 <HAL_RCC_OscConfig+0x154>
      {
        return HAL_ERROR;
 8004b70:	2301      	movs	r3, #1
 8004b72:	e267      	b.n	8005044 <HAL_RCC_OscConfig+0x624>
      }
      /* Otherwise, just the calibration is allowed */
      else
      {
        /* Adjusts the Internal High Speed oscillator (HSI) calibration value.*/
        __HAL_RCC_HSI_CALIBRATIONVALUE_ADJUST(RCC_OscInitStruct->HSICalibrationValue);
 8004b74:	4b55      	ldr	r3, [pc, #340]	; (8004ccc <HAL_RCC_OscConfig+0x2ac>)
 8004b76:	685b      	ldr	r3, [r3, #4]
 8004b78:	f023 42fe 	bic.w	r2, r3, #2130706432	; 0x7f000000
 8004b7c:	687b      	ldr	r3, [r7, #4]
 8004b7e:	691b      	ldr	r3, [r3, #16]
 8004b80:	061b      	lsls	r3, r3, #24
 8004b82:	4952      	ldr	r1, [pc, #328]	; (8004ccc <HAL_RCC_OscConfig+0x2ac>)
 8004b84:	4313      	orrs	r3, r2
 8004b86:	604b      	str	r3, [r1, #4]

        /* Adapt Systick interrupt period */
        if (HAL_InitTick(uwTickPrio) != HAL_OK)
 8004b88:	4b51      	ldr	r3, [pc, #324]	; (8004cd0 <HAL_RCC_OscConfig+0x2b0>)
 8004b8a:	681b      	ldr	r3, [r3, #0]
 8004b8c:	4618      	mov	r0, r3
 8004b8e:	f7fd fa03 	bl	8001f98 <HAL_InitTick>
 8004b92:	4603      	mov	r3, r0
 8004b94:	2b00      	cmp	r3, #0
 8004b96:	d043      	beq.n	8004c20 <HAL_RCC_OscConfig+0x200>
        {
          return HAL_ERROR;
 8004b98:	2301      	movs	r3, #1
 8004b9a:	e253      	b.n	8005044 <HAL_RCC_OscConfig+0x624>
      }
    }
    else
    {
      /* Check the HSI State */
      if (RCC_OscInitStruct->HSIState != RCC_HSI_OFF)
 8004b9c:	687b      	ldr	r3, [r7, #4]
 8004b9e:	68db      	ldr	r3, [r3, #12]
 8004ba0:	2b00      	cmp	r3, #0
 8004ba2:	d023      	beq.n	8004bec <HAL_RCC_OscConfig+0x1cc>
      {
        /* Enable the Internal High Speed oscillator (HSI). */
        __HAL_RCC_HSI_ENABLE();
 8004ba4:	4b49      	ldr	r3, [pc, #292]	; (8004ccc <HAL_RCC_OscConfig+0x2ac>)
 8004ba6:	681b      	ldr	r3, [r3, #0]
 8004ba8:	4a48      	ldr	r2, [pc, #288]	; (8004ccc <HAL_RCC_OscConfig+0x2ac>)
 8004baa:	f443 7380 	orr.w	r3, r3, #256	; 0x100
 8004bae:	6013      	str	r3, [r2, #0]

        /* Get Start Tick*/
        tickstart = HAL_GetTick();
 8004bb0:	f7fd fa3e 	bl	8002030 <HAL_GetTick>
 8004bb4:	6138      	str	r0, [r7, #16]

        /* Wait till HSI is ready */
        while (READ_BIT(RCC->CR, RCC_CR_HSIRDY) == 0U)
 8004bb6:	e008      	b.n	8004bca <HAL_RCC_OscConfig+0x1aa>
        {
          if ((HAL_GetTick() - tickstart) > HSI_TIMEOUT_VALUE)
 8004bb8:	f7fd fa3a 	bl	8002030 <HAL_GetTick>
 8004bbc:	4602      	mov	r2, r0
 8004bbe:	693b      	ldr	r3, [r7, #16]
 8004bc0:	1ad3      	subs	r3, r2, r3
 8004bc2:	2b02      	cmp	r3, #2
 8004bc4:	d901      	bls.n	8004bca <HAL_RCC_OscConfig+0x1aa>
          {
            return HAL_TIMEOUT;
 8004bc6:	2303      	movs	r3, #3
 8004bc8:	e23c      	b.n	8005044 <HAL_RCC_OscConfig+0x624>
        while (READ_BIT(RCC->CR, RCC_CR_HSIRDY) == 0U)
 8004bca:	4b40      	ldr	r3, [pc, #256]	; (8004ccc <HAL_RCC_OscConfig+0x2ac>)
 8004bcc:	681b      	ldr	r3, [r3, #0]
 8004bce:	f403 6380 	and.w	r3, r3, #1024	; 0x400
 8004bd2:	2b00      	cmp	r3, #0
 8004bd4:	d0f0      	beq.n	8004bb8 <HAL_RCC_OscConfig+0x198>
          }
        }

        /* Adjusts the Internal High Speed oscillator (HSI) calibration value.*/
        __HAL_RCC_HSI_CALIBRATIONVALUE_ADJUST(RCC_OscInitStruct->HSICalibrationValue);
 8004bd6:	4b3d      	ldr	r3, [pc, #244]	; (8004ccc <HAL_RCC_OscConfig+0x2ac>)
 8004bd8:	685b      	ldr	r3, [r3, #4]
 8004bda:	f023 42fe 	bic.w	r2, r3, #2130706432	; 0x7f000000
 8004bde:	687b      	ldr	r3, [r7, #4]
 8004be0:	691b      	ldr	r3, [r3, #16]
 8004be2:	061b      	lsls	r3, r3, #24
 8004be4:	4939      	ldr	r1, [pc, #228]	; (8004ccc <HAL_RCC_OscConfig+0x2ac>)
 8004be6:	4313      	orrs	r3, r2
 8004be8:	604b      	str	r3, [r1, #4]
 8004bea:	e01a      	b.n	8004c22 <HAL_RCC_OscConfig+0x202>
      }
      else
      {
        /* Disable the Internal High Speed oscillator (HSI). */
        __HAL_RCC_HSI_DISABLE();
 8004bec:	4b37      	ldr	r3, [pc, #220]	; (8004ccc <HAL_RCC_OscConfig+0x2ac>)
 8004bee:	681b      	ldr	r3, [r3, #0]
 8004bf0:	4a36      	ldr	r2, [pc, #216]	; (8004ccc <HAL_RCC_OscConfig+0x2ac>)
 8004bf2:	f423 7380 	bic.w	r3, r3, #256	; 0x100
 8004bf6:	6013      	str	r3, [r2, #0]

        /* Get Start Tick*/
        tickstart = HAL_GetTick();
 8004bf8:	f7fd fa1a 	bl	8002030 <HAL_GetTick>
 8004bfc:	6138      	str	r0, [r7, #16]

        /* Wait till HSI is disabled */
        while (READ_BIT(RCC->CR, RCC_CR_HSIRDY) != 0U)
 8004bfe:	e008      	b.n	8004c12 <HAL_RCC_OscConfig+0x1f2>
        {
          if ((HAL_GetTick() - tickstart) > HSI_TIMEOUT_VALUE)
 8004c00:	f7fd fa16 	bl	8002030 <HAL_GetTick>
 8004c04:	4602      	mov	r2, r0
 8004c06:	693b      	ldr	r3, [r7, #16]
 8004c08:	1ad3      	subs	r3, r2, r3
 8004c0a:	2b02      	cmp	r3, #2
 8004c0c:	d901      	bls.n	8004c12 <HAL_RCC_OscConfig+0x1f2>
          {
            return HAL_TIMEOUT;
 8004c0e:	2303      	movs	r3, #3
 8004c10:	e218      	b.n	8005044 <HAL_RCC_OscConfig+0x624>
        while (READ_BIT(RCC->CR, RCC_CR_HSIRDY) != 0U)
 8004c12:	4b2e      	ldr	r3, [pc, #184]	; (8004ccc <HAL_RCC_OscConfig+0x2ac>)
 8004c14:	681b      	ldr	r3, [r3, #0]
 8004c16:	f403 6380 	and.w	r3, r3, #1024	; 0x400
 8004c1a:	2b00      	cmp	r3, #0
 8004c1c:	d1f0      	bne.n	8004c00 <HAL_RCC_OscConfig+0x1e0>
 8004c1e:	e000      	b.n	8004c22 <HAL_RCC_OscConfig+0x202>
      if ((READ_BIT(RCC->CR, RCC_CR_HSIRDY) != 0U) && (RCC_OscInitStruct->HSIState == RCC_HSI_OFF))
 8004c20:	bf00      	nop
        }
      }
    }
  }
  /*------------------------------ LSI Configuration -------------------------*/
  if (((RCC_OscInitStruct->OscillatorType) & RCC_OSCILLATORTYPE_LSI) == RCC_OSCILLATORTYPE_LSI)
 8004c22:	687b      	ldr	r3, [r7, #4]
 8004c24:	681b      	ldr	r3, [r3, #0]
 8004c26:	f003 0308 	and.w	r3, r3, #8
 8004c2a:	2b00      	cmp	r3, #0
 8004c2c:	d03c      	beq.n	8004ca8 <HAL_RCC_OscConfig+0x288>
  {
    /* Check the parameters */
    assert_param(IS_RCC_LSI(RCC_OscInitStruct->LSIState));

    /* Check the LSI State */
    if(RCC_OscInitStruct->LSIState != RCC_LSI_OFF)
 8004c2e:	687b      	ldr	r3, [r7, #4]
 8004c30:	695b      	ldr	r3, [r3, #20]
 8004c32:	2b00      	cmp	r3, #0
 8004c34:	d01c      	beq.n	8004c70 <HAL_RCC_OscConfig+0x250>
    {
      /* Enable the Internal Low Speed oscillator (LSI). */
      __HAL_RCC_LSI_ENABLE();
 8004c36:	4b25      	ldr	r3, [pc, #148]	; (8004ccc <HAL_RCC_OscConfig+0x2ac>)
 8004c38:	f8d3 3094 	ldr.w	r3, [r3, #148]	; 0x94
 8004c3c:	4a23      	ldr	r2, [pc, #140]	; (8004ccc <HAL_RCC_OscConfig+0x2ac>)
 8004c3e:	f043 0301 	orr.w	r3, r3, #1
 8004c42:	f8c2 3094 	str.w	r3, [r2, #148]	; 0x94

      /* Get Start Tick*/
      tickstart = HAL_GetTick();
 8004c46:	f7fd f9f3 	bl	8002030 <HAL_GetTick>
 8004c4a:	6138      	str	r0, [r7, #16]

      /* Wait till LSI is ready */
      while (READ_BIT(RCC->CSR, RCC_CSR_LSIRDY) == 0U)
 8004c4c:	e008      	b.n	8004c60 <HAL_RCC_OscConfig+0x240>
      {
        if ((HAL_GetTick() - tickstart) > LSI_TIMEOUT_VALUE)
 8004c4e:	f7fd f9ef 	bl	8002030 <HAL_GetTick>
 8004c52:	4602      	mov	r2, r0
 8004c54:	693b      	ldr	r3, [r7, #16]
 8004c56:	1ad3      	subs	r3, r2, r3
 8004c58:	2b02      	cmp	r3, #2
 8004c5a:	d901      	bls.n	8004c60 <HAL_RCC_OscConfig+0x240>
        {
          return HAL_TIMEOUT;
 8004c5c:	2303      	movs	r3, #3
 8004c5e:	e1f1      	b.n	8005044 <HAL_RCC_OscConfig+0x624>
      while (READ_BIT(RCC->CSR, RCC_CSR_LSIRDY) == 0U)
 8004c60:	4b1a      	ldr	r3, [pc, #104]	; (8004ccc <HAL_RCC_OscConfig+0x2ac>)
 8004c62:	f8d3 3094 	ldr.w	r3, [r3, #148]	; 0x94
 8004c66:	f003 0302 	and.w	r3, r3, #2
 8004c6a:	2b00      	cmp	r3, #0
 8004c6c:	d0ef      	beq.n	8004c4e <HAL_RCC_OscConfig+0x22e>
 8004c6e:	e01b      	b.n	8004ca8 <HAL_RCC_OscConfig+0x288>
      }
    }
    else
    {
      /* Disable the Internal Low Speed oscillator (LSI). */
      __HAL_RCC_LSI_DISABLE();
 8004c70:	4b16      	ldr	r3, [pc, #88]	; (8004ccc <HAL_RCC_OscConfig+0x2ac>)
 8004c72:	f8d3 3094 	ldr.w	r3, [r3, #148]	; 0x94
 8004c76:	4a15      	ldr	r2, [pc, #84]	; (8004ccc <HAL_RCC_OscConfig+0x2ac>)
 8004c78:	f023 0301 	bic.w	r3, r3, #1
 8004c7c:	f8c2 3094 	str.w	r3, [r2, #148]	; 0x94

      /* Get Start Tick*/
      tickstart = HAL_GetTick();
 8004c80:	f7fd f9d6 	bl	8002030 <HAL_GetTick>
 8004c84:	6138      	str	r0, [r7, #16]

      /* Wait till LSI is disabled */
      while(READ_BIT(RCC->CSR, RCC_CSR_LSIRDY) != 0U)
 8004c86:	e008      	b.n	8004c9a <HAL_RCC_OscConfig+0x27a>
      {
        if((HAL_GetTick() - tickstart) > LSI_TIMEOUT_VALUE)
 8004c88:	f7fd f9d2 	bl	8002030 <HAL_GetTick>
 8004c8c:	4602      	mov	r2, r0
 8004c8e:	693b      	ldr	r3, [r7, #16]
 8004c90:	1ad3      	subs	r3, r2, r3
 8004c92:	2b02      	cmp	r3, #2
 8004c94:	d901      	bls.n	8004c9a <HAL_RCC_OscConfig+0x27a>
        {
          return HAL_TIMEOUT;
 8004c96:	2303      	movs	r3, #3
 8004c98:	e1d4      	b.n	8005044 <HAL_RCC_OscConfig+0x624>
      while(READ_BIT(RCC->CSR, RCC_CSR_LSIRDY) != 0U)
 8004c9a:	4b0c      	ldr	r3, [pc, #48]	; (8004ccc <HAL_RCC_OscConfig+0x2ac>)
 8004c9c:	f8d3 3094 	ldr.w	r3, [r3, #148]	; 0x94
 8004ca0:	f003 0302 	and.w	r3, r3, #2
 8004ca4:	2b00      	cmp	r3, #0
 8004ca6:	d1ef      	bne.n	8004c88 <HAL_RCC_OscConfig+0x268>
        }
      }
    }
  }
  /*------------------------------ LSE Configuration -------------------------*/
  if (((RCC_OscInitStruct->OscillatorType) & RCC_OSCILLATORTYPE_LSE) == RCC_OSCILLATORTYPE_LSE)
 8004ca8:	687b      	ldr	r3, [r7, #4]
 8004caa:	681b      	ldr	r3, [r3, #0]
 8004cac:	f003 0304 	and.w	r3, r3, #4
 8004cb0:	2b00      	cmp	r3, #0
 8004cb2:	f000 80ab 	beq.w	8004e0c <HAL_RCC_OscConfig+0x3ec>
  {
    FlagStatus       pwrclkchanged = RESET;
 8004cb6:	2300      	movs	r3, #0
 8004cb8:	77fb      	strb	r3, [r7, #31]
    /* Check the parameters */
    assert_param(IS_RCC_LSE(RCC_OscInitStruct->LSEState));

    /* Update LSE configuration in Backup Domain control register    */
    /* Requires to enable write access to Backup Domain if necessary */
    if (__HAL_RCC_PWR_IS_CLK_DISABLED() != 0U)
 8004cba:	4b04      	ldr	r3, [pc, #16]	; (8004ccc <HAL_RCC_OscConfig+0x2ac>)
 8004cbc:	6d9b      	ldr	r3, [r3, #88]	; 0x58
 8004cbe:	f003 5380 	and.w	r3, r3, #268435456	; 0x10000000
 8004cc2:	2b00      	cmp	r3, #0
 8004cc4:	d106      	bne.n	8004cd4 <HAL_RCC_OscConfig+0x2b4>
 8004cc6:	2301      	movs	r3, #1
 8004cc8:	e005      	b.n	8004cd6 <HAL_RCC_OscConfig+0x2b6>
 8004cca:	bf00      	nop
 8004ccc:	40021000 	.word	0x40021000
 8004cd0:	20001f48 	.word	0x20001f48
 8004cd4:	2300      	movs	r3, #0
 8004cd6:	2b00      	cmp	r3, #0
 8004cd8:	d00d      	beq.n	8004cf6 <HAL_RCC_OscConfig+0x2d6>
    {
      __HAL_RCC_PWR_CLK_ENABLE();
 8004cda:	4baf      	ldr	r3, [pc, #700]	; (8004f98 <HAL_RCC_OscConfig+0x578>)
 8004cdc:	6d9b      	ldr	r3, [r3, #88]	; 0x58
 8004cde:	4aae      	ldr	r2, [pc, #696]	; (8004f98 <HAL_RCC_OscConfig+0x578>)
 8004ce0:	f043 5380 	orr.w	r3, r3, #268435456	; 0x10000000
 8004ce4:	6593      	str	r3, [r2, #88]	; 0x58
 8004ce6:	4bac      	ldr	r3, [pc, #688]	; (8004f98 <HAL_RCC_OscConfig+0x578>)
 8004ce8:	6d9b      	ldr	r3, [r3, #88]	; 0x58
 8004cea:	f003 5380 	and.w	r3, r3, #268435456	; 0x10000000
 8004cee:	60fb      	str	r3, [r7, #12]
 8004cf0:	68fb      	ldr	r3, [r7, #12]
      pwrclkchanged = SET;
 8004cf2:	2301      	movs	r3, #1
 8004cf4:	77fb      	strb	r3, [r7, #31]
    }

    if (HAL_IS_BIT_CLR(PWR->CR1, PWR_CR1_DBP))
 8004cf6:	4ba9      	ldr	r3, [pc, #676]	; (8004f9c <HAL_RCC_OscConfig+0x57c>)
 8004cf8:	681b      	ldr	r3, [r3, #0]
 8004cfa:	f403 7380 	and.w	r3, r3, #256	; 0x100
 8004cfe:	2b00      	cmp	r3, #0
 8004d00:	d118      	bne.n	8004d34 <HAL_RCC_OscConfig+0x314>
    {
      /* Enable write access to Backup domain */
      SET_BIT(PWR->CR1, PWR_CR1_DBP);
 8004d02:	4ba6      	ldr	r3, [pc, #664]	; (8004f9c <HAL_RCC_OscConfig+0x57c>)
 8004d04:	681b      	ldr	r3, [r3, #0]
 8004d06:	4aa5      	ldr	r2, [pc, #660]	; (8004f9c <HAL_RCC_OscConfig+0x57c>)
 8004d08:	f443 7380 	orr.w	r3, r3, #256	; 0x100
 8004d0c:	6013      	str	r3, [r2, #0]

      /* Wait for Backup domain Write protection disable */
      tickstart = HAL_GetTick();
 8004d0e:	f7fd f98f 	bl	8002030 <HAL_GetTick>
 8004d12:	6138      	str	r0, [r7, #16]

      while (HAL_IS_BIT_CLR(PWR->CR1, PWR_CR1_DBP))
 8004d14:	e008      	b.n	8004d28 <HAL_RCC_OscConfig+0x308>
      {
        if ((HAL_GetTick() - tickstart) > RCC_DBP_TIMEOUT_VALUE)
 8004d16:	f7fd f98b 	bl	8002030 <HAL_GetTick>
 8004d1a:	4602      	mov	r2, r0
 8004d1c:	693b      	ldr	r3, [r7, #16]
 8004d1e:	1ad3      	subs	r3, r2, r3
 8004d20:	2b02      	cmp	r3, #2
 8004d22:	d901      	bls.n	8004d28 <HAL_RCC_OscConfig+0x308>
        {
          return HAL_TIMEOUT;
 8004d24:	2303      	movs	r3, #3
 8004d26:	e18d      	b.n	8005044 <HAL_RCC_OscConfig+0x624>
      while (HAL_IS_BIT_CLR(PWR->CR1, PWR_CR1_DBP))
 8004d28:	4b9c      	ldr	r3, [pc, #624]	; (8004f9c <HAL_RCC_OscConfig+0x57c>)
 8004d2a:	681b      	ldr	r3, [r3, #0]
 8004d2c:	f403 7380 	and.w	r3, r3, #256	; 0x100
 8004d30:	2b00      	cmp	r3, #0
 8004d32:	d0f0      	beq.n	8004d16 <HAL_RCC_OscConfig+0x2f6>
        }
      }
    }

    /* Set the new LSE configuration -----------------------------------------*/
    __HAL_RCC_LSE_CONFIG(RCC_OscInitStruct->LSEState);
 8004d34:	687b      	ldr	r3, [r7, #4]
 8004d36:	689b      	ldr	r3, [r3, #8]
 8004d38:	2b01      	cmp	r3, #1
 8004d3a:	d108      	bne.n	8004d4e <HAL_RCC_OscConfig+0x32e>
 8004d3c:	4b96      	ldr	r3, [pc, #600]	; (8004f98 <HAL_RCC_OscConfig+0x578>)
 8004d3e:	f8d3 3090 	ldr.w	r3, [r3, #144]	; 0x90
 8004d42:	4a95      	ldr	r2, [pc, #596]	; (8004f98 <HAL_RCC_OscConfig+0x578>)
 8004d44:	f043 0301 	orr.w	r3, r3, #1
 8004d48:	f8c2 3090 	str.w	r3, [r2, #144]	; 0x90
 8004d4c:	e024      	b.n	8004d98 <HAL_RCC_OscConfig+0x378>
 8004d4e:	687b      	ldr	r3, [r7, #4]
 8004d50:	689b      	ldr	r3, [r3, #8]
 8004d52:	2b05      	cmp	r3, #5
 8004d54:	d110      	bne.n	8004d78 <HAL_RCC_OscConfig+0x358>
 8004d56:	4b90      	ldr	r3, [pc, #576]	; (8004f98 <HAL_RCC_OscConfig+0x578>)
 8004d58:	f8d3 3090 	ldr.w	r3, [r3, #144]	; 0x90
 8004d5c:	4a8e      	ldr	r2, [pc, #568]	; (8004f98 <HAL_RCC_OscConfig+0x578>)
 8004d5e:	f043 0304 	orr.w	r3, r3, #4
 8004d62:	f8c2 3090 	str.w	r3, [r2, #144]	; 0x90
 8004d66:	4b8c      	ldr	r3, [pc, #560]	; (8004f98 <HAL_RCC_OscConfig+0x578>)
 8004d68:	f8d3 3090 	ldr.w	r3, [r3, #144]	; 0x90
 8004d6c:	4a8a      	ldr	r2, [pc, #552]	; (8004f98 <HAL_RCC_OscConfig+0x578>)
 8004d6e:	f043 0301 	orr.w	r3, r3, #1
 8004d72:	f8c2 3090 	str.w	r3, [r2, #144]	; 0x90
 8004d76:	e00f      	b.n	8004d98 <HAL_RCC_OscConfig+0x378>
 8004d78:	4b87      	ldr	r3, [pc, #540]	; (8004f98 <HAL_RCC_OscConfig+0x578>)
 8004d7a:	f8d3 3090 	ldr.w	r3, [r3, #144]	; 0x90
 8004d7e:	4a86      	ldr	r2, [pc, #536]	; (8004f98 <HAL_RCC_OscConfig+0x578>)
 8004d80:	f023 0301 	bic.w	r3, r3, #1
 8004d84:	f8c2 3090 	str.w	r3, [r2, #144]	; 0x90
 8004d88:	4b83      	ldr	r3, [pc, #524]	; (8004f98 <HAL_RCC_OscConfig+0x578>)
 8004d8a:	f8d3 3090 	ldr.w	r3, [r3, #144]	; 0x90
 8004d8e:	4a82      	ldr	r2, [pc, #520]	; (8004f98 <HAL_RCC_OscConfig+0x578>)
 8004d90:	f023 0304 	bic.w	r3, r3, #4
 8004d94:	f8c2 3090 	str.w	r3, [r2, #144]	; 0x90

    /* Check the LSE State */
    if (RCC_OscInitStruct->LSEState != RCC_LSE_OFF)
 8004d98:	687b      	ldr	r3, [r7, #4]
 8004d9a:	689b      	ldr	r3, [r3, #8]
 8004d9c:	2b00      	cmp	r3, #0
 8004d9e:	d016      	beq.n	8004dce <HAL_RCC_OscConfig+0x3ae>
    {
      /* Get Start Tick*/
      tickstart = HAL_GetTick();
 8004da0:	f7fd f946 	bl	8002030 <HAL_GetTick>
 8004da4:	6138      	str	r0, [r7, #16]

      /* Wait till LSE is ready */
      while (READ_BIT(RCC->BDCR, RCC_BDCR_LSERDY) == 0U)
 8004da6:	e00a      	b.n	8004dbe <HAL_RCC_OscConfig+0x39e>
      {
        if((HAL_GetTick() - tickstart) > RCC_LSE_TIMEOUT_VALUE)
 8004da8:	f7fd f942 	bl	8002030 <HAL_GetTick>
 8004dac:	4602      	mov	r2, r0
 8004dae:	693b      	ldr	r3, [r7, #16]
 8004db0:	1ad3      	subs	r3, r2, r3
 8004db2:	f241 3288 	movw	r2, #5000	; 0x1388
 8004db6:	4293      	cmp	r3, r2
 8004db8:	d901      	bls.n	8004dbe <HAL_RCC_OscConfig+0x39e>
        {
          return HAL_TIMEOUT;
 8004dba:	2303      	movs	r3, #3
 8004dbc:	e142      	b.n	8005044 <HAL_RCC_OscConfig+0x624>
      while (READ_BIT(RCC->BDCR, RCC_BDCR_LSERDY) == 0U)
 8004dbe:	4b76      	ldr	r3, [pc, #472]	; (8004f98 <HAL_RCC_OscConfig+0x578>)
 8004dc0:	f8d3 3090 	ldr.w	r3, [r3, #144]	; 0x90
 8004dc4:	f003 0302 	and.w	r3, r3, #2
 8004dc8:	2b00      	cmp	r3, #0
 8004dca:	d0ed      	beq.n	8004da8 <HAL_RCC_OscConfig+0x388>
 8004dcc:	e015      	b.n	8004dfa <HAL_RCC_OscConfig+0x3da>
      }
    }
    else
    {
      /* Get Start Tick*/
      tickstart = HAL_GetTick();
 8004dce:	f7fd f92f 	bl	8002030 <HAL_GetTick>
 8004dd2:	6138      	str	r0, [r7, #16]

      /* Wait till LSE is disabled */
      while (READ_BIT(RCC->BDCR, RCC_BDCR_LSERDY) != 0U)
 8004dd4:	e00a      	b.n	8004dec <HAL_RCC_OscConfig+0x3cc>
      {
        if((HAL_GetTick() - tickstart) > RCC_LSE_TIMEOUT_VALUE)
 8004dd6:	f7fd f92b 	bl	8002030 <HAL_GetTick>
 8004dda:	4602      	mov	r2, r0
 8004ddc:	693b      	ldr	r3, [r7, #16]
 8004dde:	1ad3      	subs	r3, r2, r3
 8004de0:	f241 3288 	movw	r2, #5000	; 0x1388
 8004de4:	4293      	cmp	r3, r2
 8004de6:	d901      	bls.n	8004dec <HAL_RCC_OscConfig+0x3cc>
        {
          return HAL_TIMEOUT;
 8004de8:	2303      	movs	r3, #3
 8004dea:	e12b      	b.n	8005044 <HAL_RCC_OscConfig+0x624>
      while (READ_BIT(RCC->BDCR, RCC_BDCR_LSERDY) != 0U)
 8004dec:	4b6a      	ldr	r3, [pc, #424]	; (8004f98 <HAL_RCC_OscConfig+0x578>)
 8004dee:	f8d3 3090 	ldr.w	r3, [r3, #144]	; 0x90
 8004df2:	f003 0302 	and.w	r3, r3, #2
 8004df6:	2b00      	cmp	r3, #0
 8004df8:	d1ed      	bne.n	8004dd6 <HAL_RCC_OscConfig+0x3b6>
        }
      }
    }

    /* Restore clock configuration if changed */
    if (pwrclkchanged == SET)
 8004dfa:	7ffb      	ldrb	r3, [r7, #31]
 8004dfc:	2b01      	cmp	r3, #1
 8004dfe:	d105      	bne.n	8004e0c <HAL_RCC_OscConfig+0x3ec>
    {
      __HAL_RCC_PWR_CLK_DISABLE();
 8004e00:	4b65      	ldr	r3, [pc, #404]	; (8004f98 <HAL_RCC_OscConfig+0x578>)
 8004e02:	6d9b      	ldr	r3, [r3, #88]	; 0x58
 8004e04:	4a64      	ldr	r2, [pc, #400]	; (8004f98 <HAL_RCC_OscConfig+0x578>)
 8004e06:	f023 5380 	bic.w	r3, r3, #268435456	; 0x10000000
 8004e0a:	6593      	str	r3, [r2, #88]	; 0x58
    }
  }

  /*------------------------------ HSI48 Configuration -----------------------*/
  if(((RCC_OscInitStruct->OscillatorType) & RCC_OSCILLATORTYPE_HSI48) == RCC_OSCILLATORTYPE_HSI48)
 8004e0c:	687b      	ldr	r3, [r7, #4]
 8004e0e:	681b      	ldr	r3, [r3, #0]
 8004e10:	f003 0320 	and.w	r3, r3, #32
 8004e14:	2b00      	cmp	r3, #0
 8004e16:	d03c      	beq.n	8004e92 <HAL_RCC_OscConfig+0x472>
  {
    /* Check the parameters */
    assert_param(IS_RCC_HSI48(RCC_OscInitStruct->HSI48State));

    /* Check the HSI48 State */
    if(RCC_OscInitStruct->HSI48State != RCC_HSI48_OFF)
 8004e18:	687b      	ldr	r3, [r7, #4]
 8004e1a:	699b      	ldr	r3, [r3, #24]
 8004e1c:	2b00      	cmp	r3, #0
 8004e1e:	d01c      	beq.n	8004e5a <HAL_RCC_OscConfig+0x43a>
    {
      /* Enable the Internal Low Speed oscillator (HSI48). */
      __HAL_RCC_HSI48_ENABLE();
 8004e20:	4b5d      	ldr	r3, [pc, #372]	; (8004f98 <HAL_RCC_OscConfig+0x578>)
 8004e22:	f8d3 3098 	ldr.w	r3, [r3, #152]	; 0x98
 8004e26:	4a5c      	ldr	r2, [pc, #368]	; (8004f98 <HAL_RCC_OscConfig+0x578>)
 8004e28:	f043 0301 	orr.w	r3, r3, #1
 8004e2c:	f8c2 3098 	str.w	r3, [r2, #152]	; 0x98

      /* Get Start Tick*/
      tickstart = HAL_GetTick();
 8004e30:	f7fd f8fe 	bl	8002030 <HAL_GetTick>
 8004e34:	6138      	str	r0, [r7, #16]

      /* Wait till HSI48 is ready */
      while(READ_BIT(RCC->CRRCR, RCC_CRRCR_HSI48RDY) == 0U)
 8004e36:	e008      	b.n	8004e4a <HAL_RCC_OscConfig+0x42a>
      {
        if((HAL_GetTick() - tickstart) > HSI48_TIMEOUT_VALUE)
 8004e38:	f7fd f8fa 	bl	8002030 <HAL_GetTick>
 8004e3c:	4602      	mov	r2, r0
 8004e3e:	693b      	ldr	r3, [r7, #16]
 8004e40:	1ad3      	subs	r3, r2, r3
 8004e42:	2b02      	cmp	r3, #2
 8004e44:	d901      	bls.n	8004e4a <HAL_RCC_OscConfig+0x42a>
        {
          return HAL_TIMEOUT;
 8004e46:	2303      	movs	r3, #3
 8004e48:	e0fc      	b.n	8005044 <HAL_RCC_OscConfig+0x624>
      while(READ_BIT(RCC->CRRCR, RCC_CRRCR_HSI48RDY) == 0U)
 8004e4a:	4b53      	ldr	r3, [pc, #332]	; (8004f98 <HAL_RCC_OscConfig+0x578>)
 8004e4c:	f8d3 3098 	ldr.w	r3, [r3, #152]	; 0x98
 8004e50:	f003 0302 	and.w	r3, r3, #2
 8004e54:	2b00      	cmp	r3, #0
 8004e56:	d0ef      	beq.n	8004e38 <HAL_RCC_OscConfig+0x418>
 8004e58:	e01b      	b.n	8004e92 <HAL_RCC_OscConfig+0x472>
      }
    }
    else
    {
      /* Disable the Internal Low Speed oscillator (HSI48). */
      __HAL_RCC_HSI48_DISABLE();
 8004e5a:	4b4f      	ldr	r3, [pc, #316]	; (8004f98 <HAL_RCC_OscConfig+0x578>)
 8004e5c:	f8d3 3098 	ldr.w	r3, [r3, #152]	; 0x98
 8004e60:	4a4d      	ldr	r2, [pc, #308]	; (8004f98 <HAL_RCC_OscConfig+0x578>)
 8004e62:	f023 0301 	bic.w	r3, r3, #1
 8004e66:	f8c2 3098 	str.w	r3, [r2, #152]	; 0x98

      /* Get Start Tick*/
      tickstart = HAL_GetTick();
 8004e6a:	f7fd f8e1 	bl	8002030 <HAL_GetTick>
 8004e6e:	6138      	str	r0, [r7, #16]

      /* Wait till HSI48 is disabled */
      while(READ_BIT(RCC->CRRCR, RCC_CRRCR_HSI48RDY) != 0U)
 8004e70:	e008      	b.n	8004e84 <HAL_RCC_OscConfig+0x464>
      {
        if((HAL_GetTick() - tickstart) > HSI48_TIMEOUT_VALUE)
 8004e72:	f7fd f8dd 	bl	8002030 <HAL_GetTick>
 8004e76:	4602      	mov	r2, r0
 8004e78:	693b      	ldr	r3, [r7, #16]
 8004e7a:	1ad3      	subs	r3, r2, r3
 8004e7c:	2b02      	cmp	r3, #2
 8004e7e:	d901      	bls.n	8004e84 <HAL_RCC_OscConfig+0x464>
        {
          return HAL_TIMEOUT;
 8004e80:	2303      	movs	r3, #3
 8004e82:	e0df      	b.n	8005044 <HAL_RCC_OscConfig+0x624>
      while(READ_BIT(RCC->CRRCR, RCC_CRRCR_HSI48RDY) != 0U)
 8004e84:	4b44      	ldr	r3, [pc, #272]	; (8004f98 <HAL_RCC_OscConfig+0x578>)
 8004e86:	f8d3 3098 	ldr.w	r3, [r3, #152]	; 0x98
 8004e8a:	f003 0302 	and.w	r3, r3, #2
 8004e8e:	2b00      	cmp	r3, #0
 8004e90:	d1ef      	bne.n	8004e72 <HAL_RCC_OscConfig+0x452>

  /*-------------------------------- PLL Configuration -----------------------*/
  /* Check the parameters */
  assert_param(IS_RCC_PLL(RCC_OscInitStruct->PLL.PLLState));

  if (RCC_OscInitStruct->PLL.PLLState != RCC_PLL_NONE)
 8004e92:	687b      	ldr	r3, [r7, #4]
 8004e94:	69db      	ldr	r3, [r3, #28]
 8004e96:	2b00      	cmp	r3, #0
 8004e98:	f000 80d3 	beq.w	8005042 <HAL_RCC_OscConfig+0x622>
  {
    /* Check if the PLL is used as system clock or not */
    if (__HAL_RCC_GET_SYSCLK_SOURCE() != RCC_CFGR_SWS_PLL)
 8004e9c:	4b3e      	ldr	r3, [pc, #248]	; (8004f98 <HAL_RCC_OscConfig+0x578>)
 8004e9e:	689b      	ldr	r3, [r3, #8]
 8004ea0:	f003 030c 	and.w	r3, r3, #12
 8004ea4:	2b0c      	cmp	r3, #12
 8004ea6:	f000 808d 	beq.w	8004fc4 <HAL_RCC_OscConfig+0x5a4>
    {
      if (RCC_OscInitStruct->PLL.PLLState == RCC_PLL_ON)
 8004eaa:	687b      	ldr	r3, [r7, #4]
 8004eac:	69db      	ldr	r3, [r3, #28]
 8004eae:	2b02      	cmp	r3, #2
 8004eb0:	d15a      	bne.n	8004f68 <HAL_RCC_OscConfig+0x548>
        assert_param(IS_RCC_PLLP_VALUE(RCC_OscInitStruct->PLL.PLLP));
        assert_param(IS_RCC_PLLQ_VALUE(RCC_OscInitStruct->PLL.PLLQ));
        assert_param(IS_RCC_PLLR_VALUE(RCC_OscInitStruct->PLL.PLLR));

        /* Disable the main PLL. */
        __HAL_RCC_PLL_DISABLE();
 8004eb2:	4b39      	ldr	r3, [pc, #228]	; (8004f98 <HAL_RCC_OscConfig+0x578>)
 8004eb4:	681b      	ldr	r3, [r3, #0]
 8004eb6:	4a38      	ldr	r2, [pc, #224]	; (8004f98 <HAL_RCC_OscConfig+0x578>)
 8004eb8:	f023 7380 	bic.w	r3, r3, #16777216	; 0x1000000
 8004ebc:	6013      	str	r3, [r2, #0]

        /* Get Start Tick*/
        tickstart = HAL_GetTick();
 8004ebe:	f7fd f8b7 	bl	8002030 <HAL_GetTick>
 8004ec2:	6138      	str	r0, [r7, #16]

        /* Wait till PLL is ready */
        while (READ_BIT(RCC->CR, RCC_CR_PLLRDY) != 0U)
 8004ec4:	e008      	b.n	8004ed8 <HAL_RCC_OscConfig+0x4b8>
        {
          if ((HAL_GetTick() - tickstart) > PLL_TIMEOUT_VALUE)
 8004ec6:	f7fd f8b3 	bl	8002030 <HAL_GetTick>
 8004eca:	4602      	mov	r2, r0
 8004ecc:	693b      	ldr	r3, [r7, #16]
 8004ece:	1ad3      	subs	r3, r2, r3
 8004ed0:	2b02      	cmp	r3, #2
 8004ed2:	d901      	bls.n	8004ed8 <HAL_RCC_OscConfig+0x4b8>
          {
            return HAL_TIMEOUT;
 8004ed4:	2303      	movs	r3, #3
 8004ed6:	e0b5      	b.n	8005044 <HAL_RCC_OscConfig+0x624>
        while (READ_BIT(RCC->CR, RCC_CR_PLLRDY) != 0U)
 8004ed8:	4b2f      	ldr	r3, [pc, #188]	; (8004f98 <HAL_RCC_OscConfig+0x578>)
 8004eda:	681b      	ldr	r3, [r3, #0]
 8004edc:	f003 7300 	and.w	r3, r3, #33554432	; 0x2000000
 8004ee0:	2b00      	cmp	r3, #0
 8004ee2:	d1f0      	bne.n	8004ec6 <HAL_RCC_OscConfig+0x4a6>
          }
        }

        /* Configure the main PLL clock source, multiplication and division factors. */
        __HAL_RCC_PLL_CONFIG(RCC_OscInitStruct->PLL.PLLSource,
 8004ee4:	4b2c      	ldr	r3, [pc, #176]	; (8004f98 <HAL_RCC_OscConfig+0x578>)
 8004ee6:	68da      	ldr	r2, [r3, #12]
 8004ee8:	4b2d      	ldr	r3, [pc, #180]	; (8004fa0 <HAL_RCC_OscConfig+0x580>)
 8004eea:	4013      	ands	r3, r2
 8004eec:	687a      	ldr	r2, [r7, #4]
 8004eee:	6a11      	ldr	r1, [r2, #32]
 8004ef0:	687a      	ldr	r2, [r7, #4]
 8004ef2:	6a52      	ldr	r2, [r2, #36]	; 0x24
 8004ef4:	3a01      	subs	r2, #1
 8004ef6:	0112      	lsls	r2, r2, #4
 8004ef8:	4311      	orrs	r1, r2
 8004efa:	687a      	ldr	r2, [r7, #4]
 8004efc:	6a92      	ldr	r2, [r2, #40]	; 0x28
 8004efe:	0212      	lsls	r2, r2, #8
 8004f00:	4311      	orrs	r1, r2
 8004f02:	687a      	ldr	r2, [r7, #4]
 8004f04:	6b12      	ldr	r2, [r2, #48]	; 0x30
 8004f06:	0852      	lsrs	r2, r2, #1
 8004f08:	3a01      	subs	r2, #1
 8004f0a:	0552      	lsls	r2, r2, #21
 8004f0c:	4311      	orrs	r1, r2
 8004f0e:	687a      	ldr	r2, [r7, #4]
 8004f10:	6b52      	ldr	r2, [r2, #52]	; 0x34
 8004f12:	0852      	lsrs	r2, r2, #1
 8004f14:	3a01      	subs	r2, #1
 8004f16:	0652      	lsls	r2, r2, #25
 8004f18:	4311      	orrs	r1, r2
 8004f1a:	687a      	ldr	r2, [r7, #4]
 8004f1c:	6ad2      	ldr	r2, [r2, #44]	; 0x2c
 8004f1e:	06d2      	lsls	r2, r2, #27
 8004f20:	430a      	orrs	r2, r1
 8004f22:	491d      	ldr	r1, [pc, #116]	; (8004f98 <HAL_RCC_OscConfig+0x578>)
 8004f24:	4313      	orrs	r3, r2
 8004f26:	60cb      	str	r3, [r1, #12]
                             RCC_OscInitStruct->PLL.PLLP,
                             RCC_OscInitStruct->PLL.PLLQ,
                             RCC_OscInitStruct->PLL.PLLR);

        /* Enable the main PLL. */
        __HAL_RCC_PLL_ENABLE();
 8004f28:	4b1b      	ldr	r3, [pc, #108]	; (8004f98 <HAL_RCC_OscConfig+0x578>)
 8004f2a:	681b      	ldr	r3, [r3, #0]
 8004f2c:	4a1a      	ldr	r2, [pc, #104]	; (8004f98 <HAL_RCC_OscConfig+0x578>)
 8004f2e:	f043 7380 	orr.w	r3, r3, #16777216	; 0x1000000
 8004f32:	6013      	str	r3, [r2, #0]

        /* Enable PLL System Clock output. */
         __HAL_RCC_PLLCLKOUT_ENABLE(RCC_PLL_SYSCLK);
 8004f34:	4b18      	ldr	r3, [pc, #96]	; (8004f98 <HAL_RCC_OscConfig+0x578>)
 8004f36:	68db      	ldr	r3, [r3, #12]
 8004f38:	4a17      	ldr	r2, [pc, #92]	; (8004f98 <HAL_RCC_OscConfig+0x578>)
 8004f3a:	f043 7380 	orr.w	r3, r3, #16777216	; 0x1000000
 8004f3e:	60d3      	str	r3, [r2, #12]

        /* Get Start Tick*/
        tickstart = HAL_GetTick();
 8004f40:	f7fd f876 	bl	8002030 <HAL_GetTick>
 8004f44:	6138      	str	r0, [r7, #16]

        /* Wait till PLL is ready */
        while (READ_BIT(RCC->CR, RCC_CR_PLLRDY) == 0U)
 8004f46:	e008      	b.n	8004f5a <HAL_RCC_OscConfig+0x53a>
        {
          if ((HAL_GetTick() - tickstart) > PLL_TIMEOUT_VALUE)
 8004f48:	f7fd f872 	bl	8002030 <HAL_GetTick>
 8004f4c:	4602      	mov	r2, r0
 8004f4e:	693b      	ldr	r3, [r7, #16]
 8004f50:	1ad3      	subs	r3, r2, r3
 8004f52:	2b02      	cmp	r3, #2
 8004f54:	d901      	bls.n	8004f5a <HAL_RCC_OscConfig+0x53a>
          {
            return HAL_TIMEOUT;
 8004f56:	2303      	movs	r3, #3
 8004f58:	e074      	b.n	8005044 <HAL_RCC_OscConfig+0x624>
        while (READ_BIT(RCC->CR, RCC_CR_PLLRDY) == 0U)
 8004f5a:	4b0f      	ldr	r3, [pc, #60]	; (8004f98 <HAL_RCC_OscConfig+0x578>)
 8004f5c:	681b      	ldr	r3, [r3, #0]
 8004f5e:	f003 7300 	and.w	r3, r3, #33554432	; 0x2000000
 8004f62:	2b00      	cmp	r3, #0
 8004f64:	d0f0      	beq.n	8004f48 <HAL_RCC_OscConfig+0x528>
 8004f66:	e06c      	b.n	8005042 <HAL_RCC_OscConfig+0x622>
        }
      }
      else
      {
        /* Disable the main PLL. */
        __HAL_RCC_PLL_DISABLE();
 8004f68:	4b0b      	ldr	r3, [pc, #44]	; (8004f98 <HAL_RCC_OscConfig+0x578>)
 8004f6a:	681b      	ldr	r3, [r3, #0]
 8004f6c:	4a0a      	ldr	r2, [pc, #40]	; (8004f98 <HAL_RCC_OscConfig+0x578>)
 8004f6e:	f023 7380 	bic.w	r3, r3, #16777216	; 0x1000000
 8004f72:	6013      	str	r3, [r2, #0]

        /* Disable all PLL outputs to save power if no PLLs on */
          MODIFY_REG(RCC->PLLCFGR, RCC_PLLCFGR_PLLSRC, RCC_PLLSOURCE_NONE);
 8004f74:	4b08      	ldr	r3, [pc, #32]	; (8004f98 <HAL_RCC_OscConfig+0x578>)
 8004f76:	68db      	ldr	r3, [r3, #12]
 8004f78:	4a07      	ldr	r2, [pc, #28]	; (8004f98 <HAL_RCC_OscConfig+0x578>)
 8004f7a:	f023 0303 	bic.w	r3, r3, #3
 8004f7e:	60d3      	str	r3, [r2, #12]
        __HAL_RCC_PLLCLKOUT_DISABLE(RCC_PLL_SYSCLK | RCC_PLL_48M1CLK | RCC_PLL_ADCCLK);
 8004f80:	4b05      	ldr	r3, [pc, #20]	; (8004f98 <HAL_RCC_OscConfig+0x578>)
 8004f82:	68db      	ldr	r3, [r3, #12]
 8004f84:	4a04      	ldr	r2, [pc, #16]	; (8004f98 <HAL_RCC_OscConfig+0x578>)
 8004f86:	f023 7388 	bic.w	r3, r3, #17825792	; 0x1100000
 8004f8a:	f423 3380 	bic.w	r3, r3, #65536	; 0x10000
 8004f8e:	60d3      	str	r3, [r2, #12]

        /* Get Start Tick*/
        tickstart = HAL_GetTick();
 8004f90:	f7fd f84e 	bl	8002030 <HAL_GetTick>
 8004f94:	6138      	str	r0, [r7, #16]

        /* Wait till PLL is disabled */
        while (READ_BIT(RCC->CR, RCC_CR_PLLRDY) != 0U)
 8004f96:	e00e      	b.n	8004fb6 <HAL_RCC_OscConfig+0x596>
 8004f98:	40021000 	.word	0x40021000
 8004f9c:	40007000 	.word	0x40007000
 8004fa0:	019f800c 	.word	0x019f800c
        {
          if ((HAL_GetTick() - tickstart) > PLL_TIMEOUT_VALUE)
 8004fa4:	f7fd f844 	bl	8002030 <HAL_GetTick>
 8004fa8:	4602      	mov	r2, r0
 8004faa:	693b      	ldr	r3, [r7, #16]
 8004fac:	1ad3      	subs	r3, r2, r3
 8004fae:	2b02      	cmp	r3, #2
 8004fb0:	d901      	bls.n	8004fb6 <HAL_RCC_OscConfig+0x596>
          {
            return HAL_TIMEOUT;
 8004fb2:	2303      	movs	r3, #3
 8004fb4:	e046      	b.n	8005044 <HAL_RCC_OscConfig+0x624>
        while (READ_BIT(RCC->CR, RCC_CR_PLLRDY) != 0U)
 8004fb6:	4b25      	ldr	r3, [pc, #148]	; (800504c <HAL_RCC_OscConfig+0x62c>)
 8004fb8:	681b      	ldr	r3, [r3, #0]
 8004fba:	f003 7300 	and.w	r3, r3, #33554432	; 0x2000000
 8004fbe:	2b00      	cmp	r3, #0
 8004fc0:	d1f0      	bne.n	8004fa4 <HAL_RCC_OscConfig+0x584>
 8004fc2:	e03e      	b.n	8005042 <HAL_RCC_OscConfig+0x622>
      }
    }
    else
    {
      /* Check if there is a request to disable the PLL used as System clock source */
      if((RCC_OscInitStruct->PLL.PLLState) == RCC_PLL_OFF)
 8004fc4:	687b      	ldr	r3, [r7, #4]
 8004fc6:	69db      	ldr	r3, [r3, #28]
 8004fc8:	2b01      	cmp	r3, #1
 8004fca:	d101      	bne.n	8004fd0 <HAL_RCC_OscConfig+0x5b0>
      {
        return HAL_ERROR;
 8004fcc:	2301      	movs	r3, #1
 8004fce:	e039      	b.n	8005044 <HAL_RCC_OscConfig+0x624>
      }
      else
      {
      /* Do not return HAL_ERROR if request repeats the current configuration */
      temp_pllckcfg = RCC->PLLCFGR;
 8004fd0:	4b1e      	ldr	r3, [pc, #120]	; (800504c <HAL_RCC_OscConfig+0x62c>)
 8004fd2:	68db      	ldr	r3, [r3, #12]
 8004fd4:	617b      	str	r3, [r7, #20]
      if((READ_BIT(temp_pllckcfg, RCC_PLLCFGR_PLLSRC) != RCC_OscInitStruct->PLL.PLLSource) ||
 8004fd6:	697b      	ldr	r3, [r7, #20]
 8004fd8:	f003 0203 	and.w	r2, r3, #3
 8004fdc:	687b      	ldr	r3, [r7, #4]
 8004fde:	6a1b      	ldr	r3, [r3, #32]
 8004fe0:	429a      	cmp	r2, r3
 8004fe2:	d12c      	bne.n	800503e <HAL_RCC_OscConfig+0x61e>
         (READ_BIT(temp_pllckcfg, RCC_PLLCFGR_PLLM) != (((RCC_OscInitStruct->PLL.PLLM) - 1U) << RCC_PLLCFGR_PLLM_Pos)) ||
 8004fe4:	697b      	ldr	r3, [r7, #20]
 8004fe6:	f003 02f0 	and.w	r2, r3, #240	; 0xf0
 8004fea:	687b      	ldr	r3, [r7, #4]
 8004fec:	6a5b      	ldr	r3, [r3, #36]	; 0x24
 8004fee:	3b01      	subs	r3, #1
 8004ff0:	011b      	lsls	r3, r3, #4
      if((READ_BIT(temp_pllckcfg, RCC_PLLCFGR_PLLSRC) != RCC_OscInitStruct->PLL.PLLSource) ||
 8004ff2:	429a      	cmp	r2, r3
 8004ff4:	d123      	bne.n	800503e <HAL_RCC_OscConfig+0x61e>
         (READ_BIT(temp_pllckcfg, RCC_PLLCFGR_PLLN) != ((RCC_OscInitStruct->PLL.PLLN) << RCC_PLLCFGR_PLLN_Pos)) ||
 8004ff6:	697b      	ldr	r3, [r7, #20]
 8004ff8:	f403 42fe 	and.w	r2, r3, #32512	; 0x7f00
 8004ffc:	687b      	ldr	r3, [r7, #4]
 8004ffe:	6a9b      	ldr	r3, [r3, #40]	; 0x28
 8005000:	021b      	lsls	r3, r3, #8
         (READ_BIT(temp_pllckcfg, RCC_PLLCFGR_PLLM) != (((RCC_OscInitStruct->PLL.PLLM) - 1U) << RCC_PLLCFGR_PLLM_Pos)) ||
 8005002:	429a      	cmp	r2, r3
 8005004:	d11b      	bne.n	800503e <HAL_RCC_OscConfig+0x61e>
         (READ_BIT(temp_pllckcfg, RCC_PLLCFGR_PLLPDIV) != ((RCC_OscInitStruct->PLL.PLLP) << RCC_PLLCFGR_PLLPDIV_Pos)) ||
 8005006:	697b      	ldr	r3, [r7, #20]
 8005008:	f003 4278 	and.w	r2, r3, #4160749568	; 0xf8000000
 800500c:	687b      	ldr	r3, [r7, #4]
 800500e:	6adb      	ldr	r3, [r3, #44]	; 0x2c
 8005010:	06db      	lsls	r3, r3, #27
         (READ_BIT(temp_pllckcfg, RCC_PLLCFGR_PLLN) != ((RCC_OscInitStruct->PLL.PLLN) << RCC_PLLCFGR_PLLN_Pos)) ||
 8005012:	429a      	cmp	r2, r3
 8005014:	d113      	bne.n	800503e <HAL_RCC_OscConfig+0x61e>
         (READ_BIT(temp_pllckcfg, RCC_PLLCFGR_PLLQ) != ((((RCC_OscInitStruct->PLL.PLLQ) >> 1U) - 1U) << RCC_PLLCFGR_PLLQ_Pos)) ||
 8005016:	697b      	ldr	r3, [r7, #20]
 8005018:	f403 02c0 	and.w	r2, r3, #6291456	; 0x600000
 800501c:	687b      	ldr	r3, [r7, #4]
 800501e:	6b1b      	ldr	r3, [r3, #48]	; 0x30
 8005020:	085b      	lsrs	r3, r3, #1
 8005022:	3b01      	subs	r3, #1
 8005024:	055b      	lsls	r3, r3, #21
         (READ_BIT(temp_pllckcfg, RCC_PLLCFGR_PLLPDIV) != ((RCC_OscInitStruct->PLL.PLLP) << RCC_PLLCFGR_PLLPDIV_Pos)) ||
 8005026:	429a      	cmp	r2, r3
 8005028:	d109      	bne.n	800503e <HAL_RCC_OscConfig+0x61e>
         (READ_BIT(temp_pllckcfg, RCC_PLLCFGR_PLLR) != ((((RCC_OscInitStruct->PLL.PLLR) >> 1U) - 1U) << RCC_PLLCFGR_PLLR_Pos)))
 800502a:	697b      	ldr	r3, [r7, #20]
 800502c:	f003 62c0 	and.w	r2, r3, #100663296	; 0x6000000
 8005030:	687b      	ldr	r3, [r7, #4]
 8005032:	6b5b      	ldr	r3, [r3, #52]	; 0x34
 8005034:	085b      	lsrs	r3, r3, #1
 8005036:	3b01      	subs	r3, #1
 8005038:	065b      	lsls	r3, r3, #25
         (READ_BIT(temp_pllckcfg, RCC_PLLCFGR_PLLQ) != ((((RCC_OscInitStruct->PLL.PLLQ) >> 1U) - 1U) << RCC_PLLCFGR_PLLQ_Pos)) ||
 800503a:	429a      	cmp	r2, r3
 800503c:	d001      	beq.n	8005042 <HAL_RCC_OscConfig+0x622>
      {
        return HAL_ERROR;
 800503e:	2301      	movs	r3, #1
 8005040:	e000      	b.n	8005044 <HAL_RCC_OscConfig+0x624>
      }
    }
  }
  }

  return HAL_OK;
 8005042:	2300      	movs	r3, #0
}
 8005044:	4618      	mov	r0, r3
 8005046:	3720      	adds	r7, #32
 8005048:	46bd      	mov	sp, r7
 800504a:	bd80      	pop	{r7, pc}
 800504c:	40021000 	.word	0x40021000

08005050 <HAL_RCC_ClockConfig>:
  *         HPRE[3:0] bits to ensure that HCLK not exceed the maximum allowed frequency
  *         (for more details refer to section above "Initialization/de-initialization functions")
  * @retval None
  */
HAL_StatusTypeDef HAL_RCC_ClockConfig(RCC_ClkInitTypeDef  *RCC_ClkInitStruct, uint32_t FLatency)
{
 8005050:	b580      	push	{r7, lr}
 8005052:	b086      	sub	sp, #24
 8005054:	af00      	add	r7, sp, #0
 8005056:	6078      	str	r0, [r7, #4]
 8005058:	6039      	str	r1, [r7, #0]
  uint32_t tickstart;
  uint32_t pllfreq;
  uint32_t hpre = RCC_SYSCLK_DIV1;
 800505a:	2300      	movs	r3, #0
 800505c:	617b      	str	r3, [r7, #20]

  /* Check Null pointer */
  if (RCC_ClkInitStruct == NULL)
 800505e:	687b      	ldr	r3, [r7, #4]
 8005060:	2b00      	cmp	r3, #0
 8005062:	d101      	bne.n	8005068 <HAL_RCC_ClockConfig+0x18>
  {
    return HAL_ERROR;
 8005064:	2301      	movs	r3, #1
 8005066:	e11e      	b.n	80052a6 <HAL_RCC_ClockConfig+0x256>
  /* To correctly read data from FLASH memory, the number of wait states (LATENCY)
    must be correctly programmed according to the frequency of the CPU clock
    (HCLK) and the supply voltage of the device. */

  /* Increasing the number of wait states because of higher CPU frequency */
  if (FLatency > __HAL_FLASH_GET_LATENCY())
 8005068:	4b91      	ldr	r3, [pc, #580]	; (80052b0 <HAL_RCC_ClockConfig+0x260>)
 800506a:	681b      	ldr	r3, [r3, #0]
 800506c:	f003 030f 	and.w	r3, r3, #15
 8005070:	683a      	ldr	r2, [r7, #0]
 8005072:	429a      	cmp	r2, r3
 8005074:	d910      	bls.n	8005098 <HAL_RCC_ClockConfig+0x48>
  {
    /* Program the new number of wait states to the LATENCY bits in the FLASH_ACR register */
    __HAL_FLASH_SET_LATENCY(FLatency);
 8005076:	4b8e      	ldr	r3, [pc, #568]	; (80052b0 <HAL_RCC_ClockConfig+0x260>)
 8005078:	681b      	ldr	r3, [r3, #0]
 800507a:	f023 020f 	bic.w	r2, r3, #15
 800507e:	498c      	ldr	r1, [pc, #560]	; (80052b0 <HAL_RCC_ClockConfig+0x260>)
 8005080:	683b      	ldr	r3, [r7, #0]
 8005082:	4313      	orrs	r3, r2
 8005084:	600b      	str	r3, [r1, #0]

    /* Check that the new number of wait states is taken into account to access the Flash
    memory by reading the FLASH_ACR register */
    if (__HAL_FLASH_GET_LATENCY() != FLatency)
 8005086:	4b8a      	ldr	r3, [pc, #552]	; (80052b0 <HAL_RCC_ClockConfig+0x260>)
 8005088:	681b      	ldr	r3, [r3, #0]
 800508a:	f003 030f 	and.w	r3, r3, #15
 800508e:	683a      	ldr	r2, [r7, #0]
 8005090:	429a      	cmp	r2, r3
 8005092:	d001      	beq.n	8005098 <HAL_RCC_ClockConfig+0x48>
    {
      return HAL_ERROR;
 8005094:	2301      	movs	r3, #1
 8005096:	e106      	b.n	80052a6 <HAL_RCC_ClockConfig+0x256>
    }
  }

  /*------------------------- SYSCLK Configuration ---------------------------*/
  if(((RCC_ClkInitStruct->ClockType) & RCC_CLOCKTYPE_SYSCLK) == RCC_CLOCKTYPE_SYSCLK)
 8005098:	687b      	ldr	r3, [r7, #4]
 800509a:	681b      	ldr	r3, [r3, #0]
 800509c:	f003 0301 	and.w	r3, r3, #1
 80050a0:	2b00      	cmp	r3, #0
 80050a2:	d073      	beq.n	800518c <HAL_RCC_ClockConfig+0x13c>
  {
    assert_param(IS_RCC_SYSCLKSOURCE(RCC_ClkInitStruct->SYSCLKSource));

    /* PLL is selected as System Clock Source */
    if (RCC_ClkInitStruct->SYSCLKSource == RCC_SYSCLKSOURCE_PLLCLK)
 80050a4:	687b      	ldr	r3, [r7, #4]
 80050a6:	685b      	ldr	r3, [r3, #4]
 80050a8:	2b03      	cmp	r3, #3
 80050aa:	d129      	bne.n	8005100 <HAL_RCC_ClockConfig+0xb0>
    {
      /* Check the PLL ready flag */
      if (READ_BIT(RCC->CR, RCC_CR_PLLRDY) == 0U)
 80050ac:	4b81      	ldr	r3, [pc, #516]	; (80052b4 <HAL_RCC_ClockConfig+0x264>)
 80050ae:	681b      	ldr	r3, [r3, #0]
 80050b0:	f003 7300 	and.w	r3, r3, #33554432	; 0x2000000
 80050b4:	2b00      	cmp	r3, #0
 80050b6:	d101      	bne.n	80050bc <HAL_RCC_ClockConfig+0x6c>
      {
        return HAL_ERROR;
 80050b8:	2301      	movs	r3, #1
 80050ba:	e0f4      	b.n	80052a6 <HAL_RCC_ClockConfig+0x256>
      }
      /* Undershoot management when selection PLL as SYSCLK source and frequency above 80Mhz */
      /* Compute target PLL output frequency */
      pllfreq = RCC_GetSysClockFreqFromPLLSource();
 80050bc:	f000 f972 	bl	80053a4 <RCC_GetSysClockFreqFromPLLSource>
 80050c0:	6138      	str	r0, [r7, #16]

      /* Intermediate step with HCLK prescaler 2 necessary before to go over 80Mhz */
      if(pllfreq > 80000000U)
 80050c2:	693b      	ldr	r3, [r7, #16]
 80050c4:	4a7c      	ldr	r2, [pc, #496]	; (80052b8 <HAL_RCC_ClockConfig+0x268>)
 80050c6:	4293      	cmp	r3, r2
 80050c8:	d93f      	bls.n	800514a <HAL_RCC_ClockConfig+0xfa>
      {
        if (((READ_BIT(RCC->CFGR, RCC_CFGR_HPRE) == RCC_SYSCLK_DIV1)) ||
 80050ca:	4b7a      	ldr	r3, [pc, #488]	; (80052b4 <HAL_RCC_ClockConfig+0x264>)
 80050cc:	689b      	ldr	r3, [r3, #8]
 80050ce:	f003 03f0 	and.w	r3, r3, #240	; 0xf0
 80050d2:	2b00      	cmp	r3, #0
 80050d4:	d009      	beq.n	80050ea <HAL_RCC_ClockConfig+0x9a>
            (((((RCC_ClkInitStruct->ClockType) & RCC_CLOCKTYPE_HCLK) == RCC_CLOCKTYPE_HCLK) &&
 80050d6:	687b      	ldr	r3, [r7, #4]
 80050d8:	681b      	ldr	r3, [r3, #0]
 80050da:	f003 0302 	and.w	r3, r3, #2
        if (((READ_BIT(RCC->CFGR, RCC_CFGR_HPRE) == RCC_SYSCLK_DIV1)) ||
 80050de:	2b00      	cmp	r3, #0
 80050e0:	d033      	beq.n	800514a <HAL_RCC_ClockConfig+0xfa>
              (RCC_ClkInitStruct->AHBCLKDivider == RCC_SYSCLK_DIV1))))
 80050e2:	687b      	ldr	r3, [r7, #4]
 80050e4:	689b      	ldr	r3, [r3, #8]
            (((((RCC_ClkInitStruct->ClockType) & RCC_CLOCKTYPE_HCLK) == RCC_CLOCKTYPE_HCLK) &&
 80050e6:	2b00      	cmp	r3, #0
 80050e8:	d12f      	bne.n	800514a <HAL_RCC_ClockConfig+0xfa>
        {
          MODIFY_REG(RCC->CFGR, RCC_CFGR_HPRE, RCC_SYSCLK_DIV2);
 80050ea:	4b72      	ldr	r3, [pc, #456]	; (80052b4 <HAL_RCC_ClockConfig+0x264>)
 80050ec:	689b      	ldr	r3, [r3, #8]
 80050ee:	f023 03f0 	bic.w	r3, r3, #240	; 0xf0
 80050f2:	4a70      	ldr	r2, [pc, #448]	; (80052b4 <HAL_RCC_ClockConfig+0x264>)
 80050f4:	f043 0380 	orr.w	r3, r3, #128	; 0x80
 80050f8:	6093      	str	r3, [r2, #8]
          hpre = RCC_SYSCLK_DIV2;
 80050fa:	2380      	movs	r3, #128	; 0x80
 80050fc:	617b      	str	r3, [r7, #20]
 80050fe:	e024      	b.n	800514a <HAL_RCC_ClockConfig+0xfa>
      }
    }
    else
    {
      /* HSE is selected as System Clock Source */
      if (RCC_ClkInitStruct->SYSCLKSource == RCC_SYSCLKSOURCE_HSE)
 8005100:	687b      	ldr	r3, [r7, #4]
 8005102:	685b      	ldr	r3, [r3, #4]
 8005104:	2b02      	cmp	r3, #2
 8005106:	d107      	bne.n	8005118 <HAL_RCC_ClockConfig+0xc8>
      {
        /* Check the HSE ready flag */
        if(READ_BIT(RCC->CR, RCC_CR_HSERDY) == 0U)
 8005108:	4b6a      	ldr	r3, [pc, #424]	; (80052b4 <HAL_RCC_ClockConfig+0x264>)
 800510a:	681b      	ldr	r3, [r3, #0]
 800510c:	f403 3300 	and.w	r3, r3, #131072	; 0x20000
 8005110:	2b00      	cmp	r3, #0
 8005112:	d109      	bne.n	8005128 <HAL_RCC_ClockConfig+0xd8>
        {
          return HAL_ERROR;
 8005114:	2301      	movs	r3, #1
 8005116:	e0c6      	b.n	80052a6 <HAL_RCC_ClockConfig+0x256>
      }
      /* HSI is selected as System Clock Source */
      else
      {
        /* Check the HSI ready flag */
        if(READ_BIT(RCC->CR, RCC_CR_HSIRDY) == 0U)
 8005118:	4b66      	ldr	r3, [pc, #408]	; (80052b4 <HAL_RCC_ClockConfig+0x264>)
 800511a:	681b      	ldr	r3, [r3, #0]
 800511c:	f403 6380 	and.w	r3, r3, #1024	; 0x400
 8005120:	2b00      	cmp	r3, #0
 8005122:	d101      	bne.n	8005128 <HAL_RCC_ClockConfig+0xd8>
        {
          return HAL_ERROR;
 8005124:	2301      	movs	r3, #1
 8005126:	e0be      	b.n	80052a6 <HAL_RCC_ClockConfig+0x256>
        }
      }
      /* Overshoot management when going down from PLL as SYSCLK source and frequency above 80Mhz */
      pllfreq = HAL_RCC_GetSysClockFreq();
 8005128:	f000 f8ce 	bl	80052c8 <HAL_RCC_GetSysClockFreq>
 800512c:	6138      	str	r0, [r7, #16]

      /* Intermediate step with HCLK prescaler 2 necessary before to go under 80Mhz */
      if(pllfreq > 80000000U)
 800512e:	693b      	ldr	r3, [r7, #16]
 8005130:	4a61      	ldr	r2, [pc, #388]	; (80052b8 <HAL_RCC_ClockConfig+0x268>)
 8005132:	4293      	cmp	r3, r2
 8005134:	d909      	bls.n	800514a <HAL_RCC_ClockConfig+0xfa>
      {
        MODIFY_REG(RCC->CFGR, RCC_CFGR_HPRE, RCC_SYSCLK_DIV2);
 8005136:	4b5f      	ldr	r3, [pc, #380]	; (80052b4 <HAL_RCC_ClockConfig+0x264>)
 8005138:	689b      	ldr	r3, [r3, #8]
 800513a:	f023 03f0 	bic.w	r3, r3, #240	; 0xf0
 800513e:	4a5d      	ldr	r2, [pc, #372]	; (80052b4 <HAL_RCC_ClockConfig+0x264>)
 8005140:	f043 0380 	orr.w	r3, r3, #128	; 0x80
 8005144:	6093      	str	r3, [r2, #8]
        hpre = RCC_SYSCLK_DIV2;
 8005146:	2380      	movs	r3, #128	; 0x80
 8005148:	617b      	str	r3, [r7, #20]
      }

    }

    MODIFY_REG(RCC->CFGR, RCC_CFGR_SW, RCC_ClkInitStruct->SYSCLKSource);
 800514a:	4b5a      	ldr	r3, [pc, #360]	; (80052b4 <HAL_RCC_ClockConfig+0x264>)
 800514c:	689b      	ldr	r3, [r3, #8]
 800514e:	f023 0203 	bic.w	r2, r3, #3
 8005152:	687b      	ldr	r3, [r7, #4]
 8005154:	685b      	ldr	r3, [r3, #4]
 8005156:	4957      	ldr	r1, [pc, #348]	; (80052b4 <HAL_RCC_ClockConfig+0x264>)
 8005158:	4313      	orrs	r3, r2
 800515a:	608b      	str	r3, [r1, #8]

    /* Get Start Tick*/
    tickstart = HAL_GetTick();
 800515c:	f7fc ff68 	bl	8002030 <HAL_GetTick>
 8005160:	60f8      	str	r0, [r7, #12]

    while (__HAL_RCC_GET_SYSCLK_SOURCE() != (RCC_ClkInitStruct->SYSCLKSource << RCC_CFGR_SWS_Pos))
 8005162:	e00a      	b.n	800517a <HAL_RCC_ClockConfig+0x12a>
    {
      if ((HAL_GetTick() - tickstart) > CLOCKSWITCH_TIMEOUT_VALUE)
 8005164:	f7fc ff64 	bl	8002030 <HAL_GetTick>
 8005168:	4602      	mov	r2, r0
 800516a:	68fb      	ldr	r3, [r7, #12]
 800516c:	1ad3      	subs	r3, r2, r3
 800516e:	f241 3288 	movw	r2, #5000	; 0x1388
 8005172:	4293      	cmp	r3, r2
 8005174:	d901      	bls.n	800517a <HAL_RCC_ClockConfig+0x12a>
      {
        return HAL_TIMEOUT;
 8005176:	2303      	movs	r3, #3
 8005178:	e095      	b.n	80052a6 <HAL_RCC_ClockConfig+0x256>
    while (__HAL_RCC_GET_SYSCLK_SOURCE() != (RCC_ClkInitStruct->SYSCLKSource << RCC_CFGR_SWS_Pos))
 800517a:	4b4e      	ldr	r3, [pc, #312]	; (80052b4 <HAL_RCC_ClockConfig+0x264>)
 800517c:	689b      	ldr	r3, [r3, #8]
 800517e:	f003 020c 	and.w	r2, r3, #12
 8005182:	687b      	ldr	r3, [r7, #4]
 8005184:	685b      	ldr	r3, [r3, #4]
 8005186:	009b      	lsls	r3, r3, #2
 8005188:	429a      	cmp	r2, r3
 800518a:	d1eb      	bne.n	8005164 <HAL_RCC_ClockConfig+0x114>
      }
    }
  }

  /*-------------------------- HCLK Configuration --------------------------*/
  if (((RCC_ClkInitStruct->ClockType) & RCC_CLOCKTYPE_HCLK) == RCC_CLOCKTYPE_HCLK)
 800518c:	687b      	ldr	r3, [r7, #4]
 800518e:	681b      	ldr	r3, [r3, #0]
 8005190:	f003 0302 	and.w	r3, r3, #2
 8005194:	2b00      	cmp	r3, #0
 8005196:	d023      	beq.n	80051e0 <HAL_RCC_ClockConfig+0x190>
  {
    /* Set the highest APB divider in order to ensure that we do not go through
       a non-spec phase whatever we decrease or increase HCLK. */
    if (((RCC_ClkInitStruct->ClockType) & RCC_CLOCKTYPE_PCLK1) == RCC_CLOCKTYPE_PCLK1)
 8005198:	687b      	ldr	r3, [r7, #4]
 800519a:	681b      	ldr	r3, [r3, #0]
 800519c:	f003 0304 	and.w	r3, r3, #4
 80051a0:	2b00      	cmp	r3, #0
 80051a2:	d005      	beq.n	80051b0 <HAL_RCC_ClockConfig+0x160>
    {
      MODIFY_REG(RCC->CFGR, RCC_CFGR_PPRE1, RCC_HCLK_DIV16);
 80051a4:	4b43      	ldr	r3, [pc, #268]	; (80052b4 <HAL_RCC_ClockConfig+0x264>)
 80051a6:	689b      	ldr	r3, [r3, #8]
 80051a8:	4a42      	ldr	r2, [pc, #264]	; (80052b4 <HAL_RCC_ClockConfig+0x264>)
 80051aa:	f443 63e0 	orr.w	r3, r3, #1792	; 0x700
 80051ae:	6093      	str	r3, [r2, #8]
    }
    if (((RCC_ClkInitStruct->ClockType) & RCC_CLOCKTYPE_PCLK2) == RCC_CLOCKTYPE_PCLK2)
 80051b0:	687b      	ldr	r3, [r7, #4]
 80051b2:	681b      	ldr	r3, [r3, #0]
 80051b4:	f003 0308 	and.w	r3, r3, #8
 80051b8:	2b00      	cmp	r3, #0
 80051ba:	d007      	beq.n	80051cc <HAL_RCC_ClockConfig+0x17c>
    {
      MODIFY_REG(RCC->CFGR, RCC_CFGR_PPRE2, RCC_HCLK_DIV16);
 80051bc:	4b3d      	ldr	r3, [pc, #244]	; (80052b4 <HAL_RCC_ClockConfig+0x264>)
 80051be:	689b      	ldr	r3, [r3, #8]
 80051c0:	f423 537c 	bic.w	r3, r3, #16128	; 0x3f00
 80051c4:	4a3b      	ldr	r2, [pc, #236]	; (80052b4 <HAL_RCC_ClockConfig+0x264>)
 80051c6:	f443 63e0 	orr.w	r3, r3, #1792	; 0x700
 80051ca:	6093      	str	r3, [r2, #8]
    }

    /* Set the new HCLK clock divider */
    assert_param(IS_RCC_HCLK(RCC_ClkInitStruct->AHBCLKDivider));
    MODIFY_REG(RCC->CFGR, RCC_CFGR_HPRE, RCC_ClkInitStruct->AHBCLKDivider);
 80051cc:	4b39      	ldr	r3, [pc, #228]	; (80052b4 <HAL_RCC_ClockConfig+0x264>)
 80051ce:	689b      	ldr	r3, [r3, #8]
 80051d0:	f023 02f0 	bic.w	r2, r3, #240	; 0xf0
 80051d4:	687b      	ldr	r3, [r7, #4]
 80051d6:	689b      	ldr	r3, [r3, #8]
 80051d8:	4936      	ldr	r1, [pc, #216]	; (80052b4 <HAL_RCC_ClockConfig+0x264>)
 80051da:	4313      	orrs	r3, r2
 80051dc:	608b      	str	r3, [r1, #8]
 80051de:	e008      	b.n	80051f2 <HAL_RCC_ClockConfig+0x1a2>
  }
  else
  {
    /* Is intermediate HCLK prescaler 2 applied internally, complete with HCLK prescaler 1 */
    if(hpre == RCC_SYSCLK_DIV2)
 80051e0:	697b      	ldr	r3, [r7, #20]
 80051e2:	2b80      	cmp	r3, #128	; 0x80
 80051e4:	d105      	bne.n	80051f2 <HAL_RCC_ClockConfig+0x1a2>
    {
      MODIFY_REG(RCC->CFGR, RCC_CFGR_HPRE, RCC_SYSCLK_DIV1);
 80051e6:	4b33      	ldr	r3, [pc, #204]	; (80052b4 <HAL_RCC_ClockConfig+0x264>)
 80051e8:	689b      	ldr	r3, [r3, #8]
 80051ea:	4a32      	ldr	r2, [pc, #200]	; (80052b4 <HAL_RCC_ClockConfig+0x264>)
 80051ec:	f023 03f0 	bic.w	r3, r3, #240	; 0xf0
 80051f0:	6093      	str	r3, [r2, #8]
    }
  }

  /* Decreasing the number of wait states because of lower CPU frequency */
  if (FLatency < __HAL_FLASH_GET_LATENCY())
 80051f2:	4b2f      	ldr	r3, [pc, #188]	; (80052b0 <HAL_RCC_ClockConfig+0x260>)
 80051f4:	681b      	ldr	r3, [r3, #0]
 80051f6:	f003 030f 	and.w	r3, r3, #15
 80051fa:	683a      	ldr	r2, [r7, #0]
 80051fc:	429a      	cmp	r2, r3
 80051fe:	d21d      	bcs.n	800523c <HAL_RCC_ClockConfig+0x1ec>
  {
    /* Program the new number of wait states to the LATENCY bits in the FLASH_ACR register */
    __HAL_FLASH_SET_LATENCY(FLatency);
 8005200:	4b2b      	ldr	r3, [pc, #172]	; (80052b0 <HAL_RCC_ClockConfig+0x260>)
 8005202:	681b      	ldr	r3, [r3, #0]
 8005204:	f023 020f 	bic.w	r2, r3, #15
 8005208:	4929      	ldr	r1, [pc, #164]	; (80052b0 <HAL_RCC_ClockConfig+0x260>)
 800520a:	683b      	ldr	r3, [r7, #0]
 800520c:	4313      	orrs	r3, r2
 800520e:	600b      	str	r3, [r1, #0]

    /* Check that the new number of wait states is taken into account to access the Flash
    memory by polling the FLASH_ACR register */
    tickstart = HAL_GetTick();
 8005210:	f7fc ff0e 	bl	8002030 <HAL_GetTick>
 8005214:	60f8      	str	r0, [r7, #12]

    while (__HAL_FLASH_GET_LATENCY() != FLatency)
 8005216:	e00a      	b.n	800522e <HAL_RCC_ClockConfig+0x1de>
    {
      if ((HAL_GetTick() - tickstart) > CLOCKSWITCH_TIMEOUT_VALUE)
 8005218:	f7fc ff0a 	bl	8002030 <HAL_GetTick>
 800521c:	4602      	mov	r2, r0
 800521e:	68fb      	ldr	r3, [r7, #12]
 8005220:	1ad3      	subs	r3, r2, r3
 8005222:	f241 3288 	movw	r2, #5000	; 0x1388
 8005226:	4293      	cmp	r3, r2
 8005228:	d901      	bls.n	800522e <HAL_RCC_ClockConfig+0x1de>
      {
        return HAL_TIMEOUT;
 800522a:	2303      	movs	r3, #3
 800522c:	e03b      	b.n	80052a6 <HAL_RCC_ClockConfig+0x256>
    while (__HAL_FLASH_GET_LATENCY() != FLatency)
 800522e:	4b20      	ldr	r3, [pc, #128]	; (80052b0 <HAL_RCC_ClockConfig+0x260>)
 8005230:	681b      	ldr	r3, [r3, #0]
 8005232:	f003 030f 	and.w	r3, r3, #15
 8005236:	683a      	ldr	r2, [r7, #0]
 8005238:	429a      	cmp	r2, r3
 800523a:	d1ed      	bne.n	8005218 <HAL_RCC_ClockConfig+0x1c8>
      }
    }
  }

  /*-------------------------- PCLK1 Configuration ---------------------------*/
  if (((RCC_ClkInitStruct->ClockType) & RCC_CLOCKTYPE_PCLK1) == RCC_CLOCKTYPE_PCLK1)
 800523c:	687b      	ldr	r3, [r7, #4]
 800523e:	681b      	ldr	r3, [r3, #0]
 8005240:	f003 0304 	and.w	r3, r3, #4
 8005244:	2b00      	cmp	r3, #0
 8005246:	d008      	beq.n	800525a <HAL_RCC_ClockConfig+0x20a>
  {
    assert_param(IS_RCC_PCLK(RCC_ClkInitStruct->APB1CLKDivider));
    MODIFY_REG(RCC->CFGR, RCC_CFGR_PPRE1, RCC_ClkInitStruct->APB1CLKDivider);
 8005248:	4b1a      	ldr	r3, [pc, #104]	; (80052b4 <HAL_RCC_ClockConfig+0x264>)
 800524a:	689b      	ldr	r3, [r3, #8]
 800524c:	f423 62e0 	bic.w	r2, r3, #1792	; 0x700
 8005250:	687b      	ldr	r3, [r7, #4]
 8005252:	68db      	ldr	r3, [r3, #12]
 8005254:	4917      	ldr	r1, [pc, #92]	; (80052b4 <HAL_RCC_ClockConfig+0x264>)
 8005256:	4313      	orrs	r3, r2
 8005258:	608b      	str	r3, [r1, #8]
  }

  /*-------------------------- PCLK2 Configuration ---------------------------*/
  if(((RCC_ClkInitStruct->ClockType) & RCC_CLOCKTYPE_PCLK2) == RCC_CLOCKTYPE_PCLK2)
 800525a:	687b      	ldr	r3, [r7, #4]
 800525c:	681b      	ldr	r3, [r3, #0]
 800525e:	f003 0308 	and.w	r3, r3, #8
 8005262:	2b00      	cmp	r3, #0
 8005264:	d009      	beq.n	800527a <HAL_RCC_ClockConfig+0x22a>
  {
    assert_param(IS_RCC_PCLK(RCC_ClkInitStruct->APB2CLKDivider));
    MODIFY_REG(RCC->CFGR, RCC_CFGR_PPRE2, ((RCC_ClkInitStruct->APB2CLKDivider) << 3U));
 8005266:	4b13      	ldr	r3, [pc, #76]	; (80052b4 <HAL_RCC_ClockConfig+0x264>)
 8005268:	689b      	ldr	r3, [r3, #8]
 800526a:	f423 5260 	bic.w	r2, r3, #14336	; 0x3800
 800526e:	687b      	ldr	r3, [r7, #4]
 8005270:	691b      	ldr	r3, [r3, #16]
 8005272:	00db      	lsls	r3, r3, #3
 8005274:	490f      	ldr	r1, [pc, #60]	; (80052b4 <HAL_RCC_ClockConfig+0x264>)
 8005276:	4313      	orrs	r3, r2
 8005278:	608b      	str	r3, [r1, #8]
  }

  /* Update the SystemCoreClock global variable */
  SystemCoreClock = HAL_RCC_GetSysClockFreq() >> (AHBPrescTable[READ_BIT(RCC->CFGR, RCC_CFGR_HPRE) >> RCC_CFGR_HPRE_Pos] & 0x1FU);
 800527a:	f000 f825 	bl	80052c8 <HAL_RCC_GetSysClockFreq>
 800527e:	4601      	mov	r1, r0
 8005280:	4b0c      	ldr	r3, [pc, #48]	; (80052b4 <HAL_RCC_ClockConfig+0x264>)
 8005282:	689b      	ldr	r3, [r3, #8]
 8005284:	091b      	lsrs	r3, r3, #4
 8005286:	f003 030f 	and.w	r3, r3, #15
 800528a:	4a0c      	ldr	r2, [pc, #48]	; (80052bc <HAL_RCC_ClockConfig+0x26c>)
 800528c:	5cd3      	ldrb	r3, [r2, r3]
 800528e:	f003 031f 	and.w	r3, r3, #31
 8005292:	fa21 f303 	lsr.w	r3, r1, r3
 8005296:	4a0a      	ldr	r2, [pc, #40]	; (80052c0 <HAL_RCC_ClockConfig+0x270>)
 8005298:	6013      	str	r3, [r2, #0]

  /* Configure the source of time base considering new system clocks settings*/
  return HAL_InitTick(uwTickPrio);
 800529a:	4b0a      	ldr	r3, [pc, #40]	; (80052c4 <HAL_RCC_ClockConfig+0x274>)
 800529c:	681b      	ldr	r3, [r3, #0]
 800529e:	4618      	mov	r0, r3
 80052a0:	f7fc fe7a 	bl	8001f98 <HAL_InitTick>
 80052a4:	4603      	mov	r3, r0
}
 80052a6:	4618      	mov	r0, r3
 80052a8:	3718      	adds	r7, #24
 80052aa:	46bd      	mov	sp, r7
 80052ac:	bd80      	pop	{r7, pc}
 80052ae:	bf00      	nop
 80052b0:	40022000 	.word	0x40022000
 80052b4:	40021000 	.word	0x40021000
 80052b8:	04c4b400 	.word	0x04c4b400
 80052bc:	08009750 	.word	0x08009750
 80052c0:	20001f44 	.word	0x20001f44
 80052c4:	20001f48 	.word	0x20001f48

080052c8 <HAL_RCC_GetSysClockFreq>:
  *
  *
  * @retval SYSCLK frequency
  */
uint32_t HAL_RCC_GetSysClockFreq(void)
{
 80052c8:	b480      	push	{r7}
 80052ca:	b087      	sub	sp, #28
 80052cc:	af00      	add	r7, sp, #0
  uint32_t pllvco, pllsource, pllr, pllm;
  uint32_t sysclockfreq;

  if (__HAL_RCC_GET_SYSCLK_SOURCE() == RCC_CFGR_SWS_HSI)
 80052ce:	4b2c      	ldr	r3, [pc, #176]	; (8005380 <HAL_RCC_GetSysClockFreq+0xb8>)
 80052d0:	689b      	ldr	r3, [r3, #8]
 80052d2:	f003 030c 	and.w	r3, r3, #12
 80052d6:	2b04      	cmp	r3, #4
 80052d8:	d102      	bne.n	80052e0 <HAL_RCC_GetSysClockFreq+0x18>
  {
    /* HSI used as system clock source */
    sysclockfreq = HSI_VALUE;
 80052da:	4b2a      	ldr	r3, [pc, #168]	; (8005384 <HAL_RCC_GetSysClockFreq+0xbc>)
 80052dc:	613b      	str	r3, [r7, #16]
 80052de:	e047      	b.n	8005370 <HAL_RCC_GetSysClockFreq+0xa8>
  }
  else if (__HAL_RCC_GET_SYSCLK_SOURCE() == RCC_CFGR_SWS_HSE)
 80052e0:	4b27      	ldr	r3, [pc, #156]	; (8005380 <HAL_RCC_GetSysClockFreq+0xb8>)
 80052e2:	689b      	ldr	r3, [r3, #8]
 80052e4:	f003 030c 	and.w	r3, r3, #12
 80052e8:	2b08      	cmp	r3, #8
 80052ea:	d102      	bne.n	80052f2 <HAL_RCC_GetSysClockFreq+0x2a>
  {
    /* HSE used as system clock source */
    sysclockfreq = HSE_VALUE;
 80052ec:	4b26      	ldr	r3, [pc, #152]	; (8005388 <HAL_RCC_GetSysClockFreq+0xc0>)
 80052ee:	613b      	str	r3, [r7, #16]
 80052f0:	e03e      	b.n	8005370 <HAL_RCC_GetSysClockFreq+0xa8>
  }
  else if (__HAL_RCC_GET_SYSCLK_SOURCE() == RCC_CFGR_SWS_PLL)
 80052f2:	4b23      	ldr	r3, [pc, #140]	; (8005380 <HAL_RCC_GetSysClockFreq+0xb8>)
 80052f4:	689b      	ldr	r3, [r3, #8]
 80052f6:	f003 030c 	and.w	r3, r3, #12
 80052fa:	2b0c      	cmp	r3, #12
 80052fc:	d136      	bne.n	800536c <HAL_RCC_GetSysClockFreq+0xa4>
    /* PLL used as system clock  source */

    /* PLL_VCO = ((HSE_VALUE or HSI_VALUE)/ PLLM) * PLLN
    SYSCLK = PLL_VCO / PLLR
    */
    pllsource = READ_BIT(RCC->PLLCFGR, RCC_PLLCFGR_PLLSRC);
 80052fe:	4b20      	ldr	r3, [pc, #128]	; (8005380 <HAL_RCC_GetSysClockFreq+0xb8>)
 8005300:	68db      	ldr	r3, [r3, #12]
 8005302:	f003 0303 	and.w	r3, r3, #3
 8005306:	60fb      	str	r3, [r7, #12]
    pllm = (READ_BIT(RCC->PLLCFGR, RCC_PLLCFGR_PLLM) >> RCC_PLLCFGR_PLLM_Pos) + 1U ;
 8005308:	4b1d      	ldr	r3, [pc, #116]	; (8005380 <HAL_RCC_GetSysClockFreq+0xb8>)
 800530a:	68db      	ldr	r3, [r3, #12]
 800530c:	091b      	lsrs	r3, r3, #4
 800530e:	f003 030f 	and.w	r3, r3, #15
 8005312:	3301      	adds	r3, #1
 8005314:	60bb      	str	r3, [r7, #8]

    switch (pllsource)
 8005316:	68fb      	ldr	r3, [r7, #12]
 8005318:	2b03      	cmp	r3, #3
 800531a:	d10c      	bne.n	8005336 <HAL_RCC_GetSysClockFreq+0x6e>
    {
    case RCC_PLLSOURCE_HSE:  /* HSE used as PLL clock source */
      pllvco = (HSE_VALUE / pllm) * (READ_BIT(RCC->PLLCFGR, RCC_PLLCFGR_PLLN) >> RCC_PLLCFGR_PLLN_Pos);
 800531c:	4a1a      	ldr	r2, [pc, #104]	; (8005388 <HAL_RCC_GetSysClockFreq+0xc0>)
 800531e:	68bb      	ldr	r3, [r7, #8]
 8005320:	fbb2 f3f3 	udiv	r3, r2, r3
 8005324:	4a16      	ldr	r2, [pc, #88]	; (8005380 <HAL_RCC_GetSysClockFreq+0xb8>)
 8005326:	68d2      	ldr	r2, [r2, #12]
 8005328:	0a12      	lsrs	r2, r2, #8
 800532a:	f002 027f 	and.w	r2, r2, #127	; 0x7f
 800532e:	fb02 f303 	mul.w	r3, r2, r3
 8005332:	617b      	str	r3, [r7, #20]
      break;
 8005334:	e00c      	b.n	8005350 <HAL_RCC_GetSysClockFreq+0x88>

    case RCC_PLLSOURCE_HSI:  /* HSI used as PLL clock source */
    default:
      pllvco = (HSI_VALUE / pllm) * (READ_BIT(RCC->PLLCFGR, RCC_PLLCFGR_PLLN) >> RCC_PLLCFGR_PLLN_Pos);
 8005336:	4a13      	ldr	r2, [pc, #76]	; (8005384 <HAL_RCC_GetSysClockFreq+0xbc>)
 8005338:	68bb      	ldr	r3, [r7, #8]
 800533a:	fbb2 f3f3 	udiv	r3, r2, r3
 800533e:	4a10      	ldr	r2, [pc, #64]	; (8005380 <HAL_RCC_GetSysClockFreq+0xb8>)
 8005340:	68d2      	ldr	r2, [r2, #12]
 8005342:	0a12      	lsrs	r2, r2, #8
 8005344:	f002 027f 	and.w	r2, r2, #127	; 0x7f
 8005348:	fb02 f303 	mul.w	r3, r2, r3
 800534c:	617b      	str	r3, [r7, #20]
      break;
 800534e:	bf00      	nop
    }
    pllr = ((READ_BIT(RCC->PLLCFGR, RCC_PLLCFGR_PLLR) >> RCC_PLLCFGR_PLLR_Pos) + 1U ) * 2U;
 8005350:	4b0b      	ldr	r3, [pc, #44]	; (8005380 <HAL_RCC_GetSysClockFreq+0xb8>)
 8005352:	68db      	ldr	r3, [r3, #12]
 8005354:	0e5b      	lsrs	r3, r3, #25
 8005356:	f003 0303 	and.w	r3, r3, #3
 800535a:	3301      	adds	r3, #1
 800535c:	005b      	lsls	r3, r3, #1
 800535e:	607b      	str	r3, [r7, #4]
    sysclockfreq = pllvco/pllr;
 8005360:	697a      	ldr	r2, [r7, #20]
 8005362:	687b      	ldr	r3, [r7, #4]
 8005364:	fbb2 f3f3 	udiv	r3, r2, r3
 8005368:	613b      	str	r3, [r7, #16]
 800536a:	e001      	b.n	8005370 <HAL_RCC_GetSysClockFreq+0xa8>
  }
  else
  {
    sysclockfreq = 0U;
 800536c:	2300      	movs	r3, #0
 800536e:	613b      	str	r3, [r7, #16]
  }

  return sysclockfreq;
 8005370:	693b      	ldr	r3, [r7, #16]
}
 8005372:	4618      	mov	r0, r3
 8005374:	371c      	adds	r7, #28
 8005376:	46bd      	mov	sp, r7
 8005378:	f85d 7b04 	ldr.w	r7, [sp], #4
 800537c:	4770      	bx	lr
 800537e:	bf00      	nop
 8005380:	40021000 	.word	0x40021000
 8005384:	00f42400 	.word	0x00f42400
 8005388:	007a1200 	.word	0x007a1200

0800538c <HAL_RCC_GetHCLKFreq>:
  *
  * @note   The SystemCoreClock CMSIS variable is used to store System Clock Frequency.
  * @retval HCLK frequency in Hz
  */
uint32_t HAL_RCC_GetHCLKFreq(void)
{
 800538c:	b480      	push	{r7}
 800538e:	af00      	add	r7, sp, #0
  return SystemCoreClock;
 8005390:	4b03      	ldr	r3, [pc, #12]	; (80053a0 <HAL_RCC_GetHCLKFreq+0x14>)
 8005392:	681b      	ldr	r3, [r3, #0]
}
 8005394:	4618      	mov	r0, r3
 8005396:	46bd      	mov	sp, r7
 8005398:	f85d 7b04 	ldr.w	r7, [sp], #4
 800539c:	4770      	bx	lr
 800539e:	bf00      	nop
 80053a0:	20001f44 	.word	0x20001f44

080053a4 <RCC_GetSysClockFreqFromPLLSource>:
/**
  * @brief  Compute SYSCLK frequency based on PLL SYSCLK source.
  * @retval SYSCLK frequency
  */
static uint32_t RCC_GetSysClockFreqFromPLLSource(void)
{
 80053a4:	b480      	push	{r7}
 80053a6:	b087      	sub	sp, #28
 80053a8:	af00      	add	r7, sp, #0
  uint32_t sysclockfreq;

  /* PLL_VCO = (HSE_VALUE or HSI_VALUE/ PLLM) * PLLN
     SYSCLK = PLL_VCO / PLLR
   */
  pllsource = READ_BIT(RCC->PLLCFGR, RCC_PLLCFGR_PLLSRC);
 80053aa:	4b1e      	ldr	r3, [pc, #120]	; (8005424 <RCC_GetSysClockFreqFromPLLSource+0x80>)
 80053ac:	68db      	ldr	r3, [r3, #12]
 80053ae:	f003 0303 	and.w	r3, r3, #3
 80053b2:	613b      	str	r3, [r7, #16]
  pllm = (READ_BIT(RCC->PLLCFGR, RCC_PLLCFGR_PLLM) >> RCC_PLLCFGR_PLLM_Pos) + 1U ;
 80053b4:	4b1b      	ldr	r3, [pc, #108]	; (8005424 <RCC_GetSysClockFreqFromPLLSource+0x80>)
 80053b6:	68db      	ldr	r3, [r3, #12]
 80053b8:	091b      	lsrs	r3, r3, #4
 80053ba:	f003 030f 	and.w	r3, r3, #15
 80053be:	3301      	adds	r3, #1
 80053c0:	60fb      	str	r3, [r7, #12]

  switch (pllsource)
 80053c2:	693b      	ldr	r3, [r7, #16]
 80053c4:	2b03      	cmp	r3, #3
 80053c6:	d10c      	bne.n	80053e2 <RCC_GetSysClockFreqFromPLLSource+0x3e>
  {
  case RCC_PLLSOURCE_HSE:  /* HSE used as PLL clock source */
    pllvco = (HSE_VALUE / pllm) * (READ_BIT(RCC->PLLCFGR, RCC_PLLCFGR_PLLN) >> RCC_PLLCFGR_PLLN_Pos);
 80053c8:	4a17      	ldr	r2, [pc, #92]	; (8005428 <RCC_GetSysClockFreqFromPLLSource+0x84>)
 80053ca:	68fb      	ldr	r3, [r7, #12]
 80053cc:	fbb2 f3f3 	udiv	r3, r2, r3
 80053d0:	4a14      	ldr	r2, [pc, #80]	; (8005424 <RCC_GetSysClockFreqFromPLLSource+0x80>)
 80053d2:	68d2      	ldr	r2, [r2, #12]
 80053d4:	0a12      	lsrs	r2, r2, #8
 80053d6:	f002 027f 	and.w	r2, r2, #127	; 0x7f
 80053da:	fb02 f303 	mul.w	r3, r2, r3
 80053de:	617b      	str	r3, [r7, #20]
    break;
 80053e0:	e00c      	b.n	80053fc <RCC_GetSysClockFreqFromPLLSource+0x58>

  case RCC_PLLSOURCE_HSI:  /* HSI used as PLL clock source */
  default:
    pllvco = (HSI_VALUE / pllm) * (READ_BIT(RCC->PLLCFGR, RCC_PLLCFGR_PLLN) >> RCC_PLLCFGR_PLLN_Pos);
 80053e2:	4a12      	ldr	r2, [pc, #72]	; (800542c <RCC_GetSysClockFreqFromPLLSource+0x88>)
 80053e4:	68fb      	ldr	r3, [r7, #12]
 80053e6:	fbb2 f3f3 	udiv	r3, r2, r3
 80053ea:	4a0e      	ldr	r2, [pc, #56]	; (8005424 <RCC_GetSysClockFreqFromPLLSource+0x80>)
 80053ec:	68d2      	ldr	r2, [r2, #12]
 80053ee:	0a12      	lsrs	r2, r2, #8
 80053f0:	f002 027f 	and.w	r2, r2, #127	; 0x7f
 80053f4:	fb02 f303 	mul.w	r3, r2, r3
 80053f8:	617b      	str	r3, [r7, #20]
    break;
 80053fa:	bf00      	nop
  }

  pllr = ((READ_BIT(RCC->PLLCFGR, RCC_PLLCFGR_PLLR) >> RCC_PLLCFGR_PLLR_Pos) + 1U ) * 2U;
 80053fc:	4b09      	ldr	r3, [pc, #36]	; (8005424 <RCC_GetSysClockFreqFromPLLSource+0x80>)
 80053fe:	68db      	ldr	r3, [r3, #12]
 8005400:	0e5b      	lsrs	r3, r3, #25
 8005402:	f003 0303 	and.w	r3, r3, #3
 8005406:	3301      	adds	r3, #1
 8005408:	005b      	lsls	r3, r3, #1
 800540a:	60bb      	str	r3, [r7, #8]
  sysclockfreq = pllvco/pllr;
 800540c:	697a      	ldr	r2, [r7, #20]
 800540e:	68bb      	ldr	r3, [r7, #8]
 8005410:	fbb2 f3f3 	udiv	r3, r2, r3
 8005414:	607b      	str	r3, [r7, #4]

  return sysclockfreq;
 8005416:	687b      	ldr	r3, [r7, #4]
}
 8005418:	4618      	mov	r0, r3
 800541a:	371c      	adds	r7, #28
 800541c:	46bd      	mov	sp, r7
 800541e:	f85d 7b04 	ldr.w	r7, [sp], #4
 8005422:	4770      	bx	lr
 8005424:	40021000 	.word	0x40021000
 8005428:	007a1200 	.word	0x007a1200
 800542c:	00f42400 	.word	0x00f42400

08005430 <HAL_RCCEx_PeriphCLKConfig>:
  *         the RTC clock source: in this case the access to Backup domain is enabled.
  *
  * @retval HAL status
  */
HAL_StatusTypeDef HAL_RCCEx_PeriphCLKConfig(RCC_PeriphCLKInitTypeDef  *PeriphClkInit)
{
 8005430:	b580      	push	{r7, lr}
 8005432:	b086      	sub	sp, #24
 8005434:	af00      	add	r7, sp, #0
 8005436:	6078      	str	r0, [r7, #4]
  uint32_t tmpregister;
  uint32_t tickstart;
  HAL_StatusTypeDef ret = HAL_OK;      /* Intermediate status */
 8005438:	2300      	movs	r3, #0
 800543a:	74fb      	strb	r3, [r7, #19]
  HAL_StatusTypeDef status = HAL_OK;   /* Final status */
 800543c:	2300      	movs	r3, #0
 800543e:	74bb      	strb	r3, [r7, #18]

  /* Check the parameters */
  assert_param(IS_RCC_PERIPHCLOCK(PeriphClkInit->PeriphClockSelection));

  /*-------------------------- RTC clock source configuration ----------------------*/
  if((PeriphClkInit->PeriphClockSelection & RCC_PERIPHCLK_RTC) == RCC_PERIPHCLK_RTC)
 8005440:	687b      	ldr	r3, [r7, #4]
 8005442:	681b      	ldr	r3, [r3, #0]
 8005444:	f403 2300 	and.w	r3, r3, #524288	; 0x80000
 8005448:	2b00      	cmp	r3, #0
 800544a:	f000 8098 	beq.w	800557e <HAL_RCCEx_PeriphCLKConfig+0x14e>
  {
    FlagStatus       pwrclkchanged = RESET;
 800544e:	2300      	movs	r3, #0
 8005450:	747b      	strb	r3, [r7, #17]
    
    /* Check for RTC Parameters used to output RTCCLK */
    assert_param(IS_RCC_RTCCLKSOURCE(PeriphClkInit->RTCClockSelection));

    /* Enable Power Clock */
    if(__HAL_RCC_PWR_IS_CLK_DISABLED())
 8005452:	4b43      	ldr	r3, [pc, #268]	; (8005560 <HAL_RCCEx_PeriphCLKConfig+0x130>)
 8005454:	6d9b      	ldr	r3, [r3, #88]	; 0x58
 8005456:	f003 5380 	and.w	r3, r3, #268435456	; 0x10000000
 800545a:	2b00      	cmp	r3, #0
 800545c:	d10d      	bne.n	800547a <HAL_RCCEx_PeriphCLKConfig+0x4a>
    {
      __HAL_RCC_PWR_CLK_ENABLE();
 800545e:	4b40      	ldr	r3, [pc, #256]	; (8005560 <HAL_RCCEx_PeriphCLKConfig+0x130>)
 8005460:	6d9b      	ldr	r3, [r3, #88]	; 0x58
 8005462:	4a3f      	ldr	r2, [pc, #252]	; (8005560 <HAL_RCCEx_PeriphCLKConfig+0x130>)
 8005464:	f043 5380 	orr.w	r3, r3, #268435456	; 0x10000000
 8005468:	6593      	str	r3, [r2, #88]	; 0x58
 800546a:	4b3d      	ldr	r3, [pc, #244]	; (8005560 <HAL_RCCEx_PeriphCLKConfig+0x130>)
 800546c:	6d9b      	ldr	r3, [r3, #88]	; 0x58
 800546e:	f003 5380 	and.w	r3, r3, #268435456	; 0x10000000
 8005472:	60bb      	str	r3, [r7, #8]
 8005474:	68bb      	ldr	r3, [r7, #8]
      pwrclkchanged = SET;
 8005476:	2301      	movs	r3, #1
 8005478:	747b      	strb	r3, [r7, #17]
    }
      
    /* Enable write access to Backup domain */
    SET_BIT(PWR->CR1, PWR_CR1_DBP);
 800547a:	4b3a      	ldr	r3, [pc, #232]	; (8005564 <HAL_RCCEx_PeriphCLKConfig+0x134>)
 800547c:	681b      	ldr	r3, [r3, #0]
 800547e:	4a39      	ldr	r2, [pc, #228]	; (8005564 <HAL_RCCEx_PeriphCLKConfig+0x134>)
 8005480:	f443 7380 	orr.w	r3, r3, #256	; 0x100
 8005484:	6013      	str	r3, [r2, #0]

    /* Wait for Backup domain Write protection disable */
    tickstart = HAL_GetTick();
 8005486:	f7fc fdd3 	bl	8002030 <HAL_GetTick>
 800548a:	60f8      	str	r0, [r7, #12]

    while((PWR->CR1 & PWR_CR1_DBP) == 0U)
 800548c:	e009      	b.n	80054a2 <HAL_RCCEx_PeriphCLKConfig+0x72>
    {
      if((HAL_GetTick() - tickstart) > RCC_DBP_TIMEOUT_VALUE)
 800548e:	f7fc fdcf 	bl	8002030 <HAL_GetTick>
 8005492:	4602      	mov	r2, r0
 8005494:	68fb      	ldr	r3, [r7, #12]
 8005496:	1ad3      	subs	r3, r2, r3
 8005498:	2b02      	cmp	r3, #2
 800549a:	d902      	bls.n	80054a2 <HAL_RCCEx_PeriphCLKConfig+0x72>
      {
        ret = HAL_TIMEOUT;
 800549c:	2303      	movs	r3, #3
 800549e:	74fb      	strb	r3, [r7, #19]
        break;
 80054a0:	e005      	b.n	80054ae <HAL_RCCEx_PeriphCLKConfig+0x7e>
    while((PWR->CR1 & PWR_CR1_DBP) == 0U)
 80054a2:	4b30      	ldr	r3, [pc, #192]	; (8005564 <HAL_RCCEx_PeriphCLKConfig+0x134>)
 80054a4:	681b      	ldr	r3, [r3, #0]
 80054a6:	f403 7380 	and.w	r3, r3, #256	; 0x100
 80054aa:	2b00      	cmp	r3, #0
 80054ac:	d0ef      	beq.n	800548e <HAL_RCCEx_PeriphCLKConfig+0x5e>
      }
    }

    if(ret == HAL_OK)
 80054ae:	7cfb      	ldrb	r3, [r7, #19]
 80054b0:	2b00      	cmp	r3, #0
 80054b2:	d159      	bne.n	8005568 <HAL_RCCEx_PeriphCLKConfig+0x138>
    { 
      /* Reset the Backup domain only if the RTC Clock source selection is modified from default */
      tmpregister = READ_BIT(RCC->BDCR, RCC_BDCR_RTCSEL);
 80054b4:	4b2a      	ldr	r3, [pc, #168]	; (8005560 <HAL_RCCEx_PeriphCLKConfig+0x130>)
 80054b6:	f8d3 3090 	ldr.w	r3, [r3, #144]	; 0x90
 80054ba:	f403 7340 	and.w	r3, r3, #768	; 0x300
 80054be:	617b      	str	r3, [r7, #20]
      
      if((tmpregister != RCC_RTCCLKSOURCE_NONE) && (tmpregister != PeriphClkInit->RTCClockSelection))
 80054c0:	697b      	ldr	r3, [r7, #20]
 80054c2:	2b00      	cmp	r3, #0
 80054c4:	d01e      	beq.n	8005504 <HAL_RCCEx_PeriphCLKConfig+0xd4>
 80054c6:	687b      	ldr	r3, [r7, #4]
 80054c8:	6d1b      	ldr	r3, [r3, #80]	; 0x50
 80054ca:	697a      	ldr	r2, [r7, #20]
 80054cc:	429a      	cmp	r2, r3
 80054ce:	d019      	beq.n	8005504 <HAL_RCCEx_PeriphCLKConfig+0xd4>
      {
        /* Store the content of BDCR register before the reset of Backup Domain */
        tmpregister = READ_BIT(RCC->BDCR, ~(RCC_BDCR_RTCSEL));
 80054d0:	4b23      	ldr	r3, [pc, #140]	; (8005560 <HAL_RCCEx_PeriphCLKConfig+0x130>)
 80054d2:	f8d3 3090 	ldr.w	r3, [r3, #144]	; 0x90
 80054d6:	f423 7340 	bic.w	r3, r3, #768	; 0x300
 80054da:	617b      	str	r3, [r7, #20]
        /* RTC Clock selection can be changed only if the Backup Domain is reset */
        __HAL_RCC_BACKUPRESET_FORCE();
 80054dc:	4b20      	ldr	r3, [pc, #128]	; (8005560 <HAL_RCCEx_PeriphCLKConfig+0x130>)
 80054de:	f8d3 3090 	ldr.w	r3, [r3, #144]	; 0x90
 80054e2:	4a1f      	ldr	r2, [pc, #124]	; (8005560 <HAL_RCCEx_PeriphCLKConfig+0x130>)
 80054e4:	f443 3380 	orr.w	r3, r3, #65536	; 0x10000
 80054e8:	f8c2 3090 	str.w	r3, [r2, #144]	; 0x90
        __HAL_RCC_BACKUPRESET_RELEASE();
 80054ec:	4b1c      	ldr	r3, [pc, #112]	; (8005560 <HAL_RCCEx_PeriphCLKConfig+0x130>)
 80054ee:	f8d3 3090 	ldr.w	r3, [r3, #144]	; 0x90
 80054f2:	4a1b      	ldr	r2, [pc, #108]	; (8005560 <HAL_RCCEx_PeriphCLKConfig+0x130>)
 80054f4:	f423 3380 	bic.w	r3, r3, #65536	; 0x10000
 80054f8:	f8c2 3090 	str.w	r3, [r2, #144]	; 0x90
        /* Restore the Content of BDCR register */
        RCC->BDCR = tmpregister;
 80054fc:	4a18      	ldr	r2, [pc, #96]	; (8005560 <HAL_RCCEx_PeriphCLKConfig+0x130>)
 80054fe:	697b      	ldr	r3, [r7, #20]
 8005500:	f8c2 3090 	str.w	r3, [r2, #144]	; 0x90
      }

      /* Wait for LSE reactivation if LSE was enable prior to Backup Domain reset */
      if (HAL_IS_BIT_SET(tmpregister, RCC_BDCR_LSEON))
 8005504:	697b      	ldr	r3, [r7, #20]
 8005506:	f003 0301 	and.w	r3, r3, #1
 800550a:	2b00      	cmp	r3, #0
 800550c:	d016      	beq.n	800553c <HAL_RCCEx_PeriphCLKConfig+0x10c>
      {
        /* Get Start Tick*/
        tickstart = HAL_GetTick();
 800550e:	f7fc fd8f 	bl	8002030 <HAL_GetTick>
 8005512:	60f8      	str	r0, [r7, #12]

        /* Wait till LSE is ready */
        while(READ_BIT(RCC->BDCR, RCC_BDCR_LSERDY) == 0U)
 8005514:	e00b      	b.n	800552e <HAL_RCCEx_PeriphCLKConfig+0xfe>
        {
          if((HAL_GetTick() - tickstart) > RCC_LSE_TIMEOUT_VALUE)
 8005516:	f7fc fd8b 	bl	8002030 <HAL_GetTick>
 800551a:	4602      	mov	r2, r0
 800551c:	68fb      	ldr	r3, [r7, #12]
 800551e:	1ad3      	subs	r3, r2, r3
 8005520:	f241 3288 	movw	r2, #5000	; 0x1388
 8005524:	4293      	cmp	r3, r2
 8005526:	d902      	bls.n	800552e <HAL_RCCEx_PeriphCLKConfig+0xfe>
          {
            ret = HAL_TIMEOUT;
 8005528:	2303      	movs	r3, #3
 800552a:	74fb      	strb	r3, [r7, #19]
            break;
 800552c:	e006      	b.n	800553c <HAL_RCCEx_PeriphCLKConfig+0x10c>
        while(READ_BIT(RCC->BDCR, RCC_BDCR_LSERDY) == 0U)
 800552e:	4b0c      	ldr	r3, [pc, #48]	; (8005560 <HAL_RCCEx_PeriphCLKConfig+0x130>)
 8005530:	f8d3 3090 	ldr.w	r3, [r3, #144]	; 0x90
 8005534:	f003 0302 	and.w	r3, r3, #2
 8005538:	2b00      	cmp	r3, #0
 800553a:	d0ec      	beq.n	8005516 <HAL_RCCEx_PeriphCLKConfig+0xe6>
          }
        }
      }
      
      if(ret == HAL_OK)
 800553c:	7cfb      	ldrb	r3, [r7, #19]
 800553e:	2b00      	cmp	r3, #0
 8005540:	d10b      	bne.n	800555a <HAL_RCCEx_PeriphCLKConfig+0x12a>
      {
        /* Apply new RTC clock source selection */
        __HAL_RCC_RTC_CONFIG(PeriphClkInit->RTCClockSelection);
 8005542:	4b07      	ldr	r3, [pc, #28]	; (8005560 <HAL_RCCEx_PeriphCLKConfig+0x130>)
 8005544:	f8d3 3090 	ldr.w	r3, [r3, #144]	; 0x90
 8005548:	f423 7240 	bic.w	r2, r3, #768	; 0x300
 800554c:	687b      	ldr	r3, [r7, #4]
 800554e:	6d1b      	ldr	r3, [r3, #80]	; 0x50
 8005550:	4903      	ldr	r1, [pc, #12]	; (8005560 <HAL_RCCEx_PeriphCLKConfig+0x130>)
 8005552:	4313      	orrs	r3, r2
 8005554:	f8c1 3090 	str.w	r3, [r1, #144]	; 0x90
 8005558:	e008      	b.n	800556c <HAL_RCCEx_PeriphCLKConfig+0x13c>
      }
      else
      {
        /* set overall return value */
        status = ret;
 800555a:	7cfb      	ldrb	r3, [r7, #19]
 800555c:	74bb      	strb	r3, [r7, #18]
 800555e:	e005      	b.n	800556c <HAL_RCCEx_PeriphCLKConfig+0x13c>
 8005560:	40021000 	.word	0x40021000
 8005564:	40007000 	.word	0x40007000
      }
    }
    else
    {
      /* set overall return value */
      status = ret;
 8005568:	7cfb      	ldrb	r3, [r7, #19]
 800556a:	74bb      	strb	r3, [r7, #18]
    }

    /* Restore clock configuration if changed */
    if(pwrclkchanged == SET)
 800556c:	7c7b      	ldrb	r3, [r7, #17]
 800556e:	2b01      	cmp	r3, #1
 8005570:	d105      	bne.n	800557e <HAL_RCCEx_PeriphCLKConfig+0x14e>
    {
      __HAL_RCC_PWR_CLK_DISABLE();
 8005572:	4baf      	ldr	r3, [pc, #700]	; (8005830 <HAL_RCCEx_PeriphCLKConfig+0x400>)
 8005574:	6d9b      	ldr	r3, [r3, #88]	; 0x58
 8005576:	4aae      	ldr	r2, [pc, #696]	; (8005830 <HAL_RCCEx_PeriphCLKConfig+0x400>)
 8005578:	f023 5380 	bic.w	r3, r3, #268435456	; 0x10000000
 800557c:	6593      	str	r3, [r2, #88]	; 0x58
    }
  }

  /*-------------------------- USART1 clock source configuration -------------------*/
  if(((PeriphClkInit->PeriphClockSelection) & RCC_PERIPHCLK_USART1) == RCC_PERIPHCLK_USART1)
 800557e:	687b      	ldr	r3, [r7, #4]
 8005580:	681b      	ldr	r3, [r3, #0]
 8005582:	f003 0301 	and.w	r3, r3, #1
 8005586:	2b00      	cmp	r3, #0
 8005588:	d00a      	beq.n	80055a0 <HAL_RCCEx_PeriphCLKConfig+0x170>
  {
    /* Check the parameters */
    assert_param(IS_RCC_USART1CLKSOURCE(PeriphClkInit->Usart1ClockSelection));

    /* Configure the USART1 clock source */
    __HAL_RCC_USART1_CONFIG(PeriphClkInit->Usart1ClockSelection);
 800558a:	4ba9      	ldr	r3, [pc, #676]	; (8005830 <HAL_RCCEx_PeriphCLKConfig+0x400>)
 800558c:	f8d3 3088 	ldr.w	r3, [r3, #136]	; 0x88
 8005590:	f023 0203 	bic.w	r2, r3, #3
 8005594:	687b      	ldr	r3, [r7, #4]
 8005596:	685b      	ldr	r3, [r3, #4]
 8005598:	49a5      	ldr	r1, [pc, #660]	; (8005830 <HAL_RCCEx_PeriphCLKConfig+0x400>)
 800559a:	4313      	orrs	r3, r2
 800559c:	f8c1 3088 	str.w	r3, [r1, #136]	; 0x88
  }

  /*-------------------------- USART2 clock source configuration -------------------*/
  if(((PeriphClkInit->PeriphClockSelection) & RCC_PERIPHCLK_USART2) == RCC_PERIPHCLK_USART2)
 80055a0:	687b      	ldr	r3, [r7, #4]
 80055a2:	681b      	ldr	r3, [r3, #0]
 80055a4:	f003 0302 	and.w	r3, r3, #2
 80055a8:	2b00      	cmp	r3, #0
 80055aa:	d00a      	beq.n	80055c2 <HAL_RCCEx_PeriphCLKConfig+0x192>
  {
    /* Check the parameters */
    assert_param(IS_RCC_USART2CLKSOURCE(PeriphClkInit->Usart2ClockSelection));

    /* Configure the USART2 clock source */
    __HAL_RCC_USART2_CONFIG(PeriphClkInit->Usart2ClockSelection);
 80055ac:	4ba0      	ldr	r3, [pc, #640]	; (8005830 <HAL_RCCEx_PeriphCLKConfig+0x400>)
 80055ae:	f8d3 3088 	ldr.w	r3, [r3, #136]	; 0x88
 80055b2:	f023 020c 	bic.w	r2, r3, #12
 80055b6:	687b      	ldr	r3, [r7, #4]
 80055b8:	689b      	ldr	r3, [r3, #8]
 80055ba:	499d      	ldr	r1, [pc, #628]	; (8005830 <HAL_RCCEx_PeriphCLKConfig+0x400>)
 80055bc:	4313      	orrs	r3, r2
 80055be:	f8c1 3088 	str.w	r3, [r1, #136]	; 0x88
  }

  /*-------------------------- USART3 clock source configuration -------------------*/
  if(((PeriphClkInit->PeriphClockSelection) & RCC_PERIPHCLK_USART3) == RCC_PERIPHCLK_USART3)
 80055c2:	687b      	ldr	r3, [r7, #4]
 80055c4:	681b      	ldr	r3, [r3, #0]
 80055c6:	f003 0304 	and.w	r3, r3, #4
 80055ca:	2b00      	cmp	r3, #0
 80055cc:	d00a      	beq.n	80055e4 <HAL_RCCEx_PeriphCLKConfig+0x1b4>
  {
    /* Check the parameters */
    assert_param(IS_RCC_USART3CLKSOURCE(PeriphClkInit->Usart3ClockSelection));

    /* Configure the USART3 clock source */
    __HAL_RCC_USART3_CONFIG(PeriphClkInit->Usart3ClockSelection);
 80055ce:	4b98      	ldr	r3, [pc, #608]	; (8005830 <HAL_RCCEx_PeriphCLKConfig+0x400>)
 80055d0:	f8d3 3088 	ldr.w	r3, [r3, #136]	; 0x88
 80055d4:	f023 0230 	bic.w	r2, r3, #48	; 0x30
 80055d8:	687b      	ldr	r3, [r7, #4]
 80055da:	68db      	ldr	r3, [r3, #12]
 80055dc:	4994      	ldr	r1, [pc, #592]	; (8005830 <HAL_RCCEx_PeriphCLKConfig+0x400>)
 80055de:	4313      	orrs	r3, r2
 80055e0:	f8c1 3088 	str.w	r3, [r1, #136]	; 0x88
  }

#if defined(UART4)
  /*-------------------------- UART4 clock source configuration --------------------*/
  if(((PeriphClkInit->PeriphClockSelection) & RCC_PERIPHCLK_UART4) == RCC_PERIPHCLK_UART4)
 80055e4:	687b      	ldr	r3, [r7, #4]
 80055e6:	681b      	ldr	r3, [r3, #0]
 80055e8:	f003 0308 	and.w	r3, r3, #8
 80055ec:	2b00      	cmp	r3, #0
 80055ee:	d00a      	beq.n	8005606 <HAL_RCCEx_PeriphCLKConfig+0x1d6>
  {
    /* Check the parameters */
    assert_param(IS_RCC_UART4CLKSOURCE(PeriphClkInit->Uart4ClockSelection));

    /* Configure the UART4 clock source */
    __HAL_RCC_UART4_CONFIG(PeriphClkInit->Uart4ClockSelection);
 80055f0:	4b8f      	ldr	r3, [pc, #572]	; (8005830 <HAL_RCCEx_PeriphCLKConfig+0x400>)
 80055f2:	f8d3 3088 	ldr.w	r3, [r3, #136]	; 0x88
 80055f6:	f023 02c0 	bic.w	r2, r3, #192	; 0xc0
 80055fa:	687b      	ldr	r3, [r7, #4]
 80055fc:	691b      	ldr	r3, [r3, #16]
 80055fe:	498c      	ldr	r1, [pc, #560]	; (8005830 <HAL_RCCEx_PeriphCLKConfig+0x400>)
 8005600:	4313      	orrs	r3, r2
 8005602:	f8c1 3088 	str.w	r3, [r1, #136]	; 0x88
#endif /* UART4 */

#if defined(UART5)

  /*-------------------------- UART5 clock source configuration --------------------*/
  if(((PeriphClkInit->PeriphClockSelection) & RCC_PERIPHCLK_UART5) == RCC_PERIPHCLK_UART5)
 8005606:	687b      	ldr	r3, [r7, #4]
 8005608:	681b      	ldr	r3, [r3, #0]
 800560a:	f003 0310 	and.w	r3, r3, #16
 800560e:	2b00      	cmp	r3, #0
 8005610:	d00a      	beq.n	8005628 <HAL_RCCEx_PeriphCLKConfig+0x1f8>
  {
    /* Check the parameters */
    assert_param(IS_RCC_UART5CLKSOURCE(PeriphClkInit->Uart5ClockSelection));

    /* Configure the UART5 clock source */
    __HAL_RCC_UART5_CONFIG(PeriphClkInit->Uart5ClockSelection);
 8005612:	4b87      	ldr	r3, [pc, #540]	; (8005830 <HAL_RCCEx_PeriphCLKConfig+0x400>)
 8005614:	f8d3 3088 	ldr.w	r3, [r3, #136]	; 0x88
 8005618:	f423 7240 	bic.w	r2, r3, #768	; 0x300
 800561c:	687b      	ldr	r3, [r7, #4]
 800561e:	695b      	ldr	r3, [r3, #20]
 8005620:	4983      	ldr	r1, [pc, #524]	; (8005830 <HAL_RCCEx_PeriphCLKConfig+0x400>)
 8005622:	4313      	orrs	r3, r2
 8005624:	f8c1 3088 	str.w	r3, [r1, #136]	; 0x88
  }

#endif /* UART5 */

  /*-------------------------- LPUART1 clock source configuration ------------------*/
  if(((PeriphClkInit->PeriphClockSelection) & RCC_PERIPHCLK_LPUART1) == RCC_PERIPHCLK_LPUART1)
 8005628:	687b      	ldr	r3, [r7, #4]
 800562a:	681b      	ldr	r3, [r3, #0]
 800562c:	f003 0320 	and.w	r3, r3, #32
 8005630:	2b00      	cmp	r3, #0
 8005632:	d00a      	beq.n	800564a <HAL_RCCEx_PeriphCLKConfig+0x21a>
  {
    /* Check the parameters */
    assert_param(IS_RCC_LPUART1CLKSOURCE(PeriphClkInit->Lpuart1ClockSelection));

    /* Configure the LPUAR1 clock source */
    __HAL_RCC_LPUART1_CONFIG(PeriphClkInit->Lpuart1ClockSelection);
 8005634:	4b7e      	ldr	r3, [pc, #504]	; (8005830 <HAL_RCCEx_PeriphCLKConfig+0x400>)
 8005636:	f8d3 3088 	ldr.w	r3, [r3, #136]	; 0x88
 800563a:	f423 6240 	bic.w	r2, r3, #3072	; 0xc00
 800563e:	687b      	ldr	r3, [r7, #4]
 8005640:	699b      	ldr	r3, [r3, #24]
 8005642:	497b      	ldr	r1, [pc, #492]	; (8005830 <HAL_RCCEx_PeriphCLKConfig+0x400>)
 8005644:	4313      	orrs	r3, r2
 8005646:	f8c1 3088 	str.w	r3, [r1, #136]	; 0x88
  }

  /*-------------------------- I2C1 clock source configuration ---------------------*/
  if(((PeriphClkInit->PeriphClockSelection) & RCC_PERIPHCLK_I2C1) == RCC_PERIPHCLK_I2C1)
 800564a:	687b      	ldr	r3, [r7, #4]
 800564c:	681b      	ldr	r3, [r3, #0]
 800564e:	f003 0340 	and.w	r3, r3, #64	; 0x40
 8005652:	2b00      	cmp	r3, #0
 8005654:	d00a      	beq.n	800566c <HAL_RCCEx_PeriphCLKConfig+0x23c>
  {
    /* Check the parameters */
    assert_param(IS_RCC_I2C1CLKSOURCE(PeriphClkInit->I2c1ClockSelection));

    /* Configure the I2C1 clock source */
    __HAL_RCC_I2C1_CONFIG(PeriphClkInit->I2c1ClockSelection);
 8005656:	4b76      	ldr	r3, [pc, #472]	; (8005830 <HAL_RCCEx_PeriphCLKConfig+0x400>)
 8005658:	f8d3 3088 	ldr.w	r3, [r3, #136]	; 0x88
 800565c:	f423 5240 	bic.w	r2, r3, #12288	; 0x3000
 8005660:	687b      	ldr	r3, [r7, #4]
 8005662:	69db      	ldr	r3, [r3, #28]
 8005664:	4972      	ldr	r1, [pc, #456]	; (8005830 <HAL_RCCEx_PeriphCLKConfig+0x400>)
 8005666:	4313      	orrs	r3, r2
 8005668:	f8c1 3088 	str.w	r3, [r1, #136]	; 0x88
  }

  /*-------------------------- I2C2 clock source configuration ---------------------*/
  if(((PeriphClkInit->PeriphClockSelection) & RCC_PERIPHCLK_I2C2) == RCC_PERIPHCLK_I2C2)
 800566c:	687b      	ldr	r3, [r7, #4]
 800566e:	681b      	ldr	r3, [r3, #0]
 8005670:	f003 0380 	and.w	r3, r3, #128	; 0x80
 8005674:	2b00      	cmp	r3, #0
 8005676:	d00a      	beq.n	800568e <HAL_RCCEx_PeriphCLKConfig+0x25e>
  {
    /* Check the parameters */
    assert_param(IS_RCC_I2C2CLKSOURCE(PeriphClkInit->I2c2ClockSelection));

    /* Configure the I2C2 clock source */
    __HAL_RCC_I2C2_CONFIG(PeriphClkInit->I2c2ClockSelection);
 8005678:	4b6d      	ldr	r3, [pc, #436]	; (8005830 <HAL_RCCEx_PeriphCLKConfig+0x400>)
 800567a:	f8d3 3088 	ldr.w	r3, [r3, #136]	; 0x88
 800567e:	f423 4240 	bic.w	r2, r3, #49152	; 0xc000
 8005682:	687b      	ldr	r3, [r7, #4]
 8005684:	6a1b      	ldr	r3, [r3, #32]
 8005686:	496a      	ldr	r1, [pc, #424]	; (8005830 <HAL_RCCEx_PeriphCLKConfig+0x400>)
 8005688:	4313      	orrs	r3, r2
 800568a:	f8c1 3088 	str.w	r3, [r1, #136]	; 0x88
  }

  /*-------------------------- I2C3 clock source configuration ---------------------*/
  if(((PeriphClkInit->PeriphClockSelection) & RCC_PERIPHCLK_I2C3) == RCC_PERIPHCLK_I2C3)
 800568e:	687b      	ldr	r3, [r7, #4]
 8005690:	681b      	ldr	r3, [r3, #0]
 8005692:	f403 7380 	and.w	r3, r3, #256	; 0x100
 8005696:	2b00      	cmp	r3, #0
 8005698:	d00a      	beq.n	80056b0 <HAL_RCCEx_PeriphCLKConfig+0x280>
  {
    /* Check the parameters */
    assert_param(IS_RCC_I2C3CLKSOURCE(PeriphClkInit->I2c3ClockSelection));

    /* Configure the I2C3 clock source */
    __HAL_RCC_I2C3_CONFIG(PeriphClkInit->I2c3ClockSelection);
 800569a:	4b65      	ldr	r3, [pc, #404]	; (8005830 <HAL_RCCEx_PeriphCLKConfig+0x400>)
 800569c:	f8d3 3088 	ldr.w	r3, [r3, #136]	; 0x88
 80056a0:	f423 3240 	bic.w	r2, r3, #196608	; 0x30000
 80056a4:	687b      	ldr	r3, [r7, #4]
 80056a6:	6a5b      	ldr	r3, [r3, #36]	; 0x24
 80056a8:	4961      	ldr	r1, [pc, #388]	; (8005830 <HAL_RCCEx_PeriphCLKConfig+0x400>)
 80056aa:	4313      	orrs	r3, r2
 80056ac:	f8c1 3088 	str.w	r3, [r1, #136]	; 0x88
  }

#if defined(I2C4)  

  /*-------------------------- I2C4 clock source configuration ---------------------*/
  if(((PeriphClkInit->PeriphClockSelection) & RCC_PERIPHCLK_I2C4) == RCC_PERIPHCLK_I2C4)
 80056b0:	687b      	ldr	r3, [r7, #4]
 80056b2:	681b      	ldr	r3, [r3, #0]
 80056b4:	f403 3300 	and.w	r3, r3, #131072	; 0x20000
 80056b8:	2b00      	cmp	r3, #0
 80056ba:	d00a      	beq.n	80056d2 <HAL_RCCEx_PeriphCLKConfig+0x2a2>
  {
    /* Check the parameters */
    assert_param(IS_RCC_I2C4CLKSOURCE(PeriphClkInit->I2c4ClockSelection));

    /* Configure the I2C4 clock source */
    __HAL_RCC_I2C4_CONFIG(PeriphClkInit->I2c4ClockSelection);
 80056bc:	4b5c      	ldr	r3, [pc, #368]	; (8005830 <HAL_RCCEx_PeriphCLKConfig+0x400>)
 80056be:	f8d3 309c 	ldr.w	r3, [r3, #156]	; 0x9c
 80056c2:	f023 0203 	bic.w	r2, r3, #3
 80056c6:	687b      	ldr	r3, [r7, #4]
 80056c8:	6a9b      	ldr	r3, [r3, #40]	; 0x28
 80056ca:	4959      	ldr	r1, [pc, #356]	; (8005830 <HAL_RCCEx_PeriphCLKConfig+0x400>)
 80056cc:	4313      	orrs	r3, r2
 80056ce:	f8c1 309c 	str.w	r3, [r1, #156]	; 0x9c
  }

#endif /* I2C4 */

  /*-------------------------- LPTIM1 clock source configuration ---------------------*/
  if(((PeriphClkInit->PeriphClockSelection) & RCC_PERIPHCLK_LPTIM1) == RCC_PERIPHCLK_LPTIM1)
 80056d2:	687b      	ldr	r3, [r7, #4]
 80056d4:	681b      	ldr	r3, [r3, #0]
 80056d6:	f403 7300 	and.w	r3, r3, #512	; 0x200
 80056da:	2b00      	cmp	r3, #0
 80056dc:	d00a      	beq.n	80056f4 <HAL_RCCEx_PeriphCLKConfig+0x2c4>
  {
    /* Check the parameters */
    assert_param(IS_RCC_LPTIM1CLKSOURCE(PeriphClkInit->Lptim1ClockSelection));

    /* Configure the LPTIM1 clock source */
    __HAL_RCC_LPTIM1_CONFIG(PeriphClkInit->Lptim1ClockSelection);
 80056de:	4b54      	ldr	r3, [pc, #336]	; (8005830 <HAL_RCCEx_PeriphCLKConfig+0x400>)
 80056e0:	f8d3 3088 	ldr.w	r3, [r3, #136]	; 0x88
 80056e4:	f423 2240 	bic.w	r2, r3, #786432	; 0xc0000
 80056e8:	687b      	ldr	r3, [r7, #4]
 80056ea:	6adb      	ldr	r3, [r3, #44]	; 0x2c
 80056ec:	4950      	ldr	r1, [pc, #320]	; (8005830 <HAL_RCCEx_PeriphCLKConfig+0x400>)
 80056ee:	4313      	orrs	r3, r2
 80056f0:	f8c1 3088 	str.w	r3, [r1, #136]	; 0x88
  }

  /*-------------------------- SAI1 clock source configuration ---------------------*/
  if(((PeriphClkInit->PeriphClockSelection) & RCC_PERIPHCLK_SAI1) == RCC_PERIPHCLK_SAI1)
 80056f4:	687b      	ldr	r3, [r7, #4]
 80056f6:	681b      	ldr	r3, [r3, #0]
 80056f8:	f403 6380 	and.w	r3, r3, #1024	; 0x400
 80056fc:	2b00      	cmp	r3, #0
 80056fe:	d015      	beq.n	800572c <HAL_RCCEx_PeriphCLKConfig+0x2fc>
  {
    /* Check the parameters */
    assert_param(IS_RCC_SAI1CLKSOURCE(PeriphClkInit->Sai1ClockSelection));

    /* Configure the SAI1 interface clock source */
    __HAL_RCC_SAI1_CONFIG(PeriphClkInit->Sai1ClockSelection);
 8005700:	4b4b      	ldr	r3, [pc, #300]	; (8005830 <HAL_RCCEx_PeriphCLKConfig+0x400>)
 8005702:	f8d3 3088 	ldr.w	r3, [r3, #136]	; 0x88
 8005706:	f423 1240 	bic.w	r2, r3, #3145728	; 0x300000
 800570a:	687b      	ldr	r3, [r7, #4]
 800570c:	6b1b      	ldr	r3, [r3, #48]	; 0x30
 800570e:	4948      	ldr	r1, [pc, #288]	; (8005830 <HAL_RCCEx_PeriphCLKConfig+0x400>)
 8005710:	4313      	orrs	r3, r2
 8005712:	f8c1 3088 	str.w	r3, [r1, #136]	; 0x88
    
    if(PeriphClkInit->Sai1ClockSelection == RCC_SAI1CLKSOURCE_PLL)
 8005716:	687b      	ldr	r3, [r7, #4]
 8005718:	6b1b      	ldr	r3, [r3, #48]	; 0x30
 800571a:	f5b3 1f80 	cmp.w	r3, #1048576	; 0x100000
 800571e:	d105      	bne.n	800572c <HAL_RCCEx_PeriphCLKConfig+0x2fc>
    {
      /* Enable PLL48M1CLK output */
      __HAL_RCC_PLLCLKOUT_ENABLE(RCC_PLL_48M1CLK);
 8005720:	4b43      	ldr	r3, [pc, #268]	; (8005830 <HAL_RCCEx_PeriphCLKConfig+0x400>)
 8005722:	68db      	ldr	r3, [r3, #12]
 8005724:	4a42      	ldr	r2, [pc, #264]	; (8005830 <HAL_RCCEx_PeriphCLKConfig+0x400>)
 8005726:	f443 1380 	orr.w	r3, r3, #1048576	; 0x100000
 800572a:	60d3      	str	r3, [r2, #12]
    }
  }

  /*-------------------------- I2S clock source configuration ---------------------*/
  if(((PeriphClkInit->PeriphClockSelection) & RCC_PERIPHCLK_I2S) == RCC_PERIPHCLK_I2S)
 800572c:	687b      	ldr	r3, [r7, #4]
 800572e:	681b      	ldr	r3, [r3, #0]
 8005730:	f403 6300 	and.w	r3, r3, #2048	; 0x800
 8005734:	2b00      	cmp	r3, #0
 8005736:	d015      	beq.n	8005764 <HAL_RCCEx_PeriphCLKConfig+0x334>
  {
    /* Check the parameters */
    assert_param(IS_RCC_I2SCLKSOURCE(PeriphClkInit->I2sClockSelection));

    /* Configure the I2S interface clock source */
    __HAL_RCC_I2S_CONFIG(PeriphClkInit->I2sClockSelection);
 8005738:	4b3d      	ldr	r3, [pc, #244]	; (8005830 <HAL_RCCEx_PeriphCLKConfig+0x400>)
 800573a:	f8d3 3088 	ldr.w	r3, [r3, #136]	; 0x88
 800573e:	f423 0240 	bic.w	r2, r3, #12582912	; 0xc00000
 8005742:	687b      	ldr	r3, [r7, #4]
 8005744:	6b5b      	ldr	r3, [r3, #52]	; 0x34
 8005746:	493a      	ldr	r1, [pc, #232]	; (8005830 <HAL_RCCEx_PeriphCLKConfig+0x400>)
 8005748:	4313      	orrs	r3, r2
 800574a:	f8c1 3088 	str.w	r3, [r1, #136]	; 0x88
    
    if(PeriphClkInit->I2sClockSelection == RCC_I2SCLKSOURCE_PLL)
 800574e:	687b      	ldr	r3, [r7, #4]
 8005750:	6b5b      	ldr	r3, [r3, #52]	; 0x34
 8005752:	f5b3 0f80 	cmp.w	r3, #4194304	; 0x400000
 8005756:	d105      	bne.n	8005764 <HAL_RCCEx_PeriphCLKConfig+0x334>
    {
      /* Enable PLL48M1CLK output */
      __HAL_RCC_PLLCLKOUT_ENABLE(RCC_PLL_48M1CLK);
 8005758:	4b35      	ldr	r3, [pc, #212]	; (8005830 <HAL_RCCEx_PeriphCLKConfig+0x400>)
 800575a:	68db      	ldr	r3, [r3, #12]
 800575c:	4a34      	ldr	r2, [pc, #208]	; (8005830 <HAL_RCCEx_PeriphCLKConfig+0x400>)
 800575e:	f443 1380 	orr.w	r3, r3, #1048576	; 0x100000
 8005762:	60d3      	str	r3, [r2, #12]
    }
  }

#if defined(FDCAN1)
  /*-------------------------- FDCAN clock source configuration ---------------------*/
  if(((PeriphClkInit->PeriphClockSelection) & RCC_PERIPHCLK_FDCAN) == RCC_PERIPHCLK_FDCAN)
 8005764:	687b      	ldr	r3, [r7, #4]
 8005766:	681b      	ldr	r3, [r3, #0]
 8005768:	f403 5380 	and.w	r3, r3, #4096	; 0x1000
 800576c:	2b00      	cmp	r3, #0
 800576e:	d015      	beq.n	800579c <HAL_RCCEx_PeriphCLKConfig+0x36c>
  {
    /* Check the parameters */
    assert_param(IS_RCC_FDCANCLKSOURCE(PeriphClkInit->FdcanClockSelection));

    /* Configure the FDCAN interface clock source */
    __HAL_RCC_FDCAN_CONFIG(PeriphClkInit->FdcanClockSelection);
 8005770:	4b2f      	ldr	r3, [pc, #188]	; (8005830 <HAL_RCCEx_PeriphCLKConfig+0x400>)
 8005772:	f8d3 3088 	ldr.w	r3, [r3, #136]	; 0x88
 8005776:	f023 7240 	bic.w	r2, r3, #50331648	; 0x3000000
 800577a:	687b      	ldr	r3, [r7, #4]
 800577c:	6b9b      	ldr	r3, [r3, #56]	; 0x38
 800577e:	492c      	ldr	r1, [pc, #176]	; (8005830 <HAL_RCCEx_PeriphCLKConfig+0x400>)
 8005780:	4313      	orrs	r3, r2
 8005782:	f8c1 3088 	str.w	r3, [r1, #136]	; 0x88
    
    if(PeriphClkInit->FdcanClockSelection == RCC_FDCANCLKSOURCE_PLL)
 8005786:	687b      	ldr	r3, [r7, #4]
 8005788:	6b9b      	ldr	r3, [r3, #56]	; 0x38
 800578a:	f1b3 7f80 	cmp.w	r3, #16777216	; 0x1000000
 800578e:	d105      	bne.n	800579c <HAL_RCCEx_PeriphCLKConfig+0x36c>
    {
      /* Enable PLL48M1CLK output */
      __HAL_RCC_PLLCLKOUT_ENABLE(RCC_PLL_48M1CLK);
 8005790:	4b27      	ldr	r3, [pc, #156]	; (8005830 <HAL_RCCEx_PeriphCLKConfig+0x400>)
 8005792:	68db      	ldr	r3, [r3, #12]
 8005794:	4a26      	ldr	r2, [pc, #152]	; (8005830 <HAL_RCCEx_PeriphCLKConfig+0x400>)
 8005796:	f443 1380 	orr.w	r3, r3, #1048576	; 0x100000
 800579a:	60d3      	str	r3, [r2, #12]
#endif /* FDCAN1 */

#if defined(USB)

  /*-------------------------- USB clock source configuration ----------------------*/
  if(((PeriphClkInit->PeriphClockSelection) & RCC_PERIPHCLK_USB) == (RCC_PERIPHCLK_USB))
 800579c:	687b      	ldr	r3, [r7, #4]
 800579e:	681b      	ldr	r3, [r3, #0]
 80057a0:	f403 5300 	and.w	r3, r3, #8192	; 0x2000
 80057a4:	2b00      	cmp	r3, #0
 80057a6:	d015      	beq.n	80057d4 <HAL_RCCEx_PeriphCLKConfig+0x3a4>
  {
    assert_param(IS_RCC_USBCLKSOURCE(PeriphClkInit->UsbClockSelection));
    __HAL_RCC_USB_CONFIG(PeriphClkInit->UsbClockSelection);
 80057a8:	4b21      	ldr	r3, [pc, #132]	; (8005830 <HAL_RCCEx_PeriphCLKConfig+0x400>)
 80057aa:	f8d3 3088 	ldr.w	r3, [r3, #136]	; 0x88
 80057ae:	f023 6240 	bic.w	r2, r3, #201326592	; 0xc000000
 80057b2:	687b      	ldr	r3, [r7, #4]
 80057b4:	6bdb      	ldr	r3, [r3, #60]	; 0x3c
 80057b6:	491e      	ldr	r1, [pc, #120]	; (8005830 <HAL_RCCEx_PeriphCLKConfig+0x400>)
 80057b8:	4313      	orrs	r3, r2
 80057ba:	f8c1 3088 	str.w	r3, [r1, #136]	; 0x88

    if(PeriphClkInit->UsbClockSelection == RCC_USBCLKSOURCE_PLL)
 80057be:	687b      	ldr	r3, [r7, #4]
 80057c0:	6bdb      	ldr	r3, [r3, #60]	; 0x3c
 80057c2:	f1b3 6f00 	cmp.w	r3, #134217728	; 0x8000000
 80057c6:	d105      	bne.n	80057d4 <HAL_RCCEx_PeriphCLKConfig+0x3a4>
    {
      /* Enable PLL48M1CLK output */
      __HAL_RCC_PLLCLKOUT_ENABLE(RCC_PLL_48M1CLK);
 80057c8:	4b19      	ldr	r3, [pc, #100]	; (8005830 <HAL_RCCEx_PeriphCLKConfig+0x400>)
 80057ca:	68db      	ldr	r3, [r3, #12]
 80057cc:	4a18      	ldr	r2, [pc, #96]	; (8005830 <HAL_RCCEx_PeriphCLKConfig+0x400>)
 80057ce:	f443 1380 	orr.w	r3, r3, #1048576	; 0x100000
 80057d2:	60d3      	str	r3, [r2, #12]
  }

#endif /* USB */

  /*-------------------------- RNG clock source configuration ----------------------*/
  if(((PeriphClkInit->PeriphClockSelection) & RCC_PERIPHCLK_RNG) == (RCC_PERIPHCLK_RNG))
 80057d4:	687b      	ldr	r3, [r7, #4]
 80057d6:	681b      	ldr	r3, [r3, #0]
 80057d8:	f403 4380 	and.w	r3, r3, #16384	; 0x4000
 80057dc:	2b00      	cmp	r3, #0
 80057de:	d015      	beq.n	800580c <HAL_RCCEx_PeriphCLKConfig+0x3dc>
  {
    assert_param(IS_RCC_RNGCLKSOURCE(PeriphClkInit->RngClockSelection));
    __HAL_RCC_RNG_CONFIG(PeriphClkInit->RngClockSelection);
 80057e0:	4b13      	ldr	r3, [pc, #76]	; (8005830 <HAL_RCCEx_PeriphCLKConfig+0x400>)
 80057e2:	f8d3 3088 	ldr.w	r3, [r3, #136]	; 0x88
 80057e6:	f023 6240 	bic.w	r2, r3, #201326592	; 0xc000000
 80057ea:	687b      	ldr	r3, [r7, #4]
 80057ec:	6c1b      	ldr	r3, [r3, #64]	; 0x40
 80057ee:	4910      	ldr	r1, [pc, #64]	; (8005830 <HAL_RCCEx_PeriphCLKConfig+0x400>)
 80057f0:	4313      	orrs	r3, r2
 80057f2:	f8c1 3088 	str.w	r3, [r1, #136]	; 0x88

    if(PeriphClkInit->RngClockSelection == RCC_RNGCLKSOURCE_PLL)
 80057f6:	687b      	ldr	r3, [r7, #4]
 80057f8:	6c1b      	ldr	r3, [r3, #64]	; 0x40
 80057fa:	f1b3 6f00 	cmp.w	r3, #134217728	; 0x8000000
 80057fe:	d105      	bne.n	800580c <HAL_RCCEx_PeriphCLKConfig+0x3dc>
    {
      /* Enable PLL48M1CLK output */
      __HAL_RCC_PLLCLKOUT_ENABLE(RCC_PLL_48M1CLK);
 8005800:	4b0b      	ldr	r3, [pc, #44]	; (8005830 <HAL_RCCEx_PeriphCLKConfig+0x400>)
 8005802:	68db      	ldr	r3, [r3, #12]
 8005804:	4a0a      	ldr	r2, [pc, #40]	; (8005830 <HAL_RCCEx_PeriphCLKConfig+0x400>)
 8005806:	f443 1380 	orr.w	r3, r3, #1048576	; 0x100000
 800580a:	60d3      	str	r3, [r2, #12]
    }
  }

  /*-------------------------- ADC12 clock source configuration ----------------------*/
  if(((PeriphClkInit->PeriphClockSelection) & RCC_PERIPHCLK_ADC12) == RCC_PERIPHCLK_ADC12)
 800580c:	687b      	ldr	r3, [r7, #4]
 800580e:	681b      	ldr	r3, [r3, #0]
 8005810:	f403 4300 	and.w	r3, r3, #32768	; 0x8000
 8005814:	2b00      	cmp	r3, #0
 8005816:	d018      	beq.n	800584a <HAL_RCCEx_PeriphCLKConfig+0x41a>
  {
    /* Check the parameters */
    assert_param(IS_RCC_ADC12CLKSOURCE(PeriphClkInit->Adc12ClockSelection));

    /* Configure the ADC12 interface clock source */
    __HAL_RCC_ADC12_CONFIG(PeriphClkInit->Adc12ClockSelection);
 8005818:	4b05      	ldr	r3, [pc, #20]	; (8005830 <HAL_RCCEx_PeriphCLKConfig+0x400>)
 800581a:	f8d3 3088 	ldr.w	r3, [r3, #136]	; 0x88
 800581e:	f023 5240 	bic.w	r2, r3, #805306368	; 0x30000000
 8005822:	687b      	ldr	r3, [r7, #4]
 8005824:	6c5b      	ldr	r3, [r3, #68]	; 0x44
 8005826:	4902      	ldr	r1, [pc, #8]	; (8005830 <HAL_RCCEx_PeriphCLKConfig+0x400>)
 8005828:	4313      	orrs	r3, r2
 800582a:	f8c1 3088 	str.w	r3, [r1, #136]	; 0x88
 800582e:	e001      	b.n	8005834 <HAL_RCCEx_PeriphCLKConfig+0x404>
 8005830:	40021000 	.word	0x40021000
    
    if(PeriphClkInit->Adc12ClockSelection == RCC_ADC12CLKSOURCE_PLL)
 8005834:	687b      	ldr	r3, [r7, #4]
 8005836:	6c5b      	ldr	r3, [r3, #68]	; 0x44
 8005838:	f1b3 5f80 	cmp.w	r3, #268435456	; 0x10000000
 800583c:	d105      	bne.n	800584a <HAL_RCCEx_PeriphCLKConfig+0x41a>
    {
      /* Enable PLLADCCLK output */
      __HAL_RCC_PLLCLKOUT_ENABLE(RCC_PLL_ADCCLK);
 800583e:	4b21      	ldr	r3, [pc, #132]	; (80058c4 <HAL_RCCEx_PeriphCLKConfig+0x494>)
 8005840:	68db      	ldr	r3, [r3, #12]
 8005842:	4a20      	ldr	r2, [pc, #128]	; (80058c4 <HAL_RCCEx_PeriphCLKConfig+0x494>)
 8005844:	f443 3380 	orr.w	r3, r3, #65536	; 0x10000
 8005848:	60d3      	str	r3, [r2, #12]
    }
  }
  
#if defined(ADC345_COMMON)
  /*-------------------------- ADC345 clock source configuration ----------------------*/
  if(((PeriphClkInit->PeriphClockSelection) & RCC_PERIPHCLK_ADC345) == RCC_PERIPHCLK_ADC345)
 800584a:	687b      	ldr	r3, [r7, #4]
 800584c:	681b      	ldr	r3, [r3, #0]
 800584e:	f403 3380 	and.w	r3, r3, #65536	; 0x10000
 8005852:	2b00      	cmp	r3, #0
 8005854:	d015      	beq.n	8005882 <HAL_RCCEx_PeriphCLKConfig+0x452>
  {
    /* Check the parameters */
    assert_param(IS_RCC_ADC345CLKSOURCE(PeriphClkInit->Adc345ClockSelection));

    /* Configure the ADC345 interface clock source */
    __HAL_RCC_ADC345_CONFIG(PeriphClkInit->Adc345ClockSelection);
 8005856:	4b1b      	ldr	r3, [pc, #108]	; (80058c4 <HAL_RCCEx_PeriphCLKConfig+0x494>)
 8005858:	f8d3 3088 	ldr.w	r3, [r3, #136]	; 0x88
 800585c:	f023 4240 	bic.w	r2, r3, #3221225472	; 0xc0000000
 8005860:	687b      	ldr	r3, [r7, #4]
 8005862:	6c9b      	ldr	r3, [r3, #72]	; 0x48
 8005864:	4917      	ldr	r1, [pc, #92]	; (80058c4 <HAL_RCCEx_PeriphCLKConfig+0x494>)
 8005866:	4313      	orrs	r3, r2
 8005868:	f8c1 3088 	str.w	r3, [r1, #136]	; 0x88
    
    if(PeriphClkInit->Adc345ClockSelection == RCC_ADC345CLKSOURCE_PLL)
 800586c:	687b      	ldr	r3, [r7, #4]
 800586e:	6c9b      	ldr	r3, [r3, #72]	; 0x48
 8005870:	f1b3 4f80 	cmp.w	r3, #1073741824	; 0x40000000
 8005874:	d105      	bne.n	8005882 <HAL_RCCEx_PeriphCLKConfig+0x452>
    {
      /* Enable PLLADCCLK output */
      __HAL_RCC_PLLCLKOUT_ENABLE(RCC_PLL_ADCCLK);
 8005876:	4b13      	ldr	r3, [pc, #76]	; (80058c4 <HAL_RCCEx_PeriphCLKConfig+0x494>)
 8005878:	68db      	ldr	r3, [r3, #12]
 800587a:	4a12      	ldr	r2, [pc, #72]	; (80058c4 <HAL_RCCEx_PeriphCLKConfig+0x494>)
 800587c:	f443 3380 	orr.w	r3, r3, #65536	; 0x10000
 8005880:	60d3      	str	r3, [r2, #12]
#endif /* ADC345_COMMON */

#if defined(QUADSPI)

  /*-------------------------- QuadSPIx clock source configuration ----------------*/
  if(((PeriphClkInit->PeriphClockSelection) & RCC_PERIPHCLK_QSPI) == RCC_PERIPHCLK_QSPI)
 8005882:	687b      	ldr	r3, [r7, #4]
 8005884:	681b      	ldr	r3, [r3, #0]
 8005886:	f403 2380 	and.w	r3, r3, #262144	; 0x40000
 800588a:	2b00      	cmp	r3, #0
 800588c:	d015      	beq.n	80058ba <HAL_RCCEx_PeriphCLKConfig+0x48a>
  {
    /* Check the parameters */
    assert_param(IS_RCC_QSPICLKSOURCE(PeriphClkInit->QspiClockSelection));

    /* Configure the QuadSPI clock source */
    __HAL_RCC_QSPI_CONFIG(PeriphClkInit->QspiClockSelection);
 800588e:	4b0d      	ldr	r3, [pc, #52]	; (80058c4 <HAL_RCCEx_PeriphCLKConfig+0x494>)
 8005890:	f8d3 309c 	ldr.w	r3, [r3, #156]	; 0x9c
 8005894:	f423 1240 	bic.w	r2, r3, #3145728	; 0x300000
 8005898:	687b      	ldr	r3, [r7, #4]
 800589a:	6cdb      	ldr	r3, [r3, #76]	; 0x4c
 800589c:	4909      	ldr	r1, [pc, #36]	; (80058c4 <HAL_RCCEx_PeriphCLKConfig+0x494>)
 800589e:	4313      	orrs	r3, r2
 80058a0:	f8c1 309c 	str.w	r3, [r1, #156]	; 0x9c

    if(PeriphClkInit->QspiClockSelection == RCC_QSPICLKSOURCE_PLL)
 80058a4:	687b      	ldr	r3, [r7, #4]
 80058a6:	6cdb      	ldr	r3, [r3, #76]	; 0x4c
 80058a8:	f5b3 1f00 	cmp.w	r3, #2097152	; 0x200000
 80058ac:	d105      	bne.n	80058ba <HAL_RCCEx_PeriphCLKConfig+0x48a>
    {
      /* Enable PLL48M1CLK output */
      __HAL_RCC_PLLCLKOUT_ENABLE(RCC_PLL_48M1CLK);
 80058ae:	4b05      	ldr	r3, [pc, #20]	; (80058c4 <HAL_RCCEx_PeriphCLKConfig+0x494>)
 80058b0:	68db      	ldr	r3, [r3, #12]
 80058b2:	4a04      	ldr	r2, [pc, #16]	; (80058c4 <HAL_RCCEx_PeriphCLKConfig+0x494>)
 80058b4:	f443 1380 	orr.w	r3, r3, #1048576	; 0x100000
 80058b8:	60d3      	str	r3, [r2, #12]
    }
  }

#endif /* QUADSPI */

  return status;
 80058ba:	7cbb      	ldrb	r3, [r7, #18]
}
 80058bc:	4618      	mov	r0, r3
 80058be:	3718      	adds	r7, #24
 80058c0:	46bd      	mov	sp, r7
 80058c2:	bd80      	pop	{r7, pc}
 80058c4:	40021000 	.word	0x40021000

080058c8 <HAL_SPI_Init>:
  * @param  hspi pointer to a SPI_HandleTypeDef structure that contains
  *               the configuration information for SPI module.
  * @retval HAL status
  */
HAL_StatusTypeDef HAL_SPI_Init(SPI_HandleTypeDef *hspi)
{
 80058c8:	b580      	push	{r7, lr}
 80058ca:	b084      	sub	sp, #16
 80058cc:	af00      	add	r7, sp, #0
 80058ce:	6078      	str	r0, [r7, #4]
  uint32_t frxth;

  /* Check the SPI handle allocation */
  if (hspi == NULL)
 80058d0:	687b      	ldr	r3, [r7, #4]
 80058d2:	2b00      	cmp	r3, #0
 80058d4:	d101      	bne.n	80058da <HAL_SPI_Init+0x12>
  {
    return HAL_ERROR;
 80058d6:	2301      	movs	r3, #1
 80058d8:	e084      	b.n	80059e4 <HAL_SPI_Init+0x11c>
  {
    assert_param(IS_SPI_CRC_POLYNOMIAL(hspi->Init.CRCPolynomial));
    assert_param(IS_SPI_CRC_LENGTH(hspi->Init.CRCLength));
  }
#else
  hspi->Init.CRCCalculation = SPI_CRCCALCULATION_DISABLE;
 80058da:	687b      	ldr	r3, [r7, #4]
 80058dc:	2200      	movs	r2, #0
 80058de:	629a      	str	r2, [r3, #40]	; 0x28
#endif /* USE_SPI_CRC */

  if (hspi->State == HAL_SPI_STATE_RESET)
 80058e0:	687b      	ldr	r3, [r7, #4]
 80058e2:	f893 305d 	ldrb.w	r3, [r3, #93]	; 0x5d
 80058e6:	b2db      	uxtb	r3, r3
 80058e8:	2b00      	cmp	r3, #0
 80058ea:	d106      	bne.n	80058fa <HAL_SPI_Init+0x32>
  {
    /* Allocate lock resource and initialize it */
    hspi->Lock = HAL_UNLOCKED;
 80058ec:	687b      	ldr	r3, [r7, #4]
 80058ee:	2200      	movs	r2, #0
 80058f0:	f883 205c 	strb.w	r2, [r3, #92]	; 0x5c

    /* Init the low level hardware : GPIO, CLOCK, NVIC... */
    hspi->MspInitCallback(hspi);
#else
    /* Init the low level hardware : GPIO, CLOCK, NVIC... */
    HAL_SPI_MspInit(hspi);
 80058f4:	6878      	ldr	r0, [r7, #4]
 80058f6:	f7fb fcfb 	bl	80012f0 <HAL_SPI_MspInit>
#endif /* USE_HAL_SPI_REGISTER_CALLBACKS */
  }

  hspi->State = HAL_SPI_STATE_BUSY;
 80058fa:	687b      	ldr	r3, [r7, #4]
 80058fc:	2202      	movs	r2, #2
 80058fe:	f883 205d 	strb.w	r2, [r3, #93]	; 0x5d

  /* Disable the selected SPI peripheral */
  __HAL_SPI_DISABLE(hspi);
 8005902:	687b      	ldr	r3, [r7, #4]
 8005904:	681b      	ldr	r3, [r3, #0]
 8005906:	681a      	ldr	r2, [r3, #0]
 8005908:	687b      	ldr	r3, [r7, #4]
 800590a:	681b      	ldr	r3, [r3, #0]
 800590c:	f022 0240 	bic.w	r2, r2, #64	; 0x40
 8005910:	601a      	str	r2, [r3, #0]

  /* Align by default the rs fifo threshold on the data size */
  if (hspi->Init.DataSize > SPI_DATASIZE_8BIT)
 8005912:	687b      	ldr	r3, [r7, #4]
 8005914:	68db      	ldr	r3, [r3, #12]
 8005916:	f5b3 6fe0 	cmp.w	r3, #1792	; 0x700
 800591a:	d902      	bls.n	8005922 <HAL_SPI_Init+0x5a>
  {
    frxth = SPI_RXFIFO_THRESHOLD_HF;
 800591c:	2300      	movs	r3, #0
 800591e:	60fb      	str	r3, [r7, #12]
 8005920:	e002      	b.n	8005928 <HAL_SPI_Init+0x60>
  }
  else
  {
    frxth = SPI_RXFIFO_THRESHOLD_QF;
 8005922:	f44f 5380 	mov.w	r3, #4096	; 0x1000
 8005926:	60fb      	str	r3, [r7, #12]
  }

  /* CRC calculation is valid only for 16Bit and 8 Bit */
  if ((hspi->Init.DataSize != SPI_DATASIZE_16BIT) && (hspi->Init.DataSize != SPI_DATASIZE_8BIT))
 8005928:	687b      	ldr	r3, [r7, #4]
 800592a:	68db      	ldr	r3, [r3, #12]
 800592c:	f5b3 6f70 	cmp.w	r3, #3840	; 0xf00
 8005930:	d007      	beq.n	8005942 <HAL_SPI_Init+0x7a>
 8005932:	687b      	ldr	r3, [r7, #4]
 8005934:	68db      	ldr	r3, [r3, #12]
 8005936:	f5b3 6fe0 	cmp.w	r3, #1792	; 0x700
 800593a:	d002      	beq.n	8005942 <HAL_SPI_Init+0x7a>
  {
    /* CRC must be disabled */
    hspi->Init.CRCCalculation = SPI_CRCCALCULATION_DISABLE;
 800593c:	687b      	ldr	r3, [r7, #4]
 800593e:	2200      	movs	r2, #0
 8005940:	629a      	str	r2, [r3, #40]	; 0x28
  }

  /* Align the CRC Length on the data size */
  if (hspi->Init.CRCLength == SPI_CRC_LENGTH_DATASIZE)
 8005942:	687b      	ldr	r3, [r7, #4]
 8005944:	6b1b      	ldr	r3, [r3, #48]	; 0x30
 8005946:	2b00      	cmp	r3, #0
 8005948:	d10b      	bne.n	8005962 <HAL_SPI_Init+0x9a>
  {
    /* CRC Length aligned on the data size : value set by default */
    if (hspi->Init.DataSize > SPI_DATASIZE_8BIT)
 800594a:	687b      	ldr	r3, [r7, #4]
 800594c:	68db      	ldr	r3, [r3, #12]
 800594e:	f5b3 6fe0 	cmp.w	r3, #1792	; 0x700
 8005952:	d903      	bls.n	800595c <HAL_SPI_Init+0x94>
    {
      hspi->Init.CRCLength = SPI_CRC_LENGTH_16BIT;
 8005954:	687b      	ldr	r3, [r7, #4]
 8005956:	2202      	movs	r2, #2
 8005958:	631a      	str	r2, [r3, #48]	; 0x30
 800595a:	e002      	b.n	8005962 <HAL_SPI_Init+0x9a>
    }
    else
    {
      hspi->Init.CRCLength = SPI_CRC_LENGTH_8BIT;
 800595c:	687b      	ldr	r3, [r7, #4]
 800595e:	2201      	movs	r2, #1
 8005960:	631a      	str	r2, [r3, #48]	; 0x30
  }

  /*----------------------- SPIx CR1 & CR2 Configuration ---------------------*/
  /* Configure : SPI Mode, Communication Mode, Clock polarity and phase, NSS management,
  Communication speed, First bit and CRC calculation state */
  WRITE_REG(hspi->Instance->CR1, (hspi->Init.Mode | hspi->Init.Direction |
 8005962:	687b      	ldr	r3, [r7, #4]
 8005964:	685a      	ldr	r2, [r3, #4]
 8005966:	687b      	ldr	r3, [r7, #4]
 8005968:	689b      	ldr	r3, [r3, #8]
 800596a:	431a      	orrs	r2, r3
 800596c:	687b      	ldr	r3, [r7, #4]
 800596e:	691b      	ldr	r3, [r3, #16]
 8005970:	431a      	orrs	r2, r3
 8005972:	687b      	ldr	r3, [r7, #4]
 8005974:	695b      	ldr	r3, [r3, #20]
 8005976:	431a      	orrs	r2, r3
 8005978:	687b      	ldr	r3, [r7, #4]
 800597a:	699b      	ldr	r3, [r3, #24]
 800597c:	f403 7300 	and.w	r3, r3, #512	; 0x200
 8005980:	431a      	orrs	r2, r3
 8005982:	687b      	ldr	r3, [r7, #4]
 8005984:	69db      	ldr	r3, [r3, #28]
 8005986:	431a      	orrs	r2, r3
 8005988:	687b      	ldr	r3, [r7, #4]
 800598a:	6a1b      	ldr	r3, [r3, #32]
 800598c:	ea42 0103 	orr.w	r1, r2, r3
 8005990:	687b      	ldr	r3, [r7, #4]
 8005992:	6a9a      	ldr	r2, [r3, #40]	; 0x28
 8005994:	687b      	ldr	r3, [r7, #4]
 8005996:	681b      	ldr	r3, [r3, #0]
 8005998:	430a      	orrs	r2, r1
 800599a:	601a      	str	r2, [r3, #0]
    hspi->Instance->CR1 |= SPI_CR1_CRCL;
  }
#endif /* USE_SPI_CRC */

  /* Configure : NSS management, TI Mode, NSS Pulse, Data size and Rx Fifo threshold */
  WRITE_REG(hspi->Instance->CR2, (((hspi->Init.NSS >> 16U) & SPI_CR2_SSOE) | hspi->Init.TIMode |
 800599c:	687b      	ldr	r3, [r7, #4]
 800599e:	699b      	ldr	r3, [r3, #24]
 80059a0:	0c1b      	lsrs	r3, r3, #16
 80059a2:	f003 0204 	and.w	r2, r3, #4
 80059a6:	687b      	ldr	r3, [r7, #4]
 80059a8:	6a5b      	ldr	r3, [r3, #36]	; 0x24
 80059aa:	431a      	orrs	r2, r3
 80059ac:	687b      	ldr	r3, [r7, #4]
 80059ae:	6b5b      	ldr	r3, [r3, #52]	; 0x34
 80059b0:	431a      	orrs	r2, r3
 80059b2:	687b      	ldr	r3, [r7, #4]
 80059b4:	68db      	ldr	r3, [r3, #12]
 80059b6:	ea42 0103 	orr.w	r1, r2, r3
 80059ba:	687b      	ldr	r3, [r7, #4]
 80059bc:	681b      	ldr	r3, [r3, #0]
 80059be:	68fa      	ldr	r2, [r7, #12]
 80059c0:	430a      	orrs	r2, r1
 80059c2:	605a      	str	r2, [r3, #4]
  }
#endif /* USE_SPI_CRC */

#if defined(SPI_I2SCFGR_I2SMOD)
  /* Activate the SPI mode (Make sure that I2SMOD bit in I2SCFGR register is reset) */
  CLEAR_BIT(hspi->Instance->I2SCFGR, SPI_I2SCFGR_I2SMOD);
 80059c4:	687b      	ldr	r3, [r7, #4]
 80059c6:	681b      	ldr	r3, [r3, #0]
 80059c8:	69da      	ldr	r2, [r3, #28]
 80059ca:	687b      	ldr	r3, [r7, #4]
 80059cc:	681b      	ldr	r3, [r3, #0]
 80059ce:	f422 6200 	bic.w	r2, r2, #2048	; 0x800
 80059d2:	61da      	str	r2, [r3, #28]
#endif /* SPI_I2SCFGR_I2SMOD */

  hspi->ErrorCode = HAL_SPI_ERROR_NONE;
 80059d4:	687b      	ldr	r3, [r7, #4]
 80059d6:	2200      	movs	r2, #0
 80059d8:	661a      	str	r2, [r3, #96]	; 0x60
  hspi->State     = HAL_SPI_STATE_READY;
 80059da:	687b      	ldr	r3, [r7, #4]
 80059dc:	2201      	movs	r2, #1
 80059de:	f883 205d 	strb.w	r2, [r3, #93]	; 0x5d

  return HAL_OK;
 80059e2:	2300      	movs	r3, #0
}
 80059e4:	4618      	mov	r0, r3
 80059e6:	3710      	adds	r7, #16
 80059e8:	46bd      	mov	sp, r7
 80059ea:	bd80      	pop	{r7, pc}

080059ec <HAL_SPI_Transmit>:
  * @param  Size amount of data to be sent
  * @param  Timeout Timeout duration
  * @retval HAL status
  */
HAL_StatusTypeDef HAL_SPI_Transmit(SPI_HandleTypeDef *hspi, uint8_t *pData, uint16_t Size, uint32_t Timeout)
{
 80059ec:	b580      	push	{r7, lr}
 80059ee:	b088      	sub	sp, #32
 80059f0:	af00      	add	r7, sp, #0
 80059f2:	60f8      	str	r0, [r7, #12]
 80059f4:	60b9      	str	r1, [r7, #8]
 80059f6:	603b      	str	r3, [r7, #0]
 80059f8:	4613      	mov	r3, r2
 80059fa:	80fb      	strh	r3, [r7, #6]
  uint32_t tickstart;
  HAL_StatusTypeDef errorcode = HAL_OK;
 80059fc:	2300      	movs	r3, #0
 80059fe:	77fb      	strb	r3, [r7, #31]

  /* Check Direction parameter */
  assert_param(IS_SPI_DIRECTION_2LINES_OR_1LINE(hspi->Init.Direction));

  /* Process Locked */
  __HAL_LOCK(hspi);
 8005a00:	68fb      	ldr	r3, [r7, #12]
 8005a02:	f893 305c 	ldrb.w	r3, [r3, #92]	; 0x5c
 8005a06:	2b01      	cmp	r3, #1
 8005a08:	d101      	bne.n	8005a0e <HAL_SPI_Transmit+0x22>
 8005a0a:	2302      	movs	r3, #2
 8005a0c:	e150      	b.n	8005cb0 <HAL_SPI_Transmit+0x2c4>
 8005a0e:	68fb      	ldr	r3, [r7, #12]
 8005a10:	2201      	movs	r2, #1
 8005a12:	f883 205c 	strb.w	r2, [r3, #92]	; 0x5c

  /* Init tickstart for timeout management*/
  tickstart = HAL_GetTick();
 8005a16:	f7fc fb0b 	bl	8002030 <HAL_GetTick>
 8005a1a:	61b8      	str	r0, [r7, #24]
  initial_TxXferCount = Size;
 8005a1c:	88fb      	ldrh	r3, [r7, #6]
 8005a1e:	82fb      	strh	r3, [r7, #22]

  if (hspi->State != HAL_SPI_STATE_READY)
 8005a20:	68fb      	ldr	r3, [r7, #12]
 8005a22:	f893 305d 	ldrb.w	r3, [r3, #93]	; 0x5d
 8005a26:	b2db      	uxtb	r3, r3
 8005a28:	2b01      	cmp	r3, #1
 8005a2a:	d002      	beq.n	8005a32 <HAL_SPI_Transmit+0x46>
  {
    errorcode = HAL_BUSY;
 8005a2c:	2302      	movs	r3, #2
 8005a2e:	77fb      	strb	r3, [r7, #31]
    goto error;
 8005a30:	e135      	b.n	8005c9e <HAL_SPI_Transmit+0x2b2>
  }

  if ((pData == NULL) || (Size == 0U))
 8005a32:	68bb      	ldr	r3, [r7, #8]
 8005a34:	2b00      	cmp	r3, #0
 8005a36:	d002      	beq.n	8005a3e <HAL_SPI_Transmit+0x52>
 8005a38:	88fb      	ldrh	r3, [r7, #6]
 8005a3a:	2b00      	cmp	r3, #0
 8005a3c:	d102      	bne.n	8005a44 <HAL_SPI_Transmit+0x58>
  {
    errorcode = HAL_ERROR;
 8005a3e:	2301      	movs	r3, #1
 8005a40:	77fb      	strb	r3, [r7, #31]
    goto error;
 8005a42:	e12c      	b.n	8005c9e <HAL_SPI_Transmit+0x2b2>
  }

  /* Set the transaction information */
  hspi->State       = HAL_SPI_STATE_BUSY_TX;
 8005a44:	68fb      	ldr	r3, [r7, #12]
 8005a46:	2203      	movs	r2, #3
 8005a48:	f883 205d 	strb.w	r2, [r3, #93]	; 0x5d
  hspi->ErrorCode   = HAL_SPI_ERROR_NONE;
 8005a4c:	68fb      	ldr	r3, [r7, #12]
 8005a4e:	2200      	movs	r2, #0
 8005a50:	661a      	str	r2, [r3, #96]	; 0x60
  hspi->pTxBuffPtr  = (uint8_t *)pData;
 8005a52:	68fb      	ldr	r3, [r7, #12]
 8005a54:	68ba      	ldr	r2, [r7, #8]
 8005a56:	639a      	str	r2, [r3, #56]	; 0x38
  hspi->TxXferSize  = Size;
 8005a58:	68fb      	ldr	r3, [r7, #12]
 8005a5a:	88fa      	ldrh	r2, [r7, #6]
 8005a5c:	879a      	strh	r2, [r3, #60]	; 0x3c
  hspi->TxXferCount = Size;
 8005a5e:	68fb      	ldr	r3, [r7, #12]
 8005a60:	88fa      	ldrh	r2, [r7, #6]
 8005a62:	87da      	strh	r2, [r3, #62]	; 0x3e

  /*Init field not used in handle to zero */
  hspi->pRxBuffPtr  = (uint8_t *)NULL;
 8005a64:	68fb      	ldr	r3, [r7, #12]
 8005a66:	2200      	movs	r2, #0
 8005a68:	641a      	str	r2, [r3, #64]	; 0x40
  hspi->RxXferSize  = 0U;
 8005a6a:	68fb      	ldr	r3, [r7, #12]
 8005a6c:	2200      	movs	r2, #0
 8005a6e:	f8a3 2044 	strh.w	r2, [r3, #68]	; 0x44
  hspi->RxXferCount = 0U;
 8005a72:	68fb      	ldr	r3, [r7, #12]
 8005a74:	2200      	movs	r2, #0
 8005a76:	f8a3 2046 	strh.w	r2, [r3, #70]	; 0x46
  hspi->TxISR       = NULL;
 8005a7a:	68fb      	ldr	r3, [r7, #12]
 8005a7c:	2200      	movs	r2, #0
 8005a7e:	651a      	str	r2, [r3, #80]	; 0x50
  hspi->RxISR       = NULL;
 8005a80:	68fb      	ldr	r3, [r7, #12]
 8005a82:	2200      	movs	r2, #0
 8005a84:	64da      	str	r2, [r3, #76]	; 0x4c

  /* Configure communication direction : 1Line */
  if (hspi->Init.Direction == SPI_DIRECTION_1LINE)
 8005a86:	68fb      	ldr	r3, [r7, #12]
 8005a88:	689b      	ldr	r3, [r3, #8]
 8005a8a:	f5b3 4f00 	cmp.w	r3, #32768	; 0x8000
 8005a8e:	d107      	bne.n	8005aa0 <HAL_SPI_Transmit+0xb4>
  {
    SPI_1LINE_TX(hspi);
 8005a90:	68fb      	ldr	r3, [r7, #12]
 8005a92:	681b      	ldr	r3, [r3, #0]
 8005a94:	681a      	ldr	r2, [r3, #0]
 8005a96:	68fb      	ldr	r3, [r7, #12]
 8005a98:	681b      	ldr	r3, [r3, #0]
 8005a9a:	f442 4280 	orr.w	r2, r2, #16384	; 0x4000
 8005a9e:	601a      	str	r2, [r3, #0]
    SPI_RESET_CRC(hspi);
  }
#endif /* USE_SPI_CRC */

  /* Check if the SPI is already enabled */
  if ((hspi->Instance->CR1 & SPI_CR1_SPE) != SPI_CR1_SPE)
 8005aa0:	68fb      	ldr	r3, [r7, #12]
 8005aa2:	681b      	ldr	r3, [r3, #0]
 8005aa4:	681b      	ldr	r3, [r3, #0]
 8005aa6:	f003 0340 	and.w	r3, r3, #64	; 0x40
 8005aaa:	2b40      	cmp	r3, #64	; 0x40
 8005aac:	d007      	beq.n	8005abe <HAL_SPI_Transmit+0xd2>
  {
    /* Enable SPI peripheral */
    __HAL_SPI_ENABLE(hspi);
 8005aae:	68fb      	ldr	r3, [r7, #12]
 8005ab0:	681b      	ldr	r3, [r3, #0]
 8005ab2:	681a      	ldr	r2, [r3, #0]
 8005ab4:	68fb      	ldr	r3, [r7, #12]
 8005ab6:	681b      	ldr	r3, [r3, #0]
 8005ab8:	f042 0240 	orr.w	r2, r2, #64	; 0x40
 8005abc:	601a      	str	r2, [r3, #0]
  }

  /* Transmit data in 16 Bit mode */
  if (hspi->Init.DataSize > SPI_DATASIZE_8BIT)
 8005abe:	68fb      	ldr	r3, [r7, #12]
 8005ac0:	68db      	ldr	r3, [r3, #12]
 8005ac2:	f5b3 6fe0 	cmp.w	r3, #1792	; 0x700
 8005ac6:	d94b      	bls.n	8005b60 <HAL_SPI_Transmit+0x174>
  {
    if ((hspi->Init.Mode == SPI_MODE_SLAVE) || (initial_TxXferCount == 0x01U))
 8005ac8:	68fb      	ldr	r3, [r7, #12]
 8005aca:	685b      	ldr	r3, [r3, #4]
 8005acc:	2b00      	cmp	r3, #0
 8005ace:	d002      	beq.n	8005ad6 <HAL_SPI_Transmit+0xea>
 8005ad0:	8afb      	ldrh	r3, [r7, #22]
 8005ad2:	2b01      	cmp	r3, #1
 8005ad4:	d13e      	bne.n	8005b54 <HAL_SPI_Transmit+0x168>
    {
      hspi->Instance->DR = *((uint16_t *)hspi->pTxBuffPtr);
 8005ad6:	68fb      	ldr	r3, [r7, #12]
 8005ad8:	6b9b      	ldr	r3, [r3, #56]	; 0x38
 8005ada:	881a      	ldrh	r2, [r3, #0]
 8005adc:	68fb      	ldr	r3, [r7, #12]
 8005ade:	681b      	ldr	r3, [r3, #0]
 8005ae0:	60da      	str	r2, [r3, #12]
      hspi->pTxBuffPtr += sizeof(uint16_t);
 8005ae2:	68fb      	ldr	r3, [r7, #12]
 8005ae4:	6b9b      	ldr	r3, [r3, #56]	; 0x38
 8005ae6:	1c9a      	adds	r2, r3, #2
 8005ae8:	68fb      	ldr	r3, [r7, #12]
 8005aea:	639a      	str	r2, [r3, #56]	; 0x38
      hspi->TxXferCount--;
 8005aec:	68fb      	ldr	r3, [r7, #12]
 8005aee:	8fdb      	ldrh	r3, [r3, #62]	; 0x3e
 8005af0:	b29b      	uxth	r3, r3
 8005af2:	3b01      	subs	r3, #1
 8005af4:	b29a      	uxth	r2, r3
 8005af6:	68fb      	ldr	r3, [r7, #12]
 8005af8:	87da      	strh	r2, [r3, #62]	; 0x3e
    }
    /* Transmit data in 16 Bit mode */
    while (hspi->TxXferCount > 0U)
 8005afa:	e02b      	b.n	8005b54 <HAL_SPI_Transmit+0x168>
    {
      /* Wait until TXE flag is set to send data */
      if (__HAL_SPI_GET_FLAG(hspi, SPI_FLAG_TXE))
 8005afc:	68fb      	ldr	r3, [r7, #12]
 8005afe:	681b      	ldr	r3, [r3, #0]
 8005b00:	689b      	ldr	r3, [r3, #8]
 8005b02:	f003 0302 	and.w	r3, r3, #2
 8005b06:	2b02      	cmp	r3, #2
 8005b08:	d112      	bne.n	8005b30 <HAL_SPI_Transmit+0x144>
      {
        hspi->Instance->DR = *((uint16_t *)hspi->pTxBuffPtr);
 8005b0a:	68fb      	ldr	r3, [r7, #12]
 8005b0c:	6b9b      	ldr	r3, [r3, #56]	; 0x38
 8005b0e:	881a      	ldrh	r2, [r3, #0]
 8005b10:	68fb      	ldr	r3, [r7, #12]
 8005b12:	681b      	ldr	r3, [r3, #0]
 8005b14:	60da      	str	r2, [r3, #12]
        hspi->pTxBuffPtr += sizeof(uint16_t);
 8005b16:	68fb      	ldr	r3, [r7, #12]
 8005b18:	6b9b      	ldr	r3, [r3, #56]	; 0x38
 8005b1a:	1c9a      	adds	r2, r3, #2
 8005b1c:	68fb      	ldr	r3, [r7, #12]
 8005b1e:	639a      	str	r2, [r3, #56]	; 0x38
        hspi->TxXferCount--;
 8005b20:	68fb      	ldr	r3, [r7, #12]
 8005b22:	8fdb      	ldrh	r3, [r3, #62]	; 0x3e
 8005b24:	b29b      	uxth	r3, r3
 8005b26:	3b01      	subs	r3, #1
 8005b28:	b29a      	uxth	r2, r3
 8005b2a:	68fb      	ldr	r3, [r7, #12]
 8005b2c:	87da      	strh	r2, [r3, #62]	; 0x3e
 8005b2e:	e011      	b.n	8005b54 <HAL_SPI_Transmit+0x168>
      }
      else
      {
        /* Timeout management */
        if ((((HAL_GetTick() - tickstart) >=  Timeout) && (Timeout != HAL_MAX_DELAY)) || (Timeout == 0U))
 8005b30:	f7fc fa7e 	bl	8002030 <HAL_GetTick>
 8005b34:	4602      	mov	r2, r0
 8005b36:	69bb      	ldr	r3, [r7, #24]
 8005b38:	1ad3      	subs	r3, r2, r3
 8005b3a:	683a      	ldr	r2, [r7, #0]
 8005b3c:	429a      	cmp	r2, r3
 8005b3e:	d803      	bhi.n	8005b48 <HAL_SPI_Transmit+0x15c>
 8005b40:	683b      	ldr	r3, [r7, #0]
 8005b42:	f1b3 3fff 	cmp.w	r3, #4294967295	; 0xffffffff
 8005b46:	d102      	bne.n	8005b4e <HAL_SPI_Transmit+0x162>
 8005b48:	683b      	ldr	r3, [r7, #0]
 8005b4a:	2b00      	cmp	r3, #0
 8005b4c:	d102      	bne.n	8005b54 <HAL_SPI_Transmit+0x168>
        {
          errorcode = HAL_TIMEOUT;
 8005b4e:	2303      	movs	r3, #3
 8005b50:	77fb      	strb	r3, [r7, #31]
          goto error;
 8005b52:	e0a4      	b.n	8005c9e <HAL_SPI_Transmit+0x2b2>
    while (hspi->TxXferCount > 0U)
 8005b54:	68fb      	ldr	r3, [r7, #12]
 8005b56:	8fdb      	ldrh	r3, [r3, #62]	; 0x3e
 8005b58:	b29b      	uxth	r3, r3
 8005b5a:	2b00      	cmp	r3, #0
 8005b5c:	d1ce      	bne.n	8005afc <HAL_SPI_Transmit+0x110>
 8005b5e:	e07c      	b.n	8005c5a <HAL_SPI_Transmit+0x26e>
    }
  }
  /* Transmit data in 8 Bit mode */
  else
  {
    if ((hspi->Init.Mode == SPI_MODE_SLAVE) || (initial_TxXferCount == 0x01U))
 8005b60:	68fb      	ldr	r3, [r7, #12]
 8005b62:	685b      	ldr	r3, [r3, #4]
 8005b64:	2b00      	cmp	r3, #0
 8005b66:	d002      	beq.n	8005b6e <HAL_SPI_Transmit+0x182>
 8005b68:	8afb      	ldrh	r3, [r7, #22]
 8005b6a:	2b01      	cmp	r3, #1
 8005b6c:	d170      	bne.n	8005c50 <HAL_SPI_Transmit+0x264>
    {
      if (hspi->TxXferCount > 1U)
 8005b6e:	68fb      	ldr	r3, [r7, #12]
 8005b70:	8fdb      	ldrh	r3, [r3, #62]	; 0x3e
 8005b72:	b29b      	uxth	r3, r3
 8005b74:	2b01      	cmp	r3, #1
 8005b76:	d912      	bls.n	8005b9e <HAL_SPI_Transmit+0x1b2>
      {
        /* write on the data register in packing mode */
        hspi->Instance->DR = *((uint16_t *)hspi->pTxBuffPtr);
 8005b78:	68fb      	ldr	r3, [r7, #12]
 8005b7a:	6b9b      	ldr	r3, [r3, #56]	; 0x38
 8005b7c:	881a      	ldrh	r2, [r3, #0]
 8005b7e:	68fb      	ldr	r3, [r7, #12]
 8005b80:	681b      	ldr	r3, [r3, #0]
 8005b82:	60da      	str	r2, [r3, #12]
        hspi->pTxBuffPtr += sizeof(uint16_t);
 8005b84:	68fb      	ldr	r3, [r7, #12]
 8005b86:	6b9b      	ldr	r3, [r3, #56]	; 0x38
 8005b88:	1c9a      	adds	r2, r3, #2
 8005b8a:	68fb      	ldr	r3, [r7, #12]
 8005b8c:	639a      	str	r2, [r3, #56]	; 0x38
        hspi->TxXferCount -= 2U;
 8005b8e:	68fb      	ldr	r3, [r7, #12]
 8005b90:	8fdb      	ldrh	r3, [r3, #62]	; 0x3e
 8005b92:	b29b      	uxth	r3, r3
 8005b94:	3b02      	subs	r3, #2
 8005b96:	b29a      	uxth	r2, r3
 8005b98:	68fb      	ldr	r3, [r7, #12]
 8005b9a:	87da      	strh	r2, [r3, #62]	; 0x3e
 8005b9c:	e058      	b.n	8005c50 <HAL_SPI_Transmit+0x264>
      }
      else
      {
        *((__IO uint8_t *)&hspi->Instance->DR) = (*hspi->pTxBuffPtr);
 8005b9e:	68fb      	ldr	r3, [r7, #12]
 8005ba0:	6b9a      	ldr	r2, [r3, #56]	; 0x38
 8005ba2:	68fb      	ldr	r3, [r7, #12]
 8005ba4:	681b      	ldr	r3, [r3, #0]
 8005ba6:	330c      	adds	r3, #12
 8005ba8:	7812      	ldrb	r2, [r2, #0]
 8005baa:	701a      	strb	r2, [r3, #0]
        hspi->pTxBuffPtr ++;
 8005bac:	68fb      	ldr	r3, [r7, #12]
 8005bae:	6b9b      	ldr	r3, [r3, #56]	; 0x38
 8005bb0:	1c5a      	adds	r2, r3, #1
 8005bb2:	68fb      	ldr	r3, [r7, #12]
 8005bb4:	639a      	str	r2, [r3, #56]	; 0x38
        hspi->TxXferCount--;
 8005bb6:	68fb      	ldr	r3, [r7, #12]
 8005bb8:	8fdb      	ldrh	r3, [r3, #62]	; 0x3e
 8005bba:	b29b      	uxth	r3, r3
 8005bbc:	3b01      	subs	r3, #1
 8005bbe:	b29a      	uxth	r2, r3
 8005bc0:	68fb      	ldr	r3, [r7, #12]
 8005bc2:	87da      	strh	r2, [r3, #62]	; 0x3e
      }
    }
    while (hspi->TxXferCount > 0U)
 8005bc4:	e044      	b.n	8005c50 <HAL_SPI_Transmit+0x264>
    {
      /* Wait until TXE flag is set to send data */
      if (__HAL_SPI_GET_FLAG(hspi, SPI_FLAG_TXE))
 8005bc6:	68fb      	ldr	r3, [r7, #12]
 8005bc8:	681b      	ldr	r3, [r3, #0]
 8005bca:	689b      	ldr	r3, [r3, #8]
 8005bcc:	f003 0302 	and.w	r3, r3, #2
 8005bd0:	2b02      	cmp	r3, #2
 8005bd2:	d12b      	bne.n	8005c2c <HAL_SPI_Transmit+0x240>
      {
        if (hspi->TxXferCount > 1U)
 8005bd4:	68fb      	ldr	r3, [r7, #12]
 8005bd6:	8fdb      	ldrh	r3, [r3, #62]	; 0x3e
 8005bd8:	b29b      	uxth	r3, r3
 8005bda:	2b01      	cmp	r3, #1
 8005bdc:	d912      	bls.n	8005c04 <HAL_SPI_Transmit+0x218>
        {
          /* write on the data register in packing mode */
          hspi->Instance->DR = *((uint16_t *)hspi->pTxBuffPtr);
 8005bde:	68fb      	ldr	r3, [r7, #12]
 8005be0:	6b9b      	ldr	r3, [r3, #56]	; 0x38
 8005be2:	881a      	ldrh	r2, [r3, #0]
 8005be4:	68fb      	ldr	r3, [r7, #12]
 8005be6:	681b      	ldr	r3, [r3, #0]
 8005be8:	60da      	str	r2, [r3, #12]
          hspi->pTxBuffPtr += sizeof(uint16_t);
 8005bea:	68fb      	ldr	r3, [r7, #12]
 8005bec:	6b9b      	ldr	r3, [r3, #56]	; 0x38
 8005bee:	1c9a      	adds	r2, r3, #2
 8005bf0:	68fb      	ldr	r3, [r7, #12]
 8005bf2:	639a      	str	r2, [r3, #56]	; 0x38
          hspi->TxXferCount -= 2U;
 8005bf4:	68fb      	ldr	r3, [r7, #12]
 8005bf6:	8fdb      	ldrh	r3, [r3, #62]	; 0x3e
 8005bf8:	b29b      	uxth	r3, r3
 8005bfa:	3b02      	subs	r3, #2
 8005bfc:	b29a      	uxth	r2, r3
 8005bfe:	68fb      	ldr	r3, [r7, #12]
 8005c00:	87da      	strh	r2, [r3, #62]	; 0x3e
 8005c02:	e025      	b.n	8005c50 <HAL_SPI_Transmit+0x264>
        }
        else
        {
          *((__IO uint8_t *)&hspi->Instance->DR) = (*hspi->pTxBuffPtr);
 8005c04:	68fb      	ldr	r3, [r7, #12]
 8005c06:	6b9a      	ldr	r2, [r3, #56]	; 0x38
 8005c08:	68fb      	ldr	r3, [r7, #12]
 8005c0a:	681b      	ldr	r3, [r3, #0]
 8005c0c:	330c      	adds	r3, #12
 8005c0e:	7812      	ldrb	r2, [r2, #0]
 8005c10:	701a      	strb	r2, [r3, #0]
          hspi->pTxBuffPtr++;
 8005c12:	68fb      	ldr	r3, [r7, #12]
 8005c14:	6b9b      	ldr	r3, [r3, #56]	; 0x38
 8005c16:	1c5a      	adds	r2, r3, #1
 8005c18:	68fb      	ldr	r3, [r7, #12]
 8005c1a:	639a      	str	r2, [r3, #56]	; 0x38
          hspi->TxXferCount--;
 8005c1c:	68fb      	ldr	r3, [r7, #12]
 8005c1e:	8fdb      	ldrh	r3, [r3, #62]	; 0x3e
 8005c20:	b29b      	uxth	r3, r3
 8005c22:	3b01      	subs	r3, #1
 8005c24:	b29a      	uxth	r2, r3
 8005c26:	68fb      	ldr	r3, [r7, #12]
 8005c28:	87da      	strh	r2, [r3, #62]	; 0x3e
 8005c2a:	e011      	b.n	8005c50 <HAL_SPI_Transmit+0x264>
        }
      }
      else
      {
        /* Timeout management */
        if ((((HAL_GetTick() - tickstart) >=  Timeout) && (Timeout != HAL_MAX_DELAY)) || (Timeout == 0U))
 8005c2c:	f7fc fa00 	bl	8002030 <HAL_GetTick>
 8005c30:	4602      	mov	r2, r0
 8005c32:	69bb      	ldr	r3, [r7, #24]
 8005c34:	1ad3      	subs	r3, r2, r3
 8005c36:	683a      	ldr	r2, [r7, #0]
 8005c38:	429a      	cmp	r2, r3
 8005c3a:	d803      	bhi.n	8005c44 <HAL_SPI_Transmit+0x258>
 8005c3c:	683b      	ldr	r3, [r7, #0]
 8005c3e:	f1b3 3fff 	cmp.w	r3, #4294967295	; 0xffffffff
 8005c42:	d102      	bne.n	8005c4a <HAL_SPI_Transmit+0x25e>
 8005c44:	683b      	ldr	r3, [r7, #0]
 8005c46:	2b00      	cmp	r3, #0
 8005c48:	d102      	bne.n	8005c50 <HAL_SPI_Transmit+0x264>
        {
          errorcode = HAL_TIMEOUT;
 8005c4a:	2303      	movs	r3, #3
 8005c4c:	77fb      	strb	r3, [r7, #31]
          goto error;
 8005c4e:	e026      	b.n	8005c9e <HAL_SPI_Transmit+0x2b2>
    while (hspi->TxXferCount > 0U)
 8005c50:	68fb      	ldr	r3, [r7, #12]
 8005c52:	8fdb      	ldrh	r3, [r3, #62]	; 0x3e
 8005c54:	b29b      	uxth	r3, r3
 8005c56:	2b00      	cmp	r3, #0
 8005c58:	d1b5      	bne.n	8005bc6 <HAL_SPI_Transmit+0x1da>
    SET_BIT(hspi->Instance->CR1, SPI_CR1_CRCNEXT);
  }
#endif /* USE_SPI_CRC */

  /* Check the end of the transaction */
  if (SPI_EndRxTxTransaction(hspi, Timeout, tickstart) != HAL_OK)
 8005c5a:	69ba      	ldr	r2, [r7, #24]
 8005c5c:	6839      	ldr	r1, [r7, #0]
 8005c5e:	68f8      	ldr	r0, [r7, #12]
 8005c60:	f000 fa8c 	bl	800617c <SPI_EndRxTxTransaction>
 8005c64:	4603      	mov	r3, r0
 8005c66:	2b00      	cmp	r3, #0
 8005c68:	d002      	beq.n	8005c70 <HAL_SPI_Transmit+0x284>
  {
    hspi->ErrorCode = HAL_SPI_ERROR_FLAG;
 8005c6a:	68fb      	ldr	r3, [r7, #12]
 8005c6c:	2220      	movs	r2, #32
 8005c6e:	661a      	str	r2, [r3, #96]	; 0x60
  }

  /* Clear overrun flag in 2 Lines communication mode because received is not read */
  if (hspi->Init.Direction == SPI_DIRECTION_2LINES)
 8005c70:	68fb      	ldr	r3, [r7, #12]
 8005c72:	689b      	ldr	r3, [r3, #8]
 8005c74:	2b00      	cmp	r3, #0
 8005c76:	d10a      	bne.n	8005c8e <HAL_SPI_Transmit+0x2a2>
  {
    __HAL_SPI_CLEAR_OVRFLAG(hspi);
 8005c78:	2300      	movs	r3, #0
 8005c7a:	613b      	str	r3, [r7, #16]
 8005c7c:	68fb      	ldr	r3, [r7, #12]
 8005c7e:	681b      	ldr	r3, [r3, #0]
 8005c80:	68db      	ldr	r3, [r3, #12]
 8005c82:	613b      	str	r3, [r7, #16]
 8005c84:	68fb      	ldr	r3, [r7, #12]
 8005c86:	681b      	ldr	r3, [r3, #0]
 8005c88:	689b      	ldr	r3, [r3, #8]
 8005c8a:	613b      	str	r3, [r7, #16]
 8005c8c:	693b      	ldr	r3, [r7, #16]
  }

  if (hspi->ErrorCode != HAL_SPI_ERROR_NONE)
 8005c8e:	68fb      	ldr	r3, [r7, #12]
 8005c90:	6e1b      	ldr	r3, [r3, #96]	; 0x60
 8005c92:	2b00      	cmp	r3, #0
 8005c94:	d002      	beq.n	8005c9c <HAL_SPI_Transmit+0x2b0>
  {
    errorcode = HAL_ERROR;
 8005c96:	2301      	movs	r3, #1
 8005c98:	77fb      	strb	r3, [r7, #31]
 8005c9a:	e000      	b.n	8005c9e <HAL_SPI_Transmit+0x2b2>
  }

error:
 8005c9c:	bf00      	nop
  hspi->State = HAL_SPI_STATE_READY;
 8005c9e:	68fb      	ldr	r3, [r7, #12]
 8005ca0:	2201      	movs	r2, #1
 8005ca2:	f883 205d 	strb.w	r2, [r3, #93]	; 0x5d
  /* Process Unlocked */
  __HAL_UNLOCK(hspi);
 8005ca6:	68fb      	ldr	r3, [r7, #12]
 8005ca8:	2200      	movs	r2, #0
 8005caa:	f883 205c 	strb.w	r2, [r3, #92]	; 0x5c
  return errorcode;
 8005cae:	7ffb      	ldrb	r3, [r7, #31]
}
 8005cb0:	4618      	mov	r0, r3
 8005cb2:	3720      	adds	r7, #32
 8005cb4:	46bd      	mov	sp, r7
 8005cb6:	bd80      	pop	{r7, pc}

08005cb8 <HAL_SPI_Transmit_DMA>:
  * @param  pData pointer to data buffer
  * @param  Size amount of data to be sent
  * @retval HAL status
  */
HAL_StatusTypeDef HAL_SPI_Transmit_DMA(SPI_HandleTypeDef *hspi, uint8_t *pData, uint16_t Size)
{
 8005cb8:	b580      	push	{r7, lr}
 8005cba:	b086      	sub	sp, #24
 8005cbc:	af00      	add	r7, sp, #0
 8005cbe:	60f8      	str	r0, [r7, #12]
 8005cc0:	60b9      	str	r1, [r7, #8]
 8005cc2:	4613      	mov	r3, r2
 8005cc4:	80fb      	strh	r3, [r7, #6]
  HAL_StatusTypeDef errorcode = HAL_OK;
 8005cc6:	2300      	movs	r3, #0
 8005cc8:	75fb      	strb	r3, [r7, #23]

  /* Check Direction parameter */
  assert_param(IS_SPI_DIRECTION_2LINES_OR_1LINE(hspi->Init.Direction));

  /* Process Locked */
  __HAL_LOCK(hspi);
 8005cca:	68fb      	ldr	r3, [r7, #12]
 8005ccc:	f893 305c 	ldrb.w	r3, [r3, #92]	; 0x5c
 8005cd0:	2b01      	cmp	r3, #1
 8005cd2:	d101      	bne.n	8005cd8 <HAL_SPI_Transmit_DMA+0x20>
 8005cd4:	2302      	movs	r3, #2
 8005cd6:	e0d0      	b.n	8005e7a <HAL_SPI_Transmit_DMA+0x1c2>
 8005cd8:	68fb      	ldr	r3, [r7, #12]
 8005cda:	2201      	movs	r2, #1
 8005cdc:	f883 205c 	strb.w	r2, [r3, #92]	; 0x5c

  if (hspi->State != HAL_SPI_STATE_READY)
 8005ce0:	68fb      	ldr	r3, [r7, #12]
 8005ce2:	f893 305d 	ldrb.w	r3, [r3, #93]	; 0x5d
 8005ce6:	b2db      	uxtb	r3, r3
 8005ce8:	2b01      	cmp	r3, #1
 8005cea:	d002      	beq.n	8005cf2 <HAL_SPI_Transmit_DMA+0x3a>
  {
    errorcode = HAL_BUSY;
 8005cec:	2302      	movs	r3, #2
 8005cee:	75fb      	strb	r3, [r7, #23]
    goto error;
 8005cf0:	e0be      	b.n	8005e70 <HAL_SPI_Transmit_DMA+0x1b8>
  }

  if ((pData == NULL) || (Size == 0U))
 8005cf2:	68bb      	ldr	r3, [r7, #8]
 8005cf4:	2b00      	cmp	r3, #0
 8005cf6:	d002      	beq.n	8005cfe <HAL_SPI_Transmit_DMA+0x46>
 8005cf8:	88fb      	ldrh	r3, [r7, #6]
 8005cfa:	2b00      	cmp	r3, #0
 8005cfc:	d102      	bne.n	8005d04 <HAL_SPI_Transmit_DMA+0x4c>
  {
    errorcode = HAL_ERROR;
 8005cfe:	2301      	movs	r3, #1
 8005d00:	75fb      	strb	r3, [r7, #23]
    goto error;
 8005d02:	e0b5      	b.n	8005e70 <HAL_SPI_Transmit_DMA+0x1b8>
  }

  /* Set the transaction information */
  hspi->State       = HAL_SPI_STATE_BUSY_TX;
 8005d04:	68fb      	ldr	r3, [r7, #12]
 8005d06:	2203      	movs	r2, #3
 8005d08:	f883 205d 	strb.w	r2, [r3, #93]	; 0x5d
  hspi->ErrorCode   = HAL_SPI_ERROR_NONE;
 8005d0c:	68fb      	ldr	r3, [r7, #12]
 8005d0e:	2200      	movs	r2, #0
 8005d10:	661a      	str	r2, [r3, #96]	; 0x60
  hspi->pTxBuffPtr  = (uint8_t *)pData;
 8005d12:	68fb      	ldr	r3, [r7, #12]
 8005d14:	68ba      	ldr	r2, [r7, #8]
 8005d16:	639a      	str	r2, [r3, #56]	; 0x38
  hspi->TxXferSize  = Size;
 8005d18:	68fb      	ldr	r3, [r7, #12]
 8005d1a:	88fa      	ldrh	r2, [r7, #6]
 8005d1c:	879a      	strh	r2, [r3, #60]	; 0x3c
  hspi->TxXferCount = Size;
 8005d1e:	68fb      	ldr	r3, [r7, #12]
 8005d20:	88fa      	ldrh	r2, [r7, #6]
 8005d22:	87da      	strh	r2, [r3, #62]	; 0x3e

  /* Init field not used in handle to zero */
  hspi->pRxBuffPtr  = (uint8_t *)NULL;
 8005d24:	68fb      	ldr	r3, [r7, #12]
 8005d26:	2200      	movs	r2, #0
 8005d28:	641a      	str	r2, [r3, #64]	; 0x40
  hspi->TxISR       = NULL;
 8005d2a:	68fb      	ldr	r3, [r7, #12]
 8005d2c:	2200      	movs	r2, #0
 8005d2e:	651a      	str	r2, [r3, #80]	; 0x50
  hspi->RxISR       = NULL;
 8005d30:	68fb      	ldr	r3, [r7, #12]
 8005d32:	2200      	movs	r2, #0
 8005d34:	64da      	str	r2, [r3, #76]	; 0x4c
  hspi->RxXferSize  = 0U;
 8005d36:	68fb      	ldr	r3, [r7, #12]
 8005d38:	2200      	movs	r2, #0
 8005d3a:	f8a3 2044 	strh.w	r2, [r3, #68]	; 0x44
  hspi->RxXferCount = 0U;
 8005d3e:	68fb      	ldr	r3, [r7, #12]
 8005d40:	2200      	movs	r2, #0
 8005d42:	f8a3 2046 	strh.w	r2, [r3, #70]	; 0x46

  /* Configure communication direction : 1Line */
  if (hspi->Init.Direction == SPI_DIRECTION_1LINE)
 8005d46:	68fb      	ldr	r3, [r7, #12]
 8005d48:	689b      	ldr	r3, [r3, #8]
 8005d4a:	f5b3 4f00 	cmp.w	r3, #32768	; 0x8000
 8005d4e:	d107      	bne.n	8005d60 <HAL_SPI_Transmit_DMA+0xa8>
  {
    SPI_1LINE_TX(hspi);
 8005d50:	68fb      	ldr	r3, [r7, #12]
 8005d52:	681b      	ldr	r3, [r3, #0]
 8005d54:	681a      	ldr	r2, [r3, #0]
 8005d56:	68fb      	ldr	r3, [r7, #12]
 8005d58:	681b      	ldr	r3, [r3, #0]
 8005d5a:	f442 4280 	orr.w	r2, r2, #16384	; 0x4000
 8005d5e:	601a      	str	r2, [r3, #0]
    SPI_RESET_CRC(hspi);
  }
#endif /* USE_SPI_CRC */

  /* Set the SPI TxDMA Half transfer complete callback */
  hspi->hdmatx->XferHalfCpltCallback = SPI_DMAHalfTransmitCplt;
 8005d60:	68fb      	ldr	r3, [r7, #12]
 8005d62:	6d5b      	ldr	r3, [r3, #84]	; 0x54
 8005d64:	4a47      	ldr	r2, [pc, #284]	; (8005e84 <HAL_SPI_Transmit_DMA+0x1cc>)
 8005d66:	631a      	str	r2, [r3, #48]	; 0x30

  /* Set the SPI TxDMA transfer complete callback */
  hspi->hdmatx->XferCpltCallback = SPI_DMATransmitCplt;
 8005d68:	68fb      	ldr	r3, [r7, #12]
 8005d6a:	6d5b      	ldr	r3, [r3, #84]	; 0x54
 8005d6c:	4a46      	ldr	r2, [pc, #280]	; (8005e88 <HAL_SPI_Transmit_DMA+0x1d0>)
 8005d6e:	62da      	str	r2, [r3, #44]	; 0x2c

  /* Set the DMA error callback */
  hspi->hdmatx->XferErrorCallback = SPI_DMAError;
 8005d70:	68fb      	ldr	r3, [r7, #12]
 8005d72:	6d5b      	ldr	r3, [r3, #84]	; 0x54
 8005d74:	4a45      	ldr	r2, [pc, #276]	; (8005e8c <HAL_SPI_Transmit_DMA+0x1d4>)
 8005d76:	635a      	str	r2, [r3, #52]	; 0x34

  /* Set the DMA AbortCpltCallback */
  hspi->hdmatx->XferAbortCallback = NULL;
 8005d78:	68fb      	ldr	r3, [r7, #12]
 8005d7a:	6d5b      	ldr	r3, [r3, #84]	; 0x54
 8005d7c:	2200      	movs	r2, #0
 8005d7e:	639a      	str	r2, [r3, #56]	; 0x38

  CLEAR_BIT(hspi->Instance->CR2, SPI_CR2_LDMATX);
 8005d80:	68fb      	ldr	r3, [r7, #12]
 8005d82:	681b      	ldr	r3, [r3, #0]
 8005d84:	685a      	ldr	r2, [r3, #4]
 8005d86:	68fb      	ldr	r3, [r7, #12]
 8005d88:	681b      	ldr	r3, [r3, #0]
 8005d8a:	f422 4280 	bic.w	r2, r2, #16384	; 0x4000
 8005d8e:	605a      	str	r2, [r3, #4]
  /* Packing mode is enabled only if the DMA setting is HALWORD */
  if ((hspi->Init.DataSize <= SPI_DATASIZE_8BIT) && (hspi->hdmatx->Init.MemDataAlignment == DMA_MDATAALIGN_HALFWORD))
 8005d90:	68fb      	ldr	r3, [r7, #12]
 8005d92:	68db      	ldr	r3, [r3, #12]
 8005d94:	f5b3 6fe0 	cmp.w	r3, #1792	; 0x700
 8005d98:	d82d      	bhi.n	8005df6 <HAL_SPI_Transmit_DMA+0x13e>
 8005d9a:	68fb      	ldr	r3, [r7, #12]
 8005d9c:	6d5b      	ldr	r3, [r3, #84]	; 0x54
 8005d9e:	699b      	ldr	r3, [r3, #24]
 8005da0:	f5b3 6f80 	cmp.w	r3, #1024	; 0x400
 8005da4:	d127      	bne.n	8005df6 <HAL_SPI_Transmit_DMA+0x13e>
  {
    /* Check the even/odd of the data size + crc if enabled */
    if ((hspi->TxXferCount & 0x1U) == 0U)
 8005da6:	68fb      	ldr	r3, [r7, #12]
 8005da8:	8fdb      	ldrh	r3, [r3, #62]	; 0x3e
 8005daa:	b29b      	uxth	r3, r3
 8005dac:	f003 0301 	and.w	r3, r3, #1
 8005db0:	2b00      	cmp	r3, #0
 8005db2:	d10f      	bne.n	8005dd4 <HAL_SPI_Transmit_DMA+0x11c>
    {
      CLEAR_BIT(hspi->Instance->CR2, SPI_CR2_LDMATX);
 8005db4:	68fb      	ldr	r3, [r7, #12]
 8005db6:	681b      	ldr	r3, [r3, #0]
 8005db8:	685a      	ldr	r2, [r3, #4]
 8005dba:	68fb      	ldr	r3, [r7, #12]
 8005dbc:	681b      	ldr	r3, [r3, #0]
 8005dbe:	f422 4280 	bic.w	r2, r2, #16384	; 0x4000
 8005dc2:	605a      	str	r2, [r3, #4]
      hspi->TxXferCount = (hspi->TxXferCount >> 1U);
 8005dc4:	68fb      	ldr	r3, [r7, #12]
 8005dc6:	8fdb      	ldrh	r3, [r3, #62]	; 0x3e
 8005dc8:	b29b      	uxth	r3, r3
 8005dca:	085b      	lsrs	r3, r3, #1
 8005dcc:	b29a      	uxth	r2, r3
 8005dce:	68fb      	ldr	r3, [r7, #12]
 8005dd0:	87da      	strh	r2, [r3, #62]	; 0x3e
 8005dd2:	e010      	b.n	8005df6 <HAL_SPI_Transmit_DMA+0x13e>
    }
    else
    {
      SET_BIT(hspi->Instance->CR2, SPI_CR2_LDMATX);
 8005dd4:	68fb      	ldr	r3, [r7, #12]
 8005dd6:	681b      	ldr	r3, [r3, #0]
 8005dd8:	685a      	ldr	r2, [r3, #4]
 8005dda:	68fb      	ldr	r3, [r7, #12]
 8005ddc:	681b      	ldr	r3, [r3, #0]
 8005dde:	f442 4280 	orr.w	r2, r2, #16384	; 0x4000
 8005de2:	605a      	str	r2, [r3, #4]
      hspi->TxXferCount = (hspi->TxXferCount >> 1U) + 1U;
 8005de4:	68fb      	ldr	r3, [r7, #12]
 8005de6:	8fdb      	ldrh	r3, [r3, #62]	; 0x3e
 8005de8:	b29b      	uxth	r3, r3
 8005dea:	085b      	lsrs	r3, r3, #1
 8005dec:	b29b      	uxth	r3, r3
 8005dee:	3301      	adds	r3, #1
 8005df0:	b29a      	uxth	r2, r3
 8005df2:	68fb      	ldr	r3, [r7, #12]
 8005df4:	87da      	strh	r2, [r3, #62]	; 0x3e
    }
  }

  /* Enable the Tx DMA Stream/Channel */
  if (HAL_OK != HAL_DMA_Start_IT(hspi->hdmatx, (uint32_t)hspi->pTxBuffPtr, (uint32_t)&hspi->Instance->DR,
 8005df6:	68fb      	ldr	r3, [r7, #12]
 8005df8:	6d58      	ldr	r0, [r3, #84]	; 0x54
 8005dfa:	68fb      	ldr	r3, [r7, #12]
 8005dfc:	6b9b      	ldr	r3, [r3, #56]	; 0x38
 8005dfe:	4619      	mov	r1, r3
 8005e00:	68fb      	ldr	r3, [r7, #12]
 8005e02:	681b      	ldr	r3, [r3, #0]
 8005e04:	330c      	adds	r3, #12
 8005e06:	461a      	mov	r2, r3
                                 hspi->TxXferCount))
 8005e08:	68fb      	ldr	r3, [r7, #12]
 8005e0a:	8fdb      	ldrh	r3, [r3, #62]	; 0x3e
 8005e0c:	b29b      	uxth	r3, r3
  if (HAL_OK != HAL_DMA_Start_IT(hspi->hdmatx, (uint32_t)hspi->pTxBuffPtr, (uint32_t)&hspi->Instance->DR,
 8005e0e:	f7fe f9e7 	bl	80041e0 <HAL_DMA_Start_IT>
 8005e12:	4603      	mov	r3, r0
 8005e14:	2b00      	cmp	r3, #0
 8005e16:	d00c      	beq.n	8005e32 <HAL_SPI_Transmit_DMA+0x17a>
  {
    /* Update SPI error code */
    SET_BIT(hspi->ErrorCode, HAL_SPI_ERROR_DMA);
 8005e18:	68fb      	ldr	r3, [r7, #12]
 8005e1a:	6e1b      	ldr	r3, [r3, #96]	; 0x60
 8005e1c:	f043 0210 	orr.w	r2, r3, #16
 8005e20:	68fb      	ldr	r3, [r7, #12]
 8005e22:	661a      	str	r2, [r3, #96]	; 0x60
    errorcode = HAL_ERROR;
 8005e24:	2301      	movs	r3, #1
 8005e26:	75fb      	strb	r3, [r7, #23]

    hspi->State = HAL_SPI_STATE_READY;
 8005e28:	68fb      	ldr	r3, [r7, #12]
 8005e2a:	2201      	movs	r2, #1
 8005e2c:	f883 205d 	strb.w	r2, [r3, #93]	; 0x5d
    goto error;
 8005e30:	e01e      	b.n	8005e70 <HAL_SPI_Transmit_DMA+0x1b8>
  }

  /* Check if the SPI is already enabled */
  if ((hspi->Instance->CR1 & SPI_CR1_SPE) != SPI_CR1_SPE)
 8005e32:	68fb      	ldr	r3, [r7, #12]
 8005e34:	681b      	ldr	r3, [r3, #0]
 8005e36:	681b      	ldr	r3, [r3, #0]
 8005e38:	f003 0340 	and.w	r3, r3, #64	; 0x40
 8005e3c:	2b40      	cmp	r3, #64	; 0x40
 8005e3e:	d007      	beq.n	8005e50 <HAL_SPI_Transmit_DMA+0x198>
  {
    /* Enable SPI peripheral */
    __HAL_SPI_ENABLE(hspi);
 8005e40:	68fb      	ldr	r3, [r7, #12]
 8005e42:	681b      	ldr	r3, [r3, #0]
 8005e44:	681a      	ldr	r2, [r3, #0]
 8005e46:	68fb      	ldr	r3, [r7, #12]
 8005e48:	681b      	ldr	r3, [r3, #0]
 8005e4a:	f042 0240 	orr.w	r2, r2, #64	; 0x40
 8005e4e:	601a      	str	r2, [r3, #0]
  }

  /* Enable the SPI Error Interrupt Bit */
  __HAL_SPI_ENABLE_IT(hspi, (SPI_IT_ERR));
 8005e50:	68fb      	ldr	r3, [r7, #12]
 8005e52:	681b      	ldr	r3, [r3, #0]
 8005e54:	685a      	ldr	r2, [r3, #4]
 8005e56:	68fb      	ldr	r3, [r7, #12]
 8005e58:	681b      	ldr	r3, [r3, #0]
 8005e5a:	f042 0220 	orr.w	r2, r2, #32
 8005e5e:	605a      	str	r2, [r3, #4]

  /* Enable Tx DMA Request */
  SET_BIT(hspi->Instance->CR2, SPI_CR2_TXDMAEN);
 8005e60:	68fb      	ldr	r3, [r7, #12]
 8005e62:	681b      	ldr	r3, [r3, #0]
 8005e64:	685a      	ldr	r2, [r3, #4]
 8005e66:	68fb      	ldr	r3, [r7, #12]
 8005e68:	681b      	ldr	r3, [r3, #0]
 8005e6a:	f042 0202 	orr.w	r2, r2, #2
 8005e6e:	605a      	str	r2, [r3, #4]

error :
  /* Process Unlocked */
  __HAL_UNLOCK(hspi);
 8005e70:	68fb      	ldr	r3, [r7, #12]
 8005e72:	2200      	movs	r2, #0
 8005e74:	f883 205c 	strb.w	r2, [r3, #92]	; 0x5c
  return errorcode;
 8005e78:	7dfb      	ldrb	r3, [r7, #23]
}
 8005e7a:	4618      	mov	r0, r3
 8005e7c:	3718      	adds	r7, #24
 8005e7e:	46bd      	mov	sp, r7
 8005e80:	bd80      	pop	{r7, pc}
 8005e82:	bf00      	nop
 8005e84:	08005f73 	.word	0x08005f73
 8005e88:	08005ecd 	.word	0x08005ecd
 8005e8c:	08005f8f 	.word	0x08005f8f

08005e90 <HAL_SPI_TxCpltCallback>:
  * @param  hspi pointer to a SPI_HandleTypeDef structure that contains
  *               the configuration information for SPI module.
  * @retval None
  */
__weak void HAL_SPI_TxCpltCallback(SPI_HandleTypeDef *hspi)
{
 8005e90:	b480      	push	{r7}
 8005e92:	b083      	sub	sp, #12
 8005e94:	af00      	add	r7, sp, #0
 8005e96:	6078      	str	r0, [r7, #4]
  UNUSED(hspi);

  /* NOTE : This function should not be modified, when the callback is needed,
            the HAL_SPI_TxCpltCallback should be implemented in the user file
   */
}
 8005e98:	bf00      	nop
 8005e9a:	370c      	adds	r7, #12
 8005e9c:	46bd      	mov	sp, r7
 8005e9e:	f85d 7b04 	ldr.w	r7, [sp], #4
 8005ea2:	4770      	bx	lr

08005ea4 <HAL_SPI_TxHalfCpltCallback>:
  * @param  hspi pointer to a SPI_HandleTypeDef structure that contains
  *               the configuration information for SPI module.
  * @retval None
  */
__weak void HAL_SPI_TxHalfCpltCallback(SPI_HandleTypeDef *hspi)
{
 8005ea4:	b480      	push	{r7}
 8005ea6:	b083      	sub	sp, #12
 8005ea8:	af00      	add	r7, sp, #0
 8005eaa:	6078      	str	r0, [r7, #4]
  UNUSED(hspi);

  /* NOTE : This function should not be modified, when the callback is needed,
            the HAL_SPI_TxHalfCpltCallback should be implemented in the user file
   */
}
 8005eac:	bf00      	nop
 8005eae:	370c      	adds	r7, #12
 8005eb0:	46bd      	mov	sp, r7
 8005eb2:	f85d 7b04 	ldr.w	r7, [sp], #4
 8005eb6:	4770      	bx	lr

08005eb8 <HAL_SPI_ErrorCallback>:
  * @param  hspi pointer to a SPI_HandleTypeDef structure that contains
  *               the configuration information for SPI module.
  * @retval None
  */
__weak void HAL_SPI_ErrorCallback(SPI_HandleTypeDef *hspi)
{
 8005eb8:	b480      	push	{r7}
 8005eba:	b083      	sub	sp, #12
 8005ebc:	af00      	add	r7, sp, #0
 8005ebe:	6078      	str	r0, [r7, #4]
            the HAL_SPI_ErrorCallback should be implemented in the user file
   */
  /* NOTE : The ErrorCode parameter in the hspi handle is updated by the SPI processes
            and user can use HAL_SPI_GetError() API to check the latest error occurred
   */
}
 8005ec0:	bf00      	nop
 8005ec2:	370c      	adds	r7, #12
 8005ec4:	46bd      	mov	sp, r7
 8005ec6:	f85d 7b04 	ldr.w	r7, [sp], #4
 8005eca:	4770      	bx	lr

08005ecc <SPI_DMATransmitCplt>:
  * @param  hdma pointer to a DMA_HandleTypeDef structure that contains
  *               the configuration information for the specified DMA module.
  * @retval None
  */
static void SPI_DMATransmitCplt(DMA_HandleTypeDef *hdma)
{
 8005ecc:	b580      	push	{r7, lr}
 8005ece:	b086      	sub	sp, #24
 8005ed0:	af00      	add	r7, sp, #0
 8005ed2:	6078      	str	r0, [r7, #4]
  SPI_HandleTypeDef *hspi = (SPI_HandleTypeDef *)(((DMA_HandleTypeDef *)hdma)->Parent); /* Derogation MISRAC2012-Rule-11.5 */
 8005ed4:	687b      	ldr	r3, [r7, #4]
 8005ed6:	6a9b      	ldr	r3, [r3, #40]	; 0x28
 8005ed8:	617b      	str	r3, [r7, #20]
  uint32_t tickstart;

  /* Init tickstart for timeout management*/
  tickstart = HAL_GetTick();
 8005eda:	f7fc f8a9 	bl	8002030 <HAL_GetTick>
 8005ede:	6138      	str	r0, [r7, #16]

  /* DMA Normal Mode */
  if ((hdma->Instance->CCR & DMA_CCR_CIRC) != DMA_CCR_CIRC)
 8005ee0:	687b      	ldr	r3, [r7, #4]
 8005ee2:	681b      	ldr	r3, [r3, #0]
 8005ee4:	681b      	ldr	r3, [r3, #0]
 8005ee6:	f003 0320 	and.w	r3, r3, #32
 8005eea:	2b20      	cmp	r3, #32
 8005eec:	d03b      	beq.n	8005f66 <SPI_DMATransmitCplt+0x9a>
  {
    /* Disable ERR interrupt */
    __HAL_SPI_DISABLE_IT(hspi, SPI_IT_ERR);
 8005eee:	697b      	ldr	r3, [r7, #20]
 8005ef0:	681b      	ldr	r3, [r3, #0]
 8005ef2:	685a      	ldr	r2, [r3, #4]
 8005ef4:	697b      	ldr	r3, [r7, #20]
 8005ef6:	681b      	ldr	r3, [r3, #0]
 8005ef8:	f022 0220 	bic.w	r2, r2, #32
 8005efc:	605a      	str	r2, [r3, #4]

    /* Disable Tx DMA Request */
    CLEAR_BIT(hspi->Instance->CR2, SPI_CR2_TXDMAEN);
 8005efe:	697b      	ldr	r3, [r7, #20]
 8005f00:	681b      	ldr	r3, [r3, #0]
 8005f02:	685a      	ldr	r2, [r3, #4]
 8005f04:	697b      	ldr	r3, [r7, #20]
 8005f06:	681b      	ldr	r3, [r3, #0]
 8005f08:	f022 0202 	bic.w	r2, r2, #2
 8005f0c:	605a      	str	r2, [r3, #4]

    /* Check the end of the transaction */
    if (SPI_EndRxTxTransaction(hspi, SPI_DEFAULT_TIMEOUT, tickstart) != HAL_OK)
 8005f0e:	693a      	ldr	r2, [r7, #16]
 8005f10:	2164      	movs	r1, #100	; 0x64
 8005f12:	6978      	ldr	r0, [r7, #20]
 8005f14:	f000 f932 	bl	800617c <SPI_EndRxTxTransaction>
 8005f18:	4603      	mov	r3, r0
 8005f1a:	2b00      	cmp	r3, #0
 8005f1c:	d005      	beq.n	8005f2a <SPI_DMATransmitCplt+0x5e>
    {
      SET_BIT(hspi->ErrorCode, HAL_SPI_ERROR_FLAG);
 8005f1e:	697b      	ldr	r3, [r7, #20]
 8005f20:	6e1b      	ldr	r3, [r3, #96]	; 0x60
 8005f22:	f043 0220 	orr.w	r2, r3, #32
 8005f26:	697b      	ldr	r3, [r7, #20]
 8005f28:	661a      	str	r2, [r3, #96]	; 0x60
    }

    /* Clear overrun flag in 2 Lines communication mode because received data is not read */
    if (hspi->Init.Direction == SPI_DIRECTION_2LINES)
 8005f2a:	697b      	ldr	r3, [r7, #20]
 8005f2c:	689b      	ldr	r3, [r3, #8]
 8005f2e:	2b00      	cmp	r3, #0
 8005f30:	d10a      	bne.n	8005f48 <SPI_DMATransmitCplt+0x7c>
    {
      __HAL_SPI_CLEAR_OVRFLAG(hspi);
 8005f32:	2300      	movs	r3, #0
 8005f34:	60fb      	str	r3, [r7, #12]
 8005f36:	697b      	ldr	r3, [r7, #20]
 8005f38:	681b      	ldr	r3, [r3, #0]
 8005f3a:	68db      	ldr	r3, [r3, #12]
 8005f3c:	60fb      	str	r3, [r7, #12]
 8005f3e:	697b      	ldr	r3, [r7, #20]
 8005f40:	681b      	ldr	r3, [r3, #0]
 8005f42:	689b      	ldr	r3, [r3, #8]
 8005f44:	60fb      	str	r3, [r7, #12]
 8005f46:	68fb      	ldr	r3, [r7, #12]
    }

    hspi->TxXferCount = 0U;
 8005f48:	697b      	ldr	r3, [r7, #20]
 8005f4a:	2200      	movs	r2, #0
 8005f4c:	87da      	strh	r2, [r3, #62]	; 0x3e
    hspi->State = HAL_SPI_STATE_READY;
 8005f4e:	697b      	ldr	r3, [r7, #20]
 8005f50:	2201      	movs	r2, #1
 8005f52:	f883 205d 	strb.w	r2, [r3, #93]	; 0x5d

    if (hspi->ErrorCode != HAL_SPI_ERROR_NONE)
 8005f56:	697b      	ldr	r3, [r7, #20]
 8005f58:	6e1b      	ldr	r3, [r3, #96]	; 0x60
 8005f5a:	2b00      	cmp	r3, #0
 8005f5c:	d003      	beq.n	8005f66 <SPI_DMATransmitCplt+0x9a>
    {
      /* Call user error callback */
#if (USE_HAL_SPI_REGISTER_CALLBACKS == 1U)
      hspi->ErrorCallback(hspi);
#else
      HAL_SPI_ErrorCallback(hspi);
 8005f5e:	6978      	ldr	r0, [r7, #20]
 8005f60:	f7ff ffaa 	bl	8005eb8 <HAL_SPI_ErrorCallback>
#endif /* USE_HAL_SPI_REGISTER_CALLBACKS */
      return;
 8005f64:	e002      	b.n	8005f6c <SPI_DMATransmitCplt+0xa0>
  }
  /* Call user Tx complete callback */
#if (USE_HAL_SPI_REGISTER_CALLBACKS == 1U)
  hspi->TxCpltCallback(hspi);
#else
  HAL_SPI_TxCpltCallback(hspi);
 8005f66:	6978      	ldr	r0, [r7, #20]
 8005f68:	f7ff ff92 	bl	8005e90 <HAL_SPI_TxCpltCallback>
#endif /* USE_HAL_SPI_REGISTER_CALLBACKS */
}
 8005f6c:	3718      	adds	r7, #24
 8005f6e:	46bd      	mov	sp, r7
 8005f70:	bd80      	pop	{r7, pc}

08005f72 <SPI_DMAHalfTransmitCplt>:
  * @param  hdma pointer to a DMA_HandleTypeDef structure that contains
  *               the configuration information for the specified DMA module.
  * @retval None
  */
static void SPI_DMAHalfTransmitCplt(DMA_HandleTypeDef *hdma)
{
 8005f72:	b580      	push	{r7, lr}
 8005f74:	b084      	sub	sp, #16
 8005f76:	af00      	add	r7, sp, #0
 8005f78:	6078      	str	r0, [r7, #4]
  SPI_HandleTypeDef *hspi = (SPI_HandleTypeDef *)(((DMA_HandleTypeDef *)hdma)->Parent); /* Derogation MISRAC2012-Rule-11.5 */
 8005f7a:	687b      	ldr	r3, [r7, #4]
 8005f7c:	6a9b      	ldr	r3, [r3, #40]	; 0x28
 8005f7e:	60fb      	str	r3, [r7, #12]

  /* Call user Tx half complete callback */
#if (USE_HAL_SPI_REGISTER_CALLBACKS == 1U)
  hspi->TxHalfCpltCallback(hspi);
#else
  HAL_SPI_TxHalfCpltCallback(hspi);
 8005f80:	68f8      	ldr	r0, [r7, #12]
 8005f82:	f7ff ff8f 	bl	8005ea4 <HAL_SPI_TxHalfCpltCallback>
#endif /* USE_HAL_SPI_REGISTER_CALLBACKS */
}
 8005f86:	bf00      	nop
 8005f88:	3710      	adds	r7, #16
 8005f8a:	46bd      	mov	sp, r7
 8005f8c:	bd80      	pop	{r7, pc}

08005f8e <SPI_DMAError>:
  * @param  hdma pointer to a DMA_HandleTypeDef structure that contains
  *               the configuration information for the specified DMA module.
  * @retval None
  */
static void SPI_DMAError(DMA_HandleTypeDef *hdma)
{
 8005f8e:	b580      	push	{r7, lr}
 8005f90:	b084      	sub	sp, #16
 8005f92:	af00      	add	r7, sp, #0
 8005f94:	6078      	str	r0, [r7, #4]
  SPI_HandleTypeDef *hspi = (SPI_HandleTypeDef *)(((DMA_HandleTypeDef *)hdma)->Parent); /* Derogation MISRAC2012-Rule-11.5 */
 8005f96:	687b      	ldr	r3, [r7, #4]
 8005f98:	6a9b      	ldr	r3, [r3, #40]	; 0x28
 8005f9a:	60fb      	str	r3, [r7, #12]

  /* Stop the disable DMA transfer on SPI side */
  CLEAR_BIT(hspi->Instance->CR2, SPI_CR2_TXDMAEN | SPI_CR2_RXDMAEN);
 8005f9c:	68fb      	ldr	r3, [r7, #12]
 8005f9e:	681b      	ldr	r3, [r3, #0]
 8005fa0:	685a      	ldr	r2, [r3, #4]
 8005fa2:	68fb      	ldr	r3, [r7, #12]
 8005fa4:	681b      	ldr	r3, [r3, #0]
 8005fa6:	f022 0203 	bic.w	r2, r2, #3
 8005faa:	605a      	str	r2, [r3, #4]

  SET_BIT(hspi->ErrorCode, HAL_SPI_ERROR_DMA);
 8005fac:	68fb      	ldr	r3, [r7, #12]
 8005fae:	6e1b      	ldr	r3, [r3, #96]	; 0x60
 8005fb0:	f043 0210 	orr.w	r2, r3, #16
 8005fb4:	68fb      	ldr	r3, [r7, #12]
 8005fb6:	661a      	str	r2, [r3, #96]	; 0x60
  hspi->State = HAL_SPI_STATE_READY;
 8005fb8:	68fb      	ldr	r3, [r7, #12]
 8005fba:	2201      	movs	r2, #1
 8005fbc:	f883 205d 	strb.w	r2, [r3, #93]	; 0x5d
  /* Call user error callback */
#if (USE_HAL_SPI_REGISTER_CALLBACKS == 1U)
  hspi->ErrorCallback(hspi);
#else
  HAL_SPI_ErrorCallback(hspi);
 8005fc0:	68f8      	ldr	r0, [r7, #12]
 8005fc2:	f7ff ff79 	bl	8005eb8 <HAL_SPI_ErrorCallback>
#endif /* USE_HAL_SPI_REGISTER_CALLBACKS */
}
 8005fc6:	bf00      	nop
 8005fc8:	3710      	adds	r7, #16
 8005fca:	46bd      	mov	sp, r7
 8005fcc:	bd80      	pop	{r7, pc}

08005fce <SPI_WaitFlagStateUntilTimeout>:
  * @param  Tickstart tick start value
  * @retval HAL status
  */
static HAL_StatusTypeDef SPI_WaitFlagStateUntilTimeout(SPI_HandleTypeDef *hspi, uint32_t Flag, FlagStatus State,
                                                       uint32_t Timeout, uint32_t Tickstart)
{
 8005fce:	b580      	push	{r7, lr}
 8005fd0:	b084      	sub	sp, #16
 8005fd2:	af00      	add	r7, sp, #0
 8005fd4:	60f8      	str	r0, [r7, #12]
 8005fd6:	60b9      	str	r1, [r7, #8]
 8005fd8:	603b      	str	r3, [r7, #0]
 8005fda:	4613      	mov	r3, r2
 8005fdc:	71fb      	strb	r3, [r7, #7]
  while ((__HAL_SPI_GET_FLAG(hspi, Flag) ? SET : RESET) != State)
 8005fde:	e04c      	b.n	800607a <SPI_WaitFlagStateUntilTimeout+0xac>
  {
    if (Timeout != HAL_MAX_DELAY)
 8005fe0:	683b      	ldr	r3, [r7, #0]
 8005fe2:	f1b3 3fff 	cmp.w	r3, #4294967295	; 0xffffffff
 8005fe6:	d048      	beq.n	800607a <SPI_WaitFlagStateUntilTimeout+0xac>
    {
      if (((HAL_GetTick() - Tickstart) >= Timeout) || (Timeout == 0U))
 8005fe8:	f7fc f822 	bl	8002030 <HAL_GetTick>
 8005fec:	4602      	mov	r2, r0
 8005fee:	69bb      	ldr	r3, [r7, #24]
 8005ff0:	1ad3      	subs	r3, r2, r3
 8005ff2:	683a      	ldr	r2, [r7, #0]
 8005ff4:	429a      	cmp	r2, r3
 8005ff6:	d902      	bls.n	8005ffe <SPI_WaitFlagStateUntilTimeout+0x30>
 8005ff8:	683b      	ldr	r3, [r7, #0]
 8005ffa:	2b00      	cmp	r3, #0
 8005ffc:	d13d      	bne.n	800607a <SPI_WaitFlagStateUntilTimeout+0xac>
        /* Disable the SPI and reset the CRC: the CRC value should be cleared
        on both master and slave sides in order to resynchronize the master
        and slave for their respective CRC calculation */

        /* Disable TXE, RXNE and ERR interrupts for the interrupt process */
        __HAL_SPI_DISABLE_IT(hspi, (SPI_IT_TXE | SPI_IT_RXNE | SPI_IT_ERR));
 8005ffe:	68fb      	ldr	r3, [r7, #12]
 8006000:	681b      	ldr	r3, [r3, #0]
 8006002:	685a      	ldr	r2, [r3, #4]
 8006004:	68fb      	ldr	r3, [r7, #12]
 8006006:	681b      	ldr	r3, [r3, #0]
 8006008:	f022 02e0 	bic.w	r2, r2, #224	; 0xe0
 800600c:	605a      	str	r2, [r3, #4]

        if ((hspi->Init.Mode == SPI_MODE_MASTER) && ((hspi->Init.Direction == SPI_DIRECTION_1LINE)
 800600e:	68fb      	ldr	r3, [r7, #12]
 8006010:	685b      	ldr	r3, [r3, #4]
 8006012:	f5b3 7f82 	cmp.w	r3, #260	; 0x104
 8006016:	d111      	bne.n	800603c <SPI_WaitFlagStateUntilTimeout+0x6e>
 8006018:	68fb      	ldr	r3, [r7, #12]
 800601a:	689b      	ldr	r3, [r3, #8]
 800601c:	f5b3 4f00 	cmp.w	r3, #32768	; 0x8000
 8006020:	d004      	beq.n	800602c <SPI_WaitFlagStateUntilTimeout+0x5e>
                                                     || (hspi->Init.Direction == SPI_DIRECTION_2LINES_RXONLY)))
 8006022:	68fb      	ldr	r3, [r7, #12]
 8006024:	689b      	ldr	r3, [r3, #8]
 8006026:	f5b3 6f80 	cmp.w	r3, #1024	; 0x400
 800602a:	d107      	bne.n	800603c <SPI_WaitFlagStateUntilTimeout+0x6e>
        {
          /* Disable SPI peripheral */
          __HAL_SPI_DISABLE(hspi);
 800602c:	68fb      	ldr	r3, [r7, #12]
 800602e:	681b      	ldr	r3, [r3, #0]
 8006030:	681a      	ldr	r2, [r3, #0]
 8006032:	68fb      	ldr	r3, [r7, #12]
 8006034:	681b      	ldr	r3, [r3, #0]
 8006036:	f022 0240 	bic.w	r2, r2, #64	; 0x40
 800603a:	601a      	str	r2, [r3, #0]
        }

        /* Reset CRC Calculation */
        if (hspi->Init.CRCCalculation == SPI_CRCCALCULATION_ENABLE)
 800603c:	68fb      	ldr	r3, [r7, #12]
 800603e:	6a9b      	ldr	r3, [r3, #40]	; 0x28
 8006040:	f5b3 5f00 	cmp.w	r3, #8192	; 0x2000
 8006044:	d10f      	bne.n	8006066 <SPI_WaitFlagStateUntilTimeout+0x98>
        {
          SPI_RESET_CRC(hspi);
 8006046:	68fb      	ldr	r3, [r7, #12]
 8006048:	681b      	ldr	r3, [r3, #0]
 800604a:	681a      	ldr	r2, [r3, #0]
 800604c:	68fb      	ldr	r3, [r7, #12]
 800604e:	681b      	ldr	r3, [r3, #0]
 8006050:	f422 5200 	bic.w	r2, r2, #8192	; 0x2000
 8006054:	601a      	str	r2, [r3, #0]
 8006056:	68fb      	ldr	r3, [r7, #12]
 8006058:	681b      	ldr	r3, [r3, #0]
 800605a:	681a      	ldr	r2, [r3, #0]
 800605c:	68fb      	ldr	r3, [r7, #12]
 800605e:	681b      	ldr	r3, [r3, #0]
 8006060:	f442 5200 	orr.w	r2, r2, #8192	; 0x2000
 8006064:	601a      	str	r2, [r3, #0]
        }

        hspi->State = HAL_SPI_STATE_READY;
 8006066:	68fb      	ldr	r3, [r7, #12]
 8006068:	2201      	movs	r2, #1
 800606a:	f883 205d 	strb.w	r2, [r3, #93]	; 0x5d

        /* Process Unlocked */
        __HAL_UNLOCK(hspi);
 800606e:	68fb      	ldr	r3, [r7, #12]
 8006070:	2200      	movs	r2, #0
 8006072:	f883 205c 	strb.w	r2, [r3, #92]	; 0x5c

        return HAL_TIMEOUT;
 8006076:	2303      	movs	r3, #3
 8006078:	e00f      	b.n	800609a <SPI_WaitFlagStateUntilTimeout+0xcc>
  while ((__HAL_SPI_GET_FLAG(hspi, Flag) ? SET : RESET) != State)
 800607a:	68fb      	ldr	r3, [r7, #12]
 800607c:	681b      	ldr	r3, [r3, #0]
 800607e:	689a      	ldr	r2, [r3, #8]
 8006080:	68bb      	ldr	r3, [r7, #8]
 8006082:	4013      	ands	r3, r2
 8006084:	68ba      	ldr	r2, [r7, #8]
 8006086:	429a      	cmp	r2, r3
 8006088:	bf0c      	ite	eq
 800608a:	2301      	moveq	r3, #1
 800608c:	2300      	movne	r3, #0
 800608e:	b2db      	uxtb	r3, r3
 8006090:	461a      	mov	r2, r3
 8006092:	79fb      	ldrb	r3, [r7, #7]
 8006094:	429a      	cmp	r2, r3
 8006096:	d1a3      	bne.n	8005fe0 <SPI_WaitFlagStateUntilTimeout+0x12>
      }
    }
  }

  return HAL_OK;
 8006098:	2300      	movs	r3, #0
}
 800609a:	4618      	mov	r0, r3
 800609c:	3710      	adds	r7, #16
 800609e:	46bd      	mov	sp, r7
 80060a0:	bd80      	pop	{r7, pc}

080060a2 <SPI_WaitFifoStateUntilTimeout>:
  * @param  Tickstart tick start value
  * @retval HAL status
  */
static HAL_StatusTypeDef SPI_WaitFifoStateUntilTimeout(SPI_HandleTypeDef *hspi, uint32_t Fifo, uint32_t State,
                                                       uint32_t Timeout, uint32_t Tickstart)
{
 80060a2:	b580      	push	{r7, lr}
 80060a4:	b084      	sub	sp, #16
 80060a6:	af00      	add	r7, sp, #0
 80060a8:	60f8      	str	r0, [r7, #12]
 80060aa:	60b9      	str	r1, [r7, #8]
 80060ac:	607a      	str	r2, [r7, #4]
 80060ae:	603b      	str	r3, [r7, #0]
  while ((hspi->Instance->SR & Fifo) != State)
 80060b0:	e057      	b.n	8006162 <SPI_WaitFifoStateUntilTimeout+0xc0>
  {
    if ((Fifo == SPI_SR_FRLVL) && (State == SPI_FRLVL_EMPTY))
 80060b2:	68bb      	ldr	r3, [r7, #8]
 80060b4:	f5b3 6fc0 	cmp.w	r3, #1536	; 0x600
 80060b8:	d106      	bne.n	80060c8 <SPI_WaitFifoStateUntilTimeout+0x26>
 80060ba:	687b      	ldr	r3, [r7, #4]
 80060bc:	2b00      	cmp	r3, #0
 80060be:	d103      	bne.n	80060c8 <SPI_WaitFifoStateUntilTimeout+0x26>
    {
      /* Read 8bit CRC to flush Data Register */
      READ_REG(*((__IO uint8_t *)&hspi->Instance->DR));
 80060c0:	68fb      	ldr	r3, [r7, #12]
 80060c2:	681b      	ldr	r3, [r3, #0]
 80060c4:	330c      	adds	r3, #12
 80060c6:	781b      	ldrb	r3, [r3, #0]
    }

    if (Timeout != HAL_MAX_DELAY)
 80060c8:	683b      	ldr	r3, [r7, #0]
 80060ca:	f1b3 3fff 	cmp.w	r3, #4294967295	; 0xffffffff
 80060ce:	d048      	beq.n	8006162 <SPI_WaitFifoStateUntilTimeout+0xc0>
    {
      if (((HAL_GetTick() - Tickstart) >= Timeout) || (Timeout == 0U))
 80060d0:	f7fb ffae 	bl	8002030 <HAL_GetTick>
 80060d4:	4602      	mov	r2, r0
 80060d6:	69bb      	ldr	r3, [r7, #24]
 80060d8:	1ad3      	subs	r3, r2, r3
 80060da:	683a      	ldr	r2, [r7, #0]
 80060dc:	429a      	cmp	r2, r3
 80060de:	d902      	bls.n	80060e6 <SPI_WaitFifoStateUntilTimeout+0x44>
 80060e0:	683b      	ldr	r3, [r7, #0]
 80060e2:	2b00      	cmp	r3, #0
 80060e4:	d13d      	bne.n	8006162 <SPI_WaitFifoStateUntilTimeout+0xc0>
        /* Disable the SPI and reset the CRC: the CRC value should be cleared
           on both master and slave sides in order to resynchronize the master
           and slave for their respective CRC calculation */

        /* Disable TXE, RXNE and ERR interrupts for the interrupt process */
        __HAL_SPI_DISABLE_IT(hspi, (SPI_IT_TXE | SPI_IT_RXNE | SPI_IT_ERR));
 80060e6:	68fb      	ldr	r3, [r7, #12]
 80060e8:	681b      	ldr	r3, [r3, #0]
 80060ea:	685a      	ldr	r2, [r3, #4]
 80060ec:	68fb      	ldr	r3, [r7, #12]
 80060ee:	681b      	ldr	r3, [r3, #0]
 80060f0:	f022 02e0 	bic.w	r2, r2, #224	; 0xe0
 80060f4:	605a      	str	r2, [r3, #4]

        if ((hspi->Init.Mode == SPI_MODE_MASTER) && ((hspi->Init.Direction == SPI_DIRECTION_1LINE)
 80060f6:	68fb      	ldr	r3, [r7, #12]
 80060f8:	685b      	ldr	r3, [r3, #4]
 80060fa:	f5b3 7f82 	cmp.w	r3, #260	; 0x104
 80060fe:	d111      	bne.n	8006124 <SPI_WaitFifoStateUntilTimeout+0x82>
 8006100:	68fb      	ldr	r3, [r7, #12]
 8006102:	689b      	ldr	r3, [r3, #8]
 8006104:	f5b3 4f00 	cmp.w	r3, #32768	; 0x8000
 8006108:	d004      	beq.n	8006114 <SPI_WaitFifoStateUntilTimeout+0x72>
                                                     || (hspi->Init.Direction == SPI_DIRECTION_2LINES_RXONLY)))
 800610a:	68fb      	ldr	r3, [r7, #12]
 800610c:	689b      	ldr	r3, [r3, #8]
 800610e:	f5b3 6f80 	cmp.w	r3, #1024	; 0x400
 8006112:	d107      	bne.n	8006124 <SPI_WaitFifoStateUntilTimeout+0x82>
        {
          /* Disable SPI peripheral */
          __HAL_SPI_DISABLE(hspi);
 8006114:	68fb      	ldr	r3, [r7, #12]
 8006116:	681b      	ldr	r3, [r3, #0]
 8006118:	681a      	ldr	r2, [r3, #0]
 800611a:	68fb      	ldr	r3, [r7, #12]
 800611c:	681b      	ldr	r3, [r3, #0]
 800611e:	f022 0240 	bic.w	r2, r2, #64	; 0x40
 8006122:	601a      	str	r2, [r3, #0]
        }

        /* Reset CRC Calculation */
        if (hspi->Init.CRCCalculation == SPI_CRCCALCULATION_ENABLE)
 8006124:	68fb      	ldr	r3, [r7, #12]
 8006126:	6a9b      	ldr	r3, [r3, #40]	; 0x28
 8006128:	f5b3 5f00 	cmp.w	r3, #8192	; 0x2000
 800612c:	d10f      	bne.n	800614e <SPI_WaitFifoStateUntilTimeout+0xac>
        {
          SPI_RESET_CRC(hspi);
 800612e:	68fb      	ldr	r3, [r7, #12]
 8006130:	681b      	ldr	r3, [r3, #0]
 8006132:	681a      	ldr	r2, [r3, #0]
 8006134:	68fb      	ldr	r3, [r7, #12]
 8006136:	681b      	ldr	r3, [r3, #0]
 8006138:	f422 5200 	bic.w	r2, r2, #8192	; 0x2000
 800613c:	601a      	str	r2, [r3, #0]
 800613e:	68fb      	ldr	r3, [r7, #12]
 8006140:	681b      	ldr	r3, [r3, #0]
 8006142:	681a      	ldr	r2, [r3, #0]
 8006144:	68fb      	ldr	r3, [r7, #12]
 8006146:	681b      	ldr	r3, [r3, #0]
 8006148:	f442 5200 	orr.w	r2, r2, #8192	; 0x2000
 800614c:	601a      	str	r2, [r3, #0]
        }

        hspi->State = HAL_SPI_STATE_READY;
 800614e:	68fb      	ldr	r3, [r7, #12]
 8006150:	2201      	movs	r2, #1
 8006152:	f883 205d 	strb.w	r2, [r3, #93]	; 0x5d

        /* Process Unlocked */
        __HAL_UNLOCK(hspi);
 8006156:	68fb      	ldr	r3, [r7, #12]
 8006158:	2200      	movs	r2, #0
 800615a:	f883 205c 	strb.w	r2, [r3, #92]	; 0x5c

        return HAL_TIMEOUT;
 800615e:	2303      	movs	r3, #3
 8006160:	e008      	b.n	8006174 <SPI_WaitFifoStateUntilTimeout+0xd2>
  while ((hspi->Instance->SR & Fifo) != State)
 8006162:	68fb      	ldr	r3, [r7, #12]
 8006164:	681b      	ldr	r3, [r3, #0]
 8006166:	689a      	ldr	r2, [r3, #8]
 8006168:	68bb      	ldr	r3, [r7, #8]
 800616a:	4013      	ands	r3, r2
 800616c:	687a      	ldr	r2, [r7, #4]
 800616e:	429a      	cmp	r2, r3
 8006170:	d19f      	bne.n	80060b2 <SPI_WaitFifoStateUntilTimeout+0x10>
      }
    }
  }

  return HAL_OK;
 8006172:	2300      	movs	r3, #0
}
 8006174:	4618      	mov	r0, r3
 8006176:	3710      	adds	r7, #16
 8006178:	46bd      	mov	sp, r7
 800617a:	bd80      	pop	{r7, pc}

0800617c <SPI_EndRxTxTransaction>:
  * @param  Timeout Timeout duration
  * @param  Tickstart tick start value
  * @retval HAL status
  */
static HAL_StatusTypeDef SPI_EndRxTxTransaction(SPI_HandleTypeDef *hspi, uint32_t Timeout, uint32_t Tickstart)
{
 800617c:	b580      	push	{r7, lr}
 800617e:	b086      	sub	sp, #24
 8006180:	af02      	add	r7, sp, #8
 8006182:	60f8      	str	r0, [r7, #12]
 8006184:	60b9      	str	r1, [r7, #8]
 8006186:	607a      	str	r2, [r7, #4]
  /* Control if the TX fifo is empty */
  if (SPI_WaitFifoStateUntilTimeout(hspi, SPI_FLAG_FTLVL, SPI_FTLVL_EMPTY, Timeout, Tickstart) != HAL_OK)
 8006188:	687b      	ldr	r3, [r7, #4]
 800618a:	9300      	str	r3, [sp, #0]
 800618c:	68bb      	ldr	r3, [r7, #8]
 800618e:	2200      	movs	r2, #0
 8006190:	f44f 51c0 	mov.w	r1, #6144	; 0x1800
 8006194:	68f8      	ldr	r0, [r7, #12]
 8006196:	f7ff ff84 	bl	80060a2 <SPI_WaitFifoStateUntilTimeout>
 800619a:	4603      	mov	r3, r0
 800619c:	2b00      	cmp	r3, #0
 800619e:	d007      	beq.n	80061b0 <SPI_EndRxTxTransaction+0x34>
  {
    SET_BIT(hspi->ErrorCode, HAL_SPI_ERROR_FLAG);
 80061a0:	68fb      	ldr	r3, [r7, #12]
 80061a2:	6e1b      	ldr	r3, [r3, #96]	; 0x60
 80061a4:	f043 0220 	orr.w	r2, r3, #32
 80061a8:	68fb      	ldr	r3, [r7, #12]
 80061aa:	661a      	str	r2, [r3, #96]	; 0x60
    return HAL_TIMEOUT;
 80061ac:	2303      	movs	r3, #3
 80061ae:	e027      	b.n	8006200 <SPI_EndRxTxTransaction+0x84>
  }

  /* Control the BSY flag */
  if (SPI_WaitFlagStateUntilTimeout(hspi, SPI_FLAG_BSY, RESET, Timeout, Tickstart) != HAL_OK)
 80061b0:	687b      	ldr	r3, [r7, #4]
 80061b2:	9300      	str	r3, [sp, #0]
 80061b4:	68bb      	ldr	r3, [r7, #8]
 80061b6:	2200      	movs	r2, #0
 80061b8:	2180      	movs	r1, #128	; 0x80
 80061ba:	68f8      	ldr	r0, [r7, #12]
 80061bc:	f7ff ff07 	bl	8005fce <SPI_WaitFlagStateUntilTimeout>
 80061c0:	4603      	mov	r3, r0
 80061c2:	2b00      	cmp	r3, #0
 80061c4:	d007      	beq.n	80061d6 <SPI_EndRxTxTransaction+0x5a>
  {
    SET_BIT(hspi->ErrorCode, HAL_SPI_ERROR_FLAG);
 80061c6:	68fb      	ldr	r3, [r7, #12]
 80061c8:	6e1b      	ldr	r3, [r3, #96]	; 0x60
 80061ca:	f043 0220 	orr.w	r2, r3, #32
 80061ce:	68fb      	ldr	r3, [r7, #12]
 80061d0:	661a      	str	r2, [r3, #96]	; 0x60
    return HAL_TIMEOUT;
 80061d2:	2303      	movs	r3, #3
 80061d4:	e014      	b.n	8006200 <SPI_EndRxTxTransaction+0x84>
  }

  /* Control if the RX fifo is empty */
  if (SPI_WaitFifoStateUntilTimeout(hspi, SPI_FLAG_FRLVL, SPI_FRLVL_EMPTY, Timeout, Tickstart) != HAL_OK)
 80061d6:	687b      	ldr	r3, [r7, #4]
 80061d8:	9300      	str	r3, [sp, #0]
 80061da:	68bb      	ldr	r3, [r7, #8]
 80061dc:	2200      	movs	r2, #0
 80061de:	f44f 61c0 	mov.w	r1, #1536	; 0x600
 80061e2:	68f8      	ldr	r0, [r7, #12]
 80061e4:	f7ff ff5d 	bl	80060a2 <SPI_WaitFifoStateUntilTimeout>
 80061e8:	4603      	mov	r3, r0
 80061ea:	2b00      	cmp	r3, #0
 80061ec:	d007      	beq.n	80061fe <SPI_EndRxTxTransaction+0x82>
  {
    SET_BIT(hspi->ErrorCode, HAL_SPI_ERROR_FLAG);
 80061ee:	68fb      	ldr	r3, [r7, #12]
 80061f0:	6e1b      	ldr	r3, [r3, #96]	; 0x60
 80061f2:	f043 0220 	orr.w	r2, r3, #32
 80061f6:	68fb      	ldr	r3, [r7, #12]
 80061f8:	661a      	str	r2, [r3, #96]	; 0x60
    return HAL_TIMEOUT;
 80061fa:	2303      	movs	r3, #3
 80061fc:	e000      	b.n	8006200 <SPI_EndRxTxTransaction+0x84>
  }

  return HAL_OK;
 80061fe:	2300      	movs	r3, #0
}
 8006200:	4618      	mov	r0, r3
 8006202:	3710      	adds	r7, #16
 8006204:	46bd      	mov	sp, r7
 8006206:	bd80      	pop	{r7, pc}

08006208 <HAL_TIM_Base_Init>:
  *         Ex: call @ref HAL_TIM_Base_DeInit() before HAL_TIM_Base_Init()
  * @param  htim TIM Base handle
  * @retval HAL status
  */
HAL_StatusTypeDef HAL_TIM_Base_Init(TIM_HandleTypeDef *htim)
{
 8006208:	b580      	push	{r7, lr}
 800620a:	b082      	sub	sp, #8
 800620c:	af00      	add	r7, sp, #0
 800620e:	6078      	str	r0, [r7, #4]
  /* Check the TIM handle allocation */
  if (htim == NULL)
 8006210:	687b      	ldr	r3, [r7, #4]
 8006212:	2b00      	cmp	r3, #0
 8006214:	d101      	bne.n	800621a <HAL_TIM_Base_Init+0x12>
  {
    return HAL_ERROR;
 8006216:	2301      	movs	r3, #1
 8006218:	e049      	b.n	80062ae <HAL_TIM_Base_Init+0xa6>
  assert_param(IS_TIM_INSTANCE(htim->Instance));
  assert_param(IS_TIM_COUNTER_MODE(htim->Init.CounterMode));
  assert_param(IS_TIM_CLOCKDIVISION_DIV(htim->Init.ClockDivision));
  assert_param(IS_TIM_AUTORELOAD_PRELOAD(htim->Init.AutoReloadPreload));

  if (htim->State == HAL_TIM_STATE_RESET)
 800621a:	687b      	ldr	r3, [r7, #4]
 800621c:	f893 303d 	ldrb.w	r3, [r3, #61]	; 0x3d
 8006220:	b2db      	uxtb	r3, r3
 8006222:	2b00      	cmp	r3, #0
 8006224:	d106      	bne.n	8006234 <HAL_TIM_Base_Init+0x2c>
  {
    /* Allocate lock resource and initialize it */
    htim->Lock = HAL_UNLOCKED;
 8006226:	687b      	ldr	r3, [r7, #4]
 8006228:	2200      	movs	r2, #0
 800622a:	f883 203c 	strb.w	r2, [r3, #60]	; 0x3c
    }
    /* Init the low level hardware : GPIO, CLOCK, NVIC */
    htim->Base_MspInitCallback(htim);
#else
    /* Init the low level hardware : GPIO, CLOCK, NVIC */
    HAL_TIM_Base_MspInit(htim);
 800622e:	6878      	ldr	r0, [r7, #4]
 8006230:	f7fb fdc0 	bl	8001db4 <HAL_TIM_Base_MspInit>
#endif /* USE_HAL_TIM_REGISTER_CALLBACKS */
  }

  /* Set the TIM state */
  htim->State = HAL_TIM_STATE_BUSY;
 8006234:	687b      	ldr	r3, [r7, #4]
 8006236:	2202      	movs	r2, #2
 8006238:	f883 203d 	strb.w	r2, [r3, #61]	; 0x3d

  /* Set the Time Base configuration */
  TIM_Base_SetConfig(htim->Instance, &htim->Init);
 800623c:	687b      	ldr	r3, [r7, #4]
 800623e:	681a      	ldr	r2, [r3, #0]
 8006240:	687b      	ldr	r3, [r7, #4]
 8006242:	3304      	adds	r3, #4
 8006244:	4619      	mov	r1, r3
 8006246:	4610      	mov	r0, r2
 8006248:	f000 fc24 	bl	8006a94 <TIM_Base_SetConfig>

  /* Initialize the DMA burst operation state */
  htim->DMABurstState = HAL_DMA_BURST_STATE_READY;
 800624c:	687b      	ldr	r3, [r7, #4]
 800624e:	2201      	movs	r2, #1
 8006250:	f883 2048 	strb.w	r2, [r3, #72]	; 0x48

  /* Initialize the TIM channels state */
  TIM_CHANNEL_STATE_SET_ALL(htim, HAL_TIM_CHANNEL_STATE_READY);
 8006254:	687b      	ldr	r3, [r7, #4]
 8006256:	2201      	movs	r2, #1
 8006258:	f883 203e 	strb.w	r2, [r3, #62]	; 0x3e
 800625c:	687b      	ldr	r3, [r7, #4]
 800625e:	2201      	movs	r2, #1
 8006260:	f883 203f 	strb.w	r2, [r3, #63]	; 0x3f
 8006264:	687b      	ldr	r3, [r7, #4]
 8006266:	2201      	movs	r2, #1
 8006268:	f883 2040 	strb.w	r2, [r3, #64]	; 0x40
 800626c:	687b      	ldr	r3, [r7, #4]
 800626e:	2201      	movs	r2, #1
 8006270:	f883 2041 	strb.w	r2, [r3, #65]	; 0x41
 8006274:	687b      	ldr	r3, [r7, #4]
 8006276:	2201      	movs	r2, #1
 8006278:	f883 2042 	strb.w	r2, [r3, #66]	; 0x42
 800627c:	687b      	ldr	r3, [r7, #4]
 800627e:	2201      	movs	r2, #1
 8006280:	f883 2043 	strb.w	r2, [r3, #67]	; 0x43
  TIM_CHANNEL_N_STATE_SET_ALL(htim, HAL_TIM_CHANNEL_STATE_READY);
 8006284:	687b      	ldr	r3, [r7, #4]
 8006286:	2201      	movs	r2, #1
 8006288:	f883 2044 	strb.w	r2, [r3, #68]	; 0x44
 800628c:	687b      	ldr	r3, [r7, #4]
 800628e:	2201      	movs	r2, #1
 8006290:	f883 2045 	strb.w	r2, [r3, #69]	; 0x45
 8006294:	687b      	ldr	r3, [r7, #4]
 8006296:	2201      	movs	r2, #1
 8006298:	f883 2046 	strb.w	r2, [r3, #70]	; 0x46
 800629c:	687b      	ldr	r3, [r7, #4]
 800629e:	2201      	movs	r2, #1
 80062a0:	f883 2047 	strb.w	r2, [r3, #71]	; 0x47

  /* Initialize the TIM state*/
  htim->State = HAL_TIM_STATE_READY;
 80062a4:	687b      	ldr	r3, [r7, #4]
 80062a6:	2201      	movs	r2, #1
 80062a8:	f883 203d 	strb.w	r2, [r3, #61]	; 0x3d

  return HAL_OK;
 80062ac:	2300      	movs	r3, #0
}
 80062ae:	4618      	mov	r0, r3
 80062b0:	3708      	adds	r7, #8
 80062b2:	46bd      	mov	sp, r7
 80062b4:	bd80      	pop	{r7, pc}
	...

080062b8 <HAL_TIM_Base_Start>:
  * @brief  Starts the TIM Base generation.
  * @param  htim TIM Base handle
  * @retval HAL status
  */
HAL_StatusTypeDef HAL_TIM_Base_Start(TIM_HandleTypeDef *htim)
{
 80062b8:	b480      	push	{r7}
 80062ba:	b085      	sub	sp, #20
 80062bc:	af00      	add	r7, sp, #0
 80062be:	6078      	str	r0, [r7, #4]

  /* Check the parameters */
  assert_param(IS_TIM_INSTANCE(htim->Instance));

  /* Check the TIM state */
  if (htim->State != HAL_TIM_STATE_READY)
 80062c0:	687b      	ldr	r3, [r7, #4]
 80062c2:	f893 303d 	ldrb.w	r3, [r3, #61]	; 0x3d
 80062c6:	b2db      	uxtb	r3, r3
 80062c8:	2b01      	cmp	r3, #1
 80062ca:	d001      	beq.n	80062d0 <HAL_TIM_Base_Start+0x18>
  {
    return HAL_ERROR;
 80062cc:	2301      	movs	r3, #1
 80062ce:	e019      	b.n	8006304 <HAL_TIM_Base_Start+0x4c>
  }

  /* Set the TIM state */
  htim->State = HAL_TIM_STATE_BUSY;
 80062d0:	687b      	ldr	r3, [r7, #4]
 80062d2:	2202      	movs	r2, #2
 80062d4:	f883 203d 	strb.w	r2, [r3, #61]	; 0x3d

  /* Enable the Peripheral, except in trigger mode where enable is automatically done with trigger */
  tmpsmcr = htim->Instance->SMCR & TIM_SMCR_SMS;
 80062d8:	687b      	ldr	r3, [r7, #4]
 80062da:	681b      	ldr	r3, [r3, #0]
 80062dc:	689a      	ldr	r2, [r3, #8]
 80062de:	4b0c      	ldr	r3, [pc, #48]	; (8006310 <HAL_TIM_Base_Start+0x58>)
 80062e0:	4013      	ands	r3, r2
 80062e2:	60fb      	str	r3, [r7, #12]
  if (!IS_TIM_SLAVEMODE_TRIGGER_ENABLED(tmpsmcr))
 80062e4:	68fb      	ldr	r3, [r7, #12]
 80062e6:	2b06      	cmp	r3, #6
 80062e8:	d00b      	beq.n	8006302 <HAL_TIM_Base_Start+0x4a>
 80062ea:	68fb      	ldr	r3, [r7, #12]
 80062ec:	f5b3 3f80 	cmp.w	r3, #65536	; 0x10000
 80062f0:	d007      	beq.n	8006302 <HAL_TIM_Base_Start+0x4a>
  {
    __HAL_TIM_ENABLE(htim);
 80062f2:	687b      	ldr	r3, [r7, #4]
 80062f4:	681b      	ldr	r3, [r3, #0]
 80062f6:	681a      	ldr	r2, [r3, #0]
 80062f8:	687b      	ldr	r3, [r7, #4]
 80062fa:	681b      	ldr	r3, [r3, #0]
 80062fc:	f042 0201 	orr.w	r2, r2, #1
 8006300:	601a      	str	r2, [r3, #0]
  }

  /* Return function status */
  return HAL_OK;
 8006302:	2300      	movs	r3, #0
}
 8006304:	4618      	mov	r0, r3
 8006306:	3714      	adds	r7, #20
 8006308:	46bd      	mov	sp, r7
 800630a:	f85d 7b04 	ldr.w	r7, [sp], #4
 800630e:	4770      	bx	lr
 8006310:	00010007 	.word	0x00010007

08006314 <HAL_TIM_Base_Start_IT>:
  * @brief  Starts the TIM Base generation in interrupt mode.
  * @param  htim TIM Base handle
  * @retval HAL status
  */
HAL_StatusTypeDef HAL_TIM_Base_Start_IT(TIM_HandleTypeDef *htim)
{
 8006314:	b480      	push	{r7}
 8006316:	b085      	sub	sp, #20
 8006318:	af00      	add	r7, sp, #0
 800631a:	6078      	str	r0, [r7, #4]

  /* Check the parameters */
  assert_param(IS_TIM_INSTANCE(htim->Instance));

  /* Check the TIM state */
  if (htim->State != HAL_TIM_STATE_READY)
 800631c:	687b      	ldr	r3, [r7, #4]
 800631e:	f893 303d 	ldrb.w	r3, [r3, #61]	; 0x3d
 8006322:	b2db      	uxtb	r3, r3
 8006324:	2b01      	cmp	r3, #1
 8006326:	d001      	beq.n	800632c <HAL_TIM_Base_Start_IT+0x18>
  {
    return HAL_ERROR;
 8006328:	2301      	movs	r3, #1
 800632a:	e021      	b.n	8006370 <HAL_TIM_Base_Start_IT+0x5c>
  }

  /* Set the TIM state */
  htim->State = HAL_TIM_STATE_BUSY;
 800632c:	687b      	ldr	r3, [r7, #4]
 800632e:	2202      	movs	r2, #2
 8006330:	f883 203d 	strb.w	r2, [r3, #61]	; 0x3d

  /* Enable the TIM Update interrupt */
  __HAL_TIM_ENABLE_IT(htim, TIM_IT_UPDATE);
 8006334:	687b      	ldr	r3, [r7, #4]
 8006336:	681b      	ldr	r3, [r3, #0]
 8006338:	68da      	ldr	r2, [r3, #12]
 800633a:	687b      	ldr	r3, [r7, #4]
 800633c:	681b      	ldr	r3, [r3, #0]
 800633e:	f042 0201 	orr.w	r2, r2, #1
 8006342:	60da      	str	r2, [r3, #12]

  /* Enable the Peripheral, except in trigger mode where enable is automatically done with trigger */
  tmpsmcr = htim->Instance->SMCR & TIM_SMCR_SMS;
 8006344:	687b      	ldr	r3, [r7, #4]
 8006346:	681b      	ldr	r3, [r3, #0]
 8006348:	689a      	ldr	r2, [r3, #8]
 800634a:	4b0c      	ldr	r3, [pc, #48]	; (800637c <HAL_TIM_Base_Start_IT+0x68>)
 800634c:	4013      	ands	r3, r2
 800634e:	60fb      	str	r3, [r7, #12]
  if (!IS_TIM_SLAVEMODE_TRIGGER_ENABLED(tmpsmcr))
 8006350:	68fb      	ldr	r3, [r7, #12]
 8006352:	2b06      	cmp	r3, #6
 8006354:	d00b      	beq.n	800636e <HAL_TIM_Base_Start_IT+0x5a>
 8006356:	68fb      	ldr	r3, [r7, #12]
 8006358:	f5b3 3f80 	cmp.w	r3, #65536	; 0x10000
 800635c:	d007      	beq.n	800636e <HAL_TIM_Base_Start_IT+0x5a>
  {
    __HAL_TIM_ENABLE(htim);
 800635e:	687b      	ldr	r3, [r7, #4]
 8006360:	681b      	ldr	r3, [r3, #0]
 8006362:	681a      	ldr	r2, [r3, #0]
 8006364:	687b      	ldr	r3, [r7, #4]
 8006366:	681b      	ldr	r3, [r3, #0]
 8006368:	f042 0201 	orr.w	r2, r2, #1
 800636c:	601a      	str	r2, [r3, #0]
  }

  /* Return function status */
  return HAL_OK;
 800636e:	2300      	movs	r3, #0
}
 8006370:	4618      	mov	r0, r3
 8006372:	3714      	adds	r7, #20
 8006374:	46bd      	mov	sp, r7
 8006376:	f85d 7b04 	ldr.w	r7, [sp], #4
 800637a:	4770      	bx	lr
 800637c:	00010007 	.word	0x00010007

08006380 <HAL_TIM_Encoder_Init>:
  * @param  htim TIM Encoder Interface handle
  * @param  sConfig TIM Encoder Interface configuration structure
  * @retval HAL status
  */
HAL_StatusTypeDef HAL_TIM_Encoder_Init(TIM_HandleTypeDef *htim,  TIM_Encoder_InitTypeDef *sConfig)
{
 8006380:	b580      	push	{r7, lr}
 8006382:	b086      	sub	sp, #24
 8006384:	af00      	add	r7, sp, #0
 8006386:	6078      	str	r0, [r7, #4]
 8006388:	6039      	str	r1, [r7, #0]
  uint32_t tmpsmcr;
  uint32_t tmpccmr1;
  uint32_t tmpccer;

  /* Check the TIM handle allocation */
  if (htim == NULL)
 800638a:	687b      	ldr	r3, [r7, #4]
 800638c:	2b00      	cmp	r3, #0
 800638e:	d101      	bne.n	8006394 <HAL_TIM_Encoder_Init+0x14>
  {
    return HAL_ERROR;
 8006390:	2301      	movs	r3, #1
 8006392:	e097      	b.n	80064c4 <HAL_TIM_Encoder_Init+0x144>
  assert_param(IS_TIM_IC_PRESCALER(sConfig->IC1Prescaler));
  assert_param(IS_TIM_IC_PRESCALER(sConfig->IC2Prescaler));
  assert_param(IS_TIM_IC_FILTER(sConfig->IC1Filter));
  assert_param(IS_TIM_IC_FILTER(sConfig->IC2Filter));

  if (htim->State == HAL_TIM_STATE_RESET)
 8006394:	687b      	ldr	r3, [r7, #4]
 8006396:	f893 303d 	ldrb.w	r3, [r3, #61]	; 0x3d
 800639a:	b2db      	uxtb	r3, r3
 800639c:	2b00      	cmp	r3, #0
 800639e:	d106      	bne.n	80063ae <HAL_TIM_Encoder_Init+0x2e>
  {
    /* Allocate lock resource and initialize it */
    htim->Lock = HAL_UNLOCKED;
 80063a0:	687b      	ldr	r3, [r7, #4]
 80063a2:	2200      	movs	r2, #0
 80063a4:	f883 203c 	strb.w	r2, [r3, #60]	; 0x3c
    }
    /* Init the low level hardware : GPIO, CLOCK, NVIC */
    htim->Encoder_MspInitCallback(htim);
#else
    /* Init the low level hardware : GPIO, CLOCK, NVIC and DMA */
    HAL_TIM_Encoder_MspInit(htim);
 80063a8:	6878      	ldr	r0, [r7, #4]
 80063aa:	f7fb fca7 	bl	8001cfc <HAL_TIM_Encoder_MspInit>
#endif /* USE_HAL_TIM_REGISTER_CALLBACKS */
  }

  /* Set the TIM state */
  htim->State = HAL_TIM_STATE_BUSY;
 80063ae:	687b      	ldr	r3, [r7, #4]
 80063b0:	2202      	movs	r2, #2
 80063b2:	f883 203d 	strb.w	r2, [r3, #61]	; 0x3d

  /* Reset the SMS and ECE bits */
  htim->Instance->SMCR &= ~(TIM_SMCR_SMS | TIM_SMCR_ECE);
 80063b6:	687b      	ldr	r3, [r7, #4]
 80063b8:	681b      	ldr	r3, [r3, #0]
 80063ba:	689b      	ldr	r3, [r3, #8]
 80063bc:	687a      	ldr	r2, [r7, #4]
 80063be:	6812      	ldr	r2, [r2, #0]
 80063c0:	f423 33a0 	bic.w	r3, r3, #81920	; 0x14000
 80063c4:	f023 0307 	bic.w	r3, r3, #7
 80063c8:	6093      	str	r3, [r2, #8]

  /* Configure the Time base in the Encoder Mode */
  TIM_Base_SetConfig(htim->Instance, &htim->Init);
 80063ca:	687b      	ldr	r3, [r7, #4]
 80063cc:	681a      	ldr	r2, [r3, #0]
 80063ce:	687b      	ldr	r3, [r7, #4]
 80063d0:	3304      	adds	r3, #4
 80063d2:	4619      	mov	r1, r3
 80063d4:	4610      	mov	r0, r2
 80063d6:	f000 fb5d 	bl	8006a94 <TIM_Base_SetConfig>

  /* Get the TIMx SMCR register value */
  tmpsmcr = htim->Instance->SMCR;
 80063da:	687b      	ldr	r3, [r7, #4]
 80063dc:	681b      	ldr	r3, [r3, #0]
 80063de:	689b      	ldr	r3, [r3, #8]
 80063e0:	617b      	str	r3, [r7, #20]

  /* Get the TIMx CCMR1 register value */
  tmpccmr1 = htim->Instance->CCMR1;
 80063e2:	687b      	ldr	r3, [r7, #4]
 80063e4:	681b      	ldr	r3, [r3, #0]
 80063e6:	699b      	ldr	r3, [r3, #24]
 80063e8:	613b      	str	r3, [r7, #16]

  /* Get the TIMx CCER register value */
  tmpccer = htim->Instance->CCER;
 80063ea:	687b      	ldr	r3, [r7, #4]
 80063ec:	681b      	ldr	r3, [r3, #0]
 80063ee:	6a1b      	ldr	r3, [r3, #32]
 80063f0:	60fb      	str	r3, [r7, #12]

  /* Set the encoder Mode */
  tmpsmcr |= sConfig->EncoderMode;
 80063f2:	683b      	ldr	r3, [r7, #0]
 80063f4:	681b      	ldr	r3, [r3, #0]
 80063f6:	697a      	ldr	r2, [r7, #20]
 80063f8:	4313      	orrs	r3, r2
 80063fa:	617b      	str	r3, [r7, #20]

  /* Select the Capture Compare 1 and the Capture Compare 2 as input */
  tmpccmr1 &= ~(TIM_CCMR1_CC1S | TIM_CCMR1_CC2S);
 80063fc:	693b      	ldr	r3, [r7, #16]
 80063fe:	f423 7340 	bic.w	r3, r3, #768	; 0x300
 8006402:	f023 0303 	bic.w	r3, r3, #3
 8006406:	613b      	str	r3, [r7, #16]
  tmpccmr1 |= (sConfig->IC1Selection | (sConfig->IC2Selection << 8U));
 8006408:	683b      	ldr	r3, [r7, #0]
 800640a:	689a      	ldr	r2, [r3, #8]
 800640c:	683b      	ldr	r3, [r7, #0]
 800640e:	699b      	ldr	r3, [r3, #24]
 8006410:	021b      	lsls	r3, r3, #8
 8006412:	4313      	orrs	r3, r2
 8006414:	693a      	ldr	r2, [r7, #16]
 8006416:	4313      	orrs	r3, r2
 8006418:	613b      	str	r3, [r7, #16]

  /* Set the Capture Compare 1 and the Capture Compare 2 prescalers and filters */
  tmpccmr1 &= ~(TIM_CCMR1_IC1PSC | TIM_CCMR1_IC2PSC);
 800641a:	693b      	ldr	r3, [r7, #16]
 800641c:	f423 6340 	bic.w	r3, r3, #3072	; 0xc00
 8006420:	f023 030c 	bic.w	r3, r3, #12
 8006424:	613b      	str	r3, [r7, #16]
  tmpccmr1 &= ~(TIM_CCMR1_IC1F | TIM_CCMR1_IC2F);
 8006426:	693b      	ldr	r3, [r7, #16]
 8006428:	f423 4370 	bic.w	r3, r3, #61440	; 0xf000
 800642c:	f023 03f0 	bic.w	r3, r3, #240	; 0xf0
 8006430:	613b      	str	r3, [r7, #16]
  tmpccmr1 |= sConfig->IC1Prescaler | (sConfig->IC2Prescaler << 8U);
 8006432:	683b      	ldr	r3, [r7, #0]
 8006434:	68da      	ldr	r2, [r3, #12]
 8006436:	683b      	ldr	r3, [r7, #0]
 8006438:	69db      	ldr	r3, [r3, #28]
 800643a:	021b      	lsls	r3, r3, #8
 800643c:	4313      	orrs	r3, r2
 800643e:	693a      	ldr	r2, [r7, #16]
 8006440:	4313      	orrs	r3, r2
 8006442:	613b      	str	r3, [r7, #16]
  tmpccmr1 |= (sConfig->IC1Filter << 4U) | (sConfig->IC2Filter << 12U);
 8006444:	683b      	ldr	r3, [r7, #0]
 8006446:	691b      	ldr	r3, [r3, #16]
 8006448:	011a      	lsls	r2, r3, #4
 800644a:	683b      	ldr	r3, [r7, #0]
 800644c:	6a1b      	ldr	r3, [r3, #32]
 800644e:	031b      	lsls	r3, r3, #12
 8006450:	4313      	orrs	r3, r2
 8006452:	693a      	ldr	r2, [r7, #16]
 8006454:	4313      	orrs	r3, r2
 8006456:	613b      	str	r3, [r7, #16]

  /* Set the TI1 and the TI2 Polarities */
  tmpccer &= ~(TIM_CCER_CC1P | TIM_CCER_CC2P);
 8006458:	68fb      	ldr	r3, [r7, #12]
 800645a:	f023 0322 	bic.w	r3, r3, #34	; 0x22
 800645e:	60fb      	str	r3, [r7, #12]
  tmpccer &= ~(TIM_CCER_CC1NP | TIM_CCER_CC2NP);
 8006460:	68fb      	ldr	r3, [r7, #12]
 8006462:	f023 0388 	bic.w	r3, r3, #136	; 0x88
 8006466:	60fb      	str	r3, [r7, #12]
  tmpccer |= sConfig->IC1Polarity | (sConfig->IC2Polarity << 4U);
 8006468:	683b      	ldr	r3, [r7, #0]
 800646a:	685a      	ldr	r2, [r3, #4]
 800646c:	683b      	ldr	r3, [r7, #0]
 800646e:	695b      	ldr	r3, [r3, #20]
 8006470:	011b      	lsls	r3, r3, #4
 8006472:	4313      	orrs	r3, r2
 8006474:	68fa      	ldr	r2, [r7, #12]
 8006476:	4313      	orrs	r3, r2
 8006478:	60fb      	str	r3, [r7, #12]

  /* Write to TIMx SMCR */
  htim->Instance->SMCR = tmpsmcr;
 800647a:	687b      	ldr	r3, [r7, #4]
 800647c:	681b      	ldr	r3, [r3, #0]
 800647e:	697a      	ldr	r2, [r7, #20]
 8006480:	609a      	str	r2, [r3, #8]

  /* Write to TIMx CCMR1 */
  htim->Instance->CCMR1 = tmpccmr1;
 8006482:	687b      	ldr	r3, [r7, #4]
 8006484:	681b      	ldr	r3, [r3, #0]
 8006486:	693a      	ldr	r2, [r7, #16]
 8006488:	619a      	str	r2, [r3, #24]

  /* Write to TIMx CCER */
  htim->Instance->CCER = tmpccer;
 800648a:	687b      	ldr	r3, [r7, #4]
 800648c:	681b      	ldr	r3, [r3, #0]
 800648e:	68fa      	ldr	r2, [r7, #12]
 8006490:	621a      	str	r2, [r3, #32]

  /* Initialize the DMA burst operation state */
  htim->DMABurstState = HAL_DMA_BURST_STATE_READY;
 8006492:	687b      	ldr	r3, [r7, #4]
 8006494:	2201      	movs	r2, #1
 8006496:	f883 2048 	strb.w	r2, [r3, #72]	; 0x48

  /* Set the TIM channels state */
  TIM_CHANNEL_STATE_SET(htim, TIM_CHANNEL_1, HAL_TIM_CHANNEL_STATE_READY);
 800649a:	687b      	ldr	r3, [r7, #4]
 800649c:	2201      	movs	r2, #1
 800649e:	f883 203e 	strb.w	r2, [r3, #62]	; 0x3e
  TIM_CHANNEL_STATE_SET(htim, TIM_CHANNEL_2, HAL_TIM_CHANNEL_STATE_READY);
 80064a2:	687b      	ldr	r3, [r7, #4]
 80064a4:	2201      	movs	r2, #1
 80064a6:	f883 203f 	strb.w	r2, [r3, #63]	; 0x3f
  TIM_CHANNEL_N_STATE_SET(htim, TIM_CHANNEL_1, HAL_TIM_CHANNEL_STATE_READY);
 80064aa:	687b      	ldr	r3, [r7, #4]
 80064ac:	2201      	movs	r2, #1
 80064ae:	f883 2044 	strb.w	r2, [r3, #68]	; 0x44
  TIM_CHANNEL_N_STATE_SET(htim, TIM_CHANNEL_2, HAL_TIM_CHANNEL_STATE_READY);
 80064b2:	687b      	ldr	r3, [r7, #4]
 80064b4:	2201      	movs	r2, #1
 80064b6:	f883 2045 	strb.w	r2, [r3, #69]	; 0x45

  /* Initialize the TIM state*/
  htim->State = HAL_TIM_STATE_READY;
 80064ba:	687b      	ldr	r3, [r7, #4]
 80064bc:	2201      	movs	r2, #1
 80064be:	f883 203d 	strb.w	r2, [r3, #61]	; 0x3d

  return HAL_OK;
 80064c2:	2300      	movs	r3, #0
}
 80064c4:	4618      	mov	r0, r3
 80064c6:	3718      	adds	r7, #24
 80064c8:	46bd      	mov	sp, r7
 80064ca:	bd80      	pop	{r7, pc}

080064cc <HAL_TIM_IRQHandler>:
  * @brief  This function handles TIM interrupts requests.
  * @param  htim TIM  handle
  * @retval None
  */
void HAL_TIM_IRQHandler(TIM_HandleTypeDef *htim)
{
 80064cc:	b580      	push	{r7, lr}
 80064ce:	b082      	sub	sp, #8
 80064d0:	af00      	add	r7, sp, #0
 80064d2:	6078      	str	r0, [r7, #4]
  /* Capture compare 1 event */
  if (__HAL_TIM_GET_FLAG(htim, TIM_FLAG_CC1) != RESET)
 80064d4:	687b      	ldr	r3, [r7, #4]
 80064d6:	681b      	ldr	r3, [r3, #0]
 80064d8:	691b      	ldr	r3, [r3, #16]
 80064da:	f003 0302 	and.w	r3, r3, #2
 80064de:	2b02      	cmp	r3, #2
 80064e0:	d122      	bne.n	8006528 <HAL_TIM_IRQHandler+0x5c>
  {
    if (__HAL_TIM_GET_IT_SOURCE(htim, TIM_IT_CC1) != RESET)
 80064e2:	687b      	ldr	r3, [r7, #4]
 80064e4:	681b      	ldr	r3, [r3, #0]
 80064e6:	68db      	ldr	r3, [r3, #12]
 80064e8:	f003 0302 	and.w	r3, r3, #2
 80064ec:	2b02      	cmp	r3, #2
 80064ee:	d11b      	bne.n	8006528 <HAL_TIM_IRQHandler+0x5c>
    {
      {
        __HAL_TIM_CLEAR_IT(htim, TIM_IT_CC1);
 80064f0:	687b      	ldr	r3, [r7, #4]
 80064f2:	681b      	ldr	r3, [r3, #0]
 80064f4:	f06f 0202 	mvn.w	r2, #2
 80064f8:	611a      	str	r2, [r3, #16]
        htim->Channel = HAL_TIM_ACTIVE_CHANNEL_1;
 80064fa:	687b      	ldr	r3, [r7, #4]
 80064fc:	2201      	movs	r2, #1
 80064fe:	771a      	strb	r2, [r3, #28]

        /* Input capture event */
        if ((htim->Instance->CCMR1 & TIM_CCMR1_CC1S) != 0x00U)
 8006500:	687b      	ldr	r3, [r7, #4]
 8006502:	681b      	ldr	r3, [r3, #0]
 8006504:	699b      	ldr	r3, [r3, #24]
 8006506:	f003 0303 	and.w	r3, r3, #3
 800650a:	2b00      	cmp	r3, #0
 800650c:	d003      	beq.n	8006516 <HAL_TIM_IRQHandler+0x4a>
        {
#if (USE_HAL_TIM_REGISTER_CALLBACKS == 1)
          htim->IC_CaptureCallback(htim);
#else
          HAL_TIM_IC_CaptureCallback(htim);
 800650e:	6878      	ldr	r0, [r7, #4]
 8006510:	f000 faa2 	bl	8006a58 <HAL_TIM_IC_CaptureCallback>
 8006514:	e005      	b.n	8006522 <HAL_TIM_IRQHandler+0x56>
        {
#if (USE_HAL_TIM_REGISTER_CALLBACKS == 1)
          htim->OC_DelayElapsedCallback(htim);
          htim->PWM_PulseFinishedCallback(htim);
#else
          HAL_TIM_OC_DelayElapsedCallback(htim);
 8006516:	6878      	ldr	r0, [r7, #4]
 8006518:	f000 fa94 	bl	8006a44 <HAL_TIM_OC_DelayElapsedCallback>
          HAL_TIM_PWM_PulseFinishedCallback(htim);
 800651c:	6878      	ldr	r0, [r7, #4]
 800651e:	f000 faa5 	bl	8006a6c <HAL_TIM_PWM_PulseFinishedCallback>
#endif /* USE_HAL_TIM_REGISTER_CALLBACKS */
        }
        htim->Channel = HAL_TIM_ACTIVE_CHANNEL_CLEARED;
 8006522:	687b      	ldr	r3, [r7, #4]
 8006524:	2200      	movs	r2, #0
 8006526:	771a      	strb	r2, [r3, #28]
      }
    }
  }
  /* Capture compare 2 event */
  if (__HAL_TIM_GET_FLAG(htim, TIM_FLAG_CC2) != RESET)
 8006528:	687b      	ldr	r3, [r7, #4]
 800652a:	681b      	ldr	r3, [r3, #0]
 800652c:	691b      	ldr	r3, [r3, #16]
 800652e:	f003 0304 	and.w	r3, r3, #4
 8006532:	2b04      	cmp	r3, #4
 8006534:	d122      	bne.n	800657c <HAL_TIM_IRQHandler+0xb0>
  {
    if (__HAL_TIM_GET_IT_SOURCE(htim, TIM_IT_CC2) != RESET)
 8006536:	687b      	ldr	r3, [r7, #4]
 8006538:	681b      	ldr	r3, [r3, #0]
 800653a:	68db      	ldr	r3, [r3, #12]
 800653c:	f003 0304 	and.w	r3, r3, #4
 8006540:	2b04      	cmp	r3, #4
 8006542:	d11b      	bne.n	800657c <HAL_TIM_IRQHandler+0xb0>
    {
      __HAL_TIM_CLEAR_IT(htim, TIM_IT_CC2);
 8006544:	687b      	ldr	r3, [r7, #4]
 8006546:	681b      	ldr	r3, [r3, #0]
 8006548:	f06f 0204 	mvn.w	r2, #4
 800654c:	611a      	str	r2, [r3, #16]
      htim->Channel = HAL_TIM_ACTIVE_CHANNEL_2;
 800654e:	687b      	ldr	r3, [r7, #4]
 8006550:	2202      	movs	r2, #2
 8006552:	771a      	strb	r2, [r3, #28]
      /* Input capture event */
      if ((htim->Instance->CCMR1 & TIM_CCMR1_CC2S) != 0x00U)
 8006554:	687b      	ldr	r3, [r7, #4]
 8006556:	681b      	ldr	r3, [r3, #0]
 8006558:	699b      	ldr	r3, [r3, #24]
 800655a:	f403 7340 	and.w	r3, r3, #768	; 0x300
 800655e:	2b00      	cmp	r3, #0
 8006560:	d003      	beq.n	800656a <HAL_TIM_IRQHandler+0x9e>
      {
#if (USE_HAL_TIM_REGISTER_CALLBACKS == 1)
        htim->IC_CaptureCallback(htim);
#else
        HAL_TIM_IC_CaptureCallback(htim);
 8006562:	6878      	ldr	r0, [r7, #4]
 8006564:	f000 fa78 	bl	8006a58 <HAL_TIM_IC_CaptureCallback>
 8006568:	e005      	b.n	8006576 <HAL_TIM_IRQHandler+0xaa>
      {
#if (USE_HAL_TIM_REGISTER_CALLBACKS == 1)
        htim->OC_DelayElapsedCallback(htim);
        htim->PWM_PulseFinishedCallback(htim);
#else
        HAL_TIM_OC_DelayElapsedCallback(htim);
 800656a:	6878      	ldr	r0, [r7, #4]
 800656c:	f000 fa6a 	bl	8006a44 <HAL_TIM_OC_DelayElapsedCallback>
        HAL_TIM_PWM_PulseFinishedCallback(htim);
 8006570:	6878      	ldr	r0, [r7, #4]
 8006572:	f000 fa7b 	bl	8006a6c <HAL_TIM_PWM_PulseFinishedCallback>
#endif /* USE_HAL_TIM_REGISTER_CALLBACKS */
      }
      htim->Channel = HAL_TIM_ACTIVE_CHANNEL_CLEARED;
 8006576:	687b      	ldr	r3, [r7, #4]
 8006578:	2200      	movs	r2, #0
 800657a:	771a      	strb	r2, [r3, #28]
    }
  }
  /* Capture compare 3 event */
  if (__HAL_TIM_GET_FLAG(htim, TIM_FLAG_CC3) != RESET)
 800657c:	687b      	ldr	r3, [r7, #4]
 800657e:	681b      	ldr	r3, [r3, #0]
 8006580:	691b      	ldr	r3, [r3, #16]
 8006582:	f003 0308 	and.w	r3, r3, #8
 8006586:	2b08      	cmp	r3, #8
 8006588:	d122      	bne.n	80065d0 <HAL_TIM_IRQHandler+0x104>
  {
    if (__HAL_TIM_GET_IT_SOURCE(htim, TIM_IT_CC3) != RESET)
 800658a:	687b      	ldr	r3, [r7, #4]
 800658c:	681b      	ldr	r3, [r3, #0]
 800658e:	68db      	ldr	r3, [r3, #12]
 8006590:	f003 0308 	and.w	r3, r3, #8
 8006594:	2b08      	cmp	r3, #8
 8006596:	d11b      	bne.n	80065d0 <HAL_TIM_IRQHandler+0x104>
    {
      __HAL_TIM_CLEAR_IT(htim, TIM_IT_CC3);
 8006598:	687b      	ldr	r3, [r7, #4]
 800659a:	681b      	ldr	r3, [r3, #0]
 800659c:	f06f 0208 	mvn.w	r2, #8
 80065a0:	611a      	str	r2, [r3, #16]
      htim->Channel = HAL_TIM_ACTIVE_CHANNEL_3;
 80065a2:	687b      	ldr	r3, [r7, #4]
 80065a4:	2204      	movs	r2, #4
 80065a6:	771a      	strb	r2, [r3, #28]
      /* Input capture event */
      if ((htim->Instance->CCMR2 & TIM_CCMR2_CC3S) != 0x00U)
 80065a8:	687b      	ldr	r3, [r7, #4]
 80065aa:	681b      	ldr	r3, [r3, #0]
 80065ac:	69db      	ldr	r3, [r3, #28]
 80065ae:	f003 0303 	and.w	r3, r3, #3
 80065b2:	2b00      	cmp	r3, #0
 80065b4:	d003      	beq.n	80065be <HAL_TIM_IRQHandler+0xf2>
      {
#if (USE_HAL_TIM_REGISTER_CALLBACKS == 1)
        htim->IC_CaptureCallback(htim);
#else
        HAL_TIM_IC_CaptureCallback(htim);
 80065b6:	6878      	ldr	r0, [r7, #4]
 80065b8:	f000 fa4e 	bl	8006a58 <HAL_TIM_IC_CaptureCallback>
 80065bc:	e005      	b.n	80065ca <HAL_TIM_IRQHandler+0xfe>
      {
#if (USE_HAL_TIM_REGISTER_CALLBACKS == 1)
        htim->OC_DelayElapsedCallback(htim);
        htim->PWM_PulseFinishedCallback(htim);
#else
        HAL_TIM_OC_DelayElapsedCallback(htim);
 80065be:	6878      	ldr	r0, [r7, #4]
 80065c0:	f000 fa40 	bl	8006a44 <HAL_TIM_OC_DelayElapsedCallback>
        HAL_TIM_PWM_PulseFinishedCallback(htim);
 80065c4:	6878      	ldr	r0, [r7, #4]
 80065c6:	f000 fa51 	bl	8006a6c <HAL_TIM_PWM_PulseFinishedCallback>
#endif /* USE_HAL_TIM_REGISTER_CALLBACKS */
      }
      htim->Channel = HAL_TIM_ACTIVE_CHANNEL_CLEARED;
 80065ca:	687b      	ldr	r3, [r7, #4]
 80065cc:	2200      	movs	r2, #0
 80065ce:	771a      	strb	r2, [r3, #28]
    }
  }
  /* Capture compare 4 event */
  if (__HAL_TIM_GET_FLAG(htim, TIM_FLAG_CC4) != RESET)
 80065d0:	687b      	ldr	r3, [r7, #4]
 80065d2:	681b      	ldr	r3, [r3, #0]
 80065d4:	691b      	ldr	r3, [r3, #16]
 80065d6:	f003 0310 	and.w	r3, r3, #16
 80065da:	2b10      	cmp	r3, #16
 80065dc:	d122      	bne.n	8006624 <HAL_TIM_IRQHandler+0x158>
  {
    if (__HAL_TIM_GET_IT_SOURCE(htim, TIM_IT_CC4) != RESET)
 80065de:	687b      	ldr	r3, [r7, #4]
 80065e0:	681b      	ldr	r3, [r3, #0]
 80065e2:	68db      	ldr	r3, [r3, #12]
 80065e4:	f003 0310 	and.w	r3, r3, #16
 80065e8:	2b10      	cmp	r3, #16
 80065ea:	d11b      	bne.n	8006624 <HAL_TIM_IRQHandler+0x158>
    {
      __HAL_TIM_CLEAR_IT(htim, TIM_IT_CC4);
 80065ec:	687b      	ldr	r3, [r7, #4]
 80065ee:	681b      	ldr	r3, [r3, #0]
 80065f0:	f06f 0210 	mvn.w	r2, #16
 80065f4:	611a      	str	r2, [r3, #16]
      htim->Channel = HAL_TIM_ACTIVE_CHANNEL_4;
 80065f6:	687b      	ldr	r3, [r7, #4]
 80065f8:	2208      	movs	r2, #8
 80065fa:	771a      	strb	r2, [r3, #28]
      /* Input capture event */
      if ((htim->Instance->CCMR2 & TIM_CCMR2_CC4S) != 0x00U)
 80065fc:	687b      	ldr	r3, [r7, #4]
 80065fe:	681b      	ldr	r3, [r3, #0]
 8006600:	69db      	ldr	r3, [r3, #28]
 8006602:	f403 7340 	and.w	r3, r3, #768	; 0x300
 8006606:	2b00      	cmp	r3, #0
 8006608:	d003      	beq.n	8006612 <HAL_TIM_IRQHandler+0x146>
      {
#if (USE_HAL_TIM_REGISTER_CALLBACKS == 1)
        htim->IC_CaptureCallback(htim);
#else
        HAL_TIM_IC_CaptureCallback(htim);
 800660a:	6878      	ldr	r0, [r7, #4]
 800660c:	f000 fa24 	bl	8006a58 <HAL_TIM_IC_CaptureCallback>
 8006610:	e005      	b.n	800661e <HAL_TIM_IRQHandler+0x152>
      {
#if (USE_HAL_TIM_REGISTER_CALLBACKS == 1)
        htim->OC_DelayElapsedCallback(htim);
        htim->PWM_PulseFinishedCallback(htim);
#else
        HAL_TIM_OC_DelayElapsedCallback(htim);
 8006612:	6878      	ldr	r0, [r7, #4]
 8006614:	f000 fa16 	bl	8006a44 <HAL_TIM_OC_DelayElapsedCallback>
        HAL_TIM_PWM_PulseFinishedCallback(htim);
 8006618:	6878      	ldr	r0, [r7, #4]
 800661a:	f000 fa27 	bl	8006a6c <HAL_TIM_PWM_PulseFinishedCallback>
#endif /* USE_HAL_TIM_REGISTER_CALLBACKS */
      }
      htim->Channel = HAL_TIM_ACTIVE_CHANNEL_CLEARED;
 800661e:	687b      	ldr	r3, [r7, #4]
 8006620:	2200      	movs	r2, #0
 8006622:	771a      	strb	r2, [r3, #28]
    }
  }
  /* TIM Update event */
  if (__HAL_TIM_GET_FLAG(htim, TIM_FLAG_UPDATE) != RESET)
 8006624:	687b      	ldr	r3, [r7, #4]
 8006626:	681b      	ldr	r3, [r3, #0]
 8006628:	691b      	ldr	r3, [r3, #16]
 800662a:	f003 0301 	and.w	r3, r3, #1
 800662e:	2b01      	cmp	r3, #1
 8006630:	d10e      	bne.n	8006650 <HAL_TIM_IRQHandler+0x184>
  {
    if (__HAL_TIM_GET_IT_SOURCE(htim, TIM_IT_UPDATE) != RESET)
 8006632:	687b      	ldr	r3, [r7, #4]
 8006634:	681b      	ldr	r3, [r3, #0]
 8006636:	68db      	ldr	r3, [r3, #12]
 8006638:	f003 0301 	and.w	r3, r3, #1
 800663c:	2b01      	cmp	r3, #1
 800663e:	d107      	bne.n	8006650 <HAL_TIM_IRQHandler+0x184>
    {
      __HAL_TIM_CLEAR_IT(htim, TIM_IT_UPDATE);
 8006640:	687b      	ldr	r3, [r7, #4]
 8006642:	681b      	ldr	r3, [r3, #0]
 8006644:	f06f 0201 	mvn.w	r2, #1
 8006648:	611a      	str	r2, [r3, #16]
#if (USE_HAL_TIM_REGISTER_CALLBACKS == 1)
      htim->PeriodElapsedCallback(htim);
#else
      HAL_TIM_PeriodElapsedCallback(htim);
 800664a:	6878      	ldr	r0, [r7, #4]
 800664c:	f000 f9f0 	bl	8006a30 <HAL_TIM_PeriodElapsedCallback>
#endif /* USE_HAL_TIM_REGISTER_CALLBACKS */
    }
  }
  /* TIM Break input event */
  if (__HAL_TIM_GET_FLAG(htim, TIM_FLAG_BREAK) != RESET)
 8006650:	687b      	ldr	r3, [r7, #4]
 8006652:	681b      	ldr	r3, [r3, #0]
 8006654:	691b      	ldr	r3, [r3, #16]
 8006656:	f003 0380 	and.w	r3, r3, #128	; 0x80
 800665a:	2b80      	cmp	r3, #128	; 0x80
 800665c:	d10e      	bne.n	800667c <HAL_TIM_IRQHandler+0x1b0>
  {
    if (__HAL_TIM_GET_IT_SOURCE(htim, TIM_IT_BREAK) != RESET)
 800665e:	687b      	ldr	r3, [r7, #4]
 8006660:	681b      	ldr	r3, [r3, #0]
 8006662:	68db      	ldr	r3, [r3, #12]
 8006664:	f003 0380 	and.w	r3, r3, #128	; 0x80
 8006668:	2b80      	cmp	r3, #128	; 0x80
 800666a:	d107      	bne.n	800667c <HAL_TIM_IRQHandler+0x1b0>
    {
      __HAL_TIM_CLEAR_IT(htim, TIM_IT_BREAK);
 800666c:	687b      	ldr	r3, [r7, #4]
 800666e:	681b      	ldr	r3, [r3, #0]
 8006670:	f06f 0280 	mvn.w	r2, #128	; 0x80
 8006674:	611a      	str	r2, [r3, #16]
#if (USE_HAL_TIM_REGISTER_CALLBACKS == 1)
      htim->BreakCallback(htim);
#else
      HAL_TIMEx_BreakCallback(htim);
 8006676:	6878      	ldr	r0, [r7, #4]
 8006678:	f000 fd5e 	bl	8007138 <HAL_TIMEx_BreakCallback>
#endif /* USE_HAL_TIM_REGISTER_CALLBACKS */
    }
  }
  /* TIM Break2 input event */
  if (__HAL_TIM_GET_FLAG(htim, TIM_FLAG_BREAK2) != RESET)
 800667c:	687b      	ldr	r3, [r7, #4]
 800667e:	681b      	ldr	r3, [r3, #0]
 8006680:	691b      	ldr	r3, [r3, #16]
 8006682:	f403 7380 	and.w	r3, r3, #256	; 0x100
 8006686:	f5b3 7f80 	cmp.w	r3, #256	; 0x100
 800668a:	d10e      	bne.n	80066aa <HAL_TIM_IRQHandler+0x1de>
  {
    if (__HAL_TIM_GET_IT_SOURCE(htim, TIM_IT_BREAK) != RESET)
 800668c:	687b      	ldr	r3, [r7, #4]
 800668e:	681b      	ldr	r3, [r3, #0]
 8006690:	68db      	ldr	r3, [r3, #12]
 8006692:	f003 0380 	and.w	r3, r3, #128	; 0x80
 8006696:	2b80      	cmp	r3, #128	; 0x80
 8006698:	d107      	bne.n	80066aa <HAL_TIM_IRQHandler+0x1de>
    {
      __HAL_TIM_CLEAR_FLAG(htim, TIM_FLAG_BREAK2);
 800669a:	687b      	ldr	r3, [r7, #4]
 800669c:	681b      	ldr	r3, [r3, #0]
 800669e:	f46f 7280 	mvn.w	r2, #256	; 0x100
 80066a2:	611a      	str	r2, [r3, #16]
#if (USE_HAL_TIM_REGISTER_CALLBACKS == 1)
      htim->Break2Callback(htim);
#else
      HAL_TIMEx_Break2Callback(htim);
 80066a4:	6878      	ldr	r0, [r7, #4]
 80066a6:	f000 fd51 	bl	800714c <HAL_TIMEx_Break2Callback>
#endif /* USE_HAL_TIM_REGISTER_CALLBACKS */
    }
  }
  /* TIM Trigger detection event */
  if (__HAL_TIM_GET_FLAG(htim, TIM_FLAG_TRIGGER) != RESET)
 80066aa:	687b      	ldr	r3, [r7, #4]
 80066ac:	681b      	ldr	r3, [r3, #0]
 80066ae:	691b      	ldr	r3, [r3, #16]
 80066b0:	f003 0340 	and.w	r3, r3, #64	; 0x40
 80066b4:	2b40      	cmp	r3, #64	; 0x40
 80066b6:	d10e      	bne.n	80066d6 <HAL_TIM_IRQHandler+0x20a>
  {
    if (__HAL_TIM_GET_IT_SOURCE(htim, TIM_IT_TRIGGER) != RESET)
 80066b8:	687b      	ldr	r3, [r7, #4]
 80066ba:	681b      	ldr	r3, [r3, #0]
 80066bc:	68db      	ldr	r3, [r3, #12]
 80066be:	f003 0340 	and.w	r3, r3, #64	; 0x40
 80066c2:	2b40      	cmp	r3, #64	; 0x40
 80066c4:	d107      	bne.n	80066d6 <HAL_TIM_IRQHandler+0x20a>
    {
      __HAL_TIM_CLEAR_IT(htim, TIM_IT_TRIGGER);
 80066c6:	687b      	ldr	r3, [r7, #4]
 80066c8:	681b      	ldr	r3, [r3, #0]
 80066ca:	f06f 0240 	mvn.w	r2, #64	; 0x40
 80066ce:	611a      	str	r2, [r3, #16]
#if (USE_HAL_TIM_REGISTER_CALLBACKS == 1)
      htim->TriggerCallback(htim);
#else
      HAL_TIM_TriggerCallback(htim);
 80066d0:	6878      	ldr	r0, [r7, #4]
 80066d2:	f000 f9d5 	bl	8006a80 <HAL_TIM_TriggerCallback>
#endif /* USE_HAL_TIM_REGISTER_CALLBACKS */
    }
  }
  /* TIM commutation event */
  if (__HAL_TIM_GET_FLAG(htim, TIM_FLAG_COM) != RESET)
 80066d6:	687b      	ldr	r3, [r7, #4]
 80066d8:	681b      	ldr	r3, [r3, #0]
 80066da:	691b      	ldr	r3, [r3, #16]
 80066dc:	f003 0320 	and.w	r3, r3, #32
 80066e0:	2b20      	cmp	r3, #32
 80066e2:	d10e      	bne.n	8006702 <HAL_TIM_IRQHandler+0x236>
  {
    if (__HAL_TIM_GET_IT_SOURCE(htim, TIM_IT_COM) != RESET)
 80066e4:	687b      	ldr	r3, [r7, #4]
 80066e6:	681b      	ldr	r3, [r3, #0]
 80066e8:	68db      	ldr	r3, [r3, #12]
 80066ea:	f003 0320 	and.w	r3, r3, #32
 80066ee:	2b20      	cmp	r3, #32
 80066f0:	d107      	bne.n	8006702 <HAL_TIM_IRQHandler+0x236>
    {
      __HAL_TIM_CLEAR_IT(htim, TIM_FLAG_COM);
 80066f2:	687b      	ldr	r3, [r7, #4]
 80066f4:	681b      	ldr	r3, [r3, #0]
 80066f6:	f06f 0220 	mvn.w	r2, #32
 80066fa:	611a      	str	r2, [r3, #16]
#if (USE_HAL_TIM_REGISTER_CALLBACKS == 1)
      htim->CommutationCallback(htim);
#else
      HAL_TIMEx_CommutCallback(htim);
 80066fc:	6878      	ldr	r0, [r7, #4]
 80066fe:	f000 fd11 	bl	8007124 <HAL_TIMEx_CommutCallback>
#endif /* USE_HAL_TIM_REGISTER_CALLBACKS */
    }
  }
  /* TIM Encoder index event */
  if (__HAL_TIM_GET_FLAG(htim, TIM_FLAG_IDX) != RESET)
 8006702:	687b      	ldr	r3, [r7, #4]
 8006704:	681b      	ldr	r3, [r3, #0]
 8006706:	691b      	ldr	r3, [r3, #16]
 8006708:	f403 1380 	and.w	r3, r3, #1048576	; 0x100000
 800670c:	f5b3 1f80 	cmp.w	r3, #1048576	; 0x100000
 8006710:	d10f      	bne.n	8006732 <HAL_TIM_IRQHandler+0x266>
  {
    if (__HAL_TIM_GET_IT_SOURCE(htim, TIM_IT_IDX) != RESET)
 8006712:	687b      	ldr	r3, [r7, #4]
 8006714:	681b      	ldr	r3, [r3, #0]
 8006716:	68db      	ldr	r3, [r3, #12]
 8006718:	f403 1380 	and.w	r3, r3, #1048576	; 0x100000
 800671c:	f5b3 1f80 	cmp.w	r3, #1048576	; 0x100000
 8006720:	d107      	bne.n	8006732 <HAL_TIM_IRQHandler+0x266>
    {
      __HAL_TIM_CLEAR_IT(htim, TIM_FLAG_IDX);
 8006722:	687b      	ldr	r3, [r7, #4]
 8006724:	681b      	ldr	r3, [r3, #0]
 8006726:	f46f 1280 	mvn.w	r2, #1048576	; 0x100000
 800672a:	611a      	str	r2, [r3, #16]
#if (USE_HAL_TIM_REGISTER_CALLBACKS == 1)
      htim->EncoderIndexCallback(htim);
#else
      HAL_TIMEx_EncoderIndexCallback(htim);
 800672c:	6878      	ldr	r0, [r7, #4]
 800672e:	f000 fd17 	bl	8007160 <HAL_TIMEx_EncoderIndexCallback>
#endif /* USE_HAL_TIM_REGISTER_CALLBACKS */
    }
  }
  /* TIM Direction change event */
  if (__HAL_TIM_GET_FLAG(htim, TIM_FLAG_DIR) != RESET)
 8006732:	687b      	ldr	r3, [r7, #4]
 8006734:	681b      	ldr	r3, [r3, #0]
 8006736:	691b      	ldr	r3, [r3, #16]
 8006738:	f403 1300 	and.w	r3, r3, #2097152	; 0x200000
 800673c:	f5b3 1f00 	cmp.w	r3, #2097152	; 0x200000
 8006740:	d10f      	bne.n	8006762 <HAL_TIM_IRQHandler+0x296>
  {
    if (__HAL_TIM_GET_IT_SOURCE(htim, TIM_IT_DIR) != RESET)
 8006742:	687b      	ldr	r3, [r7, #4]
 8006744:	681b      	ldr	r3, [r3, #0]
 8006746:	68db      	ldr	r3, [r3, #12]
 8006748:	f403 1300 	and.w	r3, r3, #2097152	; 0x200000
 800674c:	f5b3 1f00 	cmp.w	r3, #2097152	; 0x200000
 8006750:	d107      	bne.n	8006762 <HAL_TIM_IRQHandler+0x296>
    {
      __HAL_TIM_CLEAR_IT(htim, TIM_FLAG_DIR);
 8006752:	687b      	ldr	r3, [r7, #4]
 8006754:	681b      	ldr	r3, [r3, #0]
 8006756:	f46f 1200 	mvn.w	r2, #2097152	; 0x200000
 800675a:	611a      	str	r2, [r3, #16]
#if (USE_HAL_TIM_REGISTER_CALLBACKS == 1)
      htim->DirectionChangeCallback(htim);
#else
      HAL_TIMEx_DirectionChangeCallback(htim);
 800675c:	6878      	ldr	r0, [r7, #4]
 800675e:	f000 fd09 	bl	8007174 <HAL_TIMEx_DirectionChangeCallback>
#endif /* USE_HAL_TIM_REGISTER_CALLBACKS */
    }
  }
  /* TIM Index error event */
  if (__HAL_TIM_GET_FLAG(htim, TIM_FLAG_IERR) != RESET)
 8006762:	687b      	ldr	r3, [r7, #4]
 8006764:	681b      	ldr	r3, [r3, #0]
 8006766:	691b      	ldr	r3, [r3, #16]
 8006768:	f403 0380 	and.w	r3, r3, #4194304	; 0x400000
 800676c:	f5b3 0f80 	cmp.w	r3, #4194304	; 0x400000
 8006770:	d10f      	bne.n	8006792 <HAL_TIM_IRQHandler+0x2c6>
  {
    if (__HAL_TIM_GET_IT_SOURCE(htim, TIM_IT_IERR) != RESET)
 8006772:	687b      	ldr	r3, [r7, #4]
 8006774:	681b      	ldr	r3, [r3, #0]
 8006776:	68db      	ldr	r3, [r3, #12]
 8006778:	f403 0380 	and.w	r3, r3, #4194304	; 0x400000
 800677c:	f5b3 0f80 	cmp.w	r3, #4194304	; 0x400000
 8006780:	d107      	bne.n	8006792 <HAL_TIM_IRQHandler+0x2c6>
    {
      __HAL_TIM_CLEAR_IT(htim, TIM_FLAG_IERR);
 8006782:	687b      	ldr	r3, [r7, #4]
 8006784:	681b      	ldr	r3, [r3, #0]
 8006786:	f46f 0280 	mvn.w	r2, #4194304	; 0x400000
 800678a:	611a      	str	r2, [r3, #16]
#if (USE_HAL_TIM_REGISTER_CALLBACKS == 1)
      htim->IndexErrorCallback(htim);
#else
      HAL_TIMEx_IndexErrorCallback(htim);
 800678c:	6878      	ldr	r0, [r7, #4]
 800678e:	f000 fcfb 	bl	8007188 <HAL_TIMEx_IndexErrorCallback>
#endif /* USE_HAL_TIM_REGISTER_CALLBACKS */
    }
  }
  /* TIM Transition error event */
  if (__HAL_TIM_GET_FLAG(htim, TIM_FLAG_TERR) != RESET)
 8006792:	687b      	ldr	r3, [r7, #4]
 8006794:	681b      	ldr	r3, [r3, #0]
 8006796:	691b      	ldr	r3, [r3, #16]
 8006798:	f403 0300 	and.w	r3, r3, #8388608	; 0x800000
 800679c:	f5b3 0f00 	cmp.w	r3, #8388608	; 0x800000
 80067a0:	d10f      	bne.n	80067c2 <HAL_TIM_IRQHandler+0x2f6>
  {
    if (__HAL_TIM_GET_IT_SOURCE(htim, TIM_IT_TERR) != RESET)
 80067a2:	687b      	ldr	r3, [r7, #4]
 80067a4:	681b      	ldr	r3, [r3, #0]
 80067a6:	68db      	ldr	r3, [r3, #12]
 80067a8:	f403 0300 	and.w	r3, r3, #8388608	; 0x800000
 80067ac:	f5b3 0f00 	cmp.w	r3, #8388608	; 0x800000
 80067b0:	d107      	bne.n	80067c2 <HAL_TIM_IRQHandler+0x2f6>
    {
      __HAL_TIM_CLEAR_IT(htim, TIM_FLAG_TERR);
 80067b2:	687b      	ldr	r3, [r7, #4]
 80067b4:	681b      	ldr	r3, [r3, #0]
 80067b6:	f46f 0200 	mvn.w	r2, #8388608	; 0x800000
 80067ba:	611a      	str	r2, [r3, #16]
#if (USE_HAL_TIM_REGISTER_CALLBACKS == 1)
      htim->TransitionErrorCallback(htim);
#else
      HAL_TIMEx_TransitionErrorCallback(htim);
 80067bc:	6878      	ldr	r0, [r7, #4]
 80067be:	f000 fced 	bl	800719c <HAL_TIMEx_TransitionErrorCallback>
#endif /* USE_HAL_TIM_REGISTER_CALLBACKS */
    }
  }
}
 80067c2:	bf00      	nop
 80067c4:	3708      	adds	r7, #8
 80067c6:	46bd      	mov	sp, r7
 80067c8:	bd80      	pop	{r7, pc}
	...

080067cc <HAL_TIM_ConfigClockSource>:
  * @param  sClockSourceConfig pointer to a TIM_ClockConfigTypeDef structure that
  *         contains the clock source information for the TIM peripheral.
  * @retval HAL status
  */
HAL_StatusTypeDef HAL_TIM_ConfigClockSource(TIM_HandleTypeDef *htim, TIM_ClockConfigTypeDef *sClockSourceConfig)
{
 80067cc:	b580      	push	{r7, lr}
 80067ce:	b084      	sub	sp, #16
 80067d0:	af00      	add	r7, sp, #0
 80067d2:	6078      	str	r0, [r7, #4]
 80067d4:	6039      	str	r1, [r7, #0]
  uint32_t tmpsmcr;

  /* Process Locked */
  __HAL_LOCK(htim);
 80067d6:	687b      	ldr	r3, [r7, #4]
 80067d8:	f893 303c 	ldrb.w	r3, [r3, #60]	; 0x3c
 80067dc:	2b01      	cmp	r3, #1
 80067de:	d101      	bne.n	80067e4 <HAL_TIM_ConfigClockSource+0x18>
 80067e0:	2302      	movs	r3, #2
 80067e2:	e0d2      	b.n	800698a <HAL_TIM_ConfigClockSource+0x1be>
 80067e4:	687b      	ldr	r3, [r7, #4]
 80067e6:	2201      	movs	r2, #1
 80067e8:	f883 203c 	strb.w	r2, [r3, #60]	; 0x3c

  htim->State = HAL_TIM_STATE_BUSY;
 80067ec:	687b      	ldr	r3, [r7, #4]
 80067ee:	2202      	movs	r2, #2
 80067f0:	f883 203d 	strb.w	r2, [r3, #61]	; 0x3d

  /* Check the parameters */
  assert_param(IS_TIM_CLOCKSOURCE(sClockSourceConfig->ClockSource));

  /* Reset the SMS, TS, ECE, ETPS and ETRF bits */
  tmpsmcr = htim->Instance->SMCR;
 80067f4:	687b      	ldr	r3, [r7, #4]
 80067f6:	681b      	ldr	r3, [r3, #0]
 80067f8:	689b      	ldr	r3, [r3, #8]
 80067fa:	60fb      	str	r3, [r7, #12]
  tmpsmcr &= ~(TIM_SMCR_SMS | TIM_SMCR_TS);
 80067fc:	68fb      	ldr	r3, [r7, #12]
 80067fe:	f423 1344 	bic.w	r3, r3, #3211264	; 0x310000
 8006802:	f023 0377 	bic.w	r3, r3, #119	; 0x77
 8006806:	60fb      	str	r3, [r7, #12]
  tmpsmcr &= ~(TIM_SMCR_ETF | TIM_SMCR_ETPS | TIM_SMCR_ECE | TIM_SMCR_ETP);
 8006808:	68fb      	ldr	r3, [r7, #12]
 800680a:	f423 437f 	bic.w	r3, r3, #65280	; 0xff00
 800680e:	60fb      	str	r3, [r7, #12]
  htim->Instance->SMCR = tmpsmcr;
 8006810:	687b      	ldr	r3, [r7, #4]
 8006812:	681b      	ldr	r3, [r3, #0]
 8006814:	68fa      	ldr	r2, [r7, #12]
 8006816:	609a      	str	r2, [r3, #8]

  switch (sClockSourceConfig->ClockSource)
 8006818:	683b      	ldr	r3, [r7, #0]
 800681a:	681b      	ldr	r3, [r3, #0]
 800681c:	f5b3 5f80 	cmp.w	r3, #4096	; 0x1000
 8006820:	f000 80a9 	beq.w	8006976 <HAL_TIM_ConfigClockSource+0x1aa>
 8006824:	f5b3 5f80 	cmp.w	r3, #4096	; 0x1000
 8006828:	d81a      	bhi.n	8006860 <HAL_TIM_ConfigClockSource+0x94>
 800682a:	2b30      	cmp	r3, #48	; 0x30
 800682c:	f000 809a 	beq.w	8006964 <HAL_TIM_ConfigClockSource+0x198>
 8006830:	2b30      	cmp	r3, #48	; 0x30
 8006832:	d809      	bhi.n	8006848 <HAL_TIM_ConfigClockSource+0x7c>
 8006834:	2b10      	cmp	r3, #16
 8006836:	f000 8095 	beq.w	8006964 <HAL_TIM_ConfigClockSource+0x198>
 800683a:	2b20      	cmp	r3, #32
 800683c:	f000 8092 	beq.w	8006964 <HAL_TIM_ConfigClockSource+0x198>
 8006840:	2b00      	cmp	r3, #0
 8006842:	f000 808f 	beq.w	8006964 <HAL_TIM_ConfigClockSource+0x198>
      TIM_ITRx_SetConfig(htim->Instance, sClockSourceConfig->ClockSource);
      break;
    }

    default:
      break;
 8006846:	e097      	b.n	8006978 <HAL_TIM_ConfigClockSource+0x1ac>
  switch (sClockSourceConfig->ClockSource)
 8006848:	2b50      	cmp	r3, #80	; 0x50
 800684a:	d05b      	beq.n	8006904 <HAL_TIM_ConfigClockSource+0x138>
 800684c:	2b50      	cmp	r3, #80	; 0x50
 800684e:	d802      	bhi.n	8006856 <HAL_TIM_ConfigClockSource+0x8a>
 8006850:	2b40      	cmp	r3, #64	; 0x40
 8006852:	d077      	beq.n	8006944 <HAL_TIM_ConfigClockSource+0x178>
      break;
 8006854:	e090      	b.n	8006978 <HAL_TIM_ConfigClockSource+0x1ac>
  switch (sClockSourceConfig->ClockSource)
 8006856:	2b60      	cmp	r3, #96	; 0x60
 8006858:	d064      	beq.n	8006924 <HAL_TIM_ConfigClockSource+0x158>
 800685a:	2b70      	cmp	r3, #112	; 0x70
 800685c:	d028      	beq.n	80068b0 <HAL_TIM_ConfigClockSource+0xe4>
      break;
 800685e:	e08b      	b.n	8006978 <HAL_TIM_ConfigClockSource+0x1ac>
  switch (sClockSourceConfig->ClockSource)
 8006860:	4a4c      	ldr	r2, [pc, #304]	; (8006994 <HAL_TIM_ConfigClockSource+0x1c8>)
 8006862:	4293      	cmp	r3, r2
 8006864:	d07e      	beq.n	8006964 <HAL_TIM_ConfigClockSource+0x198>
 8006866:	4a4b      	ldr	r2, [pc, #300]	; (8006994 <HAL_TIM_ConfigClockSource+0x1c8>)
 8006868:	4293      	cmp	r3, r2
 800686a:	d810      	bhi.n	800688e <HAL_TIM_ConfigClockSource+0xc2>
 800686c:	f5b3 1f80 	cmp.w	r3, #1048576	; 0x100000
 8006870:	d078      	beq.n	8006964 <HAL_TIM_ConfigClockSource+0x198>
 8006872:	f5b3 1f80 	cmp.w	r3, #1048576	; 0x100000
 8006876:	d803      	bhi.n	8006880 <HAL_TIM_ConfigClockSource+0xb4>
 8006878:	f5b3 5f00 	cmp.w	r3, #8192	; 0x2000
 800687c:	d02f      	beq.n	80068de <HAL_TIM_ConfigClockSource+0x112>
      break;
 800687e:	e07b      	b.n	8006978 <HAL_TIM_ConfigClockSource+0x1ac>
  switch (sClockSourceConfig->ClockSource)
 8006880:	f1b3 1f10 	cmp.w	r3, #1048592	; 0x100010
 8006884:	d06e      	beq.n	8006964 <HAL_TIM_ConfigClockSource+0x198>
 8006886:	4a44      	ldr	r2, [pc, #272]	; (8006998 <HAL_TIM_ConfigClockSource+0x1cc>)
 8006888:	4293      	cmp	r3, r2
 800688a:	d06b      	beq.n	8006964 <HAL_TIM_ConfigClockSource+0x198>
      break;
 800688c:	e074      	b.n	8006978 <HAL_TIM_ConfigClockSource+0x1ac>
  switch (sClockSourceConfig->ClockSource)
 800688e:	4a43      	ldr	r2, [pc, #268]	; (800699c <HAL_TIM_ConfigClockSource+0x1d0>)
 8006890:	4293      	cmp	r3, r2
 8006892:	d067      	beq.n	8006964 <HAL_TIM_ConfigClockSource+0x198>
 8006894:	4a41      	ldr	r2, [pc, #260]	; (800699c <HAL_TIM_ConfigClockSource+0x1d0>)
 8006896:	4293      	cmp	r3, r2
 8006898:	d803      	bhi.n	80068a2 <HAL_TIM_ConfigClockSource+0xd6>
 800689a:	4a41      	ldr	r2, [pc, #260]	; (80069a0 <HAL_TIM_ConfigClockSource+0x1d4>)
 800689c:	4293      	cmp	r3, r2
 800689e:	d061      	beq.n	8006964 <HAL_TIM_ConfigClockSource+0x198>
      break;
 80068a0:	e06a      	b.n	8006978 <HAL_TIM_ConfigClockSource+0x1ac>
  switch (sClockSourceConfig->ClockSource)
 80068a2:	4a40      	ldr	r2, [pc, #256]	; (80069a4 <HAL_TIM_ConfigClockSource+0x1d8>)
 80068a4:	4293      	cmp	r3, r2
 80068a6:	d05d      	beq.n	8006964 <HAL_TIM_ConfigClockSource+0x198>
 80068a8:	4a3f      	ldr	r2, [pc, #252]	; (80069a8 <HAL_TIM_ConfigClockSource+0x1dc>)
 80068aa:	4293      	cmp	r3, r2
 80068ac:	d05a      	beq.n	8006964 <HAL_TIM_ConfigClockSource+0x198>
      break;
 80068ae:	e063      	b.n	8006978 <HAL_TIM_ConfigClockSource+0x1ac>
      TIM_ETR_SetConfig(htim->Instance,
 80068b0:	687b      	ldr	r3, [r7, #4]
 80068b2:	6818      	ldr	r0, [r3, #0]
 80068b4:	683b      	ldr	r3, [r7, #0]
 80068b6:	6899      	ldr	r1, [r3, #8]
 80068b8:	683b      	ldr	r3, [r7, #0]
 80068ba:	685a      	ldr	r2, [r3, #4]
 80068bc:	683b      	ldr	r3, [r7, #0]
 80068be:	68db      	ldr	r3, [r3, #12]
 80068c0:	f000 fac8 	bl	8006e54 <TIM_ETR_SetConfig>
      tmpsmcr = htim->Instance->SMCR;
 80068c4:	687b      	ldr	r3, [r7, #4]
 80068c6:	681b      	ldr	r3, [r3, #0]
 80068c8:	689b      	ldr	r3, [r3, #8]
 80068ca:	60fb      	str	r3, [r7, #12]
      tmpsmcr |= (TIM_SLAVEMODE_EXTERNAL1 | TIM_CLOCKSOURCE_ETRMODE1);
 80068cc:	68fb      	ldr	r3, [r7, #12]
 80068ce:	f043 0377 	orr.w	r3, r3, #119	; 0x77
 80068d2:	60fb      	str	r3, [r7, #12]
      htim->Instance->SMCR = tmpsmcr;
 80068d4:	687b      	ldr	r3, [r7, #4]
 80068d6:	681b      	ldr	r3, [r3, #0]
 80068d8:	68fa      	ldr	r2, [r7, #12]
 80068da:	609a      	str	r2, [r3, #8]
      break;
 80068dc:	e04c      	b.n	8006978 <HAL_TIM_ConfigClockSource+0x1ac>
      TIM_ETR_SetConfig(htim->Instance,
 80068de:	687b      	ldr	r3, [r7, #4]
 80068e0:	6818      	ldr	r0, [r3, #0]
 80068e2:	683b      	ldr	r3, [r7, #0]
 80068e4:	6899      	ldr	r1, [r3, #8]
 80068e6:	683b      	ldr	r3, [r7, #0]
 80068e8:	685a      	ldr	r2, [r3, #4]
 80068ea:	683b      	ldr	r3, [r7, #0]
 80068ec:	68db      	ldr	r3, [r3, #12]
 80068ee:	f000 fab1 	bl	8006e54 <TIM_ETR_SetConfig>
      htim->Instance->SMCR |= TIM_SMCR_ECE;
 80068f2:	687b      	ldr	r3, [r7, #4]
 80068f4:	681b      	ldr	r3, [r3, #0]
 80068f6:	689a      	ldr	r2, [r3, #8]
 80068f8:	687b      	ldr	r3, [r7, #4]
 80068fa:	681b      	ldr	r3, [r3, #0]
 80068fc:	f442 4280 	orr.w	r2, r2, #16384	; 0x4000
 8006900:	609a      	str	r2, [r3, #8]
      break;
 8006902:	e039      	b.n	8006978 <HAL_TIM_ConfigClockSource+0x1ac>
      TIM_TI1_ConfigInputStage(htim->Instance,
 8006904:	687b      	ldr	r3, [r7, #4]
 8006906:	6818      	ldr	r0, [r3, #0]
 8006908:	683b      	ldr	r3, [r7, #0]
 800690a:	6859      	ldr	r1, [r3, #4]
 800690c:	683b      	ldr	r3, [r7, #0]
 800690e:	68db      	ldr	r3, [r3, #12]
 8006910:	461a      	mov	r2, r3
 8006912:	f000 fa23 	bl	8006d5c <TIM_TI1_ConfigInputStage>
      TIM_ITRx_SetConfig(htim->Instance, TIM_CLOCKSOURCE_TI1);
 8006916:	687b      	ldr	r3, [r7, #4]
 8006918:	681b      	ldr	r3, [r3, #0]
 800691a:	2150      	movs	r1, #80	; 0x50
 800691c:	4618      	mov	r0, r3
 800691e:	f000 fa7c 	bl	8006e1a <TIM_ITRx_SetConfig>
      break;
 8006922:	e029      	b.n	8006978 <HAL_TIM_ConfigClockSource+0x1ac>
      TIM_TI2_ConfigInputStage(htim->Instance,
 8006924:	687b      	ldr	r3, [r7, #4]
 8006926:	6818      	ldr	r0, [r3, #0]
 8006928:	683b      	ldr	r3, [r7, #0]
 800692a:	6859      	ldr	r1, [r3, #4]
 800692c:	683b      	ldr	r3, [r7, #0]
 800692e:	68db      	ldr	r3, [r3, #12]
 8006930:	461a      	mov	r2, r3
 8006932:	f000 fa42 	bl	8006dba <TIM_TI2_ConfigInputStage>
      TIM_ITRx_SetConfig(htim->Instance, TIM_CLOCKSOURCE_TI2);
 8006936:	687b      	ldr	r3, [r7, #4]
 8006938:	681b      	ldr	r3, [r3, #0]
 800693a:	2160      	movs	r1, #96	; 0x60
 800693c:	4618      	mov	r0, r3
 800693e:	f000 fa6c 	bl	8006e1a <TIM_ITRx_SetConfig>
      break;
 8006942:	e019      	b.n	8006978 <HAL_TIM_ConfigClockSource+0x1ac>
      TIM_TI1_ConfigInputStage(htim->Instance,
 8006944:	687b      	ldr	r3, [r7, #4]
 8006946:	6818      	ldr	r0, [r3, #0]
 8006948:	683b      	ldr	r3, [r7, #0]
 800694a:	6859      	ldr	r1, [r3, #4]
 800694c:	683b      	ldr	r3, [r7, #0]
 800694e:	68db      	ldr	r3, [r3, #12]
 8006950:	461a      	mov	r2, r3
 8006952:	f000 fa03 	bl	8006d5c <TIM_TI1_ConfigInputStage>
      TIM_ITRx_SetConfig(htim->Instance, TIM_CLOCKSOURCE_TI1ED);
 8006956:	687b      	ldr	r3, [r7, #4]
 8006958:	681b      	ldr	r3, [r3, #0]
 800695a:	2140      	movs	r1, #64	; 0x40
 800695c:	4618      	mov	r0, r3
 800695e:	f000 fa5c 	bl	8006e1a <TIM_ITRx_SetConfig>
      break;
 8006962:	e009      	b.n	8006978 <HAL_TIM_ConfigClockSource+0x1ac>
      TIM_ITRx_SetConfig(htim->Instance, sClockSourceConfig->ClockSource);
 8006964:	687b      	ldr	r3, [r7, #4]
 8006966:	681a      	ldr	r2, [r3, #0]
 8006968:	683b      	ldr	r3, [r7, #0]
 800696a:	681b      	ldr	r3, [r3, #0]
 800696c:	4619      	mov	r1, r3
 800696e:	4610      	mov	r0, r2
 8006970:	f000 fa53 	bl	8006e1a <TIM_ITRx_SetConfig>
      break;
 8006974:	e000      	b.n	8006978 <HAL_TIM_ConfigClockSource+0x1ac>
      break;
 8006976:	bf00      	nop
  }
  htim->State = HAL_TIM_STATE_READY;
 8006978:	687b      	ldr	r3, [r7, #4]
 800697a:	2201      	movs	r2, #1
 800697c:	f883 203d 	strb.w	r2, [r3, #61]	; 0x3d

  __HAL_UNLOCK(htim);
 8006980:	687b      	ldr	r3, [r7, #4]
 8006982:	2200      	movs	r2, #0
 8006984:	f883 203c 	strb.w	r2, [r3, #60]	; 0x3c

  return HAL_OK;
 8006988:	2300      	movs	r3, #0
}
 800698a:	4618      	mov	r0, r3
 800698c:	3710      	adds	r7, #16
 800698e:	46bd      	mov	sp, r7
 8006990:	bd80      	pop	{r7, pc}
 8006992:	bf00      	nop
 8006994:	00100030 	.word	0x00100030
 8006998:	00100020 	.word	0x00100020
 800699c:	00100050 	.word	0x00100050
 80069a0:	00100040 	.word	0x00100040
 80069a4:	00100060 	.word	0x00100060
 80069a8:	00100070 	.word	0x00100070

080069ac <HAL_TIM_SlaveConfigSynchro>:
  *         timer input or external trigger input) and the Slave mode
  *         (Disable, Reset, Gated, Trigger, External clock mode 1, Reset + Trigger, Gated + Reset).
  * @retval HAL status
  */
HAL_StatusTypeDef HAL_TIM_SlaveConfigSynchro(TIM_HandleTypeDef *htim, TIM_SlaveConfigTypeDef *sSlaveConfig)
{
 80069ac:	b580      	push	{r7, lr}
 80069ae:	b082      	sub	sp, #8
 80069b0:	af00      	add	r7, sp, #0
 80069b2:	6078      	str	r0, [r7, #4]
 80069b4:	6039      	str	r1, [r7, #0]
  /* Check the parameters */
  assert_param(IS_TIM_SLAVE_INSTANCE(htim->Instance));
  assert_param(IS_TIM_SLAVE_MODE(sSlaveConfig->SlaveMode));
  assert_param(IS_TIM_TRIGGER_INSTANCE(htim->Instance, sSlaveConfig->InputTrigger));

  __HAL_LOCK(htim);
 80069b6:	687b      	ldr	r3, [r7, #4]
 80069b8:	f893 303c 	ldrb.w	r3, [r3, #60]	; 0x3c
 80069bc:	2b01      	cmp	r3, #1
 80069be:	d101      	bne.n	80069c4 <HAL_TIM_SlaveConfigSynchro+0x18>
 80069c0:	2302      	movs	r3, #2
 80069c2:	e031      	b.n	8006a28 <HAL_TIM_SlaveConfigSynchro+0x7c>
 80069c4:	687b      	ldr	r3, [r7, #4]
 80069c6:	2201      	movs	r2, #1
 80069c8:	f883 203c 	strb.w	r2, [r3, #60]	; 0x3c

  htim->State = HAL_TIM_STATE_BUSY;
 80069cc:	687b      	ldr	r3, [r7, #4]
 80069ce:	2202      	movs	r2, #2
 80069d0:	f883 203d 	strb.w	r2, [r3, #61]	; 0x3d

  if (TIM_SlaveTimer_SetConfig(htim, sSlaveConfig) != HAL_OK)
 80069d4:	6839      	ldr	r1, [r7, #0]
 80069d6:	6878      	ldr	r0, [r7, #4]
 80069d8:	f000 f904 	bl	8006be4 <TIM_SlaveTimer_SetConfig>
 80069dc:	4603      	mov	r3, r0
 80069de:	2b00      	cmp	r3, #0
 80069e0:	d009      	beq.n	80069f6 <HAL_TIM_SlaveConfigSynchro+0x4a>
  {
    htim->State = HAL_TIM_STATE_READY;
 80069e2:	687b      	ldr	r3, [r7, #4]
 80069e4:	2201      	movs	r2, #1
 80069e6:	f883 203d 	strb.w	r2, [r3, #61]	; 0x3d
    __HAL_UNLOCK(htim);
 80069ea:	687b      	ldr	r3, [r7, #4]
 80069ec:	2200      	movs	r2, #0
 80069ee:	f883 203c 	strb.w	r2, [r3, #60]	; 0x3c
    return HAL_ERROR;
 80069f2:	2301      	movs	r3, #1
 80069f4:	e018      	b.n	8006a28 <HAL_TIM_SlaveConfigSynchro+0x7c>
  }

  /* Disable Trigger Interrupt */
  __HAL_TIM_DISABLE_IT(htim, TIM_IT_TRIGGER);
 80069f6:	687b      	ldr	r3, [r7, #4]
 80069f8:	681b      	ldr	r3, [r3, #0]
 80069fa:	68da      	ldr	r2, [r3, #12]
 80069fc:	687b      	ldr	r3, [r7, #4]
 80069fe:	681b      	ldr	r3, [r3, #0]
 8006a00:	f022 0240 	bic.w	r2, r2, #64	; 0x40
 8006a04:	60da      	str	r2, [r3, #12]

  /* Disable Trigger DMA request */
  __HAL_TIM_DISABLE_DMA(htim, TIM_DMA_TRIGGER);
 8006a06:	687b      	ldr	r3, [r7, #4]
 8006a08:	681b      	ldr	r3, [r3, #0]
 8006a0a:	68da      	ldr	r2, [r3, #12]
 8006a0c:	687b      	ldr	r3, [r7, #4]
 8006a0e:	681b      	ldr	r3, [r3, #0]
 8006a10:	f422 4280 	bic.w	r2, r2, #16384	; 0x4000
 8006a14:	60da      	str	r2, [r3, #12]

  htim->State = HAL_TIM_STATE_READY;
 8006a16:	687b      	ldr	r3, [r7, #4]
 8006a18:	2201      	movs	r2, #1
 8006a1a:	f883 203d 	strb.w	r2, [r3, #61]	; 0x3d

  __HAL_UNLOCK(htim);
 8006a1e:	687b      	ldr	r3, [r7, #4]
 8006a20:	2200      	movs	r2, #0
 8006a22:	f883 203c 	strb.w	r2, [r3, #60]	; 0x3c

  return HAL_OK;
 8006a26:	2300      	movs	r3, #0
}
 8006a28:	4618      	mov	r0, r3
 8006a2a:	3708      	adds	r7, #8
 8006a2c:	46bd      	mov	sp, r7
 8006a2e:	bd80      	pop	{r7, pc}

08006a30 <HAL_TIM_PeriodElapsedCallback>:
  * @brief  Period elapsed callback in non-blocking mode
  * @param  htim TIM handle
  * @retval None
  */
__weak void HAL_TIM_PeriodElapsedCallback(TIM_HandleTypeDef *htim)
{
 8006a30:	b480      	push	{r7}
 8006a32:	b083      	sub	sp, #12
 8006a34:	af00      	add	r7, sp, #0
 8006a36:	6078      	str	r0, [r7, #4]
  UNUSED(htim);

  /* NOTE : This function should not be modified, when the callback is needed,
            the HAL_TIM_PeriodElapsedCallback could be implemented in the user file
   */
}
 8006a38:	bf00      	nop
 8006a3a:	370c      	adds	r7, #12
 8006a3c:	46bd      	mov	sp, r7
 8006a3e:	f85d 7b04 	ldr.w	r7, [sp], #4
 8006a42:	4770      	bx	lr

08006a44 <HAL_TIM_OC_DelayElapsedCallback>:
  * @brief  Output Compare callback in non-blocking mode
  * @param  htim TIM OC handle
  * @retval None
  */
__weak void HAL_TIM_OC_DelayElapsedCallback(TIM_HandleTypeDef *htim)
{
 8006a44:	b480      	push	{r7}
 8006a46:	b083      	sub	sp, #12
 8006a48:	af00      	add	r7, sp, #0
 8006a4a:	6078      	str	r0, [r7, #4]
  UNUSED(htim);

  /* NOTE : This function should not be modified, when the callback is needed,
            the HAL_TIM_OC_DelayElapsedCallback could be implemented in the user file
   */
}
 8006a4c:	bf00      	nop
 8006a4e:	370c      	adds	r7, #12
 8006a50:	46bd      	mov	sp, r7
 8006a52:	f85d 7b04 	ldr.w	r7, [sp], #4
 8006a56:	4770      	bx	lr

08006a58 <HAL_TIM_IC_CaptureCallback>:
  * @brief  Input Capture callback in non-blocking mode
  * @param  htim TIM IC handle
  * @retval None
  */
__weak void HAL_TIM_IC_CaptureCallback(TIM_HandleTypeDef *htim)
{
 8006a58:	b480      	push	{r7}
 8006a5a:	b083      	sub	sp, #12
 8006a5c:	af00      	add	r7, sp, #0
 8006a5e:	6078      	str	r0, [r7, #4]
  UNUSED(htim);

  /* NOTE : This function should not be modified, when the callback is needed,
            the HAL_TIM_IC_CaptureCallback could be implemented in the user file
   */
}
 8006a60:	bf00      	nop
 8006a62:	370c      	adds	r7, #12
 8006a64:	46bd      	mov	sp, r7
 8006a66:	f85d 7b04 	ldr.w	r7, [sp], #4
 8006a6a:	4770      	bx	lr

08006a6c <HAL_TIM_PWM_PulseFinishedCallback>:
  * @brief  PWM Pulse finished callback in non-blocking mode
  * @param  htim TIM handle
  * @retval None
  */
__weak void HAL_TIM_PWM_PulseFinishedCallback(TIM_HandleTypeDef *htim)
{
 8006a6c:	b480      	push	{r7}
 8006a6e:	b083      	sub	sp, #12
 8006a70:	af00      	add	r7, sp, #0
 8006a72:	6078      	str	r0, [r7, #4]
  UNUSED(htim);

  /* NOTE : This function should not be modified, when the callback is needed,
            the HAL_TIM_PWM_PulseFinishedCallback could be implemented in the user file
   */
}
 8006a74:	bf00      	nop
 8006a76:	370c      	adds	r7, #12
 8006a78:	46bd      	mov	sp, r7
 8006a7a:	f85d 7b04 	ldr.w	r7, [sp], #4
 8006a7e:	4770      	bx	lr

08006a80 <HAL_TIM_TriggerCallback>:
  * @brief  Hall Trigger detection callback in non-blocking mode
  * @param  htim TIM handle
  * @retval None
  */
__weak void HAL_TIM_TriggerCallback(TIM_HandleTypeDef *htim)
{
 8006a80:	b480      	push	{r7}
 8006a82:	b083      	sub	sp, #12
 8006a84:	af00      	add	r7, sp, #0
 8006a86:	6078      	str	r0, [r7, #4]
  UNUSED(htim);

  /* NOTE : This function should not be modified, when the callback is needed,
            the HAL_TIM_TriggerCallback could be implemented in the user file
   */
}
 8006a88:	bf00      	nop
 8006a8a:	370c      	adds	r7, #12
 8006a8c:	46bd      	mov	sp, r7
 8006a8e:	f85d 7b04 	ldr.w	r7, [sp], #4
 8006a92:	4770      	bx	lr

08006a94 <TIM_Base_SetConfig>:
  * @param  TIMx TIM peripheral
  * @param  Structure TIM Base configuration structure
  * @retval None
  */
void TIM_Base_SetConfig(TIM_TypeDef *TIMx, TIM_Base_InitTypeDef *Structure)
{
 8006a94:	b480      	push	{r7}
 8006a96:	b085      	sub	sp, #20
 8006a98:	af00      	add	r7, sp, #0
 8006a9a:	6078      	str	r0, [r7, #4]
 8006a9c:	6039      	str	r1, [r7, #0]
  uint32_t tmpcr1;
  tmpcr1 = TIMx->CR1;
 8006a9e:	687b      	ldr	r3, [r7, #4]
 8006aa0:	681b      	ldr	r3, [r3, #0]
 8006aa2:	60fb      	str	r3, [r7, #12]

  /* Set TIM Time Base Unit parameters ---------------------------------------*/
  if (IS_TIM_COUNTER_MODE_SELECT_INSTANCE(TIMx))
 8006aa4:	687b      	ldr	r3, [r7, #4]
 8006aa6:	4a46      	ldr	r2, [pc, #280]	; (8006bc0 <TIM_Base_SetConfig+0x12c>)
 8006aa8:	4293      	cmp	r3, r2
 8006aaa:	d017      	beq.n	8006adc <TIM_Base_SetConfig+0x48>
 8006aac:	687b      	ldr	r3, [r7, #4]
 8006aae:	f1b3 4f80 	cmp.w	r3, #1073741824	; 0x40000000
 8006ab2:	d013      	beq.n	8006adc <TIM_Base_SetConfig+0x48>
 8006ab4:	687b      	ldr	r3, [r7, #4]
 8006ab6:	4a43      	ldr	r2, [pc, #268]	; (8006bc4 <TIM_Base_SetConfig+0x130>)
 8006ab8:	4293      	cmp	r3, r2
 8006aba:	d00f      	beq.n	8006adc <TIM_Base_SetConfig+0x48>
 8006abc:	687b      	ldr	r3, [r7, #4]
 8006abe:	4a42      	ldr	r2, [pc, #264]	; (8006bc8 <TIM_Base_SetConfig+0x134>)
 8006ac0:	4293      	cmp	r3, r2
 8006ac2:	d00b      	beq.n	8006adc <TIM_Base_SetConfig+0x48>
 8006ac4:	687b      	ldr	r3, [r7, #4]
 8006ac6:	4a41      	ldr	r2, [pc, #260]	; (8006bcc <TIM_Base_SetConfig+0x138>)
 8006ac8:	4293      	cmp	r3, r2
 8006aca:	d007      	beq.n	8006adc <TIM_Base_SetConfig+0x48>
 8006acc:	687b      	ldr	r3, [r7, #4]
 8006ace:	4a40      	ldr	r2, [pc, #256]	; (8006bd0 <TIM_Base_SetConfig+0x13c>)
 8006ad0:	4293      	cmp	r3, r2
 8006ad2:	d003      	beq.n	8006adc <TIM_Base_SetConfig+0x48>
 8006ad4:	687b      	ldr	r3, [r7, #4]
 8006ad6:	4a3f      	ldr	r2, [pc, #252]	; (8006bd4 <TIM_Base_SetConfig+0x140>)
 8006ad8:	4293      	cmp	r3, r2
 8006ada:	d108      	bne.n	8006aee <TIM_Base_SetConfig+0x5a>
  {
    /* Select the Counter Mode */
    tmpcr1 &= ~(TIM_CR1_DIR | TIM_CR1_CMS);
 8006adc:	68fb      	ldr	r3, [r7, #12]
 8006ade:	f023 0370 	bic.w	r3, r3, #112	; 0x70
 8006ae2:	60fb      	str	r3, [r7, #12]
    tmpcr1 |= Structure->CounterMode;
 8006ae4:	683b      	ldr	r3, [r7, #0]
 8006ae6:	685b      	ldr	r3, [r3, #4]
 8006ae8:	68fa      	ldr	r2, [r7, #12]
 8006aea:	4313      	orrs	r3, r2
 8006aec:	60fb      	str	r3, [r7, #12]
  }

  if (IS_TIM_CLOCK_DIVISION_INSTANCE(TIMx))
 8006aee:	687b      	ldr	r3, [r7, #4]
 8006af0:	4a33      	ldr	r2, [pc, #204]	; (8006bc0 <TIM_Base_SetConfig+0x12c>)
 8006af2:	4293      	cmp	r3, r2
 8006af4:	d023      	beq.n	8006b3e <TIM_Base_SetConfig+0xaa>
 8006af6:	687b      	ldr	r3, [r7, #4]
 8006af8:	f1b3 4f80 	cmp.w	r3, #1073741824	; 0x40000000
 8006afc:	d01f      	beq.n	8006b3e <TIM_Base_SetConfig+0xaa>
 8006afe:	687b      	ldr	r3, [r7, #4]
 8006b00:	4a30      	ldr	r2, [pc, #192]	; (8006bc4 <TIM_Base_SetConfig+0x130>)
 8006b02:	4293      	cmp	r3, r2
 8006b04:	d01b      	beq.n	8006b3e <TIM_Base_SetConfig+0xaa>
 8006b06:	687b      	ldr	r3, [r7, #4]
 8006b08:	4a2f      	ldr	r2, [pc, #188]	; (8006bc8 <TIM_Base_SetConfig+0x134>)
 8006b0a:	4293      	cmp	r3, r2
 8006b0c:	d017      	beq.n	8006b3e <TIM_Base_SetConfig+0xaa>
 8006b0e:	687b      	ldr	r3, [r7, #4]
 8006b10:	4a2e      	ldr	r2, [pc, #184]	; (8006bcc <TIM_Base_SetConfig+0x138>)
 8006b12:	4293      	cmp	r3, r2
 8006b14:	d013      	beq.n	8006b3e <TIM_Base_SetConfig+0xaa>
 8006b16:	687b      	ldr	r3, [r7, #4]
 8006b18:	4a2d      	ldr	r2, [pc, #180]	; (8006bd0 <TIM_Base_SetConfig+0x13c>)
 8006b1a:	4293      	cmp	r3, r2
 8006b1c:	d00f      	beq.n	8006b3e <TIM_Base_SetConfig+0xaa>
 8006b1e:	687b      	ldr	r3, [r7, #4]
 8006b20:	4a2d      	ldr	r2, [pc, #180]	; (8006bd8 <TIM_Base_SetConfig+0x144>)
 8006b22:	4293      	cmp	r3, r2
 8006b24:	d00b      	beq.n	8006b3e <TIM_Base_SetConfig+0xaa>
 8006b26:	687b      	ldr	r3, [r7, #4]
 8006b28:	4a2c      	ldr	r2, [pc, #176]	; (8006bdc <TIM_Base_SetConfig+0x148>)
 8006b2a:	4293      	cmp	r3, r2
 8006b2c:	d007      	beq.n	8006b3e <TIM_Base_SetConfig+0xaa>
 8006b2e:	687b      	ldr	r3, [r7, #4]
 8006b30:	4a2b      	ldr	r2, [pc, #172]	; (8006be0 <TIM_Base_SetConfig+0x14c>)
 8006b32:	4293      	cmp	r3, r2
 8006b34:	d003      	beq.n	8006b3e <TIM_Base_SetConfig+0xaa>
 8006b36:	687b      	ldr	r3, [r7, #4]
 8006b38:	4a26      	ldr	r2, [pc, #152]	; (8006bd4 <TIM_Base_SetConfig+0x140>)
 8006b3a:	4293      	cmp	r3, r2
 8006b3c:	d108      	bne.n	8006b50 <TIM_Base_SetConfig+0xbc>
  {
    /* Set the clock division */
    tmpcr1 &= ~TIM_CR1_CKD;
 8006b3e:	68fb      	ldr	r3, [r7, #12]
 8006b40:	f423 7340 	bic.w	r3, r3, #768	; 0x300
 8006b44:	60fb      	str	r3, [r7, #12]
    tmpcr1 |= (uint32_t)Structure->ClockDivision;
 8006b46:	683b      	ldr	r3, [r7, #0]
 8006b48:	68db      	ldr	r3, [r3, #12]
 8006b4a:	68fa      	ldr	r2, [r7, #12]
 8006b4c:	4313      	orrs	r3, r2
 8006b4e:	60fb      	str	r3, [r7, #12]
  }

  /* Set the auto-reload preload */
  MODIFY_REG(tmpcr1, TIM_CR1_ARPE, Structure->AutoReloadPreload);
 8006b50:	68fb      	ldr	r3, [r7, #12]
 8006b52:	f023 0280 	bic.w	r2, r3, #128	; 0x80
 8006b56:	683b      	ldr	r3, [r7, #0]
 8006b58:	695b      	ldr	r3, [r3, #20]
 8006b5a:	4313      	orrs	r3, r2
 8006b5c:	60fb      	str	r3, [r7, #12]

  TIMx->CR1 = tmpcr1;
 8006b5e:	687b      	ldr	r3, [r7, #4]
 8006b60:	68fa      	ldr	r2, [r7, #12]
 8006b62:	601a      	str	r2, [r3, #0]

  /* Set the Autoreload value */
  TIMx->ARR = (uint32_t)Structure->Period ;
 8006b64:	683b      	ldr	r3, [r7, #0]
 8006b66:	689a      	ldr	r2, [r3, #8]
 8006b68:	687b      	ldr	r3, [r7, #4]
 8006b6a:	62da      	str	r2, [r3, #44]	; 0x2c

  /* Set the Prescaler value */
  TIMx->PSC = Structure->Prescaler;
 8006b6c:	683b      	ldr	r3, [r7, #0]
 8006b6e:	681a      	ldr	r2, [r3, #0]
 8006b70:	687b      	ldr	r3, [r7, #4]
 8006b72:	629a      	str	r2, [r3, #40]	; 0x28

  if (IS_TIM_REPETITION_COUNTER_INSTANCE(TIMx))
 8006b74:	687b      	ldr	r3, [r7, #4]
 8006b76:	4a12      	ldr	r2, [pc, #72]	; (8006bc0 <TIM_Base_SetConfig+0x12c>)
 8006b78:	4293      	cmp	r3, r2
 8006b7a:	d013      	beq.n	8006ba4 <TIM_Base_SetConfig+0x110>
 8006b7c:	687b      	ldr	r3, [r7, #4]
 8006b7e:	4a14      	ldr	r2, [pc, #80]	; (8006bd0 <TIM_Base_SetConfig+0x13c>)
 8006b80:	4293      	cmp	r3, r2
 8006b82:	d00f      	beq.n	8006ba4 <TIM_Base_SetConfig+0x110>
 8006b84:	687b      	ldr	r3, [r7, #4]
 8006b86:	4a14      	ldr	r2, [pc, #80]	; (8006bd8 <TIM_Base_SetConfig+0x144>)
 8006b88:	4293      	cmp	r3, r2
 8006b8a:	d00b      	beq.n	8006ba4 <TIM_Base_SetConfig+0x110>
 8006b8c:	687b      	ldr	r3, [r7, #4]
 8006b8e:	4a13      	ldr	r2, [pc, #76]	; (8006bdc <TIM_Base_SetConfig+0x148>)
 8006b90:	4293      	cmp	r3, r2
 8006b92:	d007      	beq.n	8006ba4 <TIM_Base_SetConfig+0x110>
 8006b94:	687b      	ldr	r3, [r7, #4]
 8006b96:	4a12      	ldr	r2, [pc, #72]	; (8006be0 <TIM_Base_SetConfig+0x14c>)
 8006b98:	4293      	cmp	r3, r2
 8006b9a:	d003      	beq.n	8006ba4 <TIM_Base_SetConfig+0x110>
 8006b9c:	687b      	ldr	r3, [r7, #4]
 8006b9e:	4a0d      	ldr	r2, [pc, #52]	; (8006bd4 <TIM_Base_SetConfig+0x140>)
 8006ba0:	4293      	cmp	r3, r2
 8006ba2:	d103      	bne.n	8006bac <TIM_Base_SetConfig+0x118>
  {
    /* Set the Repetition Counter value */
    TIMx->RCR = Structure->RepetitionCounter;
 8006ba4:	683b      	ldr	r3, [r7, #0]
 8006ba6:	691a      	ldr	r2, [r3, #16]
 8006ba8:	687b      	ldr	r3, [r7, #4]
 8006baa:	631a      	str	r2, [r3, #48]	; 0x30
  }

  /* Generate an update event to reload the Prescaler
     and the repetition counter (only for advanced timer) value immediately */
  TIMx->EGR = TIM_EGR_UG;
 8006bac:	687b      	ldr	r3, [r7, #4]
 8006bae:	2201      	movs	r2, #1
 8006bb0:	615a      	str	r2, [r3, #20]
}
 8006bb2:	bf00      	nop
 8006bb4:	3714      	adds	r7, #20
 8006bb6:	46bd      	mov	sp, r7
 8006bb8:	f85d 7b04 	ldr.w	r7, [sp], #4
 8006bbc:	4770      	bx	lr
 8006bbe:	bf00      	nop
 8006bc0:	40012c00 	.word	0x40012c00
 8006bc4:	40000400 	.word	0x40000400
 8006bc8:	40000800 	.word	0x40000800
 8006bcc:	40000c00 	.word	0x40000c00
 8006bd0:	40013400 	.word	0x40013400
 8006bd4:	40015000 	.word	0x40015000
 8006bd8:	40014000 	.word	0x40014000
 8006bdc:	40014400 	.word	0x40014400
 8006be0:	40014800 	.word	0x40014800

08006be4 <TIM_SlaveTimer_SetConfig>:
  * @param  sSlaveConfig Slave timer configuration
  * @retval None
  */
static HAL_StatusTypeDef TIM_SlaveTimer_SetConfig(TIM_HandleTypeDef *htim,
                                                  TIM_SlaveConfigTypeDef *sSlaveConfig)
{
 8006be4:	b580      	push	{r7, lr}
 8006be6:	b086      	sub	sp, #24
 8006be8:	af00      	add	r7, sp, #0
 8006bea:	6078      	str	r0, [r7, #4]
 8006bec:	6039      	str	r1, [r7, #0]
  uint32_t tmpsmcr;
  uint32_t tmpccmr1;
  uint32_t tmpccer;

  /* Get the TIMx SMCR register value */
  tmpsmcr = htim->Instance->SMCR;
 8006bee:	687b      	ldr	r3, [r7, #4]
 8006bf0:	681b      	ldr	r3, [r3, #0]
 8006bf2:	689b      	ldr	r3, [r3, #8]
 8006bf4:	617b      	str	r3, [r7, #20]

  /* Reset the Trigger Selection Bits */
  tmpsmcr &= ~TIM_SMCR_TS;
 8006bf6:	697b      	ldr	r3, [r7, #20]
 8006bf8:	f423 1340 	bic.w	r3, r3, #3145728	; 0x300000
 8006bfc:	f023 0370 	bic.w	r3, r3, #112	; 0x70
 8006c00:	617b      	str	r3, [r7, #20]
  /* Set the Input Trigger source */
  tmpsmcr |= sSlaveConfig->InputTrigger;
 8006c02:	683b      	ldr	r3, [r7, #0]
 8006c04:	685b      	ldr	r3, [r3, #4]
 8006c06:	697a      	ldr	r2, [r7, #20]
 8006c08:	4313      	orrs	r3, r2
 8006c0a:	617b      	str	r3, [r7, #20]

  /* Reset the slave mode Bits */
  tmpsmcr &= ~TIM_SMCR_SMS;
 8006c0c:	697b      	ldr	r3, [r7, #20]
 8006c0e:	f423 3380 	bic.w	r3, r3, #65536	; 0x10000
 8006c12:	f023 0307 	bic.w	r3, r3, #7
 8006c16:	617b      	str	r3, [r7, #20]
  /* Set the slave mode */
  tmpsmcr |= sSlaveConfig->SlaveMode;
 8006c18:	683b      	ldr	r3, [r7, #0]
 8006c1a:	681b      	ldr	r3, [r3, #0]
 8006c1c:	697a      	ldr	r2, [r7, #20]
 8006c1e:	4313      	orrs	r3, r2
 8006c20:	617b      	str	r3, [r7, #20]

  /* Write to TIMx SMCR */
  htim->Instance->SMCR = tmpsmcr;
 8006c22:	687b      	ldr	r3, [r7, #4]
 8006c24:	681b      	ldr	r3, [r3, #0]
 8006c26:	697a      	ldr	r2, [r7, #20]
 8006c28:	609a      	str	r2, [r3, #8]

  /* Configure the trigger prescaler, filter, and polarity */
  switch (sSlaveConfig->InputTrigger)
 8006c2a:	683b      	ldr	r3, [r7, #0]
 8006c2c:	685b      	ldr	r3, [r3, #4]
 8006c2e:	2b70      	cmp	r3, #112	; 0x70
 8006c30:	d034      	beq.n	8006c9c <TIM_SlaveTimer_SetConfig+0xb8>
 8006c32:	2b70      	cmp	r3, #112	; 0x70
 8006c34:	d811      	bhi.n	8006c5a <TIM_SlaveTimer_SetConfig+0x76>
 8006c36:	2b30      	cmp	r3, #48	; 0x30
 8006c38:	d07d      	beq.n	8006d36 <TIM_SlaveTimer_SetConfig+0x152>
 8006c3a:	2b30      	cmp	r3, #48	; 0x30
 8006c3c:	d806      	bhi.n	8006c4c <TIM_SlaveTimer_SetConfig+0x68>
 8006c3e:	2b10      	cmp	r3, #16
 8006c40:	d079      	beq.n	8006d36 <TIM_SlaveTimer_SetConfig+0x152>
 8006c42:	2b20      	cmp	r3, #32
 8006c44:	d077      	beq.n	8006d36 <TIM_SlaveTimer_SetConfig+0x152>
 8006c46:	2b00      	cmp	r3, #0
 8006c48:	d075      	beq.n	8006d36 <TIM_SlaveTimer_SetConfig+0x152>
      assert_param(IS_TIM_INTERNAL_TRIGGEREVENT_INSTANCE((htim->Instance), sSlaveConfig->InputTrigger));
      break;
    }

    default:
      break;
 8006c4a:	e075      	b.n	8006d38 <TIM_SlaveTimer_SetConfig+0x154>
  switch (sSlaveConfig->InputTrigger)
 8006c4c:	2b50      	cmp	r3, #80	; 0x50
 8006c4e:	d05e      	beq.n	8006d0e <TIM_SlaveTimer_SetConfig+0x12a>
 8006c50:	2b60      	cmp	r3, #96	; 0x60
 8006c52:	d066      	beq.n	8006d22 <TIM_SlaveTimer_SetConfig+0x13e>
 8006c54:	2b40      	cmp	r3, #64	; 0x40
 8006c56:	d02c      	beq.n	8006cb2 <TIM_SlaveTimer_SetConfig+0xce>
      break;
 8006c58:	e06e      	b.n	8006d38 <TIM_SlaveTimer_SetConfig+0x154>
  switch (sSlaveConfig->InputTrigger)
 8006c5a:	4a3a      	ldr	r2, [pc, #232]	; (8006d44 <TIM_SlaveTimer_SetConfig+0x160>)
 8006c5c:	4293      	cmp	r3, r2
 8006c5e:	d06a      	beq.n	8006d36 <TIM_SlaveTimer_SetConfig+0x152>
 8006c60:	4a38      	ldr	r2, [pc, #224]	; (8006d44 <TIM_SlaveTimer_SetConfig+0x160>)
 8006c62:	4293      	cmp	r3, r2
 8006c64:	d809      	bhi.n	8006c7a <TIM_SlaveTimer_SetConfig+0x96>
 8006c66:	f1b3 1f10 	cmp.w	r3, #1048592	; 0x100010
 8006c6a:	d064      	beq.n	8006d36 <TIM_SlaveTimer_SetConfig+0x152>
 8006c6c:	4a36      	ldr	r2, [pc, #216]	; (8006d48 <TIM_SlaveTimer_SetConfig+0x164>)
 8006c6e:	4293      	cmp	r3, r2
 8006c70:	d061      	beq.n	8006d36 <TIM_SlaveTimer_SetConfig+0x152>
 8006c72:	f5b3 1f80 	cmp.w	r3, #1048576	; 0x100000
 8006c76:	d05e      	beq.n	8006d36 <TIM_SlaveTimer_SetConfig+0x152>
      break;
 8006c78:	e05e      	b.n	8006d38 <TIM_SlaveTimer_SetConfig+0x154>
  switch (sSlaveConfig->InputTrigger)
 8006c7a:	4a34      	ldr	r2, [pc, #208]	; (8006d4c <TIM_SlaveTimer_SetConfig+0x168>)
 8006c7c:	4293      	cmp	r3, r2
 8006c7e:	d05a      	beq.n	8006d36 <TIM_SlaveTimer_SetConfig+0x152>
 8006c80:	4a32      	ldr	r2, [pc, #200]	; (8006d4c <TIM_SlaveTimer_SetConfig+0x168>)
 8006c82:	4293      	cmp	r3, r2
 8006c84:	d803      	bhi.n	8006c8e <TIM_SlaveTimer_SetConfig+0xaa>
 8006c86:	4a32      	ldr	r2, [pc, #200]	; (8006d50 <TIM_SlaveTimer_SetConfig+0x16c>)
 8006c88:	4293      	cmp	r3, r2
 8006c8a:	d054      	beq.n	8006d36 <TIM_SlaveTimer_SetConfig+0x152>
      break;
 8006c8c:	e054      	b.n	8006d38 <TIM_SlaveTimer_SetConfig+0x154>
  switch (sSlaveConfig->InputTrigger)
 8006c8e:	4a31      	ldr	r2, [pc, #196]	; (8006d54 <TIM_SlaveTimer_SetConfig+0x170>)
 8006c90:	4293      	cmp	r3, r2
 8006c92:	d050      	beq.n	8006d36 <TIM_SlaveTimer_SetConfig+0x152>
 8006c94:	4a30      	ldr	r2, [pc, #192]	; (8006d58 <TIM_SlaveTimer_SetConfig+0x174>)
 8006c96:	4293      	cmp	r3, r2
 8006c98:	d04d      	beq.n	8006d36 <TIM_SlaveTimer_SetConfig+0x152>
      break;
 8006c9a:	e04d      	b.n	8006d38 <TIM_SlaveTimer_SetConfig+0x154>
      TIM_ETR_SetConfig(htim->Instance,
 8006c9c:	687b      	ldr	r3, [r7, #4]
 8006c9e:	6818      	ldr	r0, [r3, #0]
 8006ca0:	683b      	ldr	r3, [r7, #0]
 8006ca2:	68d9      	ldr	r1, [r3, #12]
 8006ca4:	683b      	ldr	r3, [r7, #0]
 8006ca6:	689a      	ldr	r2, [r3, #8]
 8006ca8:	683b      	ldr	r3, [r7, #0]
 8006caa:	691b      	ldr	r3, [r3, #16]
 8006cac:	f000 f8d2 	bl	8006e54 <TIM_ETR_SetConfig>
      break;
 8006cb0:	e042      	b.n	8006d38 <TIM_SlaveTimer_SetConfig+0x154>
      if ((sSlaveConfig->SlaveMode == TIM_SLAVEMODE_GATED) || (sSlaveConfig->SlaveMode == TIM_SLAVEMODE_COMBINED_GATEDRESET))
 8006cb2:	683b      	ldr	r3, [r7, #0]
 8006cb4:	681b      	ldr	r3, [r3, #0]
 8006cb6:	2b05      	cmp	r3, #5
 8006cb8:	d004      	beq.n	8006cc4 <TIM_SlaveTimer_SetConfig+0xe0>
 8006cba:	683b      	ldr	r3, [r7, #0]
 8006cbc:	681b      	ldr	r3, [r3, #0]
 8006cbe:	f1b3 1f01 	cmp.w	r3, #65537	; 0x10001
 8006cc2:	d101      	bne.n	8006cc8 <TIM_SlaveTimer_SetConfig+0xe4>
        return HAL_ERROR;
 8006cc4:	2301      	movs	r3, #1
 8006cc6:	e038      	b.n	8006d3a <TIM_SlaveTimer_SetConfig+0x156>
      tmpccer = htim->Instance->CCER;
 8006cc8:	687b      	ldr	r3, [r7, #4]
 8006cca:	681b      	ldr	r3, [r3, #0]
 8006ccc:	6a1b      	ldr	r3, [r3, #32]
 8006cce:	613b      	str	r3, [r7, #16]
      htim->Instance->CCER &= ~TIM_CCER_CC1E;
 8006cd0:	687b      	ldr	r3, [r7, #4]
 8006cd2:	681b      	ldr	r3, [r3, #0]
 8006cd4:	6a1a      	ldr	r2, [r3, #32]
 8006cd6:	687b      	ldr	r3, [r7, #4]
 8006cd8:	681b      	ldr	r3, [r3, #0]
 8006cda:	f022 0201 	bic.w	r2, r2, #1
 8006cde:	621a      	str	r2, [r3, #32]
      tmpccmr1 = htim->Instance->CCMR1;
 8006ce0:	687b      	ldr	r3, [r7, #4]
 8006ce2:	681b      	ldr	r3, [r3, #0]
 8006ce4:	699b      	ldr	r3, [r3, #24]
 8006ce6:	60fb      	str	r3, [r7, #12]
      tmpccmr1 &= ~TIM_CCMR1_IC1F;
 8006ce8:	68fb      	ldr	r3, [r7, #12]
 8006cea:	f023 03f0 	bic.w	r3, r3, #240	; 0xf0
 8006cee:	60fb      	str	r3, [r7, #12]
      tmpccmr1 |= ((sSlaveConfig->TriggerFilter) << 4U);
 8006cf0:	683b      	ldr	r3, [r7, #0]
 8006cf2:	691b      	ldr	r3, [r3, #16]
 8006cf4:	011b      	lsls	r3, r3, #4
 8006cf6:	68fa      	ldr	r2, [r7, #12]
 8006cf8:	4313      	orrs	r3, r2
 8006cfa:	60fb      	str	r3, [r7, #12]
      htim->Instance->CCMR1 = tmpccmr1;
 8006cfc:	687b      	ldr	r3, [r7, #4]
 8006cfe:	681b      	ldr	r3, [r3, #0]
 8006d00:	68fa      	ldr	r2, [r7, #12]
 8006d02:	619a      	str	r2, [r3, #24]
      htim->Instance->CCER = tmpccer;
 8006d04:	687b      	ldr	r3, [r7, #4]
 8006d06:	681b      	ldr	r3, [r3, #0]
 8006d08:	693a      	ldr	r2, [r7, #16]
 8006d0a:	621a      	str	r2, [r3, #32]
      break;
 8006d0c:	e014      	b.n	8006d38 <TIM_SlaveTimer_SetConfig+0x154>
      TIM_TI1_ConfigInputStage(htim->Instance,
 8006d0e:	687b      	ldr	r3, [r7, #4]
 8006d10:	6818      	ldr	r0, [r3, #0]
 8006d12:	683b      	ldr	r3, [r7, #0]
 8006d14:	6899      	ldr	r1, [r3, #8]
 8006d16:	683b      	ldr	r3, [r7, #0]
 8006d18:	691b      	ldr	r3, [r3, #16]
 8006d1a:	461a      	mov	r2, r3
 8006d1c:	f000 f81e 	bl	8006d5c <TIM_TI1_ConfigInputStage>
      break;
 8006d20:	e00a      	b.n	8006d38 <TIM_SlaveTimer_SetConfig+0x154>
      TIM_TI2_ConfigInputStage(htim->Instance,
 8006d22:	687b      	ldr	r3, [r7, #4]
 8006d24:	6818      	ldr	r0, [r3, #0]
 8006d26:	683b      	ldr	r3, [r7, #0]
 8006d28:	6899      	ldr	r1, [r3, #8]
 8006d2a:	683b      	ldr	r3, [r7, #0]
 8006d2c:	691b      	ldr	r3, [r3, #16]
 8006d2e:	461a      	mov	r2, r3
 8006d30:	f000 f843 	bl	8006dba <TIM_TI2_ConfigInputStage>
      break;
 8006d34:	e000      	b.n	8006d38 <TIM_SlaveTimer_SetConfig+0x154>
      break;
 8006d36:	bf00      	nop
  }
  return HAL_OK;
 8006d38:	2300      	movs	r3, #0
}
 8006d3a:	4618      	mov	r0, r3
 8006d3c:	3718      	adds	r7, #24
 8006d3e:	46bd      	mov	sp, r7
 8006d40:	bd80      	pop	{r7, pc}
 8006d42:	bf00      	nop
 8006d44:	00100030 	.word	0x00100030
 8006d48:	00100020 	.word	0x00100020
 8006d4c:	00100050 	.word	0x00100050
 8006d50:	00100040 	.word	0x00100040
 8006d54:	00100060 	.word	0x00100060
 8006d58:	00100070 	.word	0x00100070

08006d5c <TIM_TI1_ConfigInputStage>:
  * @param  TIM_ICFilter Specifies the Input Capture Filter.
  *          This parameter must be a value between 0x00 and 0x0F.
  * @retval None
  */
static void TIM_TI1_ConfigInputStage(TIM_TypeDef *TIMx, uint32_t TIM_ICPolarity, uint32_t TIM_ICFilter)
{
 8006d5c:	b480      	push	{r7}
 8006d5e:	b087      	sub	sp, #28
 8006d60:	af00      	add	r7, sp, #0
 8006d62:	60f8      	str	r0, [r7, #12]
 8006d64:	60b9      	str	r1, [r7, #8]
 8006d66:	607a      	str	r2, [r7, #4]
  uint32_t tmpccmr1;
  uint32_t tmpccer;

  /* Disable the Channel 1: Reset the CC1E Bit */
  tmpccer = TIMx->CCER;
 8006d68:	68fb      	ldr	r3, [r7, #12]
 8006d6a:	6a1b      	ldr	r3, [r3, #32]
 8006d6c:	617b      	str	r3, [r7, #20]
  TIMx->CCER &= ~TIM_CCER_CC1E;
 8006d6e:	68fb      	ldr	r3, [r7, #12]
 8006d70:	6a1b      	ldr	r3, [r3, #32]
 8006d72:	f023 0201 	bic.w	r2, r3, #1
 8006d76:	68fb      	ldr	r3, [r7, #12]
 8006d78:	621a      	str	r2, [r3, #32]
  tmpccmr1 = TIMx->CCMR1;
 8006d7a:	68fb      	ldr	r3, [r7, #12]
 8006d7c:	699b      	ldr	r3, [r3, #24]
 8006d7e:	613b      	str	r3, [r7, #16]

  /* Set the filter */
  tmpccmr1 &= ~TIM_CCMR1_IC1F;
 8006d80:	693b      	ldr	r3, [r7, #16]
 8006d82:	f023 03f0 	bic.w	r3, r3, #240	; 0xf0
 8006d86:	613b      	str	r3, [r7, #16]
  tmpccmr1 |= (TIM_ICFilter << 4U);
 8006d88:	687b      	ldr	r3, [r7, #4]
 8006d8a:	011b      	lsls	r3, r3, #4
 8006d8c:	693a      	ldr	r2, [r7, #16]
 8006d8e:	4313      	orrs	r3, r2
 8006d90:	613b      	str	r3, [r7, #16]

  /* Select the Polarity and set the CC1E Bit */
  tmpccer &= ~(TIM_CCER_CC1P | TIM_CCER_CC1NP);
 8006d92:	697b      	ldr	r3, [r7, #20]
 8006d94:	f023 030a 	bic.w	r3, r3, #10
 8006d98:	617b      	str	r3, [r7, #20]
  tmpccer |= TIM_ICPolarity;
 8006d9a:	697a      	ldr	r2, [r7, #20]
 8006d9c:	68bb      	ldr	r3, [r7, #8]
 8006d9e:	4313      	orrs	r3, r2
 8006da0:	617b      	str	r3, [r7, #20]

  /* Write to TIMx CCMR1 and CCER registers */
  TIMx->CCMR1 = tmpccmr1;
 8006da2:	68fb      	ldr	r3, [r7, #12]
 8006da4:	693a      	ldr	r2, [r7, #16]
 8006da6:	619a      	str	r2, [r3, #24]
  TIMx->CCER = tmpccer;
 8006da8:	68fb      	ldr	r3, [r7, #12]
 8006daa:	697a      	ldr	r2, [r7, #20]
 8006dac:	621a      	str	r2, [r3, #32]
}
 8006dae:	bf00      	nop
 8006db0:	371c      	adds	r7, #28
 8006db2:	46bd      	mov	sp, r7
 8006db4:	f85d 7b04 	ldr.w	r7, [sp], #4
 8006db8:	4770      	bx	lr

08006dba <TIM_TI2_ConfigInputStage>:
  * @param  TIM_ICFilter Specifies the Input Capture Filter.
  *          This parameter must be a value between 0x00 and 0x0F.
  * @retval None
  */
static void TIM_TI2_ConfigInputStage(TIM_TypeDef *TIMx, uint32_t TIM_ICPolarity, uint32_t TIM_ICFilter)
{
 8006dba:	b480      	push	{r7}
 8006dbc:	b087      	sub	sp, #28
 8006dbe:	af00      	add	r7, sp, #0
 8006dc0:	60f8      	str	r0, [r7, #12]
 8006dc2:	60b9      	str	r1, [r7, #8]
 8006dc4:	607a      	str	r2, [r7, #4]
  uint32_t tmpccmr1;
  uint32_t tmpccer;

  /* Disable the Channel 2: Reset the CC2E Bit */
  TIMx->CCER &= ~TIM_CCER_CC2E;
 8006dc6:	68fb      	ldr	r3, [r7, #12]
 8006dc8:	6a1b      	ldr	r3, [r3, #32]
 8006dca:	f023 0210 	bic.w	r2, r3, #16
 8006dce:	68fb      	ldr	r3, [r7, #12]
 8006dd0:	621a      	str	r2, [r3, #32]
  tmpccmr1 = TIMx->CCMR1;
 8006dd2:	68fb      	ldr	r3, [r7, #12]
 8006dd4:	699b      	ldr	r3, [r3, #24]
 8006dd6:	617b      	str	r3, [r7, #20]
  tmpccer = TIMx->CCER;
 8006dd8:	68fb      	ldr	r3, [r7, #12]
 8006dda:	6a1b      	ldr	r3, [r3, #32]
 8006ddc:	613b      	str	r3, [r7, #16]

  /* Set the filter */
  tmpccmr1 &= ~TIM_CCMR1_IC2F;
 8006dde:	697b      	ldr	r3, [r7, #20]
 8006de0:	f423 4370 	bic.w	r3, r3, #61440	; 0xf000
 8006de4:	617b      	str	r3, [r7, #20]
  tmpccmr1 |= (TIM_ICFilter << 12U);
 8006de6:	687b      	ldr	r3, [r7, #4]
 8006de8:	031b      	lsls	r3, r3, #12
 8006dea:	697a      	ldr	r2, [r7, #20]
 8006dec:	4313      	orrs	r3, r2
 8006dee:	617b      	str	r3, [r7, #20]

  /* Select the Polarity and set the CC2E Bit */
  tmpccer &= ~(TIM_CCER_CC2P | TIM_CCER_CC2NP);
 8006df0:	693b      	ldr	r3, [r7, #16]
 8006df2:	f023 03a0 	bic.w	r3, r3, #160	; 0xa0
 8006df6:	613b      	str	r3, [r7, #16]
  tmpccer |= (TIM_ICPolarity << 4U);
 8006df8:	68bb      	ldr	r3, [r7, #8]
 8006dfa:	011b      	lsls	r3, r3, #4
 8006dfc:	693a      	ldr	r2, [r7, #16]
 8006dfe:	4313      	orrs	r3, r2
 8006e00:	613b      	str	r3, [r7, #16]

  /* Write to TIMx CCMR1 and CCER registers */
  TIMx->CCMR1 = tmpccmr1 ;
 8006e02:	68fb      	ldr	r3, [r7, #12]
 8006e04:	697a      	ldr	r2, [r7, #20]
 8006e06:	619a      	str	r2, [r3, #24]
  TIMx->CCER = tmpccer;
 8006e08:	68fb      	ldr	r3, [r7, #12]
 8006e0a:	693a      	ldr	r2, [r7, #16]
 8006e0c:	621a      	str	r2, [r3, #32]
}
 8006e0e:	bf00      	nop
 8006e10:	371c      	adds	r7, #28
 8006e12:	46bd      	mov	sp, r7
 8006e14:	f85d 7b04 	ldr.w	r7, [sp], #4
 8006e18:	4770      	bx	lr

08006e1a <TIM_ITRx_SetConfig>:
  *       (*)  Value not defined in all devices.
  *
  * @retval None
  */
static void TIM_ITRx_SetConfig(TIM_TypeDef *TIMx, uint32_t InputTriggerSource)
{
 8006e1a:	b480      	push	{r7}
 8006e1c:	b085      	sub	sp, #20
 8006e1e:	af00      	add	r7, sp, #0
 8006e20:	6078      	str	r0, [r7, #4]
 8006e22:	6039      	str	r1, [r7, #0]
  uint32_t tmpsmcr;

  /* Get the TIMx SMCR register value */
  tmpsmcr = TIMx->SMCR;
 8006e24:	687b      	ldr	r3, [r7, #4]
 8006e26:	689b      	ldr	r3, [r3, #8]
 8006e28:	60fb      	str	r3, [r7, #12]
  /* Reset the TS Bits */
  tmpsmcr &= ~TIM_SMCR_TS;
 8006e2a:	68fb      	ldr	r3, [r7, #12]
 8006e2c:	f423 1340 	bic.w	r3, r3, #3145728	; 0x300000
 8006e30:	f023 0370 	bic.w	r3, r3, #112	; 0x70
 8006e34:	60fb      	str	r3, [r7, #12]
  /* Set the Input Trigger source and the slave mode*/
  tmpsmcr |= (InputTriggerSource | TIM_SLAVEMODE_EXTERNAL1);
 8006e36:	683a      	ldr	r2, [r7, #0]
 8006e38:	68fb      	ldr	r3, [r7, #12]
 8006e3a:	4313      	orrs	r3, r2
 8006e3c:	f043 0307 	orr.w	r3, r3, #7
 8006e40:	60fb      	str	r3, [r7, #12]
  /* Write to TIMx SMCR */
  TIMx->SMCR = tmpsmcr;
 8006e42:	687b      	ldr	r3, [r7, #4]
 8006e44:	68fa      	ldr	r2, [r7, #12]
 8006e46:	609a      	str	r2, [r3, #8]
}
 8006e48:	bf00      	nop
 8006e4a:	3714      	adds	r7, #20
 8006e4c:	46bd      	mov	sp, r7
 8006e4e:	f85d 7b04 	ldr.w	r7, [sp], #4
 8006e52:	4770      	bx	lr

08006e54 <TIM_ETR_SetConfig>:
  *          This parameter must be a value between 0x00 and 0x0F
  * @retval None
  */
void TIM_ETR_SetConfig(TIM_TypeDef *TIMx, uint32_t TIM_ExtTRGPrescaler,
                       uint32_t TIM_ExtTRGPolarity, uint32_t ExtTRGFilter)
{
 8006e54:	b480      	push	{r7}
 8006e56:	b087      	sub	sp, #28
 8006e58:	af00      	add	r7, sp, #0
 8006e5a:	60f8      	str	r0, [r7, #12]
 8006e5c:	60b9      	str	r1, [r7, #8]
 8006e5e:	607a      	str	r2, [r7, #4]
 8006e60:	603b      	str	r3, [r7, #0]
  uint32_t tmpsmcr;

  tmpsmcr = TIMx->SMCR;
 8006e62:	68fb      	ldr	r3, [r7, #12]
 8006e64:	689b      	ldr	r3, [r3, #8]
 8006e66:	617b      	str	r3, [r7, #20]

  /* Reset the ETR Bits */
  tmpsmcr &= ~(TIM_SMCR_ETF | TIM_SMCR_ETPS | TIM_SMCR_ECE | TIM_SMCR_ETP);
 8006e68:	697b      	ldr	r3, [r7, #20]
 8006e6a:	f423 437f 	bic.w	r3, r3, #65280	; 0xff00
 8006e6e:	617b      	str	r3, [r7, #20]

  /* Set the Prescaler, the Filter value and the Polarity */
  tmpsmcr |= (uint32_t)(TIM_ExtTRGPrescaler | (TIM_ExtTRGPolarity | (ExtTRGFilter << 8U)));
 8006e70:	683b      	ldr	r3, [r7, #0]
 8006e72:	021a      	lsls	r2, r3, #8
 8006e74:	687b      	ldr	r3, [r7, #4]
 8006e76:	431a      	orrs	r2, r3
 8006e78:	68bb      	ldr	r3, [r7, #8]
 8006e7a:	4313      	orrs	r3, r2
 8006e7c:	697a      	ldr	r2, [r7, #20]
 8006e7e:	4313      	orrs	r3, r2
 8006e80:	617b      	str	r3, [r7, #20]

  /* Write to TIMx SMCR */
  TIMx->SMCR = tmpsmcr;
 8006e82:	68fb      	ldr	r3, [r7, #12]
 8006e84:	697a      	ldr	r2, [r7, #20]
 8006e86:	609a      	str	r2, [r3, #8]
}
 8006e88:	bf00      	nop
 8006e8a:	371c      	adds	r7, #28
 8006e8c:	46bd      	mov	sp, r7
 8006e8e:	f85d 7b04 	ldr.w	r7, [sp], #4
 8006e92:	4770      	bx	lr

08006e94 <HAL_TIMEx_MasterConfigSynchronization>:
  *         mode.
  * @retval HAL status
  */
HAL_StatusTypeDef HAL_TIMEx_MasterConfigSynchronization(TIM_HandleTypeDef *htim,
                                                        TIM_MasterConfigTypeDef *sMasterConfig)
{
 8006e94:	b480      	push	{r7}
 8006e96:	b085      	sub	sp, #20
 8006e98:	af00      	add	r7, sp, #0
 8006e9a:	6078      	str	r0, [r7, #4]
 8006e9c:	6039      	str	r1, [r7, #0]
  assert_param(IS_TIM_MASTER_INSTANCE(htim->Instance));
  assert_param(IS_TIM_TRGO_SOURCE(sMasterConfig->MasterOutputTrigger));
  assert_param(IS_TIM_MSM_STATE(sMasterConfig->MasterSlaveMode));

  /* Check input state */
  __HAL_LOCK(htim);
 8006e9e:	687b      	ldr	r3, [r7, #4]
 8006ea0:	f893 303c 	ldrb.w	r3, [r3, #60]	; 0x3c
 8006ea4:	2b01      	cmp	r3, #1
 8006ea6:	d101      	bne.n	8006eac <HAL_TIMEx_MasterConfigSynchronization+0x18>
 8006ea8:	2302      	movs	r3, #2
 8006eaa:	e074      	b.n	8006f96 <HAL_TIMEx_MasterConfigSynchronization+0x102>
 8006eac:	687b      	ldr	r3, [r7, #4]
 8006eae:	2201      	movs	r2, #1
 8006eb0:	f883 203c 	strb.w	r2, [r3, #60]	; 0x3c

  /* Change the handler state */
  htim->State = HAL_TIM_STATE_BUSY;
 8006eb4:	687b      	ldr	r3, [r7, #4]
 8006eb6:	2202      	movs	r2, #2
 8006eb8:	f883 203d 	strb.w	r2, [r3, #61]	; 0x3d

  /* Get the TIMx CR2 register value */
  tmpcr2 = htim->Instance->CR2;
 8006ebc:	687b      	ldr	r3, [r7, #4]
 8006ebe:	681b      	ldr	r3, [r3, #0]
 8006ec0:	685b      	ldr	r3, [r3, #4]
 8006ec2:	60fb      	str	r3, [r7, #12]

  /* Get the TIMx SMCR register value */
  tmpsmcr = htim->Instance->SMCR;
 8006ec4:	687b      	ldr	r3, [r7, #4]
 8006ec6:	681b      	ldr	r3, [r3, #0]
 8006ec8:	689b      	ldr	r3, [r3, #8]
 8006eca:	60bb      	str	r3, [r7, #8]

  /* If the timer supports ADC synchronization through TRGO2, set the master mode selection 2 */
  if (IS_TIM_TRGO2_INSTANCE(htim->Instance))
 8006ecc:	687b      	ldr	r3, [r7, #4]
 8006ece:	681b      	ldr	r3, [r3, #0]
 8006ed0:	4a34      	ldr	r2, [pc, #208]	; (8006fa4 <HAL_TIMEx_MasterConfigSynchronization+0x110>)
 8006ed2:	4293      	cmp	r3, r2
 8006ed4:	d009      	beq.n	8006eea <HAL_TIMEx_MasterConfigSynchronization+0x56>
 8006ed6:	687b      	ldr	r3, [r7, #4]
 8006ed8:	681b      	ldr	r3, [r3, #0]
 8006eda:	4a33      	ldr	r2, [pc, #204]	; (8006fa8 <HAL_TIMEx_MasterConfigSynchronization+0x114>)
 8006edc:	4293      	cmp	r3, r2
 8006ede:	d004      	beq.n	8006eea <HAL_TIMEx_MasterConfigSynchronization+0x56>
 8006ee0:	687b      	ldr	r3, [r7, #4]
 8006ee2:	681b      	ldr	r3, [r3, #0]
 8006ee4:	4a31      	ldr	r2, [pc, #196]	; (8006fac <HAL_TIMEx_MasterConfigSynchronization+0x118>)
 8006ee6:	4293      	cmp	r3, r2
 8006ee8:	d108      	bne.n	8006efc <HAL_TIMEx_MasterConfigSynchronization+0x68>
  {
    /* Check the parameters */
    assert_param(IS_TIM_TRGO2_SOURCE(sMasterConfig->MasterOutputTrigger2));

    /* Clear the MMS2 bits */
    tmpcr2 &= ~TIM_CR2_MMS2;
 8006eea:	68fb      	ldr	r3, [r7, #12]
 8006eec:	f423 0370 	bic.w	r3, r3, #15728640	; 0xf00000
 8006ef0:	60fb      	str	r3, [r7, #12]
    /* Select the TRGO2 source*/
    tmpcr2 |= sMasterConfig->MasterOutputTrigger2;
 8006ef2:	683b      	ldr	r3, [r7, #0]
 8006ef4:	685b      	ldr	r3, [r3, #4]
 8006ef6:	68fa      	ldr	r2, [r7, #12]
 8006ef8:	4313      	orrs	r3, r2
 8006efa:	60fb      	str	r3, [r7, #12]
  }

  /* Reset the MMS Bits */
  tmpcr2 &= ~TIM_CR2_MMS;
 8006efc:	68fb      	ldr	r3, [r7, #12]
 8006efe:	f023 7300 	bic.w	r3, r3, #33554432	; 0x2000000
 8006f02:	f023 0370 	bic.w	r3, r3, #112	; 0x70
 8006f06:	60fb      	str	r3, [r7, #12]
  /* Select the TRGO source */
  tmpcr2 |=  sMasterConfig->MasterOutputTrigger;
 8006f08:	683b      	ldr	r3, [r7, #0]
 8006f0a:	681b      	ldr	r3, [r3, #0]
 8006f0c:	68fa      	ldr	r2, [r7, #12]
 8006f0e:	4313      	orrs	r3, r2
 8006f10:	60fb      	str	r3, [r7, #12]

  /* Update TIMx CR2 */
  htim->Instance->CR2 = tmpcr2;
 8006f12:	687b      	ldr	r3, [r7, #4]
 8006f14:	681b      	ldr	r3, [r3, #0]
 8006f16:	68fa      	ldr	r2, [r7, #12]
 8006f18:	605a      	str	r2, [r3, #4]

  if (IS_TIM_SLAVE_INSTANCE(htim->Instance))
 8006f1a:	687b      	ldr	r3, [r7, #4]
 8006f1c:	681b      	ldr	r3, [r3, #0]
 8006f1e:	4a21      	ldr	r2, [pc, #132]	; (8006fa4 <HAL_TIMEx_MasterConfigSynchronization+0x110>)
 8006f20:	4293      	cmp	r3, r2
 8006f22:	d022      	beq.n	8006f6a <HAL_TIMEx_MasterConfigSynchronization+0xd6>
 8006f24:	687b      	ldr	r3, [r7, #4]
 8006f26:	681b      	ldr	r3, [r3, #0]
 8006f28:	f1b3 4f80 	cmp.w	r3, #1073741824	; 0x40000000
 8006f2c:	d01d      	beq.n	8006f6a <HAL_TIMEx_MasterConfigSynchronization+0xd6>
 8006f2e:	687b      	ldr	r3, [r7, #4]
 8006f30:	681b      	ldr	r3, [r3, #0]
 8006f32:	4a1f      	ldr	r2, [pc, #124]	; (8006fb0 <HAL_TIMEx_MasterConfigSynchronization+0x11c>)
 8006f34:	4293      	cmp	r3, r2
 8006f36:	d018      	beq.n	8006f6a <HAL_TIMEx_MasterConfigSynchronization+0xd6>
 8006f38:	687b      	ldr	r3, [r7, #4]
 8006f3a:	681b      	ldr	r3, [r3, #0]
 8006f3c:	4a1d      	ldr	r2, [pc, #116]	; (8006fb4 <HAL_TIMEx_MasterConfigSynchronization+0x120>)
 8006f3e:	4293      	cmp	r3, r2
 8006f40:	d013      	beq.n	8006f6a <HAL_TIMEx_MasterConfigSynchronization+0xd6>
 8006f42:	687b      	ldr	r3, [r7, #4]
 8006f44:	681b      	ldr	r3, [r3, #0]
 8006f46:	4a1c      	ldr	r2, [pc, #112]	; (8006fb8 <HAL_TIMEx_MasterConfigSynchronization+0x124>)
 8006f48:	4293      	cmp	r3, r2
 8006f4a:	d00e      	beq.n	8006f6a <HAL_TIMEx_MasterConfigSynchronization+0xd6>
 8006f4c:	687b      	ldr	r3, [r7, #4]
 8006f4e:	681b      	ldr	r3, [r3, #0]
 8006f50:	4a15      	ldr	r2, [pc, #84]	; (8006fa8 <HAL_TIMEx_MasterConfigSynchronization+0x114>)
 8006f52:	4293      	cmp	r3, r2
 8006f54:	d009      	beq.n	8006f6a <HAL_TIMEx_MasterConfigSynchronization+0xd6>
 8006f56:	687b      	ldr	r3, [r7, #4]
 8006f58:	681b      	ldr	r3, [r3, #0]
 8006f5a:	4a18      	ldr	r2, [pc, #96]	; (8006fbc <HAL_TIMEx_MasterConfigSynchronization+0x128>)
 8006f5c:	4293      	cmp	r3, r2
 8006f5e:	d004      	beq.n	8006f6a <HAL_TIMEx_MasterConfigSynchronization+0xd6>
 8006f60:	687b      	ldr	r3, [r7, #4]
 8006f62:	681b      	ldr	r3, [r3, #0]
 8006f64:	4a11      	ldr	r2, [pc, #68]	; (8006fac <HAL_TIMEx_MasterConfigSynchronization+0x118>)
 8006f66:	4293      	cmp	r3, r2
 8006f68:	d10c      	bne.n	8006f84 <HAL_TIMEx_MasterConfigSynchronization+0xf0>
  {
    /* Reset the MSM Bit */
    tmpsmcr &= ~TIM_SMCR_MSM;
 8006f6a:	68bb      	ldr	r3, [r7, #8]
 8006f6c:	f023 0380 	bic.w	r3, r3, #128	; 0x80
 8006f70:	60bb      	str	r3, [r7, #8]
    /* Set master mode */
    tmpsmcr |= sMasterConfig->MasterSlaveMode;
 8006f72:	683b      	ldr	r3, [r7, #0]
 8006f74:	689b      	ldr	r3, [r3, #8]
 8006f76:	68ba      	ldr	r2, [r7, #8]
 8006f78:	4313      	orrs	r3, r2
 8006f7a:	60bb      	str	r3, [r7, #8]

    /* Update TIMx SMCR */
    htim->Instance->SMCR = tmpsmcr;
 8006f7c:	687b      	ldr	r3, [r7, #4]
 8006f7e:	681b      	ldr	r3, [r3, #0]
 8006f80:	68ba      	ldr	r2, [r7, #8]
 8006f82:	609a      	str	r2, [r3, #8]
  }

  /* Change the htim state */
  htim->State = HAL_TIM_STATE_READY;
 8006f84:	687b      	ldr	r3, [r7, #4]
 8006f86:	2201      	movs	r2, #1
 8006f88:	f883 203d 	strb.w	r2, [r3, #61]	; 0x3d

  __HAL_UNLOCK(htim);
 8006f8c:	687b      	ldr	r3, [r7, #4]
 8006f8e:	2200      	movs	r2, #0
 8006f90:	f883 203c 	strb.w	r2, [r3, #60]	; 0x3c

  return HAL_OK;
 8006f94:	2300      	movs	r3, #0
}
 8006f96:	4618      	mov	r0, r3
 8006f98:	3714      	adds	r7, #20
 8006f9a:	46bd      	mov	sp, r7
 8006f9c:	f85d 7b04 	ldr.w	r7, [sp], #4
 8006fa0:	4770      	bx	lr
 8006fa2:	bf00      	nop
 8006fa4:	40012c00 	.word	0x40012c00
 8006fa8:	40013400 	.word	0x40013400
 8006fac:	40015000 	.word	0x40015000
 8006fb0:	40000400 	.word	0x40000400
 8006fb4:	40000800 	.word	0x40000800
 8006fb8:	40000c00 	.word	0x40000c00
 8006fbc:	40014000 	.word	0x40014000

08006fc0 <HAL_TIMEx_ConfigBreakDeadTime>:
  *         interrupt can be enabled by calling the @ref __HAL_TIM_ENABLE_IT macro.
  * @retval HAL status
  */
HAL_StatusTypeDef HAL_TIMEx_ConfigBreakDeadTime(TIM_HandleTypeDef *htim,
                                                TIM_BreakDeadTimeConfigTypeDef *sBreakDeadTimeConfig)
{
 8006fc0:	b480      	push	{r7}
 8006fc2:	b085      	sub	sp, #20
 8006fc4:	af00      	add	r7, sp, #0
 8006fc6:	6078      	str	r0, [r7, #4]
 8006fc8:	6039      	str	r1, [r7, #0]
  /* Keep this variable initialized to 0 as it is used to configure BDTR register */
  uint32_t tmpbdtr = 0U;
 8006fca:	2300      	movs	r3, #0
 8006fcc:	60fb      	str	r3, [r7, #12]
  assert_param(IS_TIM_BREAK_POLARITY(sBreakDeadTimeConfig->BreakPolarity));
  assert_param(IS_TIM_BREAK_FILTER(sBreakDeadTimeConfig->BreakFilter));
  assert_param(IS_TIM_AUTOMATIC_OUTPUT_STATE(sBreakDeadTimeConfig->AutomaticOutput));

  /* Check input state */
  __HAL_LOCK(htim);
 8006fce:	687b      	ldr	r3, [r7, #4]
 8006fd0:	f893 303c 	ldrb.w	r3, [r3, #60]	; 0x3c
 8006fd4:	2b01      	cmp	r3, #1
 8006fd6:	d101      	bne.n	8006fdc <HAL_TIMEx_ConfigBreakDeadTime+0x1c>
 8006fd8:	2302      	movs	r3, #2
 8006fda:	e096      	b.n	800710a <HAL_TIMEx_ConfigBreakDeadTime+0x14a>
 8006fdc:	687b      	ldr	r3, [r7, #4]
 8006fde:	2201      	movs	r2, #1
 8006fe0:	f883 203c 	strb.w	r2, [r3, #60]	; 0x3c

  /* Set the Lock level, the Break enable Bit and the Polarity, the OSSR State,
     the OSSI State, the dead time value and the Automatic Output Enable Bit */

  /* Set the BDTR bits */
  MODIFY_REG(tmpbdtr, TIM_BDTR_DTG, sBreakDeadTimeConfig->DeadTime);
 8006fe4:	68fb      	ldr	r3, [r7, #12]
 8006fe6:	f023 02ff 	bic.w	r2, r3, #255	; 0xff
 8006fea:	683b      	ldr	r3, [r7, #0]
 8006fec:	68db      	ldr	r3, [r3, #12]
 8006fee:	4313      	orrs	r3, r2
 8006ff0:	60fb      	str	r3, [r7, #12]
  MODIFY_REG(tmpbdtr, TIM_BDTR_LOCK, sBreakDeadTimeConfig->LockLevel);
 8006ff2:	68fb      	ldr	r3, [r7, #12]
 8006ff4:	f423 7240 	bic.w	r2, r3, #768	; 0x300
 8006ff8:	683b      	ldr	r3, [r7, #0]
 8006ffa:	689b      	ldr	r3, [r3, #8]
 8006ffc:	4313      	orrs	r3, r2
 8006ffe:	60fb      	str	r3, [r7, #12]
  MODIFY_REG(tmpbdtr, TIM_BDTR_OSSI, sBreakDeadTimeConfig->OffStateIDLEMode);
 8007000:	68fb      	ldr	r3, [r7, #12]
 8007002:	f423 6280 	bic.w	r2, r3, #1024	; 0x400
 8007006:	683b      	ldr	r3, [r7, #0]
 8007008:	685b      	ldr	r3, [r3, #4]
 800700a:	4313      	orrs	r3, r2
 800700c:	60fb      	str	r3, [r7, #12]
  MODIFY_REG(tmpbdtr, TIM_BDTR_OSSR, sBreakDeadTimeConfig->OffStateRunMode);
 800700e:	68fb      	ldr	r3, [r7, #12]
 8007010:	f423 6200 	bic.w	r2, r3, #2048	; 0x800
 8007014:	683b      	ldr	r3, [r7, #0]
 8007016:	681b      	ldr	r3, [r3, #0]
 8007018:	4313      	orrs	r3, r2
 800701a:	60fb      	str	r3, [r7, #12]
  MODIFY_REG(tmpbdtr, TIM_BDTR_BKE, sBreakDeadTimeConfig->BreakState);
 800701c:	68fb      	ldr	r3, [r7, #12]
 800701e:	f423 5280 	bic.w	r2, r3, #4096	; 0x1000
 8007022:	683b      	ldr	r3, [r7, #0]
 8007024:	691b      	ldr	r3, [r3, #16]
 8007026:	4313      	orrs	r3, r2
 8007028:	60fb      	str	r3, [r7, #12]
  MODIFY_REG(tmpbdtr, TIM_BDTR_BKP, sBreakDeadTimeConfig->BreakPolarity);
 800702a:	68fb      	ldr	r3, [r7, #12]
 800702c:	f423 5200 	bic.w	r2, r3, #8192	; 0x2000
 8007030:	683b      	ldr	r3, [r7, #0]
 8007032:	695b      	ldr	r3, [r3, #20]
 8007034:	4313      	orrs	r3, r2
 8007036:	60fb      	str	r3, [r7, #12]
  MODIFY_REG(tmpbdtr, TIM_BDTR_AOE, sBreakDeadTimeConfig->AutomaticOutput);
 8007038:	68fb      	ldr	r3, [r7, #12]
 800703a:	f423 4280 	bic.w	r2, r3, #16384	; 0x4000
 800703e:	683b      	ldr	r3, [r7, #0]
 8007040:	6b1b      	ldr	r3, [r3, #48]	; 0x30
 8007042:	4313      	orrs	r3, r2
 8007044:	60fb      	str	r3, [r7, #12]
  MODIFY_REG(tmpbdtr, TIM_BDTR_BKF, (sBreakDeadTimeConfig->BreakFilter << TIM_BDTR_BKF_Pos));
 8007046:	68fb      	ldr	r3, [r7, #12]
 8007048:	f423 2270 	bic.w	r2, r3, #983040	; 0xf0000
 800704c:	683b      	ldr	r3, [r7, #0]
 800704e:	699b      	ldr	r3, [r3, #24]
 8007050:	041b      	lsls	r3, r3, #16
 8007052:	4313      	orrs	r3, r2
 8007054:	60fb      	str	r3, [r7, #12]

  if (IS_TIM_ADVANCED_INSTANCE(htim->Instance))
 8007056:	687b      	ldr	r3, [r7, #4]
 8007058:	681b      	ldr	r3, [r3, #0]
 800705a:	4a2f      	ldr	r2, [pc, #188]	; (8007118 <HAL_TIMEx_ConfigBreakDeadTime+0x158>)
 800705c:	4293      	cmp	r3, r2
 800705e:	d009      	beq.n	8007074 <HAL_TIMEx_ConfigBreakDeadTime+0xb4>
 8007060:	687b      	ldr	r3, [r7, #4]
 8007062:	681b      	ldr	r3, [r3, #0]
 8007064:	4a2d      	ldr	r2, [pc, #180]	; (800711c <HAL_TIMEx_ConfigBreakDeadTime+0x15c>)
 8007066:	4293      	cmp	r3, r2
 8007068:	d004      	beq.n	8007074 <HAL_TIMEx_ConfigBreakDeadTime+0xb4>
 800706a:	687b      	ldr	r3, [r7, #4]
 800706c:	681b      	ldr	r3, [r3, #0]
 800706e:	4a2c      	ldr	r2, [pc, #176]	; (8007120 <HAL_TIMEx_ConfigBreakDeadTime+0x160>)
 8007070:	4293      	cmp	r3, r2
 8007072:	d106      	bne.n	8007082 <HAL_TIMEx_ConfigBreakDeadTime+0xc2>
  {
    /* Check the parameters */
    assert_param(IS_TIM_BREAK_AFMODE(sBreakDeadTimeConfig->BreakAFMode));

    /* Set BREAK AF mode */
    MODIFY_REG(tmpbdtr, TIM_BDTR_BKBID, sBreakDeadTimeConfig->BreakAFMode);
 8007074:	68fb      	ldr	r3, [r7, #12]
 8007076:	f023 5280 	bic.w	r2, r3, #268435456	; 0x10000000
 800707a:	683b      	ldr	r3, [r7, #0]
 800707c:	69db      	ldr	r3, [r3, #28]
 800707e:	4313      	orrs	r3, r2
 8007080:	60fb      	str	r3, [r7, #12]
  }

  if (IS_TIM_BKIN2_INSTANCE(htim->Instance))
 8007082:	687b      	ldr	r3, [r7, #4]
 8007084:	681b      	ldr	r3, [r3, #0]
 8007086:	4a24      	ldr	r2, [pc, #144]	; (8007118 <HAL_TIMEx_ConfigBreakDeadTime+0x158>)
 8007088:	4293      	cmp	r3, r2
 800708a:	d009      	beq.n	80070a0 <HAL_TIMEx_ConfigBreakDeadTime+0xe0>
 800708c:	687b      	ldr	r3, [r7, #4]
 800708e:	681b      	ldr	r3, [r3, #0]
 8007090:	4a22      	ldr	r2, [pc, #136]	; (800711c <HAL_TIMEx_ConfigBreakDeadTime+0x15c>)
 8007092:	4293      	cmp	r3, r2
 8007094:	d004      	beq.n	80070a0 <HAL_TIMEx_ConfigBreakDeadTime+0xe0>
 8007096:	687b      	ldr	r3, [r7, #4]
 8007098:	681b      	ldr	r3, [r3, #0]
 800709a:	4a21      	ldr	r2, [pc, #132]	; (8007120 <HAL_TIMEx_ConfigBreakDeadTime+0x160>)
 800709c:	4293      	cmp	r3, r2
 800709e:	d12b      	bne.n	80070f8 <HAL_TIMEx_ConfigBreakDeadTime+0x138>
    assert_param(IS_TIM_BREAK2_STATE(sBreakDeadTimeConfig->Break2State));
    assert_param(IS_TIM_BREAK2_POLARITY(sBreakDeadTimeConfig->Break2Polarity));
    assert_param(IS_TIM_BREAK_FILTER(sBreakDeadTimeConfig->Break2Filter));

    /* Set the BREAK2 input related BDTR bits */
    MODIFY_REG(tmpbdtr, TIM_BDTR_BK2F, (sBreakDeadTimeConfig->Break2Filter << TIM_BDTR_BK2F_Pos));
 80070a0:	68fb      	ldr	r3, [r7, #12]
 80070a2:	f423 0270 	bic.w	r2, r3, #15728640	; 0xf00000
 80070a6:	683b      	ldr	r3, [r7, #0]
 80070a8:	6a9b      	ldr	r3, [r3, #40]	; 0x28
 80070aa:	051b      	lsls	r3, r3, #20
 80070ac:	4313      	orrs	r3, r2
 80070ae:	60fb      	str	r3, [r7, #12]
    MODIFY_REG(tmpbdtr, TIM_BDTR_BK2E, sBreakDeadTimeConfig->Break2State);
 80070b0:	68fb      	ldr	r3, [r7, #12]
 80070b2:	f023 7280 	bic.w	r2, r3, #16777216	; 0x1000000
 80070b6:	683b      	ldr	r3, [r7, #0]
 80070b8:	6a1b      	ldr	r3, [r3, #32]
 80070ba:	4313      	orrs	r3, r2
 80070bc:	60fb      	str	r3, [r7, #12]
    MODIFY_REG(tmpbdtr, TIM_BDTR_BK2P, sBreakDeadTimeConfig->Break2Polarity);
 80070be:	68fb      	ldr	r3, [r7, #12]
 80070c0:	f023 7200 	bic.w	r2, r3, #33554432	; 0x2000000
 80070c4:	683b      	ldr	r3, [r7, #0]
 80070c6:	6a5b      	ldr	r3, [r3, #36]	; 0x24
 80070c8:	4313      	orrs	r3, r2
 80070ca:	60fb      	str	r3, [r7, #12]

    if (IS_TIM_ADVANCED_INSTANCE(htim->Instance))
 80070cc:	687b      	ldr	r3, [r7, #4]
 80070ce:	681b      	ldr	r3, [r3, #0]
 80070d0:	4a11      	ldr	r2, [pc, #68]	; (8007118 <HAL_TIMEx_ConfigBreakDeadTime+0x158>)
 80070d2:	4293      	cmp	r3, r2
 80070d4:	d009      	beq.n	80070ea <HAL_TIMEx_ConfigBreakDeadTime+0x12a>
 80070d6:	687b      	ldr	r3, [r7, #4]
 80070d8:	681b      	ldr	r3, [r3, #0]
 80070da:	4a10      	ldr	r2, [pc, #64]	; (800711c <HAL_TIMEx_ConfigBreakDeadTime+0x15c>)
 80070dc:	4293      	cmp	r3, r2
 80070de:	d004      	beq.n	80070ea <HAL_TIMEx_ConfigBreakDeadTime+0x12a>
 80070e0:	687b      	ldr	r3, [r7, #4]
 80070e2:	681b      	ldr	r3, [r3, #0]
 80070e4:	4a0e      	ldr	r2, [pc, #56]	; (8007120 <HAL_TIMEx_ConfigBreakDeadTime+0x160>)
 80070e6:	4293      	cmp	r3, r2
 80070e8:	d106      	bne.n	80070f8 <HAL_TIMEx_ConfigBreakDeadTime+0x138>
    {
      /* Check the parameters */
      assert_param(IS_TIM_BREAK2_AFMODE(sBreakDeadTimeConfig->Break2AFMode));

      /* Set BREAK2 AF mode */
      MODIFY_REG(tmpbdtr, TIM_BDTR_BK2BID, sBreakDeadTimeConfig->Break2AFMode);
 80070ea:	68fb      	ldr	r3, [r7, #12]
 80070ec:	f023 5200 	bic.w	r2, r3, #536870912	; 0x20000000
 80070f0:	683b      	ldr	r3, [r7, #0]
 80070f2:	6adb      	ldr	r3, [r3, #44]	; 0x2c
 80070f4:	4313      	orrs	r3, r2
 80070f6:	60fb      	str	r3, [r7, #12]
    }
  }

  /* Set TIMx_BDTR */
  htim->Instance->BDTR = tmpbdtr;
 80070f8:	687b      	ldr	r3, [r7, #4]
 80070fa:	681b      	ldr	r3, [r3, #0]
 80070fc:	68fa      	ldr	r2, [r7, #12]
 80070fe:	645a      	str	r2, [r3, #68]	; 0x44

  __HAL_UNLOCK(htim);
 8007100:	687b      	ldr	r3, [r7, #4]
 8007102:	2200      	movs	r2, #0
 8007104:	f883 203c 	strb.w	r2, [r3, #60]	; 0x3c

  return HAL_OK;
 8007108:	2300      	movs	r3, #0
}
 800710a:	4618      	mov	r0, r3
 800710c:	3714      	adds	r7, #20
 800710e:	46bd      	mov	sp, r7
 8007110:	f85d 7b04 	ldr.w	r7, [sp], #4
 8007114:	4770      	bx	lr
 8007116:	bf00      	nop
 8007118:	40012c00 	.word	0x40012c00
 800711c:	40013400 	.word	0x40013400
 8007120:	40015000 	.word	0x40015000

08007124 <HAL_TIMEx_CommutCallback>:
  * @brief  Hall commutation changed callback in non-blocking mode
  * @param  htim TIM handle
  * @retval None
  */
__weak void HAL_TIMEx_CommutCallback(TIM_HandleTypeDef *htim)
{
 8007124:	b480      	push	{r7}
 8007126:	b083      	sub	sp, #12
 8007128:	af00      	add	r7, sp, #0
 800712a:	6078      	str	r0, [r7, #4]
  UNUSED(htim);

  /* NOTE : This function should not be modified, when the callback is needed,
            the HAL_TIMEx_CommutCallback could be implemented in the user file
   */
}
 800712c:	bf00      	nop
 800712e:	370c      	adds	r7, #12
 8007130:	46bd      	mov	sp, r7
 8007132:	f85d 7b04 	ldr.w	r7, [sp], #4
 8007136:	4770      	bx	lr

08007138 <HAL_TIMEx_BreakCallback>:
  * @brief  Hall Break detection callback in non-blocking mode
  * @param  htim TIM handle
  * @retval None
  */
__weak void HAL_TIMEx_BreakCallback(TIM_HandleTypeDef *htim)
{
 8007138:	b480      	push	{r7}
 800713a:	b083      	sub	sp, #12
 800713c:	af00      	add	r7, sp, #0
 800713e:	6078      	str	r0, [r7, #4]
  UNUSED(htim);

  /* NOTE : This function should not be modified, when the callback is needed,
            the HAL_TIMEx_BreakCallback could be implemented in the user file
   */
}
 8007140:	bf00      	nop
 8007142:	370c      	adds	r7, #12
 8007144:	46bd      	mov	sp, r7
 8007146:	f85d 7b04 	ldr.w	r7, [sp], #4
 800714a:	4770      	bx	lr

0800714c <HAL_TIMEx_Break2Callback>:
  * @brief  Hall Break2 detection callback in non blocking mode
  * @param  htim: TIM handle
  * @retval None
  */
__weak void HAL_TIMEx_Break2Callback(TIM_HandleTypeDef *htim)
{
 800714c:	b480      	push	{r7}
 800714e:	b083      	sub	sp, #12
 8007150:	af00      	add	r7, sp, #0
 8007152:	6078      	str	r0, [r7, #4]
  UNUSED(htim);

  /* NOTE : This function Should not be modified, when the callback is needed,
            the HAL_TIMEx_Break2Callback could be implemented in the user file
   */
}
 8007154:	bf00      	nop
 8007156:	370c      	adds	r7, #12
 8007158:	46bd      	mov	sp, r7
 800715a:	f85d 7b04 	ldr.w	r7, [sp], #4
 800715e:	4770      	bx	lr

08007160 <HAL_TIMEx_EncoderIndexCallback>:
  * @brief  Encoder index callback in non-blocking mode
  * @param  htim TIM handle
  * @retval None
  */
__weak void HAL_TIMEx_EncoderIndexCallback(TIM_HandleTypeDef *htim)
{
 8007160:	b480      	push	{r7}
 8007162:	b083      	sub	sp, #12
 8007164:	af00      	add	r7, sp, #0
 8007166:	6078      	str	r0, [r7, #4]
  UNUSED(htim);

  /* NOTE : This function should not be modified, when the callback is needed,
            the HAL_TIMEx_EncoderIndexCallback could be implemented in the user file
   */
}
 8007168:	bf00      	nop
 800716a:	370c      	adds	r7, #12
 800716c:	46bd      	mov	sp, r7
 800716e:	f85d 7b04 	ldr.w	r7, [sp], #4
 8007172:	4770      	bx	lr

08007174 <HAL_TIMEx_DirectionChangeCallback>:
  * @brief  Direction change callback in non-blocking mode
  * @param  htim TIM handle
  * @retval None
  */
__weak void HAL_TIMEx_DirectionChangeCallback(TIM_HandleTypeDef *htim)
{
 8007174:	b480      	push	{r7}
 8007176:	b083      	sub	sp, #12
 8007178:	af00      	add	r7, sp, #0
 800717a:	6078      	str	r0, [r7, #4]
  UNUSED(htim);

  /* NOTE : This function should not be modified, when the callback is needed,
            the HAL_TIMEx_DirectionChangeCallback could be implemented in the user file
   */
}
 800717c:	bf00      	nop
 800717e:	370c      	adds	r7, #12
 8007180:	46bd      	mov	sp, r7
 8007182:	f85d 7b04 	ldr.w	r7, [sp], #4
 8007186:	4770      	bx	lr

08007188 <HAL_TIMEx_IndexErrorCallback>:
  * @brief  Index error callback in non-blocking mode
  * @param  htim TIM handle
  * @retval None
  */
__weak void HAL_TIMEx_IndexErrorCallback(TIM_HandleTypeDef *htim)
{
 8007188:	b480      	push	{r7}
 800718a:	b083      	sub	sp, #12
 800718c:	af00      	add	r7, sp, #0
 800718e:	6078      	str	r0, [r7, #4]
  UNUSED(htim);

  /* NOTE : This function should not be modified, when the callback is needed,
            the HAL_TIMEx_IndexErrorCallback could be implemented in the user file
   */
}
 8007190:	bf00      	nop
 8007192:	370c      	adds	r7, #12
 8007194:	46bd      	mov	sp, r7
 8007196:	f85d 7b04 	ldr.w	r7, [sp], #4
 800719a:	4770      	bx	lr

0800719c <HAL_TIMEx_TransitionErrorCallback>:
  * @brief  Transition error callback in non-blocking mode
  * @param  htim TIM handle
  * @retval None
  */
__weak void HAL_TIMEx_TransitionErrorCallback(TIM_HandleTypeDef *htim)
{
 800719c:	b480      	push	{r7}
 800719e:	b083      	sub	sp, #12
 80071a0:	af00      	add	r7, sp, #0
 80071a2:	6078      	str	r0, [r7, #4]
  UNUSED(htim);

  /* NOTE : This function should not be modified, when the callback is needed,
            the HAL_TIMEx_TransitionErrorCallback could be implemented in the user file
   */
}
 80071a4:	bf00      	nop
 80071a6:	370c      	adds	r7, #12
 80071a8:	46bd      	mov	sp, r7
 80071aa:	f85d 7b04 	ldr.w	r7, [sp], #4
 80071ae:	4770      	bx	lr

080071b0 <LL_EXTI_EnableIT_0_31>:
{
 80071b0:	b480      	push	{r7}
 80071b2:	b083      	sub	sp, #12
 80071b4:	af00      	add	r7, sp, #0
 80071b6:	6078      	str	r0, [r7, #4]
  SET_BIT(EXTI->IMR1, ExtiLine);
 80071b8:	4b05      	ldr	r3, [pc, #20]	; (80071d0 <LL_EXTI_EnableIT_0_31+0x20>)
 80071ba:	681a      	ldr	r2, [r3, #0]
 80071bc:	4904      	ldr	r1, [pc, #16]	; (80071d0 <LL_EXTI_EnableIT_0_31+0x20>)
 80071be:	687b      	ldr	r3, [r7, #4]
 80071c0:	4313      	orrs	r3, r2
 80071c2:	600b      	str	r3, [r1, #0]
}
 80071c4:	bf00      	nop
 80071c6:	370c      	adds	r7, #12
 80071c8:	46bd      	mov	sp, r7
 80071ca:	f85d 7b04 	ldr.w	r7, [sp], #4
 80071ce:	4770      	bx	lr
 80071d0:	40010400 	.word	0x40010400

080071d4 <LL_EXTI_EnableIT_32_63>:
{
 80071d4:	b480      	push	{r7}
 80071d6:	b083      	sub	sp, #12
 80071d8:	af00      	add	r7, sp, #0
 80071da:	6078      	str	r0, [r7, #4]
  SET_BIT(EXTI->IMR2, ExtiLine);
 80071dc:	4b05      	ldr	r3, [pc, #20]	; (80071f4 <LL_EXTI_EnableIT_32_63+0x20>)
 80071de:	6a1a      	ldr	r2, [r3, #32]
 80071e0:	4904      	ldr	r1, [pc, #16]	; (80071f4 <LL_EXTI_EnableIT_32_63+0x20>)
 80071e2:	687b      	ldr	r3, [r7, #4]
 80071e4:	4313      	orrs	r3, r2
 80071e6:	620b      	str	r3, [r1, #32]
}
 80071e8:	bf00      	nop
 80071ea:	370c      	adds	r7, #12
 80071ec:	46bd      	mov	sp, r7
 80071ee:	f85d 7b04 	ldr.w	r7, [sp], #4
 80071f2:	4770      	bx	lr
 80071f4:	40010400 	.word	0x40010400

080071f8 <LL_EXTI_DisableIT_0_31>:
{
 80071f8:	b480      	push	{r7}
 80071fa:	b083      	sub	sp, #12
 80071fc:	af00      	add	r7, sp, #0
 80071fe:	6078      	str	r0, [r7, #4]
  CLEAR_BIT(EXTI->IMR1, ExtiLine);
 8007200:	4b06      	ldr	r3, [pc, #24]	; (800721c <LL_EXTI_DisableIT_0_31+0x24>)
 8007202:	681a      	ldr	r2, [r3, #0]
 8007204:	687b      	ldr	r3, [r7, #4]
 8007206:	43db      	mvns	r3, r3
 8007208:	4904      	ldr	r1, [pc, #16]	; (800721c <LL_EXTI_DisableIT_0_31+0x24>)
 800720a:	4013      	ands	r3, r2
 800720c:	600b      	str	r3, [r1, #0]
}
 800720e:	bf00      	nop
 8007210:	370c      	adds	r7, #12
 8007212:	46bd      	mov	sp, r7
 8007214:	f85d 7b04 	ldr.w	r7, [sp], #4
 8007218:	4770      	bx	lr
 800721a:	bf00      	nop
 800721c:	40010400 	.word	0x40010400

08007220 <LL_EXTI_DisableIT_32_63>:
{
 8007220:	b480      	push	{r7}
 8007222:	b083      	sub	sp, #12
 8007224:	af00      	add	r7, sp, #0
 8007226:	6078      	str	r0, [r7, #4]
  CLEAR_BIT(EXTI->IMR2, ExtiLine);
 8007228:	4b06      	ldr	r3, [pc, #24]	; (8007244 <LL_EXTI_DisableIT_32_63+0x24>)
 800722a:	6a1a      	ldr	r2, [r3, #32]
 800722c:	687b      	ldr	r3, [r7, #4]
 800722e:	43db      	mvns	r3, r3
 8007230:	4904      	ldr	r1, [pc, #16]	; (8007244 <LL_EXTI_DisableIT_32_63+0x24>)
 8007232:	4013      	ands	r3, r2
 8007234:	620b      	str	r3, [r1, #32]
}
 8007236:	bf00      	nop
 8007238:	370c      	adds	r7, #12
 800723a:	46bd      	mov	sp, r7
 800723c:	f85d 7b04 	ldr.w	r7, [sp], #4
 8007240:	4770      	bx	lr
 8007242:	bf00      	nop
 8007244:	40010400 	.word	0x40010400

08007248 <LL_EXTI_EnableEvent_0_31>:
{
 8007248:	b480      	push	{r7}
 800724a:	b083      	sub	sp, #12
 800724c:	af00      	add	r7, sp, #0
 800724e:	6078      	str	r0, [r7, #4]
  SET_BIT(EXTI->EMR1, ExtiLine);
 8007250:	4b05      	ldr	r3, [pc, #20]	; (8007268 <LL_EXTI_EnableEvent_0_31+0x20>)
 8007252:	685a      	ldr	r2, [r3, #4]
 8007254:	4904      	ldr	r1, [pc, #16]	; (8007268 <LL_EXTI_EnableEvent_0_31+0x20>)
 8007256:	687b      	ldr	r3, [r7, #4]
 8007258:	4313      	orrs	r3, r2
 800725a:	604b      	str	r3, [r1, #4]
}
 800725c:	bf00      	nop
 800725e:	370c      	adds	r7, #12
 8007260:	46bd      	mov	sp, r7
 8007262:	f85d 7b04 	ldr.w	r7, [sp], #4
 8007266:	4770      	bx	lr
 8007268:	40010400 	.word	0x40010400

0800726c <LL_EXTI_EnableEvent_32_63>:
{
 800726c:	b480      	push	{r7}
 800726e:	b083      	sub	sp, #12
 8007270:	af00      	add	r7, sp, #0
 8007272:	6078      	str	r0, [r7, #4]
  SET_BIT(EXTI->EMR2, ExtiLine);
 8007274:	4b05      	ldr	r3, [pc, #20]	; (800728c <LL_EXTI_EnableEvent_32_63+0x20>)
 8007276:	6a5a      	ldr	r2, [r3, #36]	; 0x24
 8007278:	4904      	ldr	r1, [pc, #16]	; (800728c <LL_EXTI_EnableEvent_32_63+0x20>)
 800727a:	687b      	ldr	r3, [r7, #4]
 800727c:	4313      	orrs	r3, r2
 800727e:	624b      	str	r3, [r1, #36]	; 0x24
}
 8007280:	bf00      	nop
 8007282:	370c      	adds	r7, #12
 8007284:	46bd      	mov	sp, r7
 8007286:	f85d 7b04 	ldr.w	r7, [sp], #4
 800728a:	4770      	bx	lr
 800728c:	40010400 	.word	0x40010400

08007290 <LL_EXTI_DisableEvent_0_31>:
{
 8007290:	b480      	push	{r7}
 8007292:	b083      	sub	sp, #12
 8007294:	af00      	add	r7, sp, #0
 8007296:	6078      	str	r0, [r7, #4]
  CLEAR_BIT(EXTI->EMR1, ExtiLine);
 8007298:	4b06      	ldr	r3, [pc, #24]	; (80072b4 <LL_EXTI_DisableEvent_0_31+0x24>)
 800729a:	685a      	ldr	r2, [r3, #4]
 800729c:	687b      	ldr	r3, [r7, #4]
 800729e:	43db      	mvns	r3, r3
 80072a0:	4904      	ldr	r1, [pc, #16]	; (80072b4 <LL_EXTI_DisableEvent_0_31+0x24>)
 80072a2:	4013      	ands	r3, r2
 80072a4:	604b      	str	r3, [r1, #4]
}
 80072a6:	bf00      	nop
 80072a8:	370c      	adds	r7, #12
 80072aa:	46bd      	mov	sp, r7
 80072ac:	f85d 7b04 	ldr.w	r7, [sp], #4
 80072b0:	4770      	bx	lr
 80072b2:	bf00      	nop
 80072b4:	40010400 	.word	0x40010400

080072b8 <LL_EXTI_DisableEvent_32_63>:
{
 80072b8:	b480      	push	{r7}
 80072ba:	b083      	sub	sp, #12
 80072bc:	af00      	add	r7, sp, #0
 80072be:	6078      	str	r0, [r7, #4]
  CLEAR_BIT(EXTI->EMR2, ExtiLine);
 80072c0:	4b06      	ldr	r3, [pc, #24]	; (80072dc <LL_EXTI_DisableEvent_32_63+0x24>)
 80072c2:	6a5a      	ldr	r2, [r3, #36]	; 0x24
 80072c4:	687b      	ldr	r3, [r7, #4]
 80072c6:	43db      	mvns	r3, r3
 80072c8:	4904      	ldr	r1, [pc, #16]	; (80072dc <LL_EXTI_DisableEvent_32_63+0x24>)
 80072ca:	4013      	ands	r3, r2
 80072cc:	624b      	str	r3, [r1, #36]	; 0x24
}
 80072ce:	bf00      	nop
 80072d0:	370c      	adds	r7, #12
 80072d2:	46bd      	mov	sp, r7
 80072d4:	f85d 7b04 	ldr.w	r7, [sp], #4
 80072d8:	4770      	bx	lr
 80072da:	bf00      	nop
 80072dc:	40010400 	.word	0x40010400

080072e0 <LL_EXTI_EnableRisingTrig_0_31>:
{
 80072e0:	b480      	push	{r7}
 80072e2:	b083      	sub	sp, #12
 80072e4:	af00      	add	r7, sp, #0
 80072e6:	6078      	str	r0, [r7, #4]
  SET_BIT(EXTI->RTSR1, ExtiLine);
 80072e8:	4b05      	ldr	r3, [pc, #20]	; (8007300 <LL_EXTI_EnableRisingTrig_0_31+0x20>)
 80072ea:	689a      	ldr	r2, [r3, #8]
 80072ec:	4904      	ldr	r1, [pc, #16]	; (8007300 <LL_EXTI_EnableRisingTrig_0_31+0x20>)
 80072ee:	687b      	ldr	r3, [r7, #4]
 80072f0:	4313      	orrs	r3, r2
 80072f2:	608b      	str	r3, [r1, #8]
}
 80072f4:	bf00      	nop
 80072f6:	370c      	adds	r7, #12
 80072f8:	46bd      	mov	sp, r7
 80072fa:	f85d 7b04 	ldr.w	r7, [sp], #4
 80072fe:	4770      	bx	lr
 8007300:	40010400 	.word	0x40010400

08007304 <LL_EXTI_EnableRisingTrig_32_63>:
{
 8007304:	b480      	push	{r7}
 8007306:	b083      	sub	sp, #12
 8007308:	af00      	add	r7, sp, #0
 800730a:	6078      	str	r0, [r7, #4]
  SET_BIT(EXTI->RTSR2, ExtiLine);
 800730c:	4b05      	ldr	r3, [pc, #20]	; (8007324 <LL_EXTI_EnableRisingTrig_32_63+0x20>)
 800730e:	6a9a      	ldr	r2, [r3, #40]	; 0x28
 8007310:	4904      	ldr	r1, [pc, #16]	; (8007324 <LL_EXTI_EnableRisingTrig_32_63+0x20>)
 8007312:	687b      	ldr	r3, [r7, #4]
 8007314:	4313      	orrs	r3, r2
 8007316:	628b      	str	r3, [r1, #40]	; 0x28
}
 8007318:	bf00      	nop
 800731a:	370c      	adds	r7, #12
 800731c:	46bd      	mov	sp, r7
 800731e:	f85d 7b04 	ldr.w	r7, [sp], #4
 8007322:	4770      	bx	lr
 8007324:	40010400 	.word	0x40010400

08007328 <LL_EXTI_DisableRisingTrig_0_31>:
{
 8007328:	b480      	push	{r7}
 800732a:	b083      	sub	sp, #12
 800732c:	af00      	add	r7, sp, #0
 800732e:	6078      	str	r0, [r7, #4]
  CLEAR_BIT(EXTI->RTSR1, ExtiLine);
 8007330:	4b06      	ldr	r3, [pc, #24]	; (800734c <LL_EXTI_DisableRisingTrig_0_31+0x24>)
 8007332:	689a      	ldr	r2, [r3, #8]
 8007334:	687b      	ldr	r3, [r7, #4]
 8007336:	43db      	mvns	r3, r3
 8007338:	4904      	ldr	r1, [pc, #16]	; (800734c <LL_EXTI_DisableRisingTrig_0_31+0x24>)
 800733a:	4013      	ands	r3, r2
 800733c:	608b      	str	r3, [r1, #8]
}
 800733e:	bf00      	nop
 8007340:	370c      	adds	r7, #12
 8007342:	46bd      	mov	sp, r7
 8007344:	f85d 7b04 	ldr.w	r7, [sp], #4
 8007348:	4770      	bx	lr
 800734a:	bf00      	nop
 800734c:	40010400 	.word	0x40010400

08007350 <LL_EXTI_DisableRisingTrig_32_63>:
{
 8007350:	b480      	push	{r7}
 8007352:	b083      	sub	sp, #12
 8007354:	af00      	add	r7, sp, #0
 8007356:	6078      	str	r0, [r7, #4]
  CLEAR_BIT(EXTI->RTSR2, ExtiLine);
 8007358:	4b06      	ldr	r3, [pc, #24]	; (8007374 <LL_EXTI_DisableRisingTrig_32_63+0x24>)
 800735a:	6a9a      	ldr	r2, [r3, #40]	; 0x28
 800735c:	687b      	ldr	r3, [r7, #4]
 800735e:	43db      	mvns	r3, r3
 8007360:	4904      	ldr	r1, [pc, #16]	; (8007374 <LL_EXTI_DisableRisingTrig_32_63+0x24>)
 8007362:	4013      	ands	r3, r2
 8007364:	628b      	str	r3, [r1, #40]	; 0x28
}
 8007366:	bf00      	nop
 8007368:	370c      	adds	r7, #12
 800736a:	46bd      	mov	sp, r7
 800736c:	f85d 7b04 	ldr.w	r7, [sp], #4
 8007370:	4770      	bx	lr
 8007372:	bf00      	nop
 8007374:	40010400 	.word	0x40010400

08007378 <LL_EXTI_EnableFallingTrig_0_31>:
{
 8007378:	b480      	push	{r7}
 800737a:	b083      	sub	sp, #12
 800737c:	af00      	add	r7, sp, #0
 800737e:	6078      	str	r0, [r7, #4]
  SET_BIT(EXTI->FTSR1, ExtiLine);
 8007380:	4b05      	ldr	r3, [pc, #20]	; (8007398 <LL_EXTI_EnableFallingTrig_0_31+0x20>)
 8007382:	68da      	ldr	r2, [r3, #12]
 8007384:	4904      	ldr	r1, [pc, #16]	; (8007398 <LL_EXTI_EnableFallingTrig_0_31+0x20>)
 8007386:	687b      	ldr	r3, [r7, #4]
 8007388:	4313      	orrs	r3, r2
 800738a:	60cb      	str	r3, [r1, #12]
}
 800738c:	bf00      	nop
 800738e:	370c      	adds	r7, #12
 8007390:	46bd      	mov	sp, r7
 8007392:	f85d 7b04 	ldr.w	r7, [sp], #4
 8007396:	4770      	bx	lr
 8007398:	40010400 	.word	0x40010400

0800739c <LL_EXTI_EnableFallingTrig_32_63>:
{
 800739c:	b480      	push	{r7}
 800739e:	b083      	sub	sp, #12
 80073a0:	af00      	add	r7, sp, #0
 80073a2:	6078      	str	r0, [r7, #4]
  SET_BIT(EXTI->FTSR2, ExtiLine);
 80073a4:	4b05      	ldr	r3, [pc, #20]	; (80073bc <LL_EXTI_EnableFallingTrig_32_63+0x20>)
 80073a6:	6ada      	ldr	r2, [r3, #44]	; 0x2c
 80073a8:	4904      	ldr	r1, [pc, #16]	; (80073bc <LL_EXTI_EnableFallingTrig_32_63+0x20>)
 80073aa:	687b      	ldr	r3, [r7, #4]
 80073ac:	4313      	orrs	r3, r2
 80073ae:	62cb      	str	r3, [r1, #44]	; 0x2c
}
 80073b0:	bf00      	nop
 80073b2:	370c      	adds	r7, #12
 80073b4:	46bd      	mov	sp, r7
 80073b6:	f85d 7b04 	ldr.w	r7, [sp], #4
 80073ba:	4770      	bx	lr
 80073bc:	40010400 	.word	0x40010400

080073c0 <LL_EXTI_DisableFallingTrig_0_31>:
{
 80073c0:	b480      	push	{r7}
 80073c2:	b083      	sub	sp, #12
 80073c4:	af00      	add	r7, sp, #0
 80073c6:	6078      	str	r0, [r7, #4]
  CLEAR_BIT(EXTI->FTSR1, ExtiLine);
 80073c8:	4b06      	ldr	r3, [pc, #24]	; (80073e4 <LL_EXTI_DisableFallingTrig_0_31+0x24>)
 80073ca:	68da      	ldr	r2, [r3, #12]
 80073cc:	687b      	ldr	r3, [r7, #4]
 80073ce:	43db      	mvns	r3, r3
 80073d0:	4904      	ldr	r1, [pc, #16]	; (80073e4 <LL_EXTI_DisableFallingTrig_0_31+0x24>)
 80073d2:	4013      	ands	r3, r2
 80073d4:	60cb      	str	r3, [r1, #12]
}
 80073d6:	bf00      	nop
 80073d8:	370c      	adds	r7, #12
 80073da:	46bd      	mov	sp, r7
 80073dc:	f85d 7b04 	ldr.w	r7, [sp], #4
 80073e0:	4770      	bx	lr
 80073e2:	bf00      	nop
 80073e4:	40010400 	.word	0x40010400

080073e8 <LL_EXTI_DisableFallingTrig_32_63>:
{
 80073e8:	b480      	push	{r7}
 80073ea:	b083      	sub	sp, #12
 80073ec:	af00      	add	r7, sp, #0
 80073ee:	6078      	str	r0, [r7, #4]
  CLEAR_BIT(EXTI->FTSR2, ExtiLine);
 80073f0:	4b06      	ldr	r3, [pc, #24]	; (800740c <LL_EXTI_DisableFallingTrig_32_63+0x24>)
 80073f2:	6ada      	ldr	r2, [r3, #44]	; 0x2c
 80073f4:	687b      	ldr	r3, [r7, #4]
 80073f6:	43db      	mvns	r3, r3
 80073f8:	4904      	ldr	r1, [pc, #16]	; (800740c <LL_EXTI_DisableFallingTrig_32_63+0x24>)
 80073fa:	4013      	ands	r3, r2
 80073fc:	62cb      	str	r3, [r1, #44]	; 0x2c
}
 80073fe:	bf00      	nop
 8007400:	370c      	adds	r7, #12
 8007402:	46bd      	mov	sp, r7
 8007404:	f85d 7b04 	ldr.w	r7, [sp], #4
 8007408:	4770      	bx	lr
 800740a:	bf00      	nop
 800740c:	40010400 	.word	0x40010400

08007410 <LL_EXTI_Init>:
  * @retval An ErrorStatus enumeration value:
  *          - 0x00: EXTI registers are initialized
  *          - any other calue : wrong configuration
  */
uint32_t LL_EXTI_Init(LL_EXTI_InitTypeDef *EXTI_InitStruct)
{
 8007410:	b580      	push	{r7, lr}
 8007412:	b084      	sub	sp, #16
 8007414:	af00      	add	r7, sp, #0
 8007416:	6078      	str	r0, [r7, #4]
  uint32_t status = 0x00u;
 8007418:	2300      	movs	r3, #0
 800741a:	60fb      	str	r3, [r7, #12]
  assert_param(IS_LL_EXTI_LINE_32_63(EXTI_InitStruct->Line_32_63));
  assert_param(IS_FUNCTIONAL_STATE(EXTI_InitStruct->LineCommand));
  assert_param(IS_LL_EXTI_MODE(EXTI_InitStruct->Mode));

  /* ENABLE LineCommand */
  if (EXTI_InitStruct->LineCommand != DISABLE)
 800741c:	687b      	ldr	r3, [r7, #4]
 800741e:	7a1b      	ldrb	r3, [r3, #8]
 8007420:	2b00      	cmp	r3, #0
 8007422:	f000 80c8 	beq.w	80075b6 <LL_EXTI_Init+0x1a6>
  {
    assert_param(IS_LL_EXTI_TRIGGER(EXTI_InitStruct->Trigger));

    /* Configure EXTI Lines in range from 0 to 31 */
    if (EXTI_InitStruct->Line_0_31 != LL_EXTI_LINE_NONE)
 8007426:	687b      	ldr	r3, [r7, #4]
 8007428:	681b      	ldr	r3, [r3, #0]
 800742a:	2b00      	cmp	r3, #0
 800742c:	d05d      	beq.n	80074ea <LL_EXTI_Init+0xda>
    {
      switch (EXTI_InitStruct->Mode)
 800742e:	687b      	ldr	r3, [r7, #4]
 8007430:	7a5b      	ldrb	r3, [r3, #9]
 8007432:	2b01      	cmp	r3, #1
 8007434:	d00e      	beq.n	8007454 <LL_EXTI_Init+0x44>
 8007436:	2b02      	cmp	r3, #2
 8007438:	d017      	beq.n	800746a <LL_EXTI_Init+0x5a>
 800743a:	2b00      	cmp	r3, #0
 800743c:	d120      	bne.n	8007480 <LL_EXTI_Init+0x70>
      {
        case LL_EXTI_MODE_IT:
          /* First Disable Event on provided Lines */
          LL_EXTI_DisableEvent_0_31(EXTI_InitStruct->Line_0_31);
 800743e:	687b      	ldr	r3, [r7, #4]
 8007440:	681b      	ldr	r3, [r3, #0]
 8007442:	4618      	mov	r0, r3
 8007444:	f7ff ff24 	bl	8007290 <LL_EXTI_DisableEvent_0_31>
          /* Then Enable IT on provided Lines */
          LL_EXTI_EnableIT_0_31(EXTI_InitStruct->Line_0_31);
 8007448:	687b      	ldr	r3, [r7, #4]
 800744a:	681b      	ldr	r3, [r3, #0]
 800744c:	4618      	mov	r0, r3
 800744e:	f7ff feaf 	bl	80071b0 <LL_EXTI_EnableIT_0_31>
          break;
 8007452:	e018      	b.n	8007486 <LL_EXTI_Init+0x76>
        case LL_EXTI_MODE_EVENT:
          /* First Disable IT on provided Lines */
          LL_EXTI_DisableIT_0_31(EXTI_InitStruct->Line_0_31);
 8007454:	687b      	ldr	r3, [r7, #4]
 8007456:	681b      	ldr	r3, [r3, #0]
 8007458:	4618      	mov	r0, r3
 800745a:	f7ff fecd 	bl	80071f8 <LL_EXTI_DisableIT_0_31>
          /* Then Enable Event on provided Lines */
          LL_EXTI_EnableEvent_0_31(EXTI_InitStruct->Line_0_31);
 800745e:	687b      	ldr	r3, [r7, #4]
 8007460:	681b      	ldr	r3, [r3, #0]
 8007462:	4618      	mov	r0, r3
 8007464:	f7ff fef0 	bl	8007248 <LL_EXTI_EnableEvent_0_31>
          break;
 8007468:	e00d      	b.n	8007486 <LL_EXTI_Init+0x76>
        case LL_EXTI_MODE_IT_EVENT:
          /* Directly Enable IT on provided Lines */
          LL_EXTI_EnableIT_0_31(EXTI_InitStruct->Line_0_31);
 800746a:	687b      	ldr	r3, [r7, #4]
 800746c:	681b      	ldr	r3, [r3, #0]
 800746e:	4618      	mov	r0, r3
 8007470:	f7ff fe9e 	bl	80071b0 <LL_EXTI_EnableIT_0_31>
          /* Directly Enable Event on provided Lines */
          LL_EXTI_EnableEvent_0_31(EXTI_InitStruct->Line_0_31);
 8007474:	687b      	ldr	r3, [r7, #4]
 8007476:	681b      	ldr	r3, [r3, #0]
 8007478:	4618      	mov	r0, r3
 800747a:	f7ff fee5 	bl	8007248 <LL_EXTI_EnableEvent_0_31>
          break;
 800747e:	e002      	b.n	8007486 <LL_EXTI_Init+0x76>
        default:
          status = 0x01u;
 8007480:	2301      	movs	r3, #1
 8007482:	60fb      	str	r3, [r7, #12]
          break;
 8007484:	bf00      	nop
      }
      if (EXTI_InitStruct->Trigger != LL_EXTI_TRIGGER_NONE)
 8007486:	687b      	ldr	r3, [r7, #4]
 8007488:	7a9b      	ldrb	r3, [r3, #10]
 800748a:	2b00      	cmp	r3, #0
 800748c:	d02d      	beq.n	80074ea <LL_EXTI_Init+0xda>
      {
        switch (EXTI_InitStruct->Trigger)
 800748e:	687b      	ldr	r3, [r7, #4]
 8007490:	7a9b      	ldrb	r3, [r3, #10]
 8007492:	2b02      	cmp	r3, #2
 8007494:	d00e      	beq.n	80074b4 <LL_EXTI_Init+0xa4>
 8007496:	2b03      	cmp	r3, #3
 8007498:	d017      	beq.n	80074ca <LL_EXTI_Init+0xba>
 800749a:	2b01      	cmp	r3, #1
 800749c:	d120      	bne.n	80074e0 <LL_EXTI_Init+0xd0>
        {
          case LL_EXTI_TRIGGER_RISING:
            /* First Disable Falling Trigger on provided Lines */
            LL_EXTI_DisableFallingTrig_0_31(EXTI_InitStruct->Line_0_31);
 800749e:	687b      	ldr	r3, [r7, #4]
 80074a0:	681b      	ldr	r3, [r3, #0]
 80074a2:	4618      	mov	r0, r3
 80074a4:	f7ff ff8c 	bl	80073c0 <LL_EXTI_DisableFallingTrig_0_31>
            /* Then Enable Rising Trigger on provided Lines */
            LL_EXTI_EnableRisingTrig_0_31(EXTI_InitStruct->Line_0_31);
 80074a8:	687b      	ldr	r3, [r7, #4]
 80074aa:	681b      	ldr	r3, [r3, #0]
 80074ac:	4618      	mov	r0, r3
 80074ae:	f7ff ff17 	bl	80072e0 <LL_EXTI_EnableRisingTrig_0_31>
            break;
 80074b2:	e01b      	b.n	80074ec <LL_EXTI_Init+0xdc>
          case LL_EXTI_TRIGGER_FALLING:
            /* First Disable Rising Trigger on provided Lines */
            LL_EXTI_DisableRisingTrig_0_31(EXTI_InitStruct->Line_0_31);
 80074b4:	687b      	ldr	r3, [r7, #4]
 80074b6:	681b      	ldr	r3, [r3, #0]
 80074b8:	4618      	mov	r0, r3
 80074ba:	f7ff ff35 	bl	8007328 <LL_EXTI_DisableRisingTrig_0_31>
            /* Then Enable Falling Trigger on provided Lines */
            LL_EXTI_EnableFallingTrig_0_31(EXTI_InitStruct->Line_0_31);
 80074be:	687b      	ldr	r3, [r7, #4]
 80074c0:	681b      	ldr	r3, [r3, #0]
 80074c2:	4618      	mov	r0, r3
 80074c4:	f7ff ff58 	bl	8007378 <LL_EXTI_EnableFallingTrig_0_31>
            break;
 80074c8:	e010      	b.n	80074ec <LL_EXTI_Init+0xdc>
          case LL_EXTI_TRIGGER_RISING_FALLING:
            /* Enable Rising Trigger on provided Lines */
            LL_EXTI_EnableRisingTrig_0_31(EXTI_InitStruct->Line_0_31);
 80074ca:	687b      	ldr	r3, [r7, #4]
 80074cc:	681b      	ldr	r3, [r3, #0]
 80074ce:	4618      	mov	r0, r3
 80074d0:	f7ff ff06 	bl	80072e0 <LL_EXTI_EnableRisingTrig_0_31>
            /* Enable Falling Trigger on provided Lines */
            LL_EXTI_EnableFallingTrig_0_31(EXTI_InitStruct->Line_0_31);
 80074d4:	687b      	ldr	r3, [r7, #4]
 80074d6:	681b      	ldr	r3, [r3, #0]
 80074d8:	4618      	mov	r0, r3
 80074da:	f7ff ff4d 	bl	8007378 <LL_EXTI_EnableFallingTrig_0_31>
            break;
 80074de:	e005      	b.n	80074ec <LL_EXTI_Init+0xdc>
          default:
            status |= 0x02u;
 80074e0:	68fb      	ldr	r3, [r7, #12]
 80074e2:	f043 0302 	orr.w	r3, r3, #2
 80074e6:	60fb      	str	r3, [r7, #12]
            break;
 80074e8:	e000      	b.n	80074ec <LL_EXTI_Init+0xdc>
        }
      }
 80074ea:	bf00      	nop
    }
    /* Configure EXTI Lines in range from 32 to 63 */
    if (EXTI_InitStruct->Line_32_63 != LL_EXTI_LINE_NONE)
 80074ec:	687b      	ldr	r3, [r7, #4]
 80074ee:	685b      	ldr	r3, [r3, #4]
 80074f0:	2b00      	cmp	r3, #0
 80074f2:	d075      	beq.n	80075e0 <LL_EXTI_Init+0x1d0>
    {
      switch (EXTI_InitStruct->Mode)
 80074f4:	687b      	ldr	r3, [r7, #4]
 80074f6:	7a5b      	ldrb	r3, [r3, #9]
 80074f8:	2b01      	cmp	r3, #1
 80074fa:	d00e      	beq.n	800751a <LL_EXTI_Init+0x10a>
 80074fc:	2b02      	cmp	r3, #2
 80074fe:	d017      	beq.n	8007530 <LL_EXTI_Init+0x120>
 8007500:	2b00      	cmp	r3, #0
 8007502:	d120      	bne.n	8007546 <LL_EXTI_Init+0x136>
      {
        case LL_EXTI_MODE_IT:
          /* First Disable Event on provided Lines */
          LL_EXTI_DisableEvent_32_63(EXTI_InitStruct->Line_32_63);
 8007504:	687b      	ldr	r3, [r7, #4]
 8007506:	685b      	ldr	r3, [r3, #4]
 8007508:	4618      	mov	r0, r3
 800750a:	f7ff fed5 	bl	80072b8 <LL_EXTI_DisableEvent_32_63>
          /* Then Enable IT on provided Lines */
          LL_EXTI_EnableIT_32_63(EXTI_InitStruct->Line_32_63);
 800750e:	687b      	ldr	r3, [r7, #4]
 8007510:	685b      	ldr	r3, [r3, #4]
 8007512:	4618      	mov	r0, r3
 8007514:	f7ff fe5e 	bl	80071d4 <LL_EXTI_EnableIT_32_63>
          break;
 8007518:	e01a      	b.n	8007550 <LL_EXTI_Init+0x140>
        case LL_EXTI_MODE_EVENT:
          /* First Disable IT on provided Lines */
          LL_EXTI_DisableIT_32_63(EXTI_InitStruct->Line_32_63);
 800751a:	687b      	ldr	r3, [r7, #4]
 800751c:	685b      	ldr	r3, [r3, #4]
 800751e:	4618      	mov	r0, r3
 8007520:	f7ff fe7e 	bl	8007220 <LL_EXTI_DisableIT_32_63>
          /* Then Enable Event on provided Lines */
          LL_EXTI_EnableEvent_32_63(EXTI_InitStruct->Line_32_63);
 8007524:	687b      	ldr	r3, [r7, #4]
 8007526:	685b      	ldr	r3, [r3, #4]
 8007528:	4618      	mov	r0, r3
 800752a:	f7ff fe9f 	bl	800726c <LL_EXTI_EnableEvent_32_63>
          break;
 800752e:	e00f      	b.n	8007550 <LL_EXTI_Init+0x140>
        case LL_EXTI_MODE_IT_EVENT:
          /* Directly Enable IT on provided Lines */
          LL_EXTI_EnableIT_32_63(EXTI_InitStruct->Line_32_63);
 8007530:	687b      	ldr	r3, [r7, #4]
 8007532:	685b      	ldr	r3, [r3, #4]
 8007534:	4618      	mov	r0, r3
 8007536:	f7ff fe4d 	bl	80071d4 <LL_EXTI_EnableIT_32_63>
          /* Directly Enable IT on provided Lines */
          LL_EXTI_EnableEvent_32_63(EXTI_InitStruct->Line_32_63);
 800753a:	687b      	ldr	r3, [r7, #4]
 800753c:	685b      	ldr	r3, [r3, #4]
 800753e:	4618      	mov	r0, r3
 8007540:	f7ff fe94 	bl	800726c <LL_EXTI_EnableEvent_32_63>
          break;
 8007544:	e004      	b.n	8007550 <LL_EXTI_Init+0x140>
        default:
          status |= 0x04u;
 8007546:	68fb      	ldr	r3, [r7, #12]
 8007548:	f043 0304 	orr.w	r3, r3, #4
 800754c:	60fb      	str	r3, [r7, #12]
          break;
 800754e:	bf00      	nop
      }
      if (EXTI_InitStruct->Trigger != LL_EXTI_TRIGGER_NONE)
 8007550:	687b      	ldr	r3, [r7, #4]
 8007552:	7a9b      	ldrb	r3, [r3, #10]
 8007554:	2b00      	cmp	r3, #0
 8007556:	d043      	beq.n	80075e0 <LL_EXTI_Init+0x1d0>
      {
        switch (EXTI_InitStruct->Trigger)
 8007558:	687b      	ldr	r3, [r7, #4]
 800755a:	7a9b      	ldrb	r3, [r3, #10]
 800755c:	2b02      	cmp	r3, #2
 800755e:	d00e      	beq.n	800757e <LL_EXTI_Init+0x16e>
 8007560:	2b03      	cmp	r3, #3
 8007562:	d017      	beq.n	8007594 <LL_EXTI_Init+0x184>
 8007564:	2b01      	cmp	r3, #1
 8007566:	d120      	bne.n	80075aa <LL_EXTI_Init+0x19a>
        {
          case LL_EXTI_TRIGGER_RISING:
            /* First Disable Falling Trigger on provided Lines */
            LL_EXTI_DisableFallingTrig_32_63(EXTI_InitStruct->Line_32_63);
 8007568:	687b      	ldr	r3, [r7, #4]
 800756a:	685b      	ldr	r3, [r3, #4]
 800756c:	4618      	mov	r0, r3
 800756e:	f7ff ff3b 	bl	80073e8 <LL_EXTI_DisableFallingTrig_32_63>
            /* Then Enable IT on provided Lines */
            LL_EXTI_EnableRisingTrig_32_63(EXTI_InitStruct->Line_32_63);
 8007572:	687b      	ldr	r3, [r7, #4]
 8007574:	685b      	ldr	r3, [r3, #4]
 8007576:	4618      	mov	r0, r3
 8007578:	f7ff fec4 	bl	8007304 <LL_EXTI_EnableRisingTrig_32_63>
            break;
 800757c:	e031      	b.n	80075e2 <LL_EXTI_Init+0x1d2>
          case LL_EXTI_TRIGGER_FALLING:
            /* First Disable Rising Trigger on provided Lines */
            LL_EXTI_DisableRisingTrig_32_63(EXTI_InitStruct->Line_32_63);
 800757e:	687b      	ldr	r3, [r7, #4]
 8007580:	685b      	ldr	r3, [r3, #4]
 8007582:	4618      	mov	r0, r3
 8007584:	f7ff fee4 	bl	8007350 <LL_EXTI_DisableRisingTrig_32_63>
            /* Then Enable Falling Trigger on provided Lines */
            LL_EXTI_EnableFallingTrig_32_63(EXTI_InitStruct->Line_32_63);
 8007588:	687b      	ldr	r3, [r7, #4]
 800758a:	685b      	ldr	r3, [r3, #4]
 800758c:	4618      	mov	r0, r3
 800758e:	f7ff ff05 	bl	800739c <LL_EXTI_EnableFallingTrig_32_63>
            break;
 8007592:	e026      	b.n	80075e2 <LL_EXTI_Init+0x1d2>
          case LL_EXTI_TRIGGER_RISING_FALLING:
            /* Enable Rising Trigger on provided Lines */
            LL_EXTI_EnableRisingTrig_32_63(EXTI_InitStruct->Line_32_63);
 8007594:	687b      	ldr	r3, [r7, #4]
 8007596:	685b      	ldr	r3, [r3, #4]
 8007598:	4618      	mov	r0, r3
 800759a:	f7ff feb3 	bl	8007304 <LL_EXTI_EnableRisingTrig_32_63>
            /* Enable Falling Trigger on provided Lines */
            LL_EXTI_EnableFallingTrig_32_63(EXTI_InitStruct->Line_32_63);
 800759e:	687b      	ldr	r3, [r7, #4]
 80075a0:	685b      	ldr	r3, [r3, #4]
 80075a2:	4618      	mov	r0, r3
 80075a4:	f7ff fefa 	bl	800739c <LL_EXTI_EnableFallingTrig_32_63>
            break;
 80075a8:	e01b      	b.n	80075e2 <LL_EXTI_Init+0x1d2>
          default:
            status |= 0x05u;
 80075aa:	68fb      	ldr	r3, [r7, #12]
 80075ac:	f043 0305 	orr.w	r3, r3, #5
 80075b0:	60fb      	str	r3, [r7, #12]
            break;
 80075b2:	bf00      	nop
 80075b4:	e015      	b.n	80075e2 <LL_EXTI_Init+0x1d2>
  }
  /* DISABLE LineCommand */
  else
  {
    /* De-configure IT EXTI Lines in range from 0 to 31 */
    LL_EXTI_DisableIT_0_31(EXTI_InitStruct->Line_0_31);
 80075b6:	687b      	ldr	r3, [r7, #4]
 80075b8:	681b      	ldr	r3, [r3, #0]
 80075ba:	4618      	mov	r0, r3
 80075bc:	f7ff fe1c 	bl	80071f8 <LL_EXTI_DisableIT_0_31>
    /* De-configure Event EXTI Lines in range from 0 to 31 */
    LL_EXTI_DisableEvent_0_31(EXTI_InitStruct->Line_0_31);
 80075c0:	687b      	ldr	r3, [r7, #4]
 80075c2:	681b      	ldr	r3, [r3, #0]
 80075c4:	4618      	mov	r0, r3
 80075c6:	f7ff fe63 	bl	8007290 <LL_EXTI_DisableEvent_0_31>
    /* De-configure IT EXTI Lines in range from 32 to 63 */
    LL_EXTI_DisableIT_32_63(EXTI_InitStruct->Line_32_63);
 80075ca:	687b      	ldr	r3, [r7, #4]
 80075cc:	685b      	ldr	r3, [r3, #4]
 80075ce:	4618      	mov	r0, r3
 80075d0:	f7ff fe26 	bl	8007220 <LL_EXTI_DisableIT_32_63>
    /* De-configure Event EXTI Lines in range from 32 to 63 */
    LL_EXTI_DisableEvent_32_63(EXTI_InitStruct->Line_32_63);
 80075d4:	687b      	ldr	r3, [r7, #4]
 80075d6:	685b      	ldr	r3, [r3, #4]
 80075d8:	4618      	mov	r0, r3
 80075da:	f7ff fe6d 	bl	80072b8 <LL_EXTI_DisableEvent_32_63>
 80075de:	e000      	b.n	80075e2 <LL_EXTI_Init+0x1d2>
      }
 80075e0:	bf00      	nop
  }

  return status;
 80075e2:	68fb      	ldr	r3, [r7, #12]
}
 80075e4:	4618      	mov	r0, r3
 80075e6:	3710      	adds	r7, #16
 80075e8:	46bd      	mov	sp, r7
 80075ea:	bd80      	pop	{r7, pc}

080075ec <LL_GPIO_SetPinMode>:
{
 80075ec:	b480      	push	{r7}
 80075ee:	b089      	sub	sp, #36	; 0x24
 80075f0:	af00      	add	r7, sp, #0
 80075f2:	60f8      	str	r0, [r7, #12]
 80075f4:	60b9      	str	r1, [r7, #8]
 80075f6:	607a      	str	r2, [r7, #4]
  MODIFY_REG(GPIOx->MODER, (GPIO_MODER_MODE0 << (POSITION_VAL(Pin) * 2U)), (Mode << (POSITION_VAL(Pin) * 2U)));
 80075f8:	68fb      	ldr	r3, [r7, #12]
 80075fa:	681a      	ldr	r2, [r3, #0]
 80075fc:	68bb      	ldr	r3, [r7, #8]
 80075fe:	617b      	str	r3, [r7, #20]
   __ASM volatile ("rbit %0, %1" : "=r" (result) : "r" (value) );
 8007600:	697b      	ldr	r3, [r7, #20]
 8007602:	fa93 f3a3 	rbit	r3, r3
 8007606:	613b      	str	r3, [r7, #16]
  return result;
 8007608:	693b      	ldr	r3, [r7, #16]
 800760a:	fab3 f383 	clz	r3, r3
 800760e:	b2db      	uxtb	r3, r3
 8007610:	005b      	lsls	r3, r3, #1
 8007612:	2103      	movs	r1, #3
 8007614:	fa01 f303 	lsl.w	r3, r1, r3
 8007618:	43db      	mvns	r3, r3
 800761a:	401a      	ands	r2, r3
 800761c:	68bb      	ldr	r3, [r7, #8]
 800761e:	61fb      	str	r3, [r7, #28]
   __ASM volatile ("rbit %0, %1" : "=r" (result) : "r" (value) );
 8007620:	69fb      	ldr	r3, [r7, #28]
 8007622:	fa93 f3a3 	rbit	r3, r3
 8007626:	61bb      	str	r3, [r7, #24]
  return result;
 8007628:	69bb      	ldr	r3, [r7, #24]
 800762a:	fab3 f383 	clz	r3, r3
 800762e:	b2db      	uxtb	r3, r3
 8007630:	005b      	lsls	r3, r3, #1
 8007632:	6879      	ldr	r1, [r7, #4]
 8007634:	fa01 f303 	lsl.w	r3, r1, r3
 8007638:	431a      	orrs	r2, r3
 800763a:	68fb      	ldr	r3, [r7, #12]
 800763c:	601a      	str	r2, [r3, #0]
}
 800763e:	bf00      	nop
 8007640:	3724      	adds	r7, #36	; 0x24
 8007642:	46bd      	mov	sp, r7
 8007644:	f85d 7b04 	ldr.w	r7, [sp], #4
 8007648:	4770      	bx	lr

0800764a <LL_GPIO_SetPinOutputType>:
{
 800764a:	b480      	push	{r7}
 800764c:	b085      	sub	sp, #20
 800764e:	af00      	add	r7, sp, #0
 8007650:	60f8      	str	r0, [r7, #12]
 8007652:	60b9      	str	r1, [r7, #8]
 8007654:	607a      	str	r2, [r7, #4]
  MODIFY_REG(GPIOx->OTYPER, PinMask, (PinMask * OutputType));
 8007656:	68fb      	ldr	r3, [r7, #12]
 8007658:	685a      	ldr	r2, [r3, #4]
 800765a:	68bb      	ldr	r3, [r7, #8]
 800765c:	43db      	mvns	r3, r3
 800765e:	401a      	ands	r2, r3
 8007660:	68bb      	ldr	r3, [r7, #8]
 8007662:	6879      	ldr	r1, [r7, #4]
 8007664:	fb01 f303 	mul.w	r3, r1, r3
 8007668:	431a      	orrs	r2, r3
 800766a:	68fb      	ldr	r3, [r7, #12]
 800766c:	605a      	str	r2, [r3, #4]
}
 800766e:	bf00      	nop
 8007670:	3714      	adds	r7, #20
 8007672:	46bd      	mov	sp, r7
 8007674:	f85d 7b04 	ldr.w	r7, [sp], #4
 8007678:	4770      	bx	lr

0800767a <LL_GPIO_SetPinSpeed>:
{
 800767a:	b480      	push	{r7}
 800767c:	b089      	sub	sp, #36	; 0x24
 800767e:	af00      	add	r7, sp, #0
 8007680:	60f8      	str	r0, [r7, #12]
 8007682:	60b9      	str	r1, [r7, #8]
 8007684:	607a      	str	r2, [r7, #4]
  MODIFY_REG(GPIOx->OSPEEDR, (GPIO_OSPEEDR_OSPEED0 << (POSITION_VAL(Pin) * 2U)),
 8007686:	68fb      	ldr	r3, [r7, #12]
 8007688:	689a      	ldr	r2, [r3, #8]
 800768a:	68bb      	ldr	r3, [r7, #8]
 800768c:	617b      	str	r3, [r7, #20]
   __ASM volatile ("rbit %0, %1" : "=r" (result) : "r" (value) );
 800768e:	697b      	ldr	r3, [r7, #20]
 8007690:	fa93 f3a3 	rbit	r3, r3
 8007694:	613b      	str	r3, [r7, #16]
  return result;
 8007696:	693b      	ldr	r3, [r7, #16]
 8007698:	fab3 f383 	clz	r3, r3
 800769c:	b2db      	uxtb	r3, r3
 800769e:	005b      	lsls	r3, r3, #1
 80076a0:	2103      	movs	r1, #3
 80076a2:	fa01 f303 	lsl.w	r3, r1, r3
 80076a6:	43db      	mvns	r3, r3
 80076a8:	401a      	ands	r2, r3
 80076aa:	68bb      	ldr	r3, [r7, #8]
 80076ac:	61fb      	str	r3, [r7, #28]
   __ASM volatile ("rbit %0, %1" : "=r" (result) : "r" (value) );
 80076ae:	69fb      	ldr	r3, [r7, #28]
 80076b0:	fa93 f3a3 	rbit	r3, r3
 80076b4:	61bb      	str	r3, [r7, #24]
  return result;
 80076b6:	69bb      	ldr	r3, [r7, #24]
 80076b8:	fab3 f383 	clz	r3, r3
 80076bc:	b2db      	uxtb	r3, r3
 80076be:	005b      	lsls	r3, r3, #1
 80076c0:	6879      	ldr	r1, [r7, #4]
 80076c2:	fa01 f303 	lsl.w	r3, r1, r3
 80076c6:	431a      	orrs	r2, r3
 80076c8:	68fb      	ldr	r3, [r7, #12]
 80076ca:	609a      	str	r2, [r3, #8]
}
 80076cc:	bf00      	nop
 80076ce:	3724      	adds	r7, #36	; 0x24
 80076d0:	46bd      	mov	sp, r7
 80076d2:	f85d 7b04 	ldr.w	r7, [sp], #4
 80076d6:	4770      	bx	lr

080076d8 <LL_GPIO_SetPinPull>:
{
 80076d8:	b480      	push	{r7}
 80076da:	b089      	sub	sp, #36	; 0x24
 80076dc:	af00      	add	r7, sp, #0
 80076de:	60f8      	str	r0, [r7, #12]
 80076e0:	60b9      	str	r1, [r7, #8]
 80076e2:	607a      	str	r2, [r7, #4]
  MODIFY_REG(GPIOx->PUPDR, (GPIO_PUPDR_PUPD0 << (POSITION_VAL(Pin) * 2U)), (Pull << (POSITION_VAL(Pin) * 2U)));
 80076e4:	68fb      	ldr	r3, [r7, #12]
 80076e6:	68da      	ldr	r2, [r3, #12]
 80076e8:	68bb      	ldr	r3, [r7, #8]
 80076ea:	617b      	str	r3, [r7, #20]
   __ASM volatile ("rbit %0, %1" : "=r" (result) : "r" (value) );
 80076ec:	697b      	ldr	r3, [r7, #20]
 80076ee:	fa93 f3a3 	rbit	r3, r3
 80076f2:	613b      	str	r3, [r7, #16]
  return result;
 80076f4:	693b      	ldr	r3, [r7, #16]
 80076f6:	fab3 f383 	clz	r3, r3
 80076fa:	b2db      	uxtb	r3, r3
 80076fc:	005b      	lsls	r3, r3, #1
 80076fe:	2103      	movs	r1, #3
 8007700:	fa01 f303 	lsl.w	r3, r1, r3
 8007704:	43db      	mvns	r3, r3
 8007706:	401a      	ands	r2, r3
 8007708:	68bb      	ldr	r3, [r7, #8]
 800770a:	61fb      	str	r3, [r7, #28]
   __ASM volatile ("rbit %0, %1" : "=r" (result) : "r" (value) );
 800770c:	69fb      	ldr	r3, [r7, #28]
 800770e:	fa93 f3a3 	rbit	r3, r3
 8007712:	61bb      	str	r3, [r7, #24]
  return result;
 8007714:	69bb      	ldr	r3, [r7, #24]
 8007716:	fab3 f383 	clz	r3, r3
 800771a:	b2db      	uxtb	r3, r3
 800771c:	005b      	lsls	r3, r3, #1
 800771e:	6879      	ldr	r1, [r7, #4]
 8007720:	fa01 f303 	lsl.w	r3, r1, r3
 8007724:	431a      	orrs	r2, r3
 8007726:	68fb      	ldr	r3, [r7, #12]
 8007728:	60da      	str	r2, [r3, #12]
}
 800772a:	bf00      	nop
 800772c:	3724      	adds	r7, #36	; 0x24
 800772e:	46bd      	mov	sp, r7
 8007730:	f85d 7b04 	ldr.w	r7, [sp], #4
 8007734:	4770      	bx	lr

08007736 <LL_GPIO_SetAFPin_0_7>:
{
 8007736:	b480      	push	{r7}
 8007738:	b089      	sub	sp, #36	; 0x24
 800773a:	af00      	add	r7, sp, #0
 800773c:	60f8      	str	r0, [r7, #12]
 800773e:	60b9      	str	r1, [r7, #8]
 8007740:	607a      	str	r2, [r7, #4]
  MODIFY_REG(GPIOx->AFR[0], (GPIO_AFRL_AFSEL0 << (POSITION_VAL(Pin) * 4U)),
 8007742:	68fb      	ldr	r3, [r7, #12]
 8007744:	6a1a      	ldr	r2, [r3, #32]
 8007746:	68bb      	ldr	r3, [r7, #8]
 8007748:	617b      	str	r3, [r7, #20]
   __ASM volatile ("rbit %0, %1" : "=r" (result) : "r" (value) );
 800774a:	697b      	ldr	r3, [r7, #20]
 800774c:	fa93 f3a3 	rbit	r3, r3
 8007750:	613b      	str	r3, [r7, #16]
  return result;
 8007752:	693b      	ldr	r3, [r7, #16]
 8007754:	fab3 f383 	clz	r3, r3
 8007758:	b2db      	uxtb	r3, r3
 800775a:	009b      	lsls	r3, r3, #2
 800775c:	210f      	movs	r1, #15
 800775e:	fa01 f303 	lsl.w	r3, r1, r3
 8007762:	43db      	mvns	r3, r3
 8007764:	401a      	ands	r2, r3
 8007766:	68bb      	ldr	r3, [r7, #8]
 8007768:	61fb      	str	r3, [r7, #28]
   __ASM volatile ("rbit %0, %1" : "=r" (result) : "r" (value) );
 800776a:	69fb      	ldr	r3, [r7, #28]
 800776c:	fa93 f3a3 	rbit	r3, r3
 8007770:	61bb      	str	r3, [r7, #24]
  return result;
 8007772:	69bb      	ldr	r3, [r7, #24]
 8007774:	fab3 f383 	clz	r3, r3
 8007778:	b2db      	uxtb	r3, r3
 800777a:	009b      	lsls	r3, r3, #2
 800777c:	6879      	ldr	r1, [r7, #4]
 800777e:	fa01 f303 	lsl.w	r3, r1, r3
 8007782:	431a      	orrs	r2, r3
 8007784:	68fb      	ldr	r3, [r7, #12]
 8007786:	621a      	str	r2, [r3, #32]
}
 8007788:	bf00      	nop
 800778a:	3724      	adds	r7, #36	; 0x24
 800778c:	46bd      	mov	sp, r7
 800778e:	f85d 7b04 	ldr.w	r7, [sp], #4
 8007792:	4770      	bx	lr

08007794 <LL_GPIO_SetAFPin_8_15>:
{
 8007794:	b480      	push	{r7}
 8007796:	b089      	sub	sp, #36	; 0x24
 8007798:	af00      	add	r7, sp, #0
 800779a:	60f8      	str	r0, [r7, #12]
 800779c:	60b9      	str	r1, [r7, #8]
 800779e:	607a      	str	r2, [r7, #4]
  MODIFY_REG(GPIOx->AFR[1], (GPIO_AFRH_AFSEL8 << (POSITION_VAL(Pin >> 8U) * 4U)),
 80077a0:	68fb      	ldr	r3, [r7, #12]
 80077a2:	6a5a      	ldr	r2, [r3, #36]	; 0x24
 80077a4:	68bb      	ldr	r3, [r7, #8]
 80077a6:	0a1b      	lsrs	r3, r3, #8
 80077a8:	617b      	str	r3, [r7, #20]
   __ASM volatile ("rbit %0, %1" : "=r" (result) : "r" (value) );
 80077aa:	697b      	ldr	r3, [r7, #20]
 80077ac:	fa93 f3a3 	rbit	r3, r3
 80077b0:	613b      	str	r3, [r7, #16]
  return result;
 80077b2:	693b      	ldr	r3, [r7, #16]
 80077b4:	fab3 f383 	clz	r3, r3
 80077b8:	b2db      	uxtb	r3, r3
 80077ba:	009b      	lsls	r3, r3, #2
 80077bc:	210f      	movs	r1, #15
 80077be:	fa01 f303 	lsl.w	r3, r1, r3
 80077c2:	43db      	mvns	r3, r3
 80077c4:	401a      	ands	r2, r3
 80077c6:	68bb      	ldr	r3, [r7, #8]
 80077c8:	0a1b      	lsrs	r3, r3, #8
 80077ca:	61fb      	str	r3, [r7, #28]
   __ASM volatile ("rbit %0, %1" : "=r" (result) : "r" (value) );
 80077cc:	69fb      	ldr	r3, [r7, #28]
 80077ce:	fa93 f3a3 	rbit	r3, r3
 80077d2:	61bb      	str	r3, [r7, #24]
  return result;
 80077d4:	69bb      	ldr	r3, [r7, #24]
 80077d6:	fab3 f383 	clz	r3, r3
 80077da:	b2db      	uxtb	r3, r3
 80077dc:	009b      	lsls	r3, r3, #2
 80077de:	6879      	ldr	r1, [r7, #4]
 80077e0:	fa01 f303 	lsl.w	r3, r1, r3
 80077e4:	431a      	orrs	r2, r3
 80077e6:	68fb      	ldr	r3, [r7, #12]
 80077e8:	625a      	str	r2, [r3, #36]	; 0x24
}
 80077ea:	bf00      	nop
 80077ec:	3724      	adds	r7, #36	; 0x24
 80077ee:	46bd      	mov	sp, r7
 80077f0:	f85d 7b04 	ldr.w	r7, [sp], #4
 80077f4:	4770      	bx	lr

080077f6 <LL_GPIO_Init>:
  * @retval An ErrorStatus enumeration value:
  *          - SUCCESS: GPIO registers are initialized according to GPIO_InitStruct content
  *          - ERROR:   Not applicable
  */
ErrorStatus LL_GPIO_Init(GPIO_TypeDef *GPIOx, LL_GPIO_InitTypeDef *GPIO_InitStruct)
{
 80077f6:	b580      	push	{r7, lr}
 80077f8:	b086      	sub	sp, #24
 80077fa:	af00      	add	r7, sp, #0
 80077fc:	6078      	str	r0, [r7, #4]
 80077fe:	6039      	str	r1, [r7, #0]
  assert_param(IS_LL_GPIO_MODE(GPIO_InitStruct->Mode));
  assert_param(IS_LL_GPIO_PULL(GPIO_InitStruct->Pull));

  /* ------------------------- Configure the port pins ---------------- */
  /* Initialize  pinpos on first pin set */
  pinpos = POSITION_VAL(GPIO_InitStruct->Pin);
 8007800:	683b      	ldr	r3, [r7, #0]
 8007802:	681b      	ldr	r3, [r3, #0]
 8007804:	60fb      	str	r3, [r7, #12]
   __ASM volatile ("rbit %0, %1" : "=r" (result) : "r" (value) );
 8007806:	68fb      	ldr	r3, [r7, #12]
 8007808:	fa93 f3a3 	rbit	r3, r3
 800780c:	60bb      	str	r3, [r7, #8]
  return result;
 800780e:	68bb      	ldr	r3, [r7, #8]
 8007810:	fab3 f383 	clz	r3, r3
 8007814:	b2db      	uxtb	r3, r3
 8007816:	617b      	str	r3, [r7, #20]

  /* Configure the port pins */
  while (((GPIO_InitStruct->Pin) >> pinpos) != 0x00000000U)
 8007818:	e040      	b.n	800789c <LL_GPIO_Init+0xa6>
  {
    /* Get current io position */
    currentpin = (GPIO_InitStruct->Pin) & (0x00000001UL << pinpos);
 800781a:	683b      	ldr	r3, [r7, #0]
 800781c:	681a      	ldr	r2, [r3, #0]
 800781e:	2101      	movs	r1, #1
 8007820:	697b      	ldr	r3, [r7, #20]
 8007822:	fa01 f303 	lsl.w	r3, r1, r3
 8007826:	4013      	ands	r3, r2
 8007828:	613b      	str	r3, [r7, #16]

    if (currentpin != 0x00u)
 800782a:	693b      	ldr	r3, [r7, #16]
 800782c:	2b00      	cmp	r3, #0
 800782e:	d032      	beq.n	8007896 <LL_GPIO_Init+0xa0>
    {
      /* Pin Mode configuration */
      LL_GPIO_SetPinMode(GPIOx, currentpin, GPIO_InitStruct->Mode);
 8007830:	683b      	ldr	r3, [r7, #0]
 8007832:	685b      	ldr	r3, [r3, #4]
 8007834:	461a      	mov	r2, r3
 8007836:	6939      	ldr	r1, [r7, #16]
 8007838:	6878      	ldr	r0, [r7, #4]
 800783a:	f7ff fed7 	bl	80075ec <LL_GPIO_SetPinMode>

      if ((GPIO_InitStruct->Mode == LL_GPIO_MODE_OUTPUT) || (GPIO_InitStruct->Mode == LL_GPIO_MODE_ALTERNATE))
 800783e:	683b      	ldr	r3, [r7, #0]
 8007840:	685b      	ldr	r3, [r3, #4]
 8007842:	2b01      	cmp	r3, #1
 8007844:	d003      	beq.n	800784e <LL_GPIO_Init+0x58>
 8007846:	683b      	ldr	r3, [r7, #0]
 8007848:	685b      	ldr	r3, [r3, #4]
 800784a:	2b02      	cmp	r3, #2
 800784c:	d106      	bne.n	800785c <LL_GPIO_Init+0x66>
      {
        /* Check Speed mode parameters */
        assert_param(IS_LL_GPIO_SPEED(GPIO_InitStruct->Speed));

        /* Speed mode configuration */
        LL_GPIO_SetPinSpeed(GPIOx, currentpin, GPIO_InitStruct->Speed);
 800784e:	683b      	ldr	r3, [r7, #0]
 8007850:	689b      	ldr	r3, [r3, #8]
 8007852:	461a      	mov	r2, r3
 8007854:	6939      	ldr	r1, [r7, #16]
 8007856:	6878      	ldr	r0, [r7, #4]
 8007858:	f7ff ff0f 	bl	800767a <LL_GPIO_SetPinSpeed>
      }

      /* Pull-up Pull down resistor configuration*/
      LL_GPIO_SetPinPull(GPIOx, currentpin, GPIO_InitStruct->Pull);
 800785c:	683b      	ldr	r3, [r7, #0]
 800785e:	691b      	ldr	r3, [r3, #16]
 8007860:	461a      	mov	r2, r3
 8007862:	6939      	ldr	r1, [r7, #16]
 8007864:	6878      	ldr	r0, [r7, #4]
 8007866:	f7ff ff37 	bl	80076d8 <LL_GPIO_SetPinPull>

      if (GPIO_InitStruct->Mode == LL_GPIO_MODE_ALTERNATE)
 800786a:	683b      	ldr	r3, [r7, #0]
 800786c:	685b      	ldr	r3, [r3, #4]
 800786e:	2b02      	cmp	r3, #2
 8007870:	d111      	bne.n	8007896 <LL_GPIO_Init+0xa0>
      {
        /* Check Alternate parameter */
        assert_param(IS_LL_GPIO_ALTERNATE(GPIO_InitStruct->Alternate));

        /* Speed mode configuration */
        if (currentpin < LL_GPIO_PIN_8)
 8007872:	693b      	ldr	r3, [r7, #16]
 8007874:	2bff      	cmp	r3, #255	; 0xff
 8007876:	d807      	bhi.n	8007888 <LL_GPIO_Init+0x92>
        {
          LL_GPIO_SetAFPin_0_7(GPIOx, currentpin, GPIO_InitStruct->Alternate);
 8007878:	683b      	ldr	r3, [r7, #0]
 800787a:	695b      	ldr	r3, [r3, #20]
 800787c:	461a      	mov	r2, r3
 800787e:	6939      	ldr	r1, [r7, #16]
 8007880:	6878      	ldr	r0, [r7, #4]
 8007882:	f7ff ff58 	bl	8007736 <LL_GPIO_SetAFPin_0_7>
 8007886:	e006      	b.n	8007896 <LL_GPIO_Init+0xa0>
        }
        else
        {
          LL_GPIO_SetAFPin_8_15(GPIOx, currentpin, GPIO_InitStruct->Alternate);
 8007888:	683b      	ldr	r3, [r7, #0]
 800788a:	695b      	ldr	r3, [r3, #20]
 800788c:	461a      	mov	r2, r3
 800788e:	6939      	ldr	r1, [r7, #16]
 8007890:	6878      	ldr	r0, [r7, #4]
 8007892:	f7ff ff7f 	bl	8007794 <LL_GPIO_SetAFPin_8_15>
        }
      }
    }
    pinpos++;
 8007896:	697b      	ldr	r3, [r7, #20]
 8007898:	3301      	adds	r3, #1
 800789a:	617b      	str	r3, [r7, #20]
  while (((GPIO_InitStruct->Pin) >> pinpos) != 0x00000000U)
 800789c:	683b      	ldr	r3, [r7, #0]
 800789e:	681a      	ldr	r2, [r3, #0]
 80078a0:	697b      	ldr	r3, [r7, #20]
 80078a2:	fa22 f303 	lsr.w	r3, r2, r3
 80078a6:	2b00      	cmp	r3, #0
 80078a8:	d1b7      	bne.n	800781a <LL_GPIO_Init+0x24>
  }

  if ((GPIO_InitStruct->Mode == LL_GPIO_MODE_OUTPUT) || (GPIO_InitStruct->Mode == LL_GPIO_MODE_ALTERNATE))
 80078aa:	683b      	ldr	r3, [r7, #0]
 80078ac:	685b      	ldr	r3, [r3, #4]
 80078ae:	2b01      	cmp	r3, #1
 80078b0:	d003      	beq.n	80078ba <LL_GPIO_Init+0xc4>
 80078b2:	683b      	ldr	r3, [r7, #0]
 80078b4:	685b      	ldr	r3, [r3, #4]
 80078b6:	2b02      	cmp	r3, #2
 80078b8:	d107      	bne.n	80078ca <LL_GPIO_Init+0xd4>
  {
    /* Check Output mode parameters */
    assert_param(IS_LL_GPIO_OUTPUT_TYPE(GPIO_InitStruct->OutputType));

    /* Output mode configuration*/
    LL_GPIO_SetPinOutputType(GPIOx, GPIO_InitStruct->Pin, GPIO_InitStruct->OutputType);
 80078ba:	683b      	ldr	r3, [r7, #0]
 80078bc:	6819      	ldr	r1, [r3, #0]
 80078be:	683b      	ldr	r3, [r7, #0]
 80078c0:	68db      	ldr	r3, [r3, #12]
 80078c2:	461a      	mov	r2, r3
 80078c4:	6878      	ldr	r0, [r7, #4]
 80078c6:	f7ff fec0 	bl	800764a <LL_GPIO_SetPinOutputType>

  }
  return (SUCCESS);
 80078ca:	2300      	movs	r3, #0
}
 80078cc:	4618      	mov	r0, r3
 80078ce:	3718      	adds	r7, #24
 80078d0:	46bd      	mov	sp, r7
 80078d2:	bd80      	pop	{r7, pc}

080078d4 <ILI9341_Draw_Filled_Circle>:
    }
}

/*Draw filled circle at X,Y location with specified radius and colour. X and Y represent circles center */
void ILI9341_Draw_Filled_Circle(uint16_t X, uint16_t Y, uint16_t Radius, uint16_t Colour)
{
 80078d4:	b590      	push	{r4, r7, lr}
 80078d6:	b08b      	sub	sp, #44	; 0x2c
 80078d8:	af00      	add	r7, sp, #0
 80078da:	4604      	mov	r4, r0
 80078dc:	4608      	mov	r0, r1
 80078de:	4611      	mov	r1, r2
 80078e0:	461a      	mov	r2, r3
 80078e2:	4623      	mov	r3, r4
 80078e4:	80fb      	strh	r3, [r7, #6]
 80078e6:	4603      	mov	r3, r0
 80078e8:	80bb      	strh	r3, [r7, #4]
 80078ea:	460b      	mov	r3, r1
 80078ec:	807b      	strh	r3, [r7, #2]
 80078ee:	4613      	mov	r3, r2
 80078f0:	803b      	strh	r3, [r7, #0]
	
		int x = Radius;
 80078f2:	887b      	ldrh	r3, [r7, #2]
 80078f4:	627b      	str	r3, [r7, #36]	; 0x24
    int y = 0;
 80078f6:	2300      	movs	r3, #0
 80078f8:	623b      	str	r3, [r7, #32]
    int xChange = 1 - (Radius << 1);
 80078fa:	887b      	ldrh	r3, [r7, #2]
 80078fc:	005b      	lsls	r3, r3, #1
 80078fe:	f1c3 0301 	rsb	r3, r3, #1
 8007902:	61fb      	str	r3, [r7, #28]
    int yChange = 0;
 8007904:	2300      	movs	r3, #0
 8007906:	61bb      	str	r3, [r7, #24]
    int radiusError = 0;
 8007908:	2300      	movs	r3, #0
 800790a:	617b      	str	r3, [r7, #20]

    while (x >= y)
 800790c:	e061      	b.n	80079d2 <ILI9341_Draw_Filled_Circle+0xfe>
    {
        for (int i = X - x; i <= X + x; i++)
 800790e:	88fa      	ldrh	r2, [r7, #6]
 8007910:	6a7b      	ldr	r3, [r7, #36]	; 0x24
 8007912:	1ad3      	subs	r3, r2, r3
 8007914:	613b      	str	r3, [r7, #16]
 8007916:	e018      	b.n	800794a <ILI9341_Draw_Filled_Circle+0x76>
        {
            ILI9341_Draw_Pixel(i, Y + y,Colour);
 8007918:	693b      	ldr	r3, [r7, #16]
 800791a:	b298      	uxth	r0, r3
 800791c:	6a3b      	ldr	r3, [r7, #32]
 800791e:	b29a      	uxth	r2, r3
 8007920:	88bb      	ldrh	r3, [r7, #4]
 8007922:	4413      	add	r3, r2
 8007924:	b29b      	uxth	r3, r3
 8007926:	883a      	ldrh	r2, [r7, #0]
 8007928:	4619      	mov	r1, r3
 800792a:	f000 fc21 	bl	8008170 <ILI9341_Draw_Pixel>
            ILI9341_Draw_Pixel(i, Y - y,Colour);
 800792e:	693b      	ldr	r3, [r7, #16]
 8007930:	b298      	uxth	r0, r3
 8007932:	6a3b      	ldr	r3, [r7, #32]
 8007934:	b29b      	uxth	r3, r3
 8007936:	88ba      	ldrh	r2, [r7, #4]
 8007938:	1ad3      	subs	r3, r2, r3
 800793a:	b29b      	uxth	r3, r3
 800793c:	883a      	ldrh	r2, [r7, #0]
 800793e:	4619      	mov	r1, r3
 8007940:	f000 fc16 	bl	8008170 <ILI9341_Draw_Pixel>
        for (int i = X - x; i <= X + x; i++)
 8007944:	693b      	ldr	r3, [r7, #16]
 8007946:	3301      	adds	r3, #1
 8007948:	613b      	str	r3, [r7, #16]
 800794a:	88fa      	ldrh	r2, [r7, #6]
 800794c:	6a7b      	ldr	r3, [r7, #36]	; 0x24
 800794e:	4413      	add	r3, r2
 8007950:	693a      	ldr	r2, [r7, #16]
 8007952:	429a      	cmp	r2, r3
 8007954:	dde0      	ble.n	8007918 <ILI9341_Draw_Filled_Circle+0x44>
        }
        for (int i = X - y; i <= X + y; i++)
 8007956:	88fa      	ldrh	r2, [r7, #6]
 8007958:	6a3b      	ldr	r3, [r7, #32]
 800795a:	1ad3      	subs	r3, r2, r3
 800795c:	60fb      	str	r3, [r7, #12]
 800795e:	e018      	b.n	8007992 <ILI9341_Draw_Filled_Circle+0xbe>
        {
            ILI9341_Draw_Pixel(i, Y + x,Colour);
 8007960:	68fb      	ldr	r3, [r7, #12]
 8007962:	b298      	uxth	r0, r3
 8007964:	6a7b      	ldr	r3, [r7, #36]	; 0x24
 8007966:	b29a      	uxth	r2, r3
 8007968:	88bb      	ldrh	r3, [r7, #4]
 800796a:	4413      	add	r3, r2
 800796c:	b29b      	uxth	r3, r3
 800796e:	883a      	ldrh	r2, [r7, #0]
 8007970:	4619      	mov	r1, r3
 8007972:	f000 fbfd 	bl	8008170 <ILI9341_Draw_Pixel>
            ILI9341_Draw_Pixel(i, Y - x,Colour);
 8007976:	68fb      	ldr	r3, [r7, #12]
 8007978:	b298      	uxth	r0, r3
 800797a:	6a7b      	ldr	r3, [r7, #36]	; 0x24
 800797c:	b29b      	uxth	r3, r3
 800797e:	88ba      	ldrh	r2, [r7, #4]
 8007980:	1ad3      	subs	r3, r2, r3
 8007982:	b29b      	uxth	r3, r3
 8007984:	883a      	ldrh	r2, [r7, #0]
 8007986:	4619      	mov	r1, r3
 8007988:	f000 fbf2 	bl	8008170 <ILI9341_Draw_Pixel>
        for (int i = X - y; i <= X + y; i++)
 800798c:	68fb      	ldr	r3, [r7, #12]
 800798e:	3301      	adds	r3, #1
 8007990:	60fb      	str	r3, [r7, #12]
 8007992:	88fa      	ldrh	r2, [r7, #6]
 8007994:	6a3b      	ldr	r3, [r7, #32]
 8007996:	4413      	add	r3, r2
 8007998:	68fa      	ldr	r2, [r7, #12]
 800799a:	429a      	cmp	r2, r3
 800799c:	dde0      	ble.n	8007960 <ILI9341_Draw_Filled_Circle+0x8c>
        }

        y++;
 800799e:	6a3b      	ldr	r3, [r7, #32]
 80079a0:	3301      	adds	r3, #1
 80079a2:	623b      	str	r3, [r7, #32]
        radiusError += yChange;
 80079a4:	697a      	ldr	r2, [r7, #20]
 80079a6:	69bb      	ldr	r3, [r7, #24]
 80079a8:	4413      	add	r3, r2
 80079aa:	617b      	str	r3, [r7, #20]
        yChange += 2;
 80079ac:	69bb      	ldr	r3, [r7, #24]
 80079ae:	3302      	adds	r3, #2
 80079b0:	61bb      	str	r3, [r7, #24]
        if (((radiusError << 1) + xChange) > 0)
 80079b2:	697b      	ldr	r3, [r7, #20]
 80079b4:	005a      	lsls	r2, r3, #1
 80079b6:	69fb      	ldr	r3, [r7, #28]
 80079b8:	4413      	add	r3, r2
 80079ba:	2b00      	cmp	r3, #0
 80079bc:	dd09      	ble.n	80079d2 <ILI9341_Draw_Filled_Circle+0xfe>
        {
            x--;
 80079be:	6a7b      	ldr	r3, [r7, #36]	; 0x24
 80079c0:	3b01      	subs	r3, #1
 80079c2:	627b      	str	r3, [r7, #36]	; 0x24
            radiusError += xChange;
 80079c4:	697a      	ldr	r2, [r7, #20]
 80079c6:	69fb      	ldr	r3, [r7, #28]
 80079c8:	4413      	add	r3, r2
 80079ca:	617b      	str	r3, [r7, #20]
            xChange += 2;
 80079cc:	69fb      	ldr	r3, [r7, #28]
 80079ce:	3302      	adds	r3, #2
 80079d0:	61fb      	str	r3, [r7, #28]
    while (x >= y)
 80079d2:	6a7a      	ldr	r2, [r7, #36]	; 0x24
 80079d4:	6a3b      	ldr	r3, [r7, #32]
 80079d6:	429a      	cmp	r2, r3
 80079d8:	da99      	bge.n	800790e <ILI9341_Draw_Filled_Circle+0x3a>
        }
    }
		//Really slow implementation, will require future overhaul
		//TODO:	https://stackoverflow.com/questions/1201200/fast-algorithm-for-drawing-filled-circles	
}
 80079da:	bf00      	nop
 80079dc:	372c      	adds	r7, #44	; 0x2c
 80079de:	46bd      	mov	sp, r7
 80079e0:	bd90      	pop	{r4, r7, pc}
	...

080079e4 <ILI9341_Draw_Char>:
}

/*Draws a character (fonts imported from fonts.h) at X,Y location with specified font colour, size and Background colour*/
/*See fonts.h implementation of font on what is required for changing to a different font when switching fonts libraries*/
void ILI9341_Draw_Char(char Character, uint8_t X, uint8_t Y, uint16_t Colour, uint16_t Size, uint16_t Background_Colour) 
{
 80079e4:	b590      	push	{r4, r7, lr}
 80079e6:	b089      	sub	sp, #36	; 0x24
 80079e8:	af02      	add	r7, sp, #8
 80079ea:	4604      	mov	r4, r0
 80079ec:	4608      	mov	r0, r1
 80079ee:	4611      	mov	r1, r2
 80079f0:	461a      	mov	r2, r3
 80079f2:	4623      	mov	r3, r4
 80079f4:	71fb      	strb	r3, [r7, #7]
 80079f6:	4603      	mov	r3, r0
 80079f8:	71bb      	strb	r3, [r7, #6]
 80079fa:	460b      	mov	r3, r1
 80079fc:	717b      	strb	r3, [r7, #5]
 80079fe:	4613      	mov	r3, r2
 8007a00:	807b      	strh	r3, [r7, #2]
		uint8_t 	function_char;
    uint8_t 	i,j;
		
		function_char = Character;
 8007a02:	79fb      	ldrb	r3, [r7, #7]
 8007a04:	75fb      	strb	r3, [r7, #23]
		
    if (function_char < ' ') {
 8007a06:	7dfb      	ldrb	r3, [r7, #23]
 8007a08:	2b1f      	cmp	r3, #31
 8007a0a:	d802      	bhi.n	8007a12 <ILI9341_Draw_Char+0x2e>
        Character = 0;
 8007a0c:	2300      	movs	r3, #0
 8007a0e:	71fb      	strb	r3, [r7, #7]
 8007a10:	e002      	b.n	8007a18 <ILI9341_Draw_Char+0x34>
    } else {
        function_char -= 32;
 8007a12:	7dfb      	ldrb	r3, [r7, #23]
 8007a14:	3b20      	subs	r3, #32
 8007a16:	75fb      	strb	r3, [r7, #23]
		}
   	
		char temp[CHAR_WIDTH];
		for(uint8_t k = 0; k<CHAR_WIDTH; k++)
 8007a18:	2300      	movs	r3, #0
 8007a1a:	753b      	strb	r3, [r7, #20]
 8007a1c:	e012      	b.n	8007a44 <ILI9341_Draw_Char+0x60>
		{
		temp[k] = font[function_char][k];
 8007a1e:	7dfa      	ldrb	r2, [r7, #23]
 8007a20:	7d38      	ldrb	r0, [r7, #20]
 8007a22:	7d39      	ldrb	r1, [r7, #20]
 8007a24:	4c3b      	ldr	r4, [pc, #236]	; (8007b14 <ILI9341_Draw_Char+0x130>)
 8007a26:	4613      	mov	r3, r2
 8007a28:	005b      	lsls	r3, r3, #1
 8007a2a:	4413      	add	r3, r2
 8007a2c:	005b      	lsls	r3, r3, #1
 8007a2e:	4423      	add	r3, r4
 8007a30:	4403      	add	r3, r0
 8007a32:	781a      	ldrb	r2, [r3, #0]
 8007a34:	f107 0318 	add.w	r3, r7, #24
 8007a38:	440b      	add	r3, r1
 8007a3a:	f803 2c0c 	strb.w	r2, [r3, #-12]
		for(uint8_t k = 0; k<CHAR_WIDTH; k++)
 8007a3e:	7d3b      	ldrb	r3, [r7, #20]
 8007a40:	3301      	adds	r3, #1
 8007a42:	753b      	strb	r3, [r7, #20]
 8007a44:	7d3b      	ldrb	r3, [r7, #20]
 8007a46:	2b05      	cmp	r3, #5
 8007a48:	d9e9      	bls.n	8007a1e <ILI9341_Draw_Char+0x3a>
		}
		
    // Draw pixels
		ILI9341_Draw_Rectangle(X, Y, CHAR_WIDTH*Size, CHAR_HEIGHT*Size, Background_Colour);
 8007a4a:	79bb      	ldrb	r3, [r7, #6]
 8007a4c:	b298      	uxth	r0, r3
 8007a4e:	797b      	ldrb	r3, [r7, #5]
 8007a50:	b299      	uxth	r1, r3
 8007a52:	8d3b      	ldrh	r3, [r7, #40]	; 0x28
 8007a54:	461a      	mov	r2, r3
 8007a56:	0052      	lsls	r2, r2, #1
 8007a58:	4413      	add	r3, r2
 8007a5a:	005b      	lsls	r3, r3, #1
 8007a5c:	b29a      	uxth	r2, r3
 8007a5e:	8d3b      	ldrh	r3, [r7, #40]	; 0x28
 8007a60:	00db      	lsls	r3, r3, #3
 8007a62:	b29c      	uxth	r4, r3
 8007a64:	8dbb      	ldrh	r3, [r7, #44]	; 0x2c
 8007a66:	9300      	str	r3, [sp, #0]
 8007a68:	4623      	mov	r3, r4
 8007a6a:	f000 fc5b 	bl	8008324 <ILI9341_Draw_Rectangle>
    for (j=0; j<CHAR_WIDTH; j++) {
 8007a6e:	2300      	movs	r3, #0
 8007a70:	757b      	strb	r3, [r7, #21]
 8007a72:	e048      	b.n	8007b06 <ILI9341_Draw_Char+0x122>
        for (i=0; i<CHAR_HEIGHT; i++) {
 8007a74:	2300      	movs	r3, #0
 8007a76:	75bb      	strb	r3, [r7, #22]
 8007a78:	e03f      	b.n	8007afa <ILI9341_Draw_Char+0x116>
            if (temp[j] & (1<<i)) {			
 8007a7a:	7d7b      	ldrb	r3, [r7, #21]
 8007a7c:	f107 0218 	add.w	r2, r7, #24
 8007a80:	4413      	add	r3, r2
 8007a82:	f813 3c0c 	ldrb.w	r3, [r3, #-12]
 8007a86:	461a      	mov	r2, r3
 8007a88:	7dbb      	ldrb	r3, [r7, #22]
 8007a8a:	fa42 f303 	asr.w	r3, r2, r3
 8007a8e:	f003 0301 	and.w	r3, r3, #1
 8007a92:	2b00      	cmp	r3, #0
 8007a94:	d02e      	beq.n	8007af4 <ILI9341_Draw_Char+0x110>
							if(Size == 1)
 8007a96:	8d3b      	ldrh	r3, [r7, #40]	; 0x28
 8007a98:	2b01      	cmp	r3, #1
 8007a9a:	d110      	bne.n	8007abe <ILI9341_Draw_Char+0xda>
							{
              ILI9341_Draw_Pixel(X+j, Y+i, Colour);
 8007a9c:	79bb      	ldrb	r3, [r7, #6]
 8007a9e:	b29a      	uxth	r2, r3
 8007aa0:	7d7b      	ldrb	r3, [r7, #21]
 8007aa2:	b29b      	uxth	r3, r3
 8007aa4:	4413      	add	r3, r2
 8007aa6:	b298      	uxth	r0, r3
 8007aa8:	797b      	ldrb	r3, [r7, #5]
 8007aaa:	b29a      	uxth	r2, r3
 8007aac:	7dbb      	ldrb	r3, [r7, #22]
 8007aae:	b29b      	uxth	r3, r3
 8007ab0:	4413      	add	r3, r2
 8007ab2:	b29b      	uxth	r3, r3
 8007ab4:	887a      	ldrh	r2, [r7, #2]
 8007ab6:	4619      	mov	r1, r3
 8007ab8:	f000 fb5a 	bl	8008170 <ILI9341_Draw_Pixel>
 8007abc:	e01a      	b.n	8007af4 <ILI9341_Draw_Char+0x110>
							}
							else
							{
							ILI9341_Draw_Rectangle(X+(j*Size), Y+(i*Size), Size, Size, Colour);
 8007abe:	79bb      	ldrb	r3, [r7, #6]
 8007ac0:	b29a      	uxth	r2, r3
 8007ac2:	7d7b      	ldrb	r3, [r7, #21]
 8007ac4:	b29b      	uxth	r3, r3
 8007ac6:	8d39      	ldrh	r1, [r7, #40]	; 0x28
 8007ac8:	fb11 f303 	smulbb	r3, r1, r3
 8007acc:	b29b      	uxth	r3, r3
 8007ace:	4413      	add	r3, r2
 8007ad0:	b298      	uxth	r0, r3
 8007ad2:	797b      	ldrb	r3, [r7, #5]
 8007ad4:	b29a      	uxth	r2, r3
 8007ad6:	7dbb      	ldrb	r3, [r7, #22]
 8007ad8:	b29b      	uxth	r3, r3
 8007ada:	8d39      	ldrh	r1, [r7, #40]	; 0x28
 8007adc:	fb11 f303 	smulbb	r3, r1, r3
 8007ae0:	b29b      	uxth	r3, r3
 8007ae2:	4413      	add	r3, r2
 8007ae4:	b299      	uxth	r1, r3
 8007ae6:	8d3c      	ldrh	r4, [r7, #40]	; 0x28
 8007ae8:	8d3a      	ldrh	r2, [r7, #40]	; 0x28
 8007aea:	887b      	ldrh	r3, [r7, #2]
 8007aec:	9300      	str	r3, [sp, #0]
 8007aee:	4623      	mov	r3, r4
 8007af0:	f000 fc18 	bl	8008324 <ILI9341_Draw_Rectangle>
        for (i=0; i<CHAR_HEIGHT; i++) {
 8007af4:	7dbb      	ldrb	r3, [r7, #22]
 8007af6:	3301      	adds	r3, #1
 8007af8:	75bb      	strb	r3, [r7, #22]
 8007afa:	7dbb      	ldrb	r3, [r7, #22]
 8007afc:	2b07      	cmp	r3, #7
 8007afe:	d9bc      	bls.n	8007a7a <ILI9341_Draw_Char+0x96>
    for (j=0; j<CHAR_WIDTH; j++) {
 8007b00:	7d7b      	ldrb	r3, [r7, #21]
 8007b02:	3301      	adds	r3, #1
 8007b04:	757b      	strb	r3, [r7, #21]
 8007b06:	7d7b      	ldrb	r3, [r7, #21]
 8007b08:	2b05      	cmp	r3, #5
 8007b0a:	d9b3      	bls.n	8007a74 <ILI9341_Draw_Char+0x90>
							}
            }						
        }
    }
}
 8007b0c:	bf00      	nop
 8007b0e:	371c      	adds	r7, #28
 8007b10:	46bd      	mov	sp, r7
 8007b12:	bd90      	pop	{r4, r7, pc}
 8007b14:	08009760 	.word	0x08009760

08007b18 <ILI9341_Draw_Text>:

/*Draws an array of characters (fonts imported from fonts.h) at X,Y location with specified font colour, size and Background colour*/
/*See fonts.h implementation of font on what is required for changing to a different font when switching fonts libraries*/
void ILI9341_Draw_Text(const char* Text, uint8_t X, uint8_t Y, uint16_t Colour, uint16_t Size, uint16_t Background_Colour)
{
 8007b18:	b590      	push	{r4, r7, lr}
 8007b1a:	b085      	sub	sp, #20
 8007b1c:	af02      	add	r7, sp, #8
 8007b1e:	6078      	str	r0, [r7, #4]
 8007b20:	4608      	mov	r0, r1
 8007b22:	4611      	mov	r1, r2
 8007b24:	461a      	mov	r2, r3
 8007b26:	4603      	mov	r3, r0
 8007b28:	70fb      	strb	r3, [r7, #3]
 8007b2a:	460b      	mov	r3, r1
 8007b2c:	70bb      	strb	r3, [r7, #2]
 8007b2e:	4613      	mov	r3, r2
 8007b30:	803b      	strh	r3, [r7, #0]
    while (*Text) {
 8007b32:	e017      	b.n	8007b64 <ILI9341_Draw_Text+0x4c>
        ILI9341_Draw_Char(*Text++, X, Y, Colour, Size, Background_Colour);
 8007b34:	687b      	ldr	r3, [r7, #4]
 8007b36:	1c5a      	adds	r2, r3, #1
 8007b38:	607a      	str	r2, [r7, #4]
 8007b3a:	7818      	ldrb	r0, [r3, #0]
 8007b3c:	883c      	ldrh	r4, [r7, #0]
 8007b3e:	78ba      	ldrb	r2, [r7, #2]
 8007b40:	78f9      	ldrb	r1, [r7, #3]
 8007b42:	8bbb      	ldrh	r3, [r7, #28]
 8007b44:	9301      	str	r3, [sp, #4]
 8007b46:	8b3b      	ldrh	r3, [r7, #24]
 8007b48:	9300      	str	r3, [sp, #0]
 8007b4a:	4623      	mov	r3, r4
 8007b4c:	f7ff ff4a 	bl	80079e4 <ILI9341_Draw_Char>
        X += CHAR_WIDTH*Size;
 8007b50:	8b3b      	ldrh	r3, [r7, #24]
 8007b52:	b2db      	uxtb	r3, r3
 8007b54:	461a      	mov	r2, r3
 8007b56:	0052      	lsls	r2, r2, #1
 8007b58:	4413      	add	r3, r2
 8007b5a:	005b      	lsls	r3, r3, #1
 8007b5c:	b2da      	uxtb	r2, r3
 8007b5e:	78fb      	ldrb	r3, [r7, #3]
 8007b60:	4413      	add	r3, r2
 8007b62:	70fb      	strb	r3, [r7, #3]
    while (*Text) {
 8007b64:	687b      	ldr	r3, [r7, #4]
 8007b66:	781b      	ldrb	r3, [r3, #0]
 8007b68:	2b00      	cmp	r3, #0
 8007b6a:	d1e3      	bne.n	8007b34 <ILI9341_Draw_Text+0x1c>
    }
}
 8007b6c:	bf00      	nop
 8007b6e:	370c      	adds	r7, #12
 8007b70:	46bd      	mov	sp, r7
 8007b72:	bd90      	pop	{r4, r7, pc}

08007b74 <ILI9341_SPI_Init>:
volatile uint16_t LCD_HEIGHT = ILI9341_SCREEN_HEIGHT;
volatile uint16_t LCD_WIDTH	 = ILI9341_SCREEN_WIDTH;

/* Initialize SPI */
void ILI9341_SPI_Init(void)
{
 8007b74:	b480      	push	{r7}
 8007b76:	af00      	add	r7, sp, #0

	//GPIO INIT
	LCD_CS_PORT->ODR &= ~(LCD_CS_PIN);
 8007b78:	4b05      	ldr	r3, [pc, #20]	; (8007b90 <ILI9341_SPI_Init+0x1c>)
 8007b7a:	695b      	ldr	r3, [r3, #20]
 8007b7c:	4a04      	ldr	r2, [pc, #16]	; (8007b90 <ILI9341_SPI_Init+0x1c>)
 8007b7e:	f023 0380 	bic.w	r3, r3, #128	; 0x80
 8007b82:	6153      	str	r3, [r2, #20]
}
 8007b84:	bf00      	nop
 8007b86:	46bd      	mov	sp, r7
 8007b88:	f85d 7b04 	ldr.w	r7, [sp], #4
 8007b8c:	4770      	bx	lr
 8007b8e:	bf00      	nop
 8007b90:	48000400 	.word	0x48000400

08007b94 <ILI9341_SPI_Send>:

/*Send data (char) to LCD*/
void ILI9341_SPI_Send(unsigned char SPI_Data)
{
 8007b94:	b580      	push	{r7, lr}
 8007b96:	b084      	sub	sp, #16
 8007b98:	af00      	add	r7, sp, #0
 8007b9a:	4603      	mov	r3, r0
 8007b9c:	71fb      	strb	r3, [r7, #7]
	HAL_StatusTypeDef res;
	#ifdef USE_ILI9341_SPIDMA
		if( ((res = HAL_SPI_Transmit_DMA(HSPI_INSTANCE, &SPI_Data, 1)) != HAL_OK) )
 8007b9e:	1dfb      	adds	r3, r7, #7
 8007ba0:	2201      	movs	r2, #1
 8007ba2:	4619      	mov	r1, r3
 8007ba4:	4804      	ldr	r0, [pc, #16]	; (8007bb8 <ILI9341_SPI_Send+0x24>)
 8007ba6:	f7fe f887 	bl	8005cb8 <HAL_SPI_Transmit_DMA>
 8007baa:	4603      	mov	r3, r0
 8007bac:	73fb      	strb	r3, [r7, #15]
		{
			//printf("HAL_SPI_Transmit Error #%u, ", res);
		}
	#endif

}
 8007bae:	bf00      	nop
 8007bb0:	3710      	adds	r7, #16
 8007bb2:	46bd      	mov	sp, r7
 8007bb4:	bd80      	pop	{r7, pc}
 8007bb6:	bf00      	nop
 8007bb8:	200021d0 	.word	0x200021d0

08007bbc <ILI9341_Write_Command>:

/* Send command (char) to LCD */
void ILI9341_Write_Command(uint8_t Command)
{
 8007bbc:	b580      	push	{r7, lr}
 8007bbe:	b082      	sub	sp, #8
 8007bc0:	af00      	add	r7, sp, #0
 8007bc2:	4603      	mov	r3, r0
 8007bc4:	71fb      	strb	r3, [r7, #7]
	LCD_CS_PORT->ODR &= ~(LCD_CS_PIN);
 8007bc6:	4b0d      	ldr	r3, [pc, #52]	; (8007bfc <ILI9341_Write_Command+0x40>)
 8007bc8:	695b      	ldr	r3, [r3, #20]
 8007bca:	4a0c      	ldr	r2, [pc, #48]	; (8007bfc <ILI9341_Write_Command+0x40>)
 8007bcc:	f023 0380 	bic.w	r3, r3, #128	; 0x80
 8007bd0:	6153      	str	r3, [r2, #20]
	LCD_DC_PORT->ODR &= ~(LCD_DC_PIN);
 8007bd2:	4b0a      	ldr	r3, [pc, #40]	; (8007bfc <ILI9341_Write_Command+0x40>)
 8007bd4:	695b      	ldr	r3, [r3, #20]
 8007bd6:	4a09      	ldr	r2, [pc, #36]	; (8007bfc <ILI9341_Write_Command+0x40>)
 8007bd8:	f023 0340 	bic.w	r3, r3, #64	; 0x40
 8007bdc:	6153      	str	r3, [r2, #20]
	ILI9341_SPI_Send(Command);
 8007bde:	79fb      	ldrb	r3, [r7, #7]
 8007be0:	4618      	mov	r0, r3
 8007be2:	f7ff ffd7 	bl	8007b94 <ILI9341_SPI_Send>
	LCD_CS_PORT->ODR |= LCD_CS_PIN;
 8007be6:	4b05      	ldr	r3, [pc, #20]	; (8007bfc <ILI9341_Write_Command+0x40>)
 8007be8:	695b      	ldr	r3, [r3, #20]
 8007bea:	4a04      	ldr	r2, [pc, #16]	; (8007bfc <ILI9341_Write_Command+0x40>)
 8007bec:	f043 0380 	orr.w	r3, r3, #128	; 0x80
 8007bf0:	6153      	str	r3, [r2, #20]
}
 8007bf2:	bf00      	nop
 8007bf4:	3708      	adds	r7, #8
 8007bf6:	46bd      	mov	sp, r7
 8007bf8:	bd80      	pop	{r7, pc}
 8007bfa:	bf00      	nop
 8007bfc:	48000400 	.word	0x48000400

08007c00 <ILI9341_Write_Data>:

/* Send Data (char) to LCD */
void ILI9341_Write_Data(uint8_t Data)
{
 8007c00:	b580      	push	{r7, lr}
 8007c02:	b082      	sub	sp, #8
 8007c04:	af00      	add	r7, sp, #0
 8007c06:	4603      	mov	r3, r0
 8007c08:	71fb      	strb	r3, [r7, #7]
	LCD_DC_PORT->ODR |= LCD_DC_PIN;
 8007c0a:	4b0d      	ldr	r3, [pc, #52]	; (8007c40 <ILI9341_Write_Data+0x40>)
 8007c0c:	695b      	ldr	r3, [r3, #20]
 8007c0e:	4a0c      	ldr	r2, [pc, #48]	; (8007c40 <ILI9341_Write_Data+0x40>)
 8007c10:	f043 0340 	orr.w	r3, r3, #64	; 0x40
 8007c14:	6153      	str	r3, [r2, #20]
	LCD_CS_PORT->ODR &= ~(LCD_CS_PIN);
 8007c16:	4b0a      	ldr	r3, [pc, #40]	; (8007c40 <ILI9341_Write_Data+0x40>)
 8007c18:	695b      	ldr	r3, [r3, #20]
 8007c1a:	4a09      	ldr	r2, [pc, #36]	; (8007c40 <ILI9341_Write_Data+0x40>)
 8007c1c:	f023 0380 	bic.w	r3, r3, #128	; 0x80
 8007c20:	6153      	str	r3, [r2, #20]
	ILI9341_SPI_Send(Data);
 8007c22:	79fb      	ldrb	r3, [r7, #7]
 8007c24:	4618      	mov	r0, r3
 8007c26:	f7ff ffb5 	bl	8007b94 <ILI9341_SPI_Send>
	LCD_CS_PORT->ODR &= ~(LCD_CS_PIN);
 8007c2a:	4b05      	ldr	r3, [pc, #20]	; (8007c40 <ILI9341_Write_Data+0x40>)
 8007c2c:	695b      	ldr	r3, [r3, #20]
 8007c2e:	4a04      	ldr	r2, [pc, #16]	; (8007c40 <ILI9341_Write_Data+0x40>)
 8007c30:	f023 0380 	bic.w	r3, r3, #128	; 0x80
 8007c34:	6153      	str	r3, [r2, #20]
}
 8007c36:	bf00      	nop
 8007c38:	3708      	adds	r7, #8
 8007c3a:	46bd      	mov	sp, r7
 8007c3c:	bd80      	pop	{r7, pc}
 8007c3e:	bf00      	nop
 8007c40:	48000400 	.word	0x48000400

08007c44 <ILI9341_Set_Address>:

/* Set Address - Location block - to draw into */
void ILI9341_Set_Address(uint16_t X1, uint16_t Y1, uint16_t X2, uint16_t Y2)
{
 8007c44:	b590      	push	{r4, r7, lr}
 8007c46:	b083      	sub	sp, #12
 8007c48:	af00      	add	r7, sp, #0
 8007c4a:	4604      	mov	r4, r0
 8007c4c:	4608      	mov	r0, r1
 8007c4e:	4611      	mov	r1, r2
 8007c50:	461a      	mov	r2, r3
 8007c52:	4623      	mov	r3, r4
 8007c54:	80fb      	strh	r3, [r7, #6]
 8007c56:	4603      	mov	r3, r0
 8007c58:	80bb      	strh	r3, [r7, #4]
 8007c5a:	460b      	mov	r3, r1
 8007c5c:	807b      	strh	r3, [r7, #2]
 8007c5e:	4613      	mov	r3, r2
 8007c60:	803b      	strh	r3, [r7, #0]
	ILI9341_Write_Command(0x2A);
 8007c62:	202a      	movs	r0, #42	; 0x2a
 8007c64:	f7ff ffaa 	bl	8007bbc <ILI9341_Write_Command>
	ILI9341_Write_Data(X1>>8);
 8007c68:	88fb      	ldrh	r3, [r7, #6]
 8007c6a:	0a1b      	lsrs	r3, r3, #8
 8007c6c:	b29b      	uxth	r3, r3
 8007c6e:	b2db      	uxtb	r3, r3
 8007c70:	4618      	mov	r0, r3
 8007c72:	f7ff ffc5 	bl	8007c00 <ILI9341_Write_Data>
	ILI9341_Write_Data(X1);
 8007c76:	88fb      	ldrh	r3, [r7, #6]
 8007c78:	b2db      	uxtb	r3, r3
 8007c7a:	4618      	mov	r0, r3
 8007c7c:	f7ff ffc0 	bl	8007c00 <ILI9341_Write_Data>
	ILI9341_Write_Data(X2>>8);
 8007c80:	887b      	ldrh	r3, [r7, #2]
 8007c82:	0a1b      	lsrs	r3, r3, #8
 8007c84:	b29b      	uxth	r3, r3
 8007c86:	b2db      	uxtb	r3, r3
 8007c88:	4618      	mov	r0, r3
 8007c8a:	f7ff ffb9 	bl	8007c00 <ILI9341_Write_Data>
	ILI9341_Write_Data(X2);
 8007c8e:	887b      	ldrh	r3, [r7, #2]
 8007c90:	b2db      	uxtb	r3, r3
 8007c92:	4618      	mov	r0, r3
 8007c94:	f7ff ffb4 	bl	8007c00 <ILI9341_Write_Data>

	ILI9341_Write_Command(0x2B);
 8007c98:	202b      	movs	r0, #43	; 0x2b
 8007c9a:	f7ff ff8f 	bl	8007bbc <ILI9341_Write_Command>
	ILI9341_Write_Data(Y1>>8);
 8007c9e:	88bb      	ldrh	r3, [r7, #4]
 8007ca0:	0a1b      	lsrs	r3, r3, #8
 8007ca2:	b29b      	uxth	r3, r3
 8007ca4:	b2db      	uxtb	r3, r3
 8007ca6:	4618      	mov	r0, r3
 8007ca8:	f7ff ffaa 	bl	8007c00 <ILI9341_Write_Data>
	ILI9341_Write_Data(Y1);
 8007cac:	88bb      	ldrh	r3, [r7, #4]
 8007cae:	b2db      	uxtb	r3, r3
 8007cb0:	4618      	mov	r0, r3
 8007cb2:	f7ff ffa5 	bl	8007c00 <ILI9341_Write_Data>
	ILI9341_Write_Data(Y2>>8);
 8007cb6:	883b      	ldrh	r3, [r7, #0]
 8007cb8:	0a1b      	lsrs	r3, r3, #8
 8007cba:	b29b      	uxth	r3, r3
 8007cbc:	b2db      	uxtb	r3, r3
 8007cbe:	4618      	mov	r0, r3
 8007cc0:	f7ff ff9e 	bl	8007c00 <ILI9341_Write_Data>
	ILI9341_Write_Data(Y2);
 8007cc4:	883b      	ldrh	r3, [r7, #0]
 8007cc6:	b2db      	uxtb	r3, r3
 8007cc8:	4618      	mov	r0, r3
 8007cca:	f7ff ff99 	bl	8007c00 <ILI9341_Write_Data>

	ILI9341_Write_Command(0x2C);
 8007cce:	202c      	movs	r0, #44	; 0x2c
 8007cd0:	f7ff ff74 	bl	8007bbc <ILI9341_Write_Command>
}
 8007cd4:	bf00      	nop
 8007cd6:	370c      	adds	r7, #12
 8007cd8:	46bd      	mov	sp, r7
 8007cda:	bd90      	pop	{r4, r7, pc}

08007cdc <ILI9341_Reset>:

/*HARDWARE RESET*/
void ILI9341_Reset(void)
{
 8007cdc:	b580      	push	{r7, lr}
 8007cde:	af00      	add	r7, sp, #0
	LCD_RST_PORT->ODR &= ~(LCD_RST_PIN);
 8007ce0:	4b0c      	ldr	r3, [pc, #48]	; (8007d14 <ILI9341_Reset+0x38>)
 8007ce2:	695b      	ldr	r3, [r3, #20]
 8007ce4:	4a0b      	ldr	r2, [pc, #44]	; (8007d14 <ILI9341_Reset+0x38>)
 8007ce6:	f423 7300 	bic.w	r3, r3, #512	; 0x200
 8007cea:	6153      	str	r3, [r2, #20]
	HAL_Delay(200);
 8007cec:	20c8      	movs	r0, #200	; 0xc8
 8007cee:	f7fa f9ab 	bl	8002048 <HAL_Delay>
	LCD_CS_PORT->ODR &= ~(LCD_CS_PIN);
 8007cf2:	4b08      	ldr	r3, [pc, #32]	; (8007d14 <ILI9341_Reset+0x38>)
 8007cf4:	695b      	ldr	r3, [r3, #20]
 8007cf6:	4a07      	ldr	r2, [pc, #28]	; (8007d14 <ILI9341_Reset+0x38>)
 8007cf8:	f023 0380 	bic.w	r3, r3, #128	; 0x80
 8007cfc:	6153      	str	r3, [r2, #20]
	HAL_Delay(200);
 8007cfe:	20c8      	movs	r0, #200	; 0xc8
 8007d00:	f7fa f9a2 	bl	8002048 <HAL_Delay>
	LCD_RST_PORT->ODR |= LCD_RST_PIN;
 8007d04:	4b03      	ldr	r3, [pc, #12]	; (8007d14 <ILI9341_Reset+0x38>)
 8007d06:	695b      	ldr	r3, [r3, #20]
 8007d08:	4a02      	ldr	r2, [pc, #8]	; (8007d14 <ILI9341_Reset+0x38>)
 8007d0a:	f443 7300 	orr.w	r3, r3, #512	; 0x200
 8007d0e:	6153      	str	r3, [r2, #20]
}
 8007d10:	bf00      	nop
 8007d12:	bd80      	pop	{r7, pc}
 8007d14:	48000400 	.word	0x48000400

08007d18 <ILI9341_Set_Rotation>:

/*Ser rotation of the screen - changes x0 and y0*/
void ILI9341_Set_Rotation(uint8_t Rotation) 
{
 8007d18:	b580      	push	{r7, lr}
 8007d1a:	b084      	sub	sp, #16
 8007d1c:	af00      	add	r7, sp, #0
 8007d1e:	4603      	mov	r3, r0
 8007d20:	71fb      	strb	r3, [r7, #7]
	
	uint8_t screen_rotation = Rotation;
 8007d22:	79fb      	ldrb	r3, [r7, #7]
 8007d24:	73fb      	strb	r3, [r7, #15]
	
	ILI9341_Write_Command(0x36);
 8007d26:	2036      	movs	r0, #54	; 0x36
 8007d28:	f7ff ff48 	bl	8007bbc <ILI9341_Write_Command>
	//HAL_Delay(1);

	switch(screen_rotation)
 8007d2c:	7bfb      	ldrb	r3, [r7, #15]
 8007d2e:	2b03      	cmp	r3, #3
 8007d30:	d836      	bhi.n	8007da0 <ILI9341_Set_Rotation+0x88>
 8007d32:	a201      	add	r2, pc, #4	; (adr r2, 8007d38 <ILI9341_Set_Rotation+0x20>)
 8007d34:	f852 f023 	ldr.w	pc, [r2, r3, lsl #2]
 8007d38:	08007d49 	.word	0x08007d49
 8007d3c:	08007d5f 	.word	0x08007d5f
 8007d40:	08007d75 	.word	0x08007d75
 8007d44:	08007d8b 	.word	0x08007d8b
	{
		case SCREEN_VERTICAL_1:
			ILI9341_Write_Data(0x40|0x08);
 8007d48:	2048      	movs	r0, #72	; 0x48
 8007d4a:	f7ff ff59 	bl	8007c00 <ILI9341_Write_Data>
			LCD_WIDTH = 240;
 8007d4e:	4b17      	ldr	r3, [pc, #92]	; (8007dac <ILI9341_Set_Rotation+0x94>)
 8007d50:	22f0      	movs	r2, #240	; 0xf0
 8007d52:	801a      	strh	r2, [r3, #0]
			LCD_HEIGHT = 320;
 8007d54:	4b16      	ldr	r3, [pc, #88]	; (8007db0 <ILI9341_Set_Rotation+0x98>)
 8007d56:	f44f 72a0 	mov.w	r2, #320	; 0x140
 8007d5a:	801a      	strh	r2, [r3, #0]
			break;
 8007d5c:	e021      	b.n	8007da2 <ILI9341_Set_Rotation+0x8a>
		case SCREEN_HORIZONTAL_1:
			ILI9341_Write_Data(0x20|0x08);
 8007d5e:	2028      	movs	r0, #40	; 0x28
 8007d60:	f7ff ff4e 	bl	8007c00 <ILI9341_Write_Data>
			LCD_WIDTH  = 320;
 8007d64:	4b11      	ldr	r3, [pc, #68]	; (8007dac <ILI9341_Set_Rotation+0x94>)
 8007d66:	f44f 72a0 	mov.w	r2, #320	; 0x140
 8007d6a:	801a      	strh	r2, [r3, #0]
			LCD_HEIGHT = 240;
 8007d6c:	4b10      	ldr	r3, [pc, #64]	; (8007db0 <ILI9341_Set_Rotation+0x98>)
 8007d6e:	22f0      	movs	r2, #240	; 0xf0
 8007d70:	801a      	strh	r2, [r3, #0]
			break;
 8007d72:	e016      	b.n	8007da2 <ILI9341_Set_Rotation+0x8a>
		case SCREEN_VERTICAL_2:
			ILI9341_Write_Data(0x80|0x08);
 8007d74:	2088      	movs	r0, #136	; 0x88
 8007d76:	f7ff ff43 	bl	8007c00 <ILI9341_Write_Data>
			LCD_WIDTH  = 240;
 8007d7a:	4b0c      	ldr	r3, [pc, #48]	; (8007dac <ILI9341_Set_Rotation+0x94>)
 8007d7c:	22f0      	movs	r2, #240	; 0xf0
 8007d7e:	801a      	strh	r2, [r3, #0]
			LCD_HEIGHT = 320;
 8007d80:	4b0b      	ldr	r3, [pc, #44]	; (8007db0 <ILI9341_Set_Rotation+0x98>)
 8007d82:	f44f 72a0 	mov.w	r2, #320	; 0x140
 8007d86:	801a      	strh	r2, [r3, #0]
			break;
 8007d88:	e00b      	b.n	8007da2 <ILI9341_Set_Rotation+0x8a>
		case SCREEN_HORIZONTAL_2:
			ILI9341_Write_Data(0x40|0x80|0x20|0x08);
 8007d8a:	20e8      	movs	r0, #232	; 0xe8
 8007d8c:	f7ff ff38 	bl	8007c00 <ILI9341_Write_Data>
			LCD_WIDTH  = 320;
 8007d90:	4b06      	ldr	r3, [pc, #24]	; (8007dac <ILI9341_Set_Rotation+0x94>)
 8007d92:	f44f 72a0 	mov.w	r2, #320	; 0x140
 8007d96:	801a      	strh	r2, [r3, #0]
			LCD_HEIGHT = 240;
 8007d98:	4b05      	ldr	r3, [pc, #20]	; (8007db0 <ILI9341_Set_Rotation+0x98>)
 8007d9a:	22f0      	movs	r2, #240	; 0xf0
 8007d9c:	801a      	strh	r2, [r3, #0]
			break;
 8007d9e:	e000      	b.n	8007da2 <ILI9341_Set_Rotation+0x8a>
		default:
			//EXIT IF SCREEN ROTATION NOT VALID!
			break;
 8007da0:	bf00      	nop
	}
}
 8007da2:	bf00      	nop
 8007da4:	3710      	adds	r7, #16
 8007da6:	46bd      	mov	sp, r7
 8007da8:	bd80      	pop	{r7, pc}
 8007daa:	bf00      	nop
 8007dac:	20001f52 	.word	0x20001f52
 8007db0:	20001f50 	.word	0x20001f50

08007db4 <ILI9341_Enable>:

/*Enable LCD display*/
void ILI9341_Enable(void)
{
 8007db4:	b480      	push	{r7}
 8007db6:	af00      	add	r7, sp, #0
	LCD_RST_PORT->ODR |= LCD_RST_PIN;
 8007db8:	4b05      	ldr	r3, [pc, #20]	; (8007dd0 <ILI9341_Enable+0x1c>)
 8007dba:	695b      	ldr	r3, [r3, #20]
 8007dbc:	4a04      	ldr	r2, [pc, #16]	; (8007dd0 <ILI9341_Enable+0x1c>)
 8007dbe:	f443 7300 	orr.w	r3, r3, #512	; 0x200
 8007dc2:	6153      	str	r3, [r2, #20]
}
 8007dc4:	bf00      	nop
 8007dc6:	46bd      	mov	sp, r7
 8007dc8:	f85d 7b04 	ldr.w	r7, [sp], #4
 8007dcc:	4770      	bx	lr
 8007dce:	bf00      	nop
 8007dd0:	48000400 	.word	0x48000400

08007dd4 <ILI9341_Init>:

/*Initialize LCD display*/
void ILI9341_Init(void)
{
 8007dd4:	b580      	push	{r7, lr}
 8007dd6:	af00      	add	r7, sp, #0

	ILI9341_Enable();
 8007dd8:	f7ff ffec 	bl	8007db4 <ILI9341_Enable>
	ILI9341_SPI_Init();
 8007ddc:	f7ff feca 	bl	8007b74 <ILI9341_SPI_Init>
	ILI9341_Reset();
 8007de0:	f7ff ff7c 	bl	8007cdc <ILI9341_Reset>

	//SOFTWARE RESET
	ILI9341_Write_Command(0x01);
 8007de4:	2001      	movs	r0, #1
 8007de6:	f7ff fee9 	bl	8007bbc <ILI9341_Write_Command>
	HAL_Delay(2000);
 8007dea:	f44f 60fa 	mov.w	r0, #2000	; 0x7d0
 8007dee:	f7fa f92b 	bl	8002048 <HAL_Delay>

	//POWER CONTROL A
	ILI9341_Write_Command(0xCB);
 8007df2:	20cb      	movs	r0, #203	; 0xcb
 8007df4:	f7ff fee2 	bl	8007bbc <ILI9341_Write_Command>
	ILI9341_Write_Data(0x39);
 8007df8:	2039      	movs	r0, #57	; 0x39
 8007dfa:	f7ff ff01 	bl	8007c00 <ILI9341_Write_Data>
	ILI9341_Write_Data(0x2C);
 8007dfe:	202c      	movs	r0, #44	; 0x2c
 8007e00:	f7ff fefe 	bl	8007c00 <ILI9341_Write_Data>
	ILI9341_Write_Data(0x00);
 8007e04:	2000      	movs	r0, #0
 8007e06:	f7ff fefb 	bl	8007c00 <ILI9341_Write_Data>
	ILI9341_Write_Data(0x34);
 8007e0a:	2034      	movs	r0, #52	; 0x34
 8007e0c:	f7ff fef8 	bl	8007c00 <ILI9341_Write_Data>
	ILI9341_Write_Data(0x02);
 8007e10:	2002      	movs	r0, #2
 8007e12:	f7ff fef5 	bl	8007c00 <ILI9341_Write_Data>

	//POWER CONTROL B
	ILI9341_Write_Command(0xCF);
 8007e16:	20cf      	movs	r0, #207	; 0xcf
 8007e18:	f7ff fed0 	bl	8007bbc <ILI9341_Write_Command>
	ILI9341_Write_Data(0x00);
 8007e1c:	2000      	movs	r0, #0
 8007e1e:	f7ff feef 	bl	8007c00 <ILI9341_Write_Data>
	ILI9341_Write_Data(0xC1);
 8007e22:	20c1      	movs	r0, #193	; 0xc1
 8007e24:	f7ff feec 	bl	8007c00 <ILI9341_Write_Data>
	ILI9341_Write_Data(0x30);
 8007e28:	2030      	movs	r0, #48	; 0x30
 8007e2a:	f7ff fee9 	bl	8007c00 <ILI9341_Write_Data>

	//DRIVER TIMING CONTROL A
	ILI9341_Write_Command(0xE8);
 8007e2e:	20e8      	movs	r0, #232	; 0xe8
 8007e30:	f7ff fec4 	bl	8007bbc <ILI9341_Write_Command>
	ILI9341_Write_Data(0x85);
 8007e34:	2085      	movs	r0, #133	; 0x85
 8007e36:	f7ff fee3 	bl	8007c00 <ILI9341_Write_Data>
	ILI9341_Write_Data(0x00);
 8007e3a:	2000      	movs	r0, #0
 8007e3c:	f7ff fee0 	bl	8007c00 <ILI9341_Write_Data>
	ILI9341_Write_Data(0x78);
 8007e40:	2078      	movs	r0, #120	; 0x78
 8007e42:	f7ff fedd 	bl	8007c00 <ILI9341_Write_Data>

	//DRIVER TIMING CONTROL B
	ILI9341_Write_Command(0xEA);
 8007e46:	20ea      	movs	r0, #234	; 0xea
 8007e48:	f7ff feb8 	bl	8007bbc <ILI9341_Write_Command>
	ILI9341_Write_Data(0x00);
 8007e4c:	2000      	movs	r0, #0
 8007e4e:	f7ff fed7 	bl	8007c00 <ILI9341_Write_Data>
	ILI9341_Write_Data(0x00);
 8007e52:	2000      	movs	r0, #0
 8007e54:	f7ff fed4 	bl	8007c00 <ILI9341_Write_Data>

	//POWER ON SEQUENCE CONTROL
	ILI9341_Write_Command(0xED);
 8007e58:	20ed      	movs	r0, #237	; 0xed
 8007e5a:	f7ff feaf 	bl	8007bbc <ILI9341_Write_Command>
	ILI9341_Write_Data(0x64);
 8007e5e:	2064      	movs	r0, #100	; 0x64
 8007e60:	f7ff fece 	bl	8007c00 <ILI9341_Write_Data>
	ILI9341_Write_Data(0x03);
 8007e64:	2003      	movs	r0, #3
 8007e66:	f7ff fecb 	bl	8007c00 <ILI9341_Write_Data>
	ILI9341_Write_Data(0x12);
 8007e6a:	2012      	movs	r0, #18
 8007e6c:	f7ff fec8 	bl	8007c00 <ILI9341_Write_Data>
	ILI9341_Write_Data(0x81);
 8007e70:	2081      	movs	r0, #129	; 0x81
 8007e72:	f7ff fec5 	bl	8007c00 <ILI9341_Write_Data>

	//PUMP RATIO CONTROL
	ILI9341_Write_Command(0xF7);
 8007e76:	20f7      	movs	r0, #247	; 0xf7
 8007e78:	f7ff fea0 	bl	8007bbc <ILI9341_Write_Command>
	ILI9341_Write_Data(0x20);
 8007e7c:	2020      	movs	r0, #32
 8007e7e:	f7ff febf 	bl	8007c00 <ILI9341_Write_Data>

	//POWER CONTROL,VRH[5:0]
	ILI9341_Write_Command(0xC0);
 8007e82:	20c0      	movs	r0, #192	; 0xc0
 8007e84:	f7ff fe9a 	bl	8007bbc <ILI9341_Write_Command>
	ILI9341_Write_Data(0x23);
 8007e88:	2023      	movs	r0, #35	; 0x23
 8007e8a:	f7ff feb9 	bl	8007c00 <ILI9341_Write_Data>

	//POWER CONTROL,SAP[2:0];BT[3:0]
	ILI9341_Write_Command(0xC1);
 8007e8e:	20c1      	movs	r0, #193	; 0xc1
 8007e90:	f7ff fe94 	bl	8007bbc <ILI9341_Write_Command>
	ILI9341_Write_Data(0x10);
 8007e94:	2010      	movs	r0, #16
 8007e96:	f7ff feb3 	bl	8007c00 <ILI9341_Write_Data>

	//VCM CONTROL
	ILI9341_Write_Command(0xC5);
 8007e9a:	20c5      	movs	r0, #197	; 0xc5
 8007e9c:	f7ff fe8e 	bl	8007bbc <ILI9341_Write_Command>
	ILI9341_Write_Data(0x3E);
 8007ea0:	203e      	movs	r0, #62	; 0x3e
 8007ea2:	f7ff fead 	bl	8007c00 <ILI9341_Write_Data>
	ILI9341_Write_Data(0x28);
 8007ea6:	2028      	movs	r0, #40	; 0x28
 8007ea8:	f7ff feaa 	bl	8007c00 <ILI9341_Write_Data>

	//VCM CONTROL 2
	ILI9341_Write_Command(0xC7);
 8007eac:	20c7      	movs	r0, #199	; 0xc7
 8007eae:	f7ff fe85 	bl	8007bbc <ILI9341_Write_Command>
	ILI9341_Write_Data(0x86);
 8007eb2:	2086      	movs	r0, #134	; 0x86
 8007eb4:	f7ff fea4 	bl	8007c00 <ILI9341_Write_Data>

	//MEMORY ACCESS CONTROL
	ILI9341_Write_Command(0x36);
 8007eb8:	2036      	movs	r0, #54	; 0x36
 8007eba:	f7ff fe7f 	bl	8007bbc <ILI9341_Write_Command>
	ILI9341_Write_Data(0x48);
 8007ebe:	2048      	movs	r0, #72	; 0x48
 8007ec0:	f7ff fe9e 	bl	8007c00 <ILI9341_Write_Data>

	//PIXEL FORMAT
	ILI9341_Write_Command(0x3A);
 8007ec4:	203a      	movs	r0, #58	; 0x3a
 8007ec6:	f7ff fe79 	bl	8007bbc <ILI9341_Write_Command>
	ILI9341_Write_Data(0x55);
 8007eca:	2055      	movs	r0, #85	; 0x55
 8007ecc:	f7ff fe98 	bl	8007c00 <ILI9341_Write_Data>

	//FRAME RATIO CONTROL, STANDARD RGB COLOR
	ILI9341_Write_Command(0xB1);
 8007ed0:	20b1      	movs	r0, #177	; 0xb1
 8007ed2:	f7ff fe73 	bl	8007bbc <ILI9341_Write_Command>
	ILI9341_Write_Data(0x00);
 8007ed6:	2000      	movs	r0, #0
 8007ed8:	f7ff fe92 	bl	8007c00 <ILI9341_Write_Data>
	ILI9341_Write_Data(0x18);
 8007edc:	2018      	movs	r0, #24
 8007ede:	f7ff fe8f 	bl	8007c00 <ILI9341_Write_Data>

	//DISPLAY FUNCTION CONTROL
	ILI9341_Write_Command(0xB6);
 8007ee2:	20b6      	movs	r0, #182	; 0xb6
 8007ee4:	f7ff fe6a 	bl	8007bbc <ILI9341_Write_Command>
	ILI9341_Write_Data(0x08);
 8007ee8:	2008      	movs	r0, #8
 8007eea:	f7ff fe89 	bl	8007c00 <ILI9341_Write_Data>
	ILI9341_Write_Data(0x82);
 8007eee:	2082      	movs	r0, #130	; 0x82
 8007ef0:	f7ff fe86 	bl	8007c00 <ILI9341_Write_Data>
	ILI9341_Write_Data(0x27);
 8007ef4:	2027      	movs	r0, #39	; 0x27
 8007ef6:	f7ff fe83 	bl	8007c00 <ILI9341_Write_Data>

	//3GAMMA FUNCTION DISABLE
	ILI9341_Write_Command(0xF2);
 8007efa:	20f2      	movs	r0, #242	; 0xf2
 8007efc:	f7ff fe5e 	bl	8007bbc <ILI9341_Write_Command>
	ILI9341_Write_Data(0x00);
 8007f00:	2000      	movs	r0, #0
 8007f02:	f7ff fe7d 	bl	8007c00 <ILI9341_Write_Data>

	//GAMMA CURVE SELECTED
	ILI9341_Write_Command(0x26);
 8007f06:	2026      	movs	r0, #38	; 0x26
 8007f08:	f7ff fe58 	bl	8007bbc <ILI9341_Write_Command>
	ILI9341_Write_Data(0x01);
 8007f0c:	2001      	movs	r0, #1
 8007f0e:	f7ff fe77 	bl	8007c00 <ILI9341_Write_Data>

	//POSITIVE GAMMA CORRECTION
	ILI9341_Write_Command(0xE0);
 8007f12:	20e0      	movs	r0, #224	; 0xe0
 8007f14:	f7ff fe52 	bl	8007bbc <ILI9341_Write_Command>
	ILI9341_Write_Data(0x0F);
 8007f18:	200f      	movs	r0, #15
 8007f1a:	f7ff fe71 	bl	8007c00 <ILI9341_Write_Data>
	ILI9341_Write_Data(0x31);
 8007f1e:	2031      	movs	r0, #49	; 0x31
 8007f20:	f7ff fe6e 	bl	8007c00 <ILI9341_Write_Data>
	ILI9341_Write_Data(0x2B);
 8007f24:	202b      	movs	r0, #43	; 0x2b
 8007f26:	f7ff fe6b 	bl	8007c00 <ILI9341_Write_Data>
	ILI9341_Write_Data(0x0C);
 8007f2a:	200c      	movs	r0, #12
 8007f2c:	f7ff fe68 	bl	8007c00 <ILI9341_Write_Data>
	ILI9341_Write_Data(0x0E);
 8007f30:	200e      	movs	r0, #14
 8007f32:	f7ff fe65 	bl	8007c00 <ILI9341_Write_Data>
	ILI9341_Write_Data(0x08);
 8007f36:	2008      	movs	r0, #8
 8007f38:	f7ff fe62 	bl	8007c00 <ILI9341_Write_Data>
	ILI9341_Write_Data(0x4E);
 8007f3c:	204e      	movs	r0, #78	; 0x4e
 8007f3e:	f7ff fe5f 	bl	8007c00 <ILI9341_Write_Data>
	ILI9341_Write_Data(0xF1);
 8007f42:	20f1      	movs	r0, #241	; 0xf1
 8007f44:	f7ff fe5c 	bl	8007c00 <ILI9341_Write_Data>
	ILI9341_Write_Data(0x37);
 8007f48:	2037      	movs	r0, #55	; 0x37
 8007f4a:	f7ff fe59 	bl	8007c00 <ILI9341_Write_Data>
	ILI9341_Write_Data(0x07);
 8007f4e:	2007      	movs	r0, #7
 8007f50:	f7ff fe56 	bl	8007c00 <ILI9341_Write_Data>
	ILI9341_Write_Data(0x10);
 8007f54:	2010      	movs	r0, #16
 8007f56:	f7ff fe53 	bl	8007c00 <ILI9341_Write_Data>
	ILI9341_Write_Data(0x03);
 8007f5a:	2003      	movs	r0, #3
 8007f5c:	f7ff fe50 	bl	8007c00 <ILI9341_Write_Data>
	ILI9341_Write_Data(0x0E);
 8007f60:	200e      	movs	r0, #14
 8007f62:	f7ff fe4d 	bl	8007c00 <ILI9341_Write_Data>
	ILI9341_Write_Data(0x09);
 8007f66:	2009      	movs	r0, #9
 8007f68:	f7ff fe4a 	bl	8007c00 <ILI9341_Write_Data>
	ILI9341_Write_Data(0x00);
 8007f6c:	2000      	movs	r0, #0
 8007f6e:	f7ff fe47 	bl	8007c00 <ILI9341_Write_Data>

	//NEGATIVE GAMMA CORRECTION
	ILI9341_Write_Command(0xE1);
 8007f72:	20e1      	movs	r0, #225	; 0xe1
 8007f74:	f7ff fe22 	bl	8007bbc <ILI9341_Write_Command>
	ILI9341_Write_Data(0x00);
 8007f78:	2000      	movs	r0, #0
 8007f7a:	f7ff fe41 	bl	8007c00 <ILI9341_Write_Data>
	ILI9341_Write_Data(0x0E);
 8007f7e:	200e      	movs	r0, #14
 8007f80:	f7ff fe3e 	bl	8007c00 <ILI9341_Write_Data>
	ILI9341_Write_Data(0x14);
 8007f84:	2014      	movs	r0, #20
 8007f86:	f7ff fe3b 	bl	8007c00 <ILI9341_Write_Data>
	ILI9341_Write_Data(0x03);
 8007f8a:	2003      	movs	r0, #3
 8007f8c:	f7ff fe38 	bl	8007c00 <ILI9341_Write_Data>
	ILI9341_Write_Data(0x11);
 8007f90:	2011      	movs	r0, #17
 8007f92:	f7ff fe35 	bl	8007c00 <ILI9341_Write_Data>
	ILI9341_Write_Data(0x07);
 8007f96:	2007      	movs	r0, #7
 8007f98:	f7ff fe32 	bl	8007c00 <ILI9341_Write_Data>
	ILI9341_Write_Data(0x31);
 8007f9c:	2031      	movs	r0, #49	; 0x31
 8007f9e:	f7ff fe2f 	bl	8007c00 <ILI9341_Write_Data>
	ILI9341_Write_Data(0xC1);
 8007fa2:	20c1      	movs	r0, #193	; 0xc1
 8007fa4:	f7ff fe2c 	bl	8007c00 <ILI9341_Write_Data>
	ILI9341_Write_Data(0x48);
 8007fa8:	2048      	movs	r0, #72	; 0x48
 8007faa:	f7ff fe29 	bl	8007c00 <ILI9341_Write_Data>
	ILI9341_Write_Data(0x08);
 8007fae:	2008      	movs	r0, #8
 8007fb0:	f7ff fe26 	bl	8007c00 <ILI9341_Write_Data>
	ILI9341_Write_Data(0x0F);
 8007fb4:	200f      	movs	r0, #15
 8007fb6:	f7ff fe23 	bl	8007c00 <ILI9341_Write_Data>
	ILI9341_Write_Data(0x0C);
 8007fba:	200c      	movs	r0, #12
 8007fbc:	f7ff fe20 	bl	8007c00 <ILI9341_Write_Data>
	ILI9341_Write_Data(0x31);
 8007fc0:	2031      	movs	r0, #49	; 0x31
 8007fc2:	f7ff fe1d 	bl	8007c00 <ILI9341_Write_Data>
	ILI9341_Write_Data(0x36);
 8007fc6:	2036      	movs	r0, #54	; 0x36
 8007fc8:	f7ff fe1a 	bl	8007c00 <ILI9341_Write_Data>
	ILI9341_Write_Data(0x0F);
 8007fcc:	200f      	movs	r0, #15
 8007fce:	f7ff fe17 	bl	8007c00 <ILI9341_Write_Data>

	//EXIT SLEEP
	ILI9341_Write_Command(0x11);
 8007fd2:	2011      	movs	r0, #17
 8007fd4:	f7ff fdf2 	bl	8007bbc <ILI9341_Write_Command>
	HAL_Delay(240);
 8007fd8:	20f0      	movs	r0, #240	; 0xf0
 8007fda:	f7fa f835 	bl	8002048 <HAL_Delay>

	//TURN ON DISPLAY
	ILI9341_Write_Command(0x29);
 8007fde:	2029      	movs	r0, #41	; 0x29
 8007fe0:	f7ff fdec 	bl	8007bbc <ILI9341_Write_Command>
	
	//STARTING ROTATION
	ILI9341_Set_Rotation(SCREEN_VERTICAL_1);
 8007fe4:	2000      	movs	r0, #0
 8007fe6:	f7ff fe97 	bl	8007d18 <ILI9341_Set_Rotation>
}
 8007fea:	bf00      	nop
 8007fec:	bd80      	pop	{r7, pc}
	...

08007ff0 <ILI9341_Draw_Colour_Burst>:
}

//INTERNAL FUNCTION OF LIBRARY
/*Sends block colour information to LCD*/
void ILI9341_Draw_Colour_Burst(uint16_t Colour, uint32_t Size)
{
 8007ff0:	b5b0      	push	{r4, r5, r7, lr}
 8007ff2:	b08c      	sub	sp, #48	; 0x30
 8007ff4:	af00      	add	r7, sp, #0
 8007ff6:	4603      	mov	r3, r0
 8007ff8:	6039      	str	r1, [r7, #0]
 8007ffa:	80fb      	strh	r3, [r7, #6]
 8007ffc:	466b      	mov	r3, sp
 8007ffe:	461d      	mov	r5, r3
	//SENDS COLOUR
	uint32_t Buffer_Size = 0;
 8008000:	2300      	movs	r3, #0
 8008002:	627b      	str	r3, [r7, #36]	; 0x24
	if((Size*2) < BURST_MAX_SIZE)
 8008004:	683b      	ldr	r3, [r7, #0]
 8008006:	005b      	lsls	r3, r3, #1
 8008008:	f5b3 7ffa 	cmp.w	r3, #500	; 0x1f4
 800800c:	d202      	bcs.n	8008014 <ILI9341_Draw_Colour_Burst+0x24>
	{
		Buffer_Size = Size;
 800800e:	683b      	ldr	r3, [r7, #0]
 8008010:	627b      	str	r3, [r7, #36]	; 0x24
 8008012:	e002      	b.n	800801a <ILI9341_Draw_Colour_Burst+0x2a>
	}
	else
	{
		Buffer_Size = BURST_MAX_SIZE;
 8008014:	f44f 73fa 	mov.w	r3, #500	; 0x1f4
 8008018:	627b      	str	r3, [r7, #36]	; 0x24
	}

	LCD_DC_PORT->ODR |= LCD_DC_PIN;
 800801a:	4b40      	ldr	r3, [pc, #256]	; (800811c <ILI9341_Draw_Colour_Burst+0x12c>)
 800801c:	695b      	ldr	r3, [r3, #20]
 800801e:	4a3f      	ldr	r2, [pc, #252]	; (800811c <ILI9341_Draw_Colour_Burst+0x12c>)
 8008020:	f043 0340 	orr.w	r3, r3, #64	; 0x40
 8008024:	6153      	str	r3, [r2, #20]
	LCD_CS_PORT->ODR &= ~(LCD_CS_PIN);
 8008026:	4b3d      	ldr	r3, [pc, #244]	; (800811c <ILI9341_Draw_Colour_Burst+0x12c>)
 8008028:	695b      	ldr	r3, [r3, #20]
 800802a:	4a3c      	ldr	r2, [pc, #240]	; (800811c <ILI9341_Draw_Colour_Burst+0x12c>)
 800802c:	f023 0380 	bic.w	r3, r3, #128	; 0x80
 8008030:	6153      	str	r3, [r2, #20]

	unsigned char chifted = 	Colour>>8;;
 8008032:	88fb      	ldrh	r3, [r7, #6]
 8008034:	0a1b      	lsrs	r3, r3, #8
 8008036:	b29b      	uxth	r3, r3
 8008038:	f887 3023 	strb.w	r3, [r7, #35]	; 0x23
	unsigned char burst_buffer[Buffer_Size];
 800803c:	6a78      	ldr	r0, [r7, #36]	; 0x24
 800803e:	4603      	mov	r3, r0
 8008040:	3b01      	subs	r3, #1
 8008042:	61fb      	str	r3, [r7, #28]
 8008044:	4601      	mov	r1, r0
 8008046:	f04f 0200 	mov.w	r2, #0
 800804a:	f04f 0300 	mov.w	r3, #0
 800804e:	f04f 0400 	mov.w	r4, #0
 8008052:	00d4      	lsls	r4, r2, #3
 8008054:	ea44 7451 	orr.w	r4, r4, r1, lsr #29
 8008058:	00cb      	lsls	r3, r1, #3
 800805a:	4601      	mov	r1, r0
 800805c:	f04f 0200 	mov.w	r2, #0
 8008060:	f04f 0300 	mov.w	r3, #0
 8008064:	f04f 0400 	mov.w	r4, #0
 8008068:	00d4      	lsls	r4, r2, #3
 800806a:	ea44 7451 	orr.w	r4, r4, r1, lsr #29
 800806e:	00cb      	lsls	r3, r1, #3
 8008070:	1dc3      	adds	r3, r0, #7
 8008072:	08db      	lsrs	r3, r3, #3
 8008074:	00db      	lsls	r3, r3, #3
 8008076:	ebad 0d03 	sub.w	sp, sp, r3
 800807a:	466b      	mov	r3, sp
 800807c:	3300      	adds	r3, #0
 800807e:	61bb      	str	r3, [r7, #24]
	for(uint32_t j = 0; j < Buffer_Size; j+=2)
 8008080:	2300      	movs	r3, #0
 8008082:	62bb      	str	r3, [r7, #40]	; 0x28
 8008084:	e00e      	b.n	80080a4 <ILI9341_Draw_Colour_Burst+0xb4>
		{
			burst_buffer[j] = 	chifted;
 8008086:	69ba      	ldr	r2, [r7, #24]
 8008088:	6abb      	ldr	r3, [r7, #40]	; 0x28
 800808a:	4413      	add	r3, r2
 800808c:	f897 2023 	ldrb.w	r2, [r7, #35]	; 0x23
 8008090:	701a      	strb	r2, [r3, #0]
			burst_buffer[j+1] = Colour;
 8008092:	6abb      	ldr	r3, [r7, #40]	; 0x28
 8008094:	3301      	adds	r3, #1
 8008096:	88fa      	ldrh	r2, [r7, #6]
 8008098:	b2d1      	uxtb	r1, r2
 800809a:	69ba      	ldr	r2, [r7, #24]
 800809c:	54d1      	strb	r1, [r2, r3]
	for(uint32_t j = 0; j < Buffer_Size; j+=2)
 800809e:	6abb      	ldr	r3, [r7, #40]	; 0x28
 80080a0:	3302      	adds	r3, #2
 80080a2:	62bb      	str	r3, [r7, #40]	; 0x28
 80080a4:	6aba      	ldr	r2, [r7, #40]	; 0x28
 80080a6:	6a7b      	ldr	r3, [r7, #36]	; 0x24
 80080a8:	429a      	cmp	r2, r3
 80080aa:	d3ec      	bcc.n	8008086 <ILI9341_Draw_Colour_Burst+0x96>
		}
	
	uint32_t Sending_Size = Size*2;
 80080ac:	683b      	ldr	r3, [r7, #0]
 80080ae:	005b      	lsls	r3, r3, #1
 80080b0:	617b      	str	r3, [r7, #20]
	uint32_t Sending_in_Block = Sending_Size/Buffer_Size;
 80080b2:	697a      	ldr	r2, [r7, #20]
 80080b4:	6a7b      	ldr	r3, [r7, #36]	; 0x24
 80080b6:	fbb2 f3f3 	udiv	r3, r2, r3
 80080ba:	613b      	str	r3, [r7, #16]
	uint32_t Remainder_from_block = Sending_Size%Buffer_Size;
 80080bc:	697b      	ldr	r3, [r7, #20]
 80080be:	6a7a      	ldr	r2, [r7, #36]	; 0x24
 80080c0:	fbb3 f2f2 	udiv	r2, r3, r2
 80080c4:	6a79      	ldr	r1, [r7, #36]	; 0x24
 80080c6:	fb01 f202 	mul.w	r2, r1, r2
 80080ca:	1a9b      	subs	r3, r3, r2
 80080cc:	60fb      	str	r3, [r7, #12]

	if(Sending_in_Block != 0)
 80080ce:	693b      	ldr	r3, [r7, #16]
 80080d0:	2b00      	cmp	r3, #0
 80080d2:	d010      	beq.n	80080f6 <ILI9341_Draw_Colour_Burst+0x106>
	{
		for(uint32_t j = 0; j < (Sending_in_Block); j++)
 80080d4:	2300      	movs	r3, #0
 80080d6:	62fb      	str	r3, [r7, #44]	; 0x2c
 80080d8:	e009      	b.n	80080ee <ILI9341_Draw_Colour_Burst+0xfe>
			{
			HAL_SPI_Transmit(HSPI_INSTANCE, (unsigned char *)burst_buffer, Buffer_Size, 10);
 80080da:	69b9      	ldr	r1, [r7, #24]
 80080dc:	6a7b      	ldr	r3, [r7, #36]	; 0x24
 80080de:	b29a      	uxth	r2, r3
 80080e0:	230a      	movs	r3, #10
 80080e2:	480f      	ldr	r0, [pc, #60]	; (8008120 <ILI9341_Draw_Colour_Burst+0x130>)
 80080e4:	f7fd fc82 	bl	80059ec <HAL_SPI_Transmit>
		for(uint32_t j = 0; j < (Sending_in_Block); j++)
 80080e8:	6afb      	ldr	r3, [r7, #44]	; 0x2c
 80080ea:	3301      	adds	r3, #1
 80080ec:	62fb      	str	r3, [r7, #44]	; 0x2c
 80080ee:	6afa      	ldr	r2, [r7, #44]	; 0x2c
 80080f0:	693b      	ldr	r3, [r7, #16]
 80080f2:	429a      	cmp	r2, r3
 80080f4:	d3f1      	bcc.n	80080da <ILI9341_Draw_Colour_Burst+0xea>
			}
	}

	//REMAINDER!
	HAL_SPI_Transmit(HSPI_INSTANCE, (unsigned char *)burst_buffer, Remainder_from_block, 10);
 80080f6:	69b9      	ldr	r1, [r7, #24]
 80080f8:	68fb      	ldr	r3, [r7, #12]
 80080fa:	b29a      	uxth	r2, r3
 80080fc:	230a      	movs	r3, #10
 80080fe:	4808      	ldr	r0, [pc, #32]	; (8008120 <ILI9341_Draw_Colour_Burst+0x130>)
 8008100:	f7fd fc74 	bl	80059ec <HAL_SPI_Transmit>

	LCD_CS_PORT->ODR |= LCD_CS_PIN;
 8008104:	4b05      	ldr	r3, [pc, #20]	; (800811c <ILI9341_Draw_Colour_Burst+0x12c>)
 8008106:	695b      	ldr	r3, [r3, #20]
 8008108:	4a04      	ldr	r2, [pc, #16]	; (800811c <ILI9341_Draw_Colour_Burst+0x12c>)
 800810a:	f043 0380 	orr.w	r3, r3, #128	; 0x80
 800810e:	6153      	str	r3, [r2, #20]
 8008110:	46ad      	mov	sp, r5
}
 8008112:	bf00      	nop
 8008114:	3730      	adds	r7, #48	; 0x30
 8008116:	46bd      	mov	sp, r7
 8008118:	bdb0      	pop	{r4, r5, r7, pc}
 800811a:	bf00      	nop
 800811c:	48000400 	.word	0x48000400
 8008120:	200021d0 	.word	0x200021d0

08008124 <ILI9341_Fill_Screen>:

//FILL THE ENTIRE SCREEN WITH SELECTED COLOUR (either #define-d ones or custom 16bit)
/*Sets address (entire screen) and Sends Height*Width ammount of colour information to LCD*/
void ILI9341_Fill_Screen(uint16_t Colour)
{
 8008124:	b580      	push	{r7, lr}
 8008126:	b082      	sub	sp, #8
 8008128:	af00      	add	r7, sp, #0
 800812a:	4603      	mov	r3, r0
 800812c:	80fb      	strh	r3, [r7, #6]
	ILI9341_Set_Address(0,0,LCD_WIDTH,LCD_HEIGHT);
 800812e:	4b0e      	ldr	r3, [pc, #56]	; (8008168 <ILI9341_Fill_Screen+0x44>)
 8008130:	881b      	ldrh	r3, [r3, #0]
 8008132:	b29a      	uxth	r2, r3
 8008134:	4b0d      	ldr	r3, [pc, #52]	; (800816c <ILI9341_Fill_Screen+0x48>)
 8008136:	881b      	ldrh	r3, [r3, #0]
 8008138:	b29b      	uxth	r3, r3
 800813a:	2100      	movs	r1, #0
 800813c:	2000      	movs	r0, #0
 800813e:	f7ff fd81 	bl	8007c44 <ILI9341_Set_Address>
	ILI9341_Draw_Colour_Burst(Colour, LCD_WIDTH*LCD_HEIGHT);
 8008142:	4b09      	ldr	r3, [pc, #36]	; (8008168 <ILI9341_Fill_Screen+0x44>)
 8008144:	881b      	ldrh	r3, [r3, #0]
 8008146:	b29b      	uxth	r3, r3
 8008148:	461a      	mov	r2, r3
 800814a:	4b08      	ldr	r3, [pc, #32]	; (800816c <ILI9341_Fill_Screen+0x48>)
 800814c:	881b      	ldrh	r3, [r3, #0]
 800814e:	b29b      	uxth	r3, r3
 8008150:	fb03 f302 	mul.w	r3, r3, r2
 8008154:	461a      	mov	r2, r3
 8008156:	88fb      	ldrh	r3, [r7, #6]
 8008158:	4611      	mov	r1, r2
 800815a:	4618      	mov	r0, r3
 800815c:	f7ff ff48 	bl	8007ff0 <ILI9341_Draw_Colour_Burst>
}
 8008160:	bf00      	nop
 8008162:	3708      	adds	r7, #8
 8008164:	46bd      	mov	sp, r7
 8008166:	bd80      	pop	{r7, pc}
 8008168:	20001f52 	.word	0x20001f52
 800816c:	20001f50 	.word	0x20001f50

08008170 <ILI9341_Draw_Pixel>:
//Location is dependant on screen orientation. x0 and y0 locations change with orientations.
//Using pixels to draw big simple structures is not recommended as it is really slow
//Try using either rectangles or lines if possible
//
void ILI9341_Draw_Pixel(uint16_t X,uint16_t Y,uint16_t Colour) 
{
 8008170:	b580      	push	{r7, lr}
 8008172:	b086      	sub	sp, #24
 8008174:	af00      	add	r7, sp, #0
 8008176:	4603      	mov	r3, r0
 8008178:	80fb      	strh	r3, [r7, #6]
 800817a:	460b      	mov	r3, r1
 800817c:	80bb      	strh	r3, [r7, #4]
 800817e:	4613      	mov	r3, r2
 8008180:	807b      	strh	r3, [r7, #2]
	if((X >=LCD_WIDTH) || (Y >=LCD_HEIGHT)) return;	//OUT OF BOUNDS!
 8008182:	4b64      	ldr	r3, [pc, #400]	; (8008314 <ILI9341_Draw_Pixel+0x1a4>)
 8008184:	881b      	ldrh	r3, [r3, #0]
 8008186:	b29b      	uxth	r3, r3
 8008188:	88fa      	ldrh	r2, [r7, #6]
 800818a:	429a      	cmp	r2, r3
 800818c:	f080 80be 	bcs.w	800830c <ILI9341_Draw_Pixel+0x19c>
 8008190:	4b61      	ldr	r3, [pc, #388]	; (8008318 <ILI9341_Draw_Pixel+0x1a8>)
 8008192:	881b      	ldrh	r3, [r3, #0]
 8008194:	b29b      	uxth	r3, r3
 8008196:	88ba      	ldrh	r2, [r7, #4]
 8008198:	429a      	cmp	r2, r3
 800819a:	f080 80b7 	bcs.w	800830c <ILI9341_Draw_Pixel+0x19c>

	//ADDRESS
	LCD_DC_PORT->ODR &= ~(LCD_DC_PIN);
 800819e:	4b5f      	ldr	r3, [pc, #380]	; (800831c <ILI9341_Draw_Pixel+0x1ac>)
 80081a0:	695b      	ldr	r3, [r3, #20]
 80081a2:	4a5e      	ldr	r2, [pc, #376]	; (800831c <ILI9341_Draw_Pixel+0x1ac>)
 80081a4:	f023 0340 	bic.w	r3, r3, #64	; 0x40
 80081a8:	6153      	str	r3, [r2, #20]
	LCD_CS_PORT->ODR &= ~(LCD_CS_PIN);
 80081aa:	4b5c      	ldr	r3, [pc, #368]	; (800831c <ILI9341_Draw_Pixel+0x1ac>)
 80081ac:	695b      	ldr	r3, [r3, #20]
 80081ae:	4a5b      	ldr	r2, [pc, #364]	; (800831c <ILI9341_Draw_Pixel+0x1ac>)
 80081b0:	f023 0380 	bic.w	r3, r3, #128	; 0x80
 80081b4:	6153      	str	r3, [r2, #20]
	ILI9341_SPI_Send(0x2A);
 80081b6:	202a      	movs	r0, #42	; 0x2a
 80081b8:	f7ff fcec 	bl	8007b94 <ILI9341_SPI_Send>

	LCD_DC_PORT->ODR |= LCD_DC_PIN;
 80081bc:	4b57      	ldr	r3, [pc, #348]	; (800831c <ILI9341_Draw_Pixel+0x1ac>)
 80081be:	695b      	ldr	r3, [r3, #20]
 80081c0:	4a56      	ldr	r2, [pc, #344]	; (800831c <ILI9341_Draw_Pixel+0x1ac>)
 80081c2:	f043 0340 	orr.w	r3, r3, #64	; 0x40
 80081c6:	6153      	str	r3, [r2, #20]
	LCD_CS_PORT->ODR |= LCD_CS_PIN;
 80081c8:	4b54      	ldr	r3, [pc, #336]	; (800831c <ILI9341_Draw_Pixel+0x1ac>)
 80081ca:	695b      	ldr	r3, [r3, #20]
 80081cc:	4a53      	ldr	r2, [pc, #332]	; (800831c <ILI9341_Draw_Pixel+0x1ac>)
 80081ce:	f043 0380 	orr.w	r3, r3, #128	; 0x80
 80081d2:	6153      	str	r3, [r2, #20]

	//XDATA
	LCD_CS_PORT->ODR &= ~(LCD_CS_PIN);
 80081d4:	4b51      	ldr	r3, [pc, #324]	; (800831c <ILI9341_Draw_Pixel+0x1ac>)
 80081d6:	695b      	ldr	r3, [r3, #20]
 80081d8:	4a50      	ldr	r2, [pc, #320]	; (800831c <ILI9341_Draw_Pixel+0x1ac>)
 80081da:	f023 0380 	bic.w	r3, r3, #128	; 0x80
 80081de:	6153      	str	r3, [r2, #20]
	unsigned char Temp_Buffer[4] = {X>>8,X, (X+1)>>8, (X+1)};
 80081e0:	88fb      	ldrh	r3, [r7, #6]
 80081e2:	0a1b      	lsrs	r3, r3, #8
 80081e4:	b29b      	uxth	r3, r3
 80081e6:	b2db      	uxtb	r3, r3
 80081e8:	753b      	strb	r3, [r7, #20]
 80081ea:	88fb      	ldrh	r3, [r7, #6]
 80081ec:	b2db      	uxtb	r3, r3
 80081ee:	757b      	strb	r3, [r7, #21]
 80081f0:	88fb      	ldrh	r3, [r7, #6]
 80081f2:	3301      	adds	r3, #1
 80081f4:	121b      	asrs	r3, r3, #8
 80081f6:	b2db      	uxtb	r3, r3
 80081f8:	75bb      	strb	r3, [r7, #22]
 80081fa:	88fb      	ldrh	r3, [r7, #6]
 80081fc:	b2db      	uxtb	r3, r3
 80081fe:	3301      	adds	r3, #1
 8008200:	b2db      	uxtb	r3, r3
 8008202:	75fb      	strb	r3, [r7, #23]
	HAL_SPI_Transmit(HSPI_INSTANCE, Temp_Buffer, 4, 1);
 8008204:	f107 0114 	add.w	r1, r7, #20
 8008208:	2301      	movs	r3, #1
 800820a:	2204      	movs	r2, #4
 800820c:	4844      	ldr	r0, [pc, #272]	; (8008320 <ILI9341_Draw_Pixel+0x1b0>)
 800820e:	f7fd fbed 	bl	80059ec <HAL_SPI_Transmit>
	LCD_CS_PORT->ODR |= LCD_CS_PIN;
 8008212:	4b42      	ldr	r3, [pc, #264]	; (800831c <ILI9341_Draw_Pixel+0x1ac>)
 8008214:	695b      	ldr	r3, [r3, #20]
 8008216:	4a41      	ldr	r2, [pc, #260]	; (800831c <ILI9341_Draw_Pixel+0x1ac>)
 8008218:	f043 0380 	orr.w	r3, r3, #128	; 0x80
 800821c:	6153      	str	r3, [r2, #20]

	//ADDRESS
	LCD_DC_PORT->ODR &= ~(LCD_DC_PIN);
 800821e:	4b3f      	ldr	r3, [pc, #252]	; (800831c <ILI9341_Draw_Pixel+0x1ac>)
 8008220:	695b      	ldr	r3, [r3, #20]
 8008222:	4a3e      	ldr	r2, [pc, #248]	; (800831c <ILI9341_Draw_Pixel+0x1ac>)
 8008224:	f023 0340 	bic.w	r3, r3, #64	; 0x40
 8008228:	6153      	str	r3, [r2, #20]
	LCD_CS_PORT->ODR &= ~(LCD_CS_PIN);
 800822a:	4b3c      	ldr	r3, [pc, #240]	; (800831c <ILI9341_Draw_Pixel+0x1ac>)
 800822c:	695b      	ldr	r3, [r3, #20]
 800822e:	4a3b      	ldr	r2, [pc, #236]	; (800831c <ILI9341_Draw_Pixel+0x1ac>)
 8008230:	f023 0380 	bic.w	r3, r3, #128	; 0x80
 8008234:	6153      	str	r3, [r2, #20]

	ILI9341_SPI_Send(0x2B);
 8008236:	202b      	movs	r0, #43	; 0x2b
 8008238:	f7ff fcac 	bl	8007b94 <ILI9341_SPI_Send>
	LCD_DC_PORT->ODR |= LCD_DC_PIN;
 800823c:	4b37      	ldr	r3, [pc, #220]	; (800831c <ILI9341_Draw_Pixel+0x1ac>)
 800823e:	695b      	ldr	r3, [r3, #20]
 8008240:	4a36      	ldr	r2, [pc, #216]	; (800831c <ILI9341_Draw_Pixel+0x1ac>)
 8008242:	f043 0340 	orr.w	r3, r3, #64	; 0x40
 8008246:	6153      	str	r3, [r2, #20]
	LCD_CS_PORT->ODR |= LCD_CS_PIN;
 8008248:	4b34      	ldr	r3, [pc, #208]	; (800831c <ILI9341_Draw_Pixel+0x1ac>)
 800824a:	695b      	ldr	r3, [r3, #20]
 800824c:	4a33      	ldr	r2, [pc, #204]	; (800831c <ILI9341_Draw_Pixel+0x1ac>)
 800824e:	f043 0380 	orr.w	r3, r3, #128	; 0x80
 8008252:	6153      	str	r3, [r2, #20]

	//YDATA
	LCD_CS_PORT->ODR &= ~(LCD_CS_PIN);
 8008254:	4b31      	ldr	r3, [pc, #196]	; (800831c <ILI9341_Draw_Pixel+0x1ac>)
 8008256:	695b      	ldr	r3, [r3, #20]
 8008258:	4a30      	ldr	r2, [pc, #192]	; (800831c <ILI9341_Draw_Pixel+0x1ac>)
 800825a:	f023 0380 	bic.w	r3, r3, #128	; 0x80
 800825e:	6153      	str	r3, [r2, #20]
	unsigned char Temp_Buffer1[4] = {Y>>8,Y, (Y+1)>>8, (Y+1)};
 8008260:	88bb      	ldrh	r3, [r7, #4]
 8008262:	0a1b      	lsrs	r3, r3, #8
 8008264:	b29b      	uxth	r3, r3
 8008266:	b2db      	uxtb	r3, r3
 8008268:	743b      	strb	r3, [r7, #16]
 800826a:	88bb      	ldrh	r3, [r7, #4]
 800826c:	b2db      	uxtb	r3, r3
 800826e:	747b      	strb	r3, [r7, #17]
 8008270:	88bb      	ldrh	r3, [r7, #4]
 8008272:	3301      	adds	r3, #1
 8008274:	121b      	asrs	r3, r3, #8
 8008276:	b2db      	uxtb	r3, r3
 8008278:	74bb      	strb	r3, [r7, #18]
 800827a:	88bb      	ldrh	r3, [r7, #4]
 800827c:	b2db      	uxtb	r3, r3
 800827e:	3301      	adds	r3, #1
 8008280:	b2db      	uxtb	r3, r3
 8008282:	74fb      	strb	r3, [r7, #19]
	HAL_SPI_Transmit(HSPI_INSTANCE, Temp_Buffer1, 4, 1);
 8008284:	f107 0110 	add.w	r1, r7, #16
 8008288:	2301      	movs	r3, #1
 800828a:	2204      	movs	r2, #4
 800828c:	4824      	ldr	r0, [pc, #144]	; (8008320 <ILI9341_Draw_Pixel+0x1b0>)
 800828e:	f7fd fbad 	bl	80059ec <HAL_SPI_Transmit>
	LCD_CS_PORT->ODR |= LCD_CS_PIN;
 8008292:	4b22      	ldr	r3, [pc, #136]	; (800831c <ILI9341_Draw_Pixel+0x1ac>)
 8008294:	695b      	ldr	r3, [r3, #20]
 8008296:	4a21      	ldr	r2, [pc, #132]	; (800831c <ILI9341_Draw_Pixel+0x1ac>)
 8008298:	f043 0380 	orr.w	r3, r3, #128	; 0x80
 800829c:	6153      	str	r3, [r2, #20]

	//ADDRESS
	LCD_DC_PORT->ODR &= ~(LCD_DC_PIN);
 800829e:	4b1f      	ldr	r3, [pc, #124]	; (800831c <ILI9341_Draw_Pixel+0x1ac>)
 80082a0:	695b      	ldr	r3, [r3, #20]
 80082a2:	4a1e      	ldr	r2, [pc, #120]	; (800831c <ILI9341_Draw_Pixel+0x1ac>)
 80082a4:	f023 0340 	bic.w	r3, r3, #64	; 0x40
 80082a8:	6153      	str	r3, [r2, #20]
	LCD_CS_PORT->ODR &= ~(LCD_CS_PIN);
 80082aa:	4b1c      	ldr	r3, [pc, #112]	; (800831c <ILI9341_Draw_Pixel+0x1ac>)
 80082ac:	695b      	ldr	r3, [r3, #20]
 80082ae:	4a1b      	ldr	r2, [pc, #108]	; (800831c <ILI9341_Draw_Pixel+0x1ac>)
 80082b0:	f023 0380 	bic.w	r3, r3, #128	; 0x80
 80082b4:	6153      	str	r3, [r2, #20]
	ILI9341_SPI_Send(0x2C);
 80082b6:	202c      	movs	r0, #44	; 0x2c
 80082b8:	f7ff fc6c 	bl	8007b94 <ILI9341_SPI_Send>
	LCD_DC_PORT->ODR |= LCD_DC_PIN;
 80082bc:	4b17      	ldr	r3, [pc, #92]	; (800831c <ILI9341_Draw_Pixel+0x1ac>)
 80082be:	695b      	ldr	r3, [r3, #20]
 80082c0:	4a16      	ldr	r2, [pc, #88]	; (800831c <ILI9341_Draw_Pixel+0x1ac>)
 80082c2:	f043 0340 	orr.w	r3, r3, #64	; 0x40
 80082c6:	6153      	str	r3, [r2, #20]
	LCD_CS_PORT->ODR |= LCD_CS_PIN;
 80082c8:	4b14      	ldr	r3, [pc, #80]	; (800831c <ILI9341_Draw_Pixel+0x1ac>)
 80082ca:	695b      	ldr	r3, [r3, #20]
 80082cc:	4a13      	ldr	r2, [pc, #76]	; (800831c <ILI9341_Draw_Pixel+0x1ac>)
 80082ce:	f043 0380 	orr.w	r3, r3, #128	; 0x80
 80082d2:	6153      	str	r3, [r2, #20]
	
	//COLOUR
	LCD_CS_PORT->ODR &= ~(LCD_CS_PIN);
 80082d4:	4b11      	ldr	r3, [pc, #68]	; (800831c <ILI9341_Draw_Pixel+0x1ac>)
 80082d6:	695b      	ldr	r3, [r3, #20]
 80082d8:	4a10      	ldr	r2, [pc, #64]	; (800831c <ILI9341_Draw_Pixel+0x1ac>)
 80082da:	f023 0380 	bic.w	r3, r3, #128	; 0x80
 80082de:	6153      	str	r3, [r2, #20]
	unsigned char Temp_Buffer2[2] = {Colour>>8, Colour};
 80082e0:	887b      	ldrh	r3, [r7, #2]
 80082e2:	0a1b      	lsrs	r3, r3, #8
 80082e4:	b29b      	uxth	r3, r3
 80082e6:	b2db      	uxtb	r3, r3
 80082e8:	733b      	strb	r3, [r7, #12]
 80082ea:	887b      	ldrh	r3, [r7, #2]
 80082ec:	b2db      	uxtb	r3, r3
 80082ee:	737b      	strb	r3, [r7, #13]
	HAL_SPI_Transmit(HSPI_INSTANCE, Temp_Buffer2, 2, 1);
 80082f0:	f107 010c 	add.w	r1, r7, #12
 80082f4:	2301      	movs	r3, #1
 80082f6:	2202      	movs	r2, #2
 80082f8:	4809      	ldr	r0, [pc, #36]	; (8008320 <ILI9341_Draw_Pixel+0x1b0>)
 80082fa:	f7fd fb77 	bl	80059ec <HAL_SPI_Transmit>
	LCD_CS_PORT->ODR |= LCD_CS_PIN;
 80082fe:	4b07      	ldr	r3, [pc, #28]	; (800831c <ILI9341_Draw_Pixel+0x1ac>)
 8008300:	695b      	ldr	r3, [r3, #20]
 8008302:	4a06      	ldr	r2, [pc, #24]	; (800831c <ILI9341_Draw_Pixel+0x1ac>)
 8008304:	f043 0380 	orr.w	r3, r3, #128	; 0x80
 8008308:	6153      	str	r3, [r2, #20]
 800830a:	e000      	b.n	800830e <ILI9341_Draw_Pixel+0x19e>
	if((X >=LCD_WIDTH) || (Y >=LCD_HEIGHT)) return;	//OUT OF BOUNDS!
 800830c:	bf00      	nop

	
}
 800830e:	3718      	adds	r7, #24
 8008310:	46bd      	mov	sp, r7
 8008312:	bd80      	pop	{r7, pc}
 8008314:	20001f52 	.word	0x20001f52
 8008318:	20001f50 	.word	0x20001f50
 800831c:	48000400 	.word	0x48000400
 8008320:	200021d0 	.word	0x200021d0

08008324 <ILI9341_Draw_Rectangle>:
//Rectangle is hollow. X and Y positions mark the upper left corner of rectangle
//As with all other draw calls x0 and y0 locations dependant on screen orientation
//

void ILI9341_Draw_Rectangle(uint16_t X, uint16_t Y, uint16_t Width, uint16_t Height, uint16_t Colour)
{
 8008324:	b590      	push	{r4, r7, lr}
 8008326:	b083      	sub	sp, #12
 8008328:	af00      	add	r7, sp, #0
 800832a:	4604      	mov	r4, r0
 800832c:	4608      	mov	r0, r1
 800832e:	4611      	mov	r1, r2
 8008330:	461a      	mov	r2, r3
 8008332:	4623      	mov	r3, r4
 8008334:	80fb      	strh	r3, [r7, #6]
 8008336:	4603      	mov	r3, r0
 8008338:	80bb      	strh	r3, [r7, #4]
 800833a:	460b      	mov	r3, r1
 800833c:	807b      	strh	r3, [r7, #2]
 800833e:	4613      	mov	r3, r2
 8008340:	803b      	strh	r3, [r7, #0]
	if((X >=LCD_WIDTH) || (Y >=LCD_HEIGHT)) return;
 8008342:	4b25      	ldr	r3, [pc, #148]	; (80083d8 <ILI9341_Draw_Rectangle+0xb4>)
 8008344:	881b      	ldrh	r3, [r3, #0]
 8008346:	b29b      	uxth	r3, r3
 8008348:	88fa      	ldrh	r2, [r7, #6]
 800834a:	429a      	cmp	r2, r3
 800834c:	d23f      	bcs.n	80083ce <ILI9341_Draw_Rectangle+0xaa>
 800834e:	4b23      	ldr	r3, [pc, #140]	; (80083dc <ILI9341_Draw_Rectangle+0xb8>)
 8008350:	881b      	ldrh	r3, [r3, #0]
 8008352:	b29b      	uxth	r3, r3
 8008354:	88ba      	ldrh	r2, [r7, #4]
 8008356:	429a      	cmp	r2, r3
 8008358:	d239      	bcs.n	80083ce <ILI9341_Draw_Rectangle+0xaa>
	if((X+Width-1)>=LCD_WIDTH)
 800835a:	88fa      	ldrh	r2, [r7, #6]
 800835c:	887b      	ldrh	r3, [r7, #2]
 800835e:	4413      	add	r3, r2
 8008360:	3b01      	subs	r3, #1
 8008362:	4a1d      	ldr	r2, [pc, #116]	; (80083d8 <ILI9341_Draw_Rectangle+0xb4>)
 8008364:	8812      	ldrh	r2, [r2, #0]
 8008366:	b292      	uxth	r2, r2
 8008368:	4293      	cmp	r3, r2
 800836a:	db05      	blt.n	8008378 <ILI9341_Draw_Rectangle+0x54>
		{
			Width=LCD_WIDTH-X;
 800836c:	4b1a      	ldr	r3, [pc, #104]	; (80083d8 <ILI9341_Draw_Rectangle+0xb4>)
 800836e:	881b      	ldrh	r3, [r3, #0]
 8008370:	b29a      	uxth	r2, r3
 8008372:	88fb      	ldrh	r3, [r7, #6]
 8008374:	1ad3      	subs	r3, r2, r3
 8008376:	807b      	strh	r3, [r7, #2]
		}
	if((Y+Height-1)>=LCD_HEIGHT)
 8008378:	88ba      	ldrh	r2, [r7, #4]
 800837a:	883b      	ldrh	r3, [r7, #0]
 800837c:	4413      	add	r3, r2
 800837e:	3b01      	subs	r3, #1
 8008380:	4a16      	ldr	r2, [pc, #88]	; (80083dc <ILI9341_Draw_Rectangle+0xb8>)
 8008382:	8812      	ldrh	r2, [r2, #0]
 8008384:	b292      	uxth	r2, r2
 8008386:	4293      	cmp	r3, r2
 8008388:	db05      	blt.n	8008396 <ILI9341_Draw_Rectangle+0x72>
		{
			Height=LCD_HEIGHT-Y;
 800838a:	4b14      	ldr	r3, [pc, #80]	; (80083dc <ILI9341_Draw_Rectangle+0xb8>)
 800838c:	881b      	ldrh	r3, [r3, #0]
 800838e:	b29a      	uxth	r2, r3
 8008390:	88bb      	ldrh	r3, [r7, #4]
 8008392:	1ad3      	subs	r3, r2, r3
 8008394:	803b      	strh	r3, [r7, #0]
		}
	ILI9341_Set_Address(X, Y, X+Width-1, Y+Height-1);
 8008396:	88fa      	ldrh	r2, [r7, #6]
 8008398:	887b      	ldrh	r3, [r7, #2]
 800839a:	4413      	add	r3, r2
 800839c:	b29b      	uxth	r3, r3
 800839e:	3b01      	subs	r3, #1
 80083a0:	b29c      	uxth	r4, r3
 80083a2:	88ba      	ldrh	r2, [r7, #4]
 80083a4:	883b      	ldrh	r3, [r7, #0]
 80083a6:	4413      	add	r3, r2
 80083a8:	b29b      	uxth	r3, r3
 80083aa:	3b01      	subs	r3, #1
 80083ac:	b29b      	uxth	r3, r3
 80083ae:	88b9      	ldrh	r1, [r7, #4]
 80083b0:	88f8      	ldrh	r0, [r7, #6]
 80083b2:	4622      	mov	r2, r4
 80083b4:	f7ff fc46 	bl	8007c44 <ILI9341_Set_Address>
	ILI9341_Draw_Colour_Burst(Colour, Height*Width);
 80083b8:	883b      	ldrh	r3, [r7, #0]
 80083ba:	887a      	ldrh	r2, [r7, #2]
 80083bc:	fb02 f303 	mul.w	r3, r2, r3
 80083c0:	461a      	mov	r2, r3
 80083c2:	8b3b      	ldrh	r3, [r7, #24]
 80083c4:	4611      	mov	r1, r2
 80083c6:	4618      	mov	r0, r3
 80083c8:	f7ff fe12 	bl	8007ff0 <ILI9341_Draw_Colour_Burst>
 80083cc:	e000      	b.n	80083d0 <ILI9341_Draw_Rectangle+0xac>
	if((X >=LCD_WIDTH) || (Y >=LCD_HEIGHT)) return;
 80083ce:	bf00      	nop
}
 80083d0:	370c      	adds	r7, #12
 80083d2:	46bd      	mov	sp, r7
 80083d4:	bd90      	pop	{r4, r7, pc}
 80083d6:	bf00      	nop
 80083d8:	20001f52 	.word	0x20001f52
 80083dc:	20001f50 	.word	0x20001f50

080083e0 <__errno>:
 80083e0:	4b01      	ldr	r3, [pc, #4]	; (80083e8 <__errno+0x8>)
 80083e2:	6818      	ldr	r0, [r3, #0]
 80083e4:	4770      	bx	lr
 80083e6:	bf00      	nop
 80083e8:	20001f54 	.word	0x20001f54

080083ec <__libc_init_array>:
 80083ec:	b570      	push	{r4, r5, r6, lr}
 80083ee:	4e0d      	ldr	r6, [pc, #52]	; (8008424 <__libc_init_array+0x38>)
 80083f0:	4c0d      	ldr	r4, [pc, #52]	; (8008428 <__libc_init_array+0x3c>)
 80083f2:	1ba4      	subs	r4, r4, r6
 80083f4:	10a4      	asrs	r4, r4, #2
 80083f6:	2500      	movs	r5, #0
 80083f8:	42a5      	cmp	r5, r4
 80083fa:	d109      	bne.n	8008410 <__libc_init_array+0x24>
 80083fc:	4e0b      	ldr	r6, [pc, #44]	; (800842c <__libc_init_array+0x40>)
 80083fe:	4c0c      	ldr	r4, [pc, #48]	; (8008430 <__libc_init_array+0x44>)
 8008400:	f001 f940 	bl	8009684 <_init>
 8008404:	1ba4      	subs	r4, r4, r6
 8008406:	10a4      	asrs	r4, r4, #2
 8008408:	2500      	movs	r5, #0
 800840a:	42a5      	cmp	r5, r4
 800840c:	d105      	bne.n	800841a <__libc_init_array+0x2e>
 800840e:	bd70      	pop	{r4, r5, r6, pc}
 8008410:	f856 3025 	ldr.w	r3, [r6, r5, lsl #2]
 8008414:	4798      	blx	r3
 8008416:	3501      	adds	r5, #1
 8008418:	e7ee      	b.n	80083f8 <__libc_init_array+0xc>
 800841a:	f856 3025 	ldr.w	r3, [r6, r5, lsl #2]
 800841e:	4798      	blx	r3
 8008420:	3501      	adds	r5, #1
 8008422:	e7f2      	b.n	800840a <__libc_init_array+0x1e>
 8008424:	08009a38 	.word	0x08009a38
 8008428:	08009a38 	.word	0x08009a38
 800842c:	08009a38 	.word	0x08009a38
 8008430:	08009a3c 	.word	0x08009a3c

08008434 <memset>:
 8008434:	4402      	add	r2, r0
 8008436:	4603      	mov	r3, r0
 8008438:	4293      	cmp	r3, r2
 800843a:	d100      	bne.n	800843e <memset+0xa>
 800843c:	4770      	bx	lr
 800843e:	f803 1b01 	strb.w	r1, [r3], #1
 8008442:	e7f9      	b.n	8008438 <memset+0x4>

08008444 <iprintf>:
 8008444:	b40f      	push	{r0, r1, r2, r3}
 8008446:	4b0a      	ldr	r3, [pc, #40]	; (8008470 <iprintf+0x2c>)
 8008448:	b513      	push	{r0, r1, r4, lr}
 800844a:	681c      	ldr	r4, [r3, #0]
 800844c:	b124      	cbz	r4, 8008458 <iprintf+0x14>
 800844e:	69a3      	ldr	r3, [r4, #24]
 8008450:	b913      	cbnz	r3, 8008458 <iprintf+0x14>
 8008452:	4620      	mov	r0, r4
 8008454:	f000 fa56 	bl	8008904 <__sinit>
 8008458:	ab05      	add	r3, sp, #20
 800845a:	9a04      	ldr	r2, [sp, #16]
 800845c:	68a1      	ldr	r1, [r4, #8]
 800845e:	9301      	str	r3, [sp, #4]
 8008460:	4620      	mov	r0, r4
 8008462:	f000 fd61 	bl	8008f28 <_vfiprintf_r>
 8008466:	b002      	add	sp, #8
 8008468:	e8bd 4010 	ldmia.w	sp!, {r4, lr}
 800846c:	b004      	add	sp, #16
 800846e:	4770      	bx	lr
 8008470:	20001f54 	.word	0x20001f54

08008474 <_puts_r>:
 8008474:	b570      	push	{r4, r5, r6, lr}
 8008476:	460e      	mov	r6, r1
 8008478:	4605      	mov	r5, r0
 800847a:	b118      	cbz	r0, 8008484 <_puts_r+0x10>
 800847c:	6983      	ldr	r3, [r0, #24]
 800847e:	b90b      	cbnz	r3, 8008484 <_puts_r+0x10>
 8008480:	f000 fa40 	bl	8008904 <__sinit>
 8008484:	69ab      	ldr	r3, [r5, #24]
 8008486:	68ac      	ldr	r4, [r5, #8]
 8008488:	b913      	cbnz	r3, 8008490 <_puts_r+0x1c>
 800848a:	4628      	mov	r0, r5
 800848c:	f000 fa3a 	bl	8008904 <__sinit>
 8008490:	4b23      	ldr	r3, [pc, #140]	; (8008520 <_puts_r+0xac>)
 8008492:	429c      	cmp	r4, r3
 8008494:	d117      	bne.n	80084c6 <_puts_r+0x52>
 8008496:	686c      	ldr	r4, [r5, #4]
 8008498:	89a3      	ldrh	r3, [r4, #12]
 800849a:	071b      	lsls	r3, r3, #28
 800849c:	d51d      	bpl.n	80084da <_puts_r+0x66>
 800849e:	6923      	ldr	r3, [r4, #16]
 80084a0:	b1db      	cbz	r3, 80084da <_puts_r+0x66>
 80084a2:	3e01      	subs	r6, #1
 80084a4:	68a3      	ldr	r3, [r4, #8]
 80084a6:	f816 1f01 	ldrb.w	r1, [r6, #1]!
 80084aa:	3b01      	subs	r3, #1
 80084ac:	60a3      	str	r3, [r4, #8]
 80084ae:	b9e9      	cbnz	r1, 80084ec <_puts_r+0x78>
 80084b0:	2b00      	cmp	r3, #0
 80084b2:	da2e      	bge.n	8008512 <_puts_r+0x9e>
 80084b4:	4622      	mov	r2, r4
 80084b6:	210a      	movs	r1, #10
 80084b8:	4628      	mov	r0, r5
 80084ba:	f000 f873 	bl	80085a4 <__swbuf_r>
 80084be:	3001      	adds	r0, #1
 80084c0:	d011      	beq.n	80084e6 <_puts_r+0x72>
 80084c2:	200a      	movs	r0, #10
 80084c4:	e011      	b.n	80084ea <_puts_r+0x76>
 80084c6:	4b17      	ldr	r3, [pc, #92]	; (8008524 <_puts_r+0xb0>)
 80084c8:	429c      	cmp	r4, r3
 80084ca:	d101      	bne.n	80084d0 <_puts_r+0x5c>
 80084cc:	68ac      	ldr	r4, [r5, #8]
 80084ce:	e7e3      	b.n	8008498 <_puts_r+0x24>
 80084d0:	4b15      	ldr	r3, [pc, #84]	; (8008528 <_puts_r+0xb4>)
 80084d2:	429c      	cmp	r4, r3
 80084d4:	bf08      	it	eq
 80084d6:	68ec      	ldreq	r4, [r5, #12]
 80084d8:	e7de      	b.n	8008498 <_puts_r+0x24>
 80084da:	4621      	mov	r1, r4
 80084dc:	4628      	mov	r0, r5
 80084de:	f000 f8b3 	bl	8008648 <__swsetup_r>
 80084e2:	2800      	cmp	r0, #0
 80084e4:	d0dd      	beq.n	80084a2 <_puts_r+0x2e>
 80084e6:	f04f 30ff 	mov.w	r0, #4294967295	; 0xffffffff
 80084ea:	bd70      	pop	{r4, r5, r6, pc}
 80084ec:	2b00      	cmp	r3, #0
 80084ee:	da04      	bge.n	80084fa <_puts_r+0x86>
 80084f0:	69a2      	ldr	r2, [r4, #24]
 80084f2:	429a      	cmp	r2, r3
 80084f4:	dc06      	bgt.n	8008504 <_puts_r+0x90>
 80084f6:	290a      	cmp	r1, #10
 80084f8:	d004      	beq.n	8008504 <_puts_r+0x90>
 80084fa:	6823      	ldr	r3, [r4, #0]
 80084fc:	1c5a      	adds	r2, r3, #1
 80084fe:	6022      	str	r2, [r4, #0]
 8008500:	7019      	strb	r1, [r3, #0]
 8008502:	e7cf      	b.n	80084a4 <_puts_r+0x30>
 8008504:	4622      	mov	r2, r4
 8008506:	4628      	mov	r0, r5
 8008508:	f000 f84c 	bl	80085a4 <__swbuf_r>
 800850c:	3001      	adds	r0, #1
 800850e:	d1c9      	bne.n	80084a4 <_puts_r+0x30>
 8008510:	e7e9      	b.n	80084e6 <_puts_r+0x72>
 8008512:	6823      	ldr	r3, [r4, #0]
 8008514:	200a      	movs	r0, #10
 8008516:	1c5a      	adds	r2, r3, #1
 8008518:	6022      	str	r2, [r4, #0]
 800851a:	7018      	strb	r0, [r3, #0]
 800851c:	e7e5      	b.n	80084ea <_puts_r+0x76>
 800851e:	bf00      	nop
 8008520:	080099c4 	.word	0x080099c4
 8008524:	080099e4 	.word	0x080099e4
 8008528:	080099a4 	.word	0x080099a4

0800852c <puts>:
 800852c:	4b02      	ldr	r3, [pc, #8]	; (8008538 <puts+0xc>)
 800852e:	4601      	mov	r1, r0
 8008530:	6818      	ldr	r0, [r3, #0]
 8008532:	f7ff bf9f 	b.w	8008474 <_puts_r>
 8008536:	bf00      	nop
 8008538:	20001f54 	.word	0x20001f54

0800853c <sniprintf>:
 800853c:	b40c      	push	{r2, r3}
 800853e:	b530      	push	{r4, r5, lr}
 8008540:	4b17      	ldr	r3, [pc, #92]	; (80085a0 <sniprintf+0x64>)
 8008542:	1e0c      	subs	r4, r1, #0
 8008544:	b09d      	sub	sp, #116	; 0x74
 8008546:	681d      	ldr	r5, [r3, #0]
 8008548:	da08      	bge.n	800855c <sniprintf+0x20>
 800854a:	238b      	movs	r3, #139	; 0x8b
 800854c:	602b      	str	r3, [r5, #0]
 800854e:	f04f 30ff 	mov.w	r0, #4294967295	; 0xffffffff
 8008552:	b01d      	add	sp, #116	; 0x74
 8008554:	e8bd 4030 	ldmia.w	sp!, {r4, r5, lr}
 8008558:	b002      	add	sp, #8
 800855a:	4770      	bx	lr
 800855c:	f44f 7302 	mov.w	r3, #520	; 0x208
 8008560:	f8ad 3014 	strh.w	r3, [sp, #20]
 8008564:	bf14      	ite	ne
 8008566:	f104 33ff 	addne.w	r3, r4, #4294967295	; 0xffffffff
 800856a:	4623      	moveq	r3, r4
 800856c:	9304      	str	r3, [sp, #16]
 800856e:	9307      	str	r3, [sp, #28]
 8008570:	f64f 73ff 	movw	r3, #65535	; 0xffff
 8008574:	9002      	str	r0, [sp, #8]
 8008576:	9006      	str	r0, [sp, #24]
 8008578:	f8ad 3016 	strh.w	r3, [sp, #22]
 800857c:	9a20      	ldr	r2, [sp, #128]	; 0x80
 800857e:	ab21      	add	r3, sp, #132	; 0x84
 8008580:	a902      	add	r1, sp, #8
 8008582:	4628      	mov	r0, r5
 8008584:	9301      	str	r3, [sp, #4]
 8008586:	f000 fbad 	bl	8008ce4 <_svfiprintf_r>
 800858a:	1c43      	adds	r3, r0, #1
 800858c:	bfbc      	itt	lt
 800858e:	238b      	movlt	r3, #139	; 0x8b
 8008590:	602b      	strlt	r3, [r5, #0]
 8008592:	2c00      	cmp	r4, #0
 8008594:	d0dd      	beq.n	8008552 <sniprintf+0x16>
 8008596:	9b02      	ldr	r3, [sp, #8]
 8008598:	2200      	movs	r2, #0
 800859a:	701a      	strb	r2, [r3, #0]
 800859c:	e7d9      	b.n	8008552 <sniprintf+0x16>
 800859e:	bf00      	nop
 80085a0:	20001f54 	.word	0x20001f54

080085a4 <__swbuf_r>:
 80085a4:	b5f8      	push	{r3, r4, r5, r6, r7, lr}
 80085a6:	460e      	mov	r6, r1
 80085a8:	4614      	mov	r4, r2
 80085aa:	4605      	mov	r5, r0
 80085ac:	b118      	cbz	r0, 80085b6 <__swbuf_r+0x12>
 80085ae:	6983      	ldr	r3, [r0, #24]
 80085b0:	b90b      	cbnz	r3, 80085b6 <__swbuf_r+0x12>
 80085b2:	f000 f9a7 	bl	8008904 <__sinit>
 80085b6:	4b21      	ldr	r3, [pc, #132]	; (800863c <__swbuf_r+0x98>)
 80085b8:	429c      	cmp	r4, r3
 80085ba:	d12a      	bne.n	8008612 <__swbuf_r+0x6e>
 80085bc:	686c      	ldr	r4, [r5, #4]
 80085be:	69a3      	ldr	r3, [r4, #24]
 80085c0:	60a3      	str	r3, [r4, #8]
 80085c2:	89a3      	ldrh	r3, [r4, #12]
 80085c4:	071a      	lsls	r2, r3, #28
 80085c6:	d52e      	bpl.n	8008626 <__swbuf_r+0x82>
 80085c8:	6923      	ldr	r3, [r4, #16]
 80085ca:	b363      	cbz	r3, 8008626 <__swbuf_r+0x82>
 80085cc:	6923      	ldr	r3, [r4, #16]
 80085ce:	6820      	ldr	r0, [r4, #0]
 80085d0:	1ac0      	subs	r0, r0, r3
 80085d2:	6963      	ldr	r3, [r4, #20]
 80085d4:	b2f6      	uxtb	r6, r6
 80085d6:	4283      	cmp	r3, r0
 80085d8:	4637      	mov	r7, r6
 80085da:	dc04      	bgt.n	80085e6 <__swbuf_r+0x42>
 80085dc:	4621      	mov	r1, r4
 80085de:	4628      	mov	r0, r5
 80085e0:	f000 f926 	bl	8008830 <_fflush_r>
 80085e4:	bb28      	cbnz	r0, 8008632 <__swbuf_r+0x8e>
 80085e6:	68a3      	ldr	r3, [r4, #8]
 80085e8:	3b01      	subs	r3, #1
 80085ea:	60a3      	str	r3, [r4, #8]
 80085ec:	6823      	ldr	r3, [r4, #0]
 80085ee:	1c5a      	adds	r2, r3, #1
 80085f0:	6022      	str	r2, [r4, #0]
 80085f2:	701e      	strb	r6, [r3, #0]
 80085f4:	6963      	ldr	r3, [r4, #20]
 80085f6:	3001      	adds	r0, #1
 80085f8:	4283      	cmp	r3, r0
 80085fa:	d004      	beq.n	8008606 <__swbuf_r+0x62>
 80085fc:	89a3      	ldrh	r3, [r4, #12]
 80085fe:	07db      	lsls	r3, r3, #31
 8008600:	d519      	bpl.n	8008636 <__swbuf_r+0x92>
 8008602:	2e0a      	cmp	r6, #10
 8008604:	d117      	bne.n	8008636 <__swbuf_r+0x92>
 8008606:	4621      	mov	r1, r4
 8008608:	4628      	mov	r0, r5
 800860a:	f000 f911 	bl	8008830 <_fflush_r>
 800860e:	b190      	cbz	r0, 8008636 <__swbuf_r+0x92>
 8008610:	e00f      	b.n	8008632 <__swbuf_r+0x8e>
 8008612:	4b0b      	ldr	r3, [pc, #44]	; (8008640 <__swbuf_r+0x9c>)
 8008614:	429c      	cmp	r4, r3
 8008616:	d101      	bne.n	800861c <__swbuf_r+0x78>
 8008618:	68ac      	ldr	r4, [r5, #8]
 800861a:	e7d0      	b.n	80085be <__swbuf_r+0x1a>
 800861c:	4b09      	ldr	r3, [pc, #36]	; (8008644 <__swbuf_r+0xa0>)
 800861e:	429c      	cmp	r4, r3
 8008620:	bf08      	it	eq
 8008622:	68ec      	ldreq	r4, [r5, #12]
 8008624:	e7cb      	b.n	80085be <__swbuf_r+0x1a>
 8008626:	4621      	mov	r1, r4
 8008628:	4628      	mov	r0, r5
 800862a:	f000 f80d 	bl	8008648 <__swsetup_r>
 800862e:	2800      	cmp	r0, #0
 8008630:	d0cc      	beq.n	80085cc <__swbuf_r+0x28>
 8008632:	f04f 37ff 	mov.w	r7, #4294967295	; 0xffffffff
 8008636:	4638      	mov	r0, r7
 8008638:	bdf8      	pop	{r3, r4, r5, r6, r7, pc}
 800863a:	bf00      	nop
 800863c:	080099c4 	.word	0x080099c4
 8008640:	080099e4 	.word	0x080099e4
 8008644:	080099a4 	.word	0x080099a4

08008648 <__swsetup_r>:
 8008648:	4b32      	ldr	r3, [pc, #200]	; (8008714 <__swsetup_r+0xcc>)
 800864a:	b570      	push	{r4, r5, r6, lr}
 800864c:	681d      	ldr	r5, [r3, #0]
 800864e:	4606      	mov	r6, r0
 8008650:	460c      	mov	r4, r1
 8008652:	b125      	cbz	r5, 800865e <__swsetup_r+0x16>
 8008654:	69ab      	ldr	r3, [r5, #24]
 8008656:	b913      	cbnz	r3, 800865e <__swsetup_r+0x16>
 8008658:	4628      	mov	r0, r5
 800865a:	f000 f953 	bl	8008904 <__sinit>
 800865e:	4b2e      	ldr	r3, [pc, #184]	; (8008718 <__swsetup_r+0xd0>)
 8008660:	429c      	cmp	r4, r3
 8008662:	d10f      	bne.n	8008684 <__swsetup_r+0x3c>
 8008664:	686c      	ldr	r4, [r5, #4]
 8008666:	f9b4 300c 	ldrsh.w	r3, [r4, #12]
 800866a:	b29a      	uxth	r2, r3
 800866c:	0715      	lsls	r5, r2, #28
 800866e:	d42c      	bmi.n	80086ca <__swsetup_r+0x82>
 8008670:	06d0      	lsls	r0, r2, #27
 8008672:	d411      	bmi.n	8008698 <__swsetup_r+0x50>
 8008674:	2209      	movs	r2, #9
 8008676:	6032      	str	r2, [r6, #0]
 8008678:	f043 0340 	orr.w	r3, r3, #64	; 0x40
 800867c:	81a3      	strh	r3, [r4, #12]
 800867e:	f04f 30ff 	mov.w	r0, #4294967295	; 0xffffffff
 8008682:	e03e      	b.n	8008702 <__swsetup_r+0xba>
 8008684:	4b25      	ldr	r3, [pc, #148]	; (800871c <__swsetup_r+0xd4>)
 8008686:	429c      	cmp	r4, r3
 8008688:	d101      	bne.n	800868e <__swsetup_r+0x46>
 800868a:	68ac      	ldr	r4, [r5, #8]
 800868c:	e7eb      	b.n	8008666 <__swsetup_r+0x1e>
 800868e:	4b24      	ldr	r3, [pc, #144]	; (8008720 <__swsetup_r+0xd8>)
 8008690:	429c      	cmp	r4, r3
 8008692:	bf08      	it	eq
 8008694:	68ec      	ldreq	r4, [r5, #12]
 8008696:	e7e6      	b.n	8008666 <__swsetup_r+0x1e>
 8008698:	0751      	lsls	r1, r2, #29
 800869a:	d512      	bpl.n	80086c2 <__swsetup_r+0x7a>
 800869c:	6b61      	ldr	r1, [r4, #52]	; 0x34
 800869e:	b141      	cbz	r1, 80086b2 <__swsetup_r+0x6a>
 80086a0:	f104 0344 	add.w	r3, r4, #68	; 0x44
 80086a4:	4299      	cmp	r1, r3
 80086a6:	d002      	beq.n	80086ae <__swsetup_r+0x66>
 80086a8:	4630      	mov	r0, r6
 80086aa:	f000 fa19 	bl	8008ae0 <_free_r>
 80086ae:	2300      	movs	r3, #0
 80086b0:	6363      	str	r3, [r4, #52]	; 0x34
 80086b2:	89a3      	ldrh	r3, [r4, #12]
 80086b4:	f023 0324 	bic.w	r3, r3, #36	; 0x24
 80086b8:	81a3      	strh	r3, [r4, #12]
 80086ba:	2300      	movs	r3, #0
 80086bc:	6063      	str	r3, [r4, #4]
 80086be:	6923      	ldr	r3, [r4, #16]
 80086c0:	6023      	str	r3, [r4, #0]
 80086c2:	89a3      	ldrh	r3, [r4, #12]
 80086c4:	f043 0308 	orr.w	r3, r3, #8
 80086c8:	81a3      	strh	r3, [r4, #12]
 80086ca:	6923      	ldr	r3, [r4, #16]
 80086cc:	b94b      	cbnz	r3, 80086e2 <__swsetup_r+0x9a>
 80086ce:	89a3      	ldrh	r3, [r4, #12]
 80086d0:	f403 7320 	and.w	r3, r3, #640	; 0x280
 80086d4:	f5b3 7f00 	cmp.w	r3, #512	; 0x200
 80086d8:	d003      	beq.n	80086e2 <__swsetup_r+0x9a>
 80086da:	4621      	mov	r1, r4
 80086dc:	4630      	mov	r0, r6
 80086de:	f000 f9bf 	bl	8008a60 <__smakebuf_r>
 80086e2:	89a2      	ldrh	r2, [r4, #12]
 80086e4:	f012 0301 	ands.w	r3, r2, #1
 80086e8:	d00c      	beq.n	8008704 <__swsetup_r+0xbc>
 80086ea:	2300      	movs	r3, #0
 80086ec:	60a3      	str	r3, [r4, #8]
 80086ee:	6963      	ldr	r3, [r4, #20]
 80086f0:	425b      	negs	r3, r3
 80086f2:	61a3      	str	r3, [r4, #24]
 80086f4:	6923      	ldr	r3, [r4, #16]
 80086f6:	b953      	cbnz	r3, 800870e <__swsetup_r+0xc6>
 80086f8:	f9b4 300c 	ldrsh.w	r3, [r4, #12]
 80086fc:	f013 0080 	ands.w	r0, r3, #128	; 0x80
 8008700:	d1ba      	bne.n	8008678 <__swsetup_r+0x30>
 8008702:	bd70      	pop	{r4, r5, r6, pc}
 8008704:	0792      	lsls	r2, r2, #30
 8008706:	bf58      	it	pl
 8008708:	6963      	ldrpl	r3, [r4, #20]
 800870a:	60a3      	str	r3, [r4, #8]
 800870c:	e7f2      	b.n	80086f4 <__swsetup_r+0xac>
 800870e:	2000      	movs	r0, #0
 8008710:	e7f7      	b.n	8008702 <__swsetup_r+0xba>
 8008712:	bf00      	nop
 8008714:	20001f54 	.word	0x20001f54
 8008718:	080099c4 	.word	0x080099c4
 800871c:	080099e4 	.word	0x080099e4
 8008720:	080099a4 	.word	0x080099a4

08008724 <__sflush_r>:
 8008724:	898a      	ldrh	r2, [r1, #12]
 8008726:	e92d 41f0 	stmdb	sp!, {r4, r5, r6, r7, r8, lr}
 800872a:	4605      	mov	r5, r0
 800872c:	0710      	lsls	r0, r2, #28
 800872e:	460c      	mov	r4, r1
 8008730:	d458      	bmi.n	80087e4 <__sflush_r+0xc0>
 8008732:	684b      	ldr	r3, [r1, #4]
 8008734:	2b00      	cmp	r3, #0
 8008736:	dc05      	bgt.n	8008744 <__sflush_r+0x20>
 8008738:	6c0b      	ldr	r3, [r1, #64]	; 0x40
 800873a:	2b00      	cmp	r3, #0
 800873c:	dc02      	bgt.n	8008744 <__sflush_r+0x20>
 800873e:	2000      	movs	r0, #0
 8008740:	e8bd 81f0 	ldmia.w	sp!, {r4, r5, r6, r7, r8, pc}
 8008744:	6ae6      	ldr	r6, [r4, #44]	; 0x2c
 8008746:	2e00      	cmp	r6, #0
 8008748:	d0f9      	beq.n	800873e <__sflush_r+0x1a>
 800874a:	2300      	movs	r3, #0
 800874c:	f412 5280 	ands.w	r2, r2, #4096	; 0x1000
 8008750:	682f      	ldr	r7, [r5, #0]
 8008752:	6a21      	ldr	r1, [r4, #32]
 8008754:	602b      	str	r3, [r5, #0]
 8008756:	d032      	beq.n	80087be <__sflush_r+0x9a>
 8008758:	6d60      	ldr	r0, [r4, #84]	; 0x54
 800875a:	89a3      	ldrh	r3, [r4, #12]
 800875c:	075a      	lsls	r2, r3, #29
 800875e:	d505      	bpl.n	800876c <__sflush_r+0x48>
 8008760:	6863      	ldr	r3, [r4, #4]
 8008762:	1ac0      	subs	r0, r0, r3
 8008764:	6b63      	ldr	r3, [r4, #52]	; 0x34
 8008766:	b10b      	cbz	r3, 800876c <__sflush_r+0x48>
 8008768:	6c23      	ldr	r3, [r4, #64]	; 0x40
 800876a:	1ac0      	subs	r0, r0, r3
 800876c:	2300      	movs	r3, #0
 800876e:	4602      	mov	r2, r0
 8008770:	6ae6      	ldr	r6, [r4, #44]	; 0x2c
 8008772:	6a21      	ldr	r1, [r4, #32]
 8008774:	4628      	mov	r0, r5
 8008776:	47b0      	blx	r6
 8008778:	1c43      	adds	r3, r0, #1
 800877a:	89a3      	ldrh	r3, [r4, #12]
 800877c:	d106      	bne.n	800878c <__sflush_r+0x68>
 800877e:	6829      	ldr	r1, [r5, #0]
 8008780:	291d      	cmp	r1, #29
 8008782:	d848      	bhi.n	8008816 <__sflush_r+0xf2>
 8008784:	4a29      	ldr	r2, [pc, #164]	; (800882c <__sflush_r+0x108>)
 8008786:	40ca      	lsrs	r2, r1
 8008788:	07d6      	lsls	r6, r2, #31
 800878a:	d544      	bpl.n	8008816 <__sflush_r+0xf2>
 800878c:	2200      	movs	r2, #0
 800878e:	6062      	str	r2, [r4, #4]
 8008790:	04d9      	lsls	r1, r3, #19
 8008792:	6922      	ldr	r2, [r4, #16]
 8008794:	6022      	str	r2, [r4, #0]
 8008796:	d504      	bpl.n	80087a2 <__sflush_r+0x7e>
 8008798:	1c42      	adds	r2, r0, #1
 800879a:	d101      	bne.n	80087a0 <__sflush_r+0x7c>
 800879c:	682b      	ldr	r3, [r5, #0]
 800879e:	b903      	cbnz	r3, 80087a2 <__sflush_r+0x7e>
 80087a0:	6560      	str	r0, [r4, #84]	; 0x54
 80087a2:	6b61      	ldr	r1, [r4, #52]	; 0x34
 80087a4:	602f      	str	r7, [r5, #0]
 80087a6:	2900      	cmp	r1, #0
 80087a8:	d0c9      	beq.n	800873e <__sflush_r+0x1a>
 80087aa:	f104 0344 	add.w	r3, r4, #68	; 0x44
 80087ae:	4299      	cmp	r1, r3
 80087b0:	d002      	beq.n	80087b8 <__sflush_r+0x94>
 80087b2:	4628      	mov	r0, r5
 80087b4:	f000 f994 	bl	8008ae0 <_free_r>
 80087b8:	2000      	movs	r0, #0
 80087ba:	6360      	str	r0, [r4, #52]	; 0x34
 80087bc:	e7c0      	b.n	8008740 <__sflush_r+0x1c>
 80087be:	2301      	movs	r3, #1
 80087c0:	4628      	mov	r0, r5
 80087c2:	47b0      	blx	r6
 80087c4:	1c41      	adds	r1, r0, #1
 80087c6:	d1c8      	bne.n	800875a <__sflush_r+0x36>
 80087c8:	682b      	ldr	r3, [r5, #0]
 80087ca:	2b00      	cmp	r3, #0
 80087cc:	d0c5      	beq.n	800875a <__sflush_r+0x36>
 80087ce:	2b1d      	cmp	r3, #29
 80087d0:	d001      	beq.n	80087d6 <__sflush_r+0xb2>
 80087d2:	2b16      	cmp	r3, #22
 80087d4:	d101      	bne.n	80087da <__sflush_r+0xb6>
 80087d6:	602f      	str	r7, [r5, #0]
 80087d8:	e7b1      	b.n	800873e <__sflush_r+0x1a>
 80087da:	89a3      	ldrh	r3, [r4, #12]
 80087dc:	f043 0340 	orr.w	r3, r3, #64	; 0x40
 80087e0:	81a3      	strh	r3, [r4, #12]
 80087e2:	e7ad      	b.n	8008740 <__sflush_r+0x1c>
 80087e4:	690f      	ldr	r7, [r1, #16]
 80087e6:	2f00      	cmp	r7, #0
 80087e8:	d0a9      	beq.n	800873e <__sflush_r+0x1a>
 80087ea:	0793      	lsls	r3, r2, #30
 80087ec:	680e      	ldr	r6, [r1, #0]
 80087ee:	bf08      	it	eq
 80087f0:	694b      	ldreq	r3, [r1, #20]
 80087f2:	600f      	str	r7, [r1, #0]
 80087f4:	bf18      	it	ne
 80087f6:	2300      	movne	r3, #0
 80087f8:	eba6 0807 	sub.w	r8, r6, r7
 80087fc:	608b      	str	r3, [r1, #8]
 80087fe:	f1b8 0f00 	cmp.w	r8, #0
 8008802:	dd9c      	ble.n	800873e <__sflush_r+0x1a>
 8008804:	4643      	mov	r3, r8
 8008806:	463a      	mov	r2, r7
 8008808:	6a21      	ldr	r1, [r4, #32]
 800880a:	6aa6      	ldr	r6, [r4, #40]	; 0x28
 800880c:	4628      	mov	r0, r5
 800880e:	47b0      	blx	r6
 8008810:	2800      	cmp	r0, #0
 8008812:	dc06      	bgt.n	8008822 <__sflush_r+0xfe>
 8008814:	89a3      	ldrh	r3, [r4, #12]
 8008816:	f043 0340 	orr.w	r3, r3, #64	; 0x40
 800881a:	81a3      	strh	r3, [r4, #12]
 800881c:	f04f 30ff 	mov.w	r0, #4294967295	; 0xffffffff
 8008820:	e78e      	b.n	8008740 <__sflush_r+0x1c>
 8008822:	4407      	add	r7, r0
 8008824:	eba8 0800 	sub.w	r8, r8, r0
 8008828:	e7e9      	b.n	80087fe <__sflush_r+0xda>
 800882a:	bf00      	nop
 800882c:	20400001 	.word	0x20400001

08008830 <_fflush_r>:
 8008830:	b538      	push	{r3, r4, r5, lr}
 8008832:	690b      	ldr	r3, [r1, #16]
 8008834:	4605      	mov	r5, r0
 8008836:	460c      	mov	r4, r1
 8008838:	b1db      	cbz	r3, 8008872 <_fflush_r+0x42>
 800883a:	b118      	cbz	r0, 8008844 <_fflush_r+0x14>
 800883c:	6983      	ldr	r3, [r0, #24]
 800883e:	b90b      	cbnz	r3, 8008844 <_fflush_r+0x14>
 8008840:	f000 f860 	bl	8008904 <__sinit>
 8008844:	4b0c      	ldr	r3, [pc, #48]	; (8008878 <_fflush_r+0x48>)
 8008846:	429c      	cmp	r4, r3
 8008848:	d109      	bne.n	800885e <_fflush_r+0x2e>
 800884a:	686c      	ldr	r4, [r5, #4]
 800884c:	f9b4 300c 	ldrsh.w	r3, [r4, #12]
 8008850:	b17b      	cbz	r3, 8008872 <_fflush_r+0x42>
 8008852:	4621      	mov	r1, r4
 8008854:	4628      	mov	r0, r5
 8008856:	e8bd 4038 	ldmia.w	sp!, {r3, r4, r5, lr}
 800885a:	f7ff bf63 	b.w	8008724 <__sflush_r>
 800885e:	4b07      	ldr	r3, [pc, #28]	; (800887c <_fflush_r+0x4c>)
 8008860:	429c      	cmp	r4, r3
 8008862:	d101      	bne.n	8008868 <_fflush_r+0x38>
 8008864:	68ac      	ldr	r4, [r5, #8]
 8008866:	e7f1      	b.n	800884c <_fflush_r+0x1c>
 8008868:	4b05      	ldr	r3, [pc, #20]	; (8008880 <_fflush_r+0x50>)
 800886a:	429c      	cmp	r4, r3
 800886c:	bf08      	it	eq
 800886e:	68ec      	ldreq	r4, [r5, #12]
 8008870:	e7ec      	b.n	800884c <_fflush_r+0x1c>
 8008872:	2000      	movs	r0, #0
 8008874:	bd38      	pop	{r3, r4, r5, pc}
 8008876:	bf00      	nop
 8008878:	080099c4 	.word	0x080099c4
 800887c:	080099e4 	.word	0x080099e4
 8008880:	080099a4 	.word	0x080099a4

08008884 <std>:
 8008884:	2300      	movs	r3, #0
 8008886:	b510      	push	{r4, lr}
 8008888:	4604      	mov	r4, r0
 800888a:	e9c0 3300 	strd	r3, r3, [r0]
 800888e:	6083      	str	r3, [r0, #8]
 8008890:	8181      	strh	r1, [r0, #12]
 8008892:	6643      	str	r3, [r0, #100]	; 0x64
 8008894:	81c2      	strh	r2, [r0, #14]
 8008896:	e9c0 3304 	strd	r3, r3, [r0, #16]
 800889a:	6183      	str	r3, [r0, #24]
 800889c:	4619      	mov	r1, r3
 800889e:	2208      	movs	r2, #8
 80088a0:	305c      	adds	r0, #92	; 0x5c
 80088a2:	f7ff fdc7 	bl	8008434 <memset>
 80088a6:	4b05      	ldr	r3, [pc, #20]	; (80088bc <std+0x38>)
 80088a8:	6263      	str	r3, [r4, #36]	; 0x24
 80088aa:	4b05      	ldr	r3, [pc, #20]	; (80088c0 <std+0x3c>)
 80088ac:	62a3      	str	r3, [r4, #40]	; 0x28
 80088ae:	4b05      	ldr	r3, [pc, #20]	; (80088c4 <std+0x40>)
 80088b0:	62e3      	str	r3, [r4, #44]	; 0x2c
 80088b2:	4b05      	ldr	r3, [pc, #20]	; (80088c8 <std+0x44>)
 80088b4:	6224      	str	r4, [r4, #32]
 80088b6:	6323      	str	r3, [r4, #48]	; 0x30
 80088b8:	bd10      	pop	{r4, pc}
 80088ba:	bf00      	nop
 80088bc:	08009485 	.word	0x08009485
 80088c0:	080094a7 	.word	0x080094a7
 80088c4:	080094df 	.word	0x080094df
 80088c8:	08009503 	.word	0x08009503

080088cc <_cleanup_r>:
 80088cc:	4901      	ldr	r1, [pc, #4]	; (80088d4 <_cleanup_r+0x8>)
 80088ce:	f000 b885 	b.w	80089dc <_fwalk_reent>
 80088d2:	bf00      	nop
 80088d4:	08008831 	.word	0x08008831

080088d8 <__sfmoreglue>:
 80088d8:	b570      	push	{r4, r5, r6, lr}
 80088da:	1e4a      	subs	r2, r1, #1
 80088dc:	2568      	movs	r5, #104	; 0x68
 80088de:	4355      	muls	r5, r2
 80088e0:	460e      	mov	r6, r1
 80088e2:	f105 0174 	add.w	r1, r5, #116	; 0x74
 80088e6:	f000 f949 	bl	8008b7c <_malloc_r>
 80088ea:	4604      	mov	r4, r0
 80088ec:	b140      	cbz	r0, 8008900 <__sfmoreglue+0x28>
 80088ee:	2100      	movs	r1, #0
 80088f0:	e9c0 1600 	strd	r1, r6, [r0]
 80088f4:	300c      	adds	r0, #12
 80088f6:	60a0      	str	r0, [r4, #8]
 80088f8:	f105 0268 	add.w	r2, r5, #104	; 0x68
 80088fc:	f7ff fd9a 	bl	8008434 <memset>
 8008900:	4620      	mov	r0, r4
 8008902:	bd70      	pop	{r4, r5, r6, pc}

08008904 <__sinit>:
 8008904:	6983      	ldr	r3, [r0, #24]
 8008906:	b510      	push	{r4, lr}
 8008908:	4604      	mov	r4, r0
 800890a:	bb33      	cbnz	r3, 800895a <__sinit+0x56>
 800890c:	e9c0 3312 	strd	r3, r3, [r0, #72]	; 0x48
 8008910:	6503      	str	r3, [r0, #80]	; 0x50
 8008912:	4b12      	ldr	r3, [pc, #72]	; (800895c <__sinit+0x58>)
 8008914:	4a12      	ldr	r2, [pc, #72]	; (8008960 <__sinit+0x5c>)
 8008916:	681b      	ldr	r3, [r3, #0]
 8008918:	6282      	str	r2, [r0, #40]	; 0x28
 800891a:	4298      	cmp	r0, r3
 800891c:	bf04      	itt	eq
 800891e:	2301      	moveq	r3, #1
 8008920:	6183      	streq	r3, [r0, #24]
 8008922:	f000 f81f 	bl	8008964 <__sfp>
 8008926:	6060      	str	r0, [r4, #4]
 8008928:	4620      	mov	r0, r4
 800892a:	f000 f81b 	bl	8008964 <__sfp>
 800892e:	60a0      	str	r0, [r4, #8]
 8008930:	4620      	mov	r0, r4
 8008932:	f000 f817 	bl	8008964 <__sfp>
 8008936:	2200      	movs	r2, #0
 8008938:	60e0      	str	r0, [r4, #12]
 800893a:	2104      	movs	r1, #4
 800893c:	6860      	ldr	r0, [r4, #4]
 800893e:	f7ff ffa1 	bl	8008884 <std>
 8008942:	2201      	movs	r2, #1
 8008944:	2109      	movs	r1, #9
 8008946:	68a0      	ldr	r0, [r4, #8]
 8008948:	f7ff ff9c 	bl	8008884 <std>
 800894c:	2202      	movs	r2, #2
 800894e:	2112      	movs	r1, #18
 8008950:	68e0      	ldr	r0, [r4, #12]
 8008952:	f7ff ff97 	bl	8008884 <std>
 8008956:	2301      	movs	r3, #1
 8008958:	61a3      	str	r3, [r4, #24]
 800895a:	bd10      	pop	{r4, pc}
 800895c:	080099a0 	.word	0x080099a0
 8008960:	080088cd 	.word	0x080088cd

08008964 <__sfp>:
 8008964:	b5f8      	push	{r3, r4, r5, r6, r7, lr}
 8008966:	4b1b      	ldr	r3, [pc, #108]	; (80089d4 <__sfp+0x70>)
 8008968:	681e      	ldr	r6, [r3, #0]
 800896a:	69b3      	ldr	r3, [r6, #24]
 800896c:	4607      	mov	r7, r0
 800896e:	b913      	cbnz	r3, 8008976 <__sfp+0x12>
 8008970:	4630      	mov	r0, r6
 8008972:	f7ff ffc7 	bl	8008904 <__sinit>
 8008976:	3648      	adds	r6, #72	; 0x48
 8008978:	e9d6 3401 	ldrd	r3, r4, [r6, #4]
 800897c:	3b01      	subs	r3, #1
 800897e:	d503      	bpl.n	8008988 <__sfp+0x24>
 8008980:	6833      	ldr	r3, [r6, #0]
 8008982:	b133      	cbz	r3, 8008992 <__sfp+0x2e>
 8008984:	6836      	ldr	r6, [r6, #0]
 8008986:	e7f7      	b.n	8008978 <__sfp+0x14>
 8008988:	f9b4 500c 	ldrsh.w	r5, [r4, #12]
 800898c:	b16d      	cbz	r5, 80089aa <__sfp+0x46>
 800898e:	3468      	adds	r4, #104	; 0x68
 8008990:	e7f4      	b.n	800897c <__sfp+0x18>
 8008992:	2104      	movs	r1, #4
 8008994:	4638      	mov	r0, r7
 8008996:	f7ff ff9f 	bl	80088d8 <__sfmoreglue>
 800899a:	6030      	str	r0, [r6, #0]
 800899c:	2800      	cmp	r0, #0
 800899e:	d1f1      	bne.n	8008984 <__sfp+0x20>
 80089a0:	230c      	movs	r3, #12
 80089a2:	603b      	str	r3, [r7, #0]
 80089a4:	4604      	mov	r4, r0
 80089a6:	4620      	mov	r0, r4
 80089a8:	bdf8      	pop	{r3, r4, r5, r6, r7, pc}
 80089aa:	4b0b      	ldr	r3, [pc, #44]	; (80089d8 <__sfp+0x74>)
 80089ac:	6665      	str	r5, [r4, #100]	; 0x64
 80089ae:	e9c4 5500 	strd	r5, r5, [r4]
 80089b2:	60a5      	str	r5, [r4, #8]
 80089b4:	e9c4 3503 	strd	r3, r5, [r4, #12]
 80089b8:	e9c4 5505 	strd	r5, r5, [r4, #20]
 80089bc:	2208      	movs	r2, #8
 80089be:	4629      	mov	r1, r5
 80089c0:	f104 005c 	add.w	r0, r4, #92	; 0x5c
 80089c4:	f7ff fd36 	bl	8008434 <memset>
 80089c8:	e9c4 550d 	strd	r5, r5, [r4, #52]	; 0x34
 80089cc:	e9c4 5512 	strd	r5, r5, [r4, #72]	; 0x48
 80089d0:	e7e9      	b.n	80089a6 <__sfp+0x42>
 80089d2:	bf00      	nop
 80089d4:	080099a0 	.word	0x080099a0
 80089d8:	ffff0001 	.word	0xffff0001

080089dc <_fwalk_reent>:
 80089dc:	e92d 43f8 	stmdb	sp!, {r3, r4, r5, r6, r7, r8, r9, lr}
 80089e0:	4680      	mov	r8, r0
 80089e2:	4689      	mov	r9, r1
 80089e4:	f100 0448 	add.w	r4, r0, #72	; 0x48
 80089e8:	2600      	movs	r6, #0
 80089ea:	b914      	cbnz	r4, 80089f2 <_fwalk_reent+0x16>
 80089ec:	4630      	mov	r0, r6
 80089ee:	e8bd 83f8 	ldmia.w	sp!, {r3, r4, r5, r6, r7, r8, r9, pc}
 80089f2:	e9d4 7501 	ldrd	r7, r5, [r4, #4]
 80089f6:	3f01      	subs	r7, #1
 80089f8:	d501      	bpl.n	80089fe <_fwalk_reent+0x22>
 80089fa:	6824      	ldr	r4, [r4, #0]
 80089fc:	e7f5      	b.n	80089ea <_fwalk_reent+0xe>
 80089fe:	89ab      	ldrh	r3, [r5, #12]
 8008a00:	2b01      	cmp	r3, #1
 8008a02:	d907      	bls.n	8008a14 <_fwalk_reent+0x38>
 8008a04:	f9b5 300e 	ldrsh.w	r3, [r5, #14]
 8008a08:	3301      	adds	r3, #1
 8008a0a:	d003      	beq.n	8008a14 <_fwalk_reent+0x38>
 8008a0c:	4629      	mov	r1, r5
 8008a0e:	4640      	mov	r0, r8
 8008a10:	47c8      	blx	r9
 8008a12:	4306      	orrs	r6, r0
 8008a14:	3568      	adds	r5, #104	; 0x68
 8008a16:	e7ee      	b.n	80089f6 <_fwalk_reent+0x1a>

08008a18 <__swhatbuf_r>:
 8008a18:	b570      	push	{r4, r5, r6, lr}
 8008a1a:	460e      	mov	r6, r1
 8008a1c:	f9b1 100e 	ldrsh.w	r1, [r1, #14]
 8008a20:	2900      	cmp	r1, #0
 8008a22:	b096      	sub	sp, #88	; 0x58
 8008a24:	4614      	mov	r4, r2
 8008a26:	461d      	mov	r5, r3
 8008a28:	da07      	bge.n	8008a3a <__swhatbuf_r+0x22>
 8008a2a:	2300      	movs	r3, #0
 8008a2c:	602b      	str	r3, [r5, #0]
 8008a2e:	89b3      	ldrh	r3, [r6, #12]
 8008a30:	061a      	lsls	r2, r3, #24
 8008a32:	d410      	bmi.n	8008a56 <__swhatbuf_r+0x3e>
 8008a34:	f44f 6380 	mov.w	r3, #1024	; 0x400
 8008a38:	e00e      	b.n	8008a58 <__swhatbuf_r+0x40>
 8008a3a:	466a      	mov	r2, sp
 8008a3c:	f000 fd88 	bl	8009550 <_fstat_r>
 8008a40:	2800      	cmp	r0, #0
 8008a42:	dbf2      	blt.n	8008a2a <__swhatbuf_r+0x12>
 8008a44:	9a01      	ldr	r2, [sp, #4]
 8008a46:	f402 4270 	and.w	r2, r2, #61440	; 0xf000
 8008a4a:	f5a2 5300 	sub.w	r3, r2, #8192	; 0x2000
 8008a4e:	425a      	negs	r2, r3
 8008a50:	415a      	adcs	r2, r3
 8008a52:	602a      	str	r2, [r5, #0]
 8008a54:	e7ee      	b.n	8008a34 <__swhatbuf_r+0x1c>
 8008a56:	2340      	movs	r3, #64	; 0x40
 8008a58:	2000      	movs	r0, #0
 8008a5a:	6023      	str	r3, [r4, #0]
 8008a5c:	b016      	add	sp, #88	; 0x58
 8008a5e:	bd70      	pop	{r4, r5, r6, pc}

08008a60 <__smakebuf_r>:
 8008a60:	898b      	ldrh	r3, [r1, #12]
 8008a62:	b573      	push	{r0, r1, r4, r5, r6, lr}
 8008a64:	079d      	lsls	r5, r3, #30
 8008a66:	4606      	mov	r6, r0
 8008a68:	460c      	mov	r4, r1
 8008a6a:	d507      	bpl.n	8008a7c <__smakebuf_r+0x1c>
 8008a6c:	f104 0347 	add.w	r3, r4, #71	; 0x47
 8008a70:	6023      	str	r3, [r4, #0]
 8008a72:	6123      	str	r3, [r4, #16]
 8008a74:	2301      	movs	r3, #1
 8008a76:	6163      	str	r3, [r4, #20]
 8008a78:	b002      	add	sp, #8
 8008a7a:	bd70      	pop	{r4, r5, r6, pc}
 8008a7c:	ab01      	add	r3, sp, #4
 8008a7e:	466a      	mov	r2, sp
 8008a80:	f7ff ffca 	bl	8008a18 <__swhatbuf_r>
 8008a84:	9900      	ldr	r1, [sp, #0]
 8008a86:	4605      	mov	r5, r0
 8008a88:	4630      	mov	r0, r6
 8008a8a:	f000 f877 	bl	8008b7c <_malloc_r>
 8008a8e:	b948      	cbnz	r0, 8008aa4 <__smakebuf_r+0x44>
 8008a90:	f9b4 300c 	ldrsh.w	r3, [r4, #12]
 8008a94:	059a      	lsls	r2, r3, #22
 8008a96:	d4ef      	bmi.n	8008a78 <__smakebuf_r+0x18>
 8008a98:	f023 0303 	bic.w	r3, r3, #3
 8008a9c:	f043 0302 	orr.w	r3, r3, #2
 8008aa0:	81a3      	strh	r3, [r4, #12]
 8008aa2:	e7e3      	b.n	8008a6c <__smakebuf_r+0xc>
 8008aa4:	4b0d      	ldr	r3, [pc, #52]	; (8008adc <__smakebuf_r+0x7c>)
 8008aa6:	62b3      	str	r3, [r6, #40]	; 0x28
 8008aa8:	89a3      	ldrh	r3, [r4, #12]
 8008aaa:	6020      	str	r0, [r4, #0]
 8008aac:	f043 0380 	orr.w	r3, r3, #128	; 0x80
 8008ab0:	81a3      	strh	r3, [r4, #12]
 8008ab2:	9b00      	ldr	r3, [sp, #0]
 8008ab4:	6163      	str	r3, [r4, #20]
 8008ab6:	9b01      	ldr	r3, [sp, #4]
 8008ab8:	6120      	str	r0, [r4, #16]
 8008aba:	b15b      	cbz	r3, 8008ad4 <__smakebuf_r+0x74>
 8008abc:	f9b4 100e 	ldrsh.w	r1, [r4, #14]
 8008ac0:	4630      	mov	r0, r6
 8008ac2:	f000 fd57 	bl	8009574 <_isatty_r>
 8008ac6:	b128      	cbz	r0, 8008ad4 <__smakebuf_r+0x74>
 8008ac8:	89a3      	ldrh	r3, [r4, #12]
 8008aca:	f023 0303 	bic.w	r3, r3, #3
 8008ace:	f043 0301 	orr.w	r3, r3, #1
 8008ad2:	81a3      	strh	r3, [r4, #12]
 8008ad4:	89a3      	ldrh	r3, [r4, #12]
 8008ad6:	431d      	orrs	r5, r3
 8008ad8:	81a5      	strh	r5, [r4, #12]
 8008ada:	e7cd      	b.n	8008a78 <__smakebuf_r+0x18>
 8008adc:	080088cd 	.word	0x080088cd

08008ae0 <_free_r>:
 8008ae0:	b538      	push	{r3, r4, r5, lr}
 8008ae2:	4605      	mov	r5, r0
 8008ae4:	2900      	cmp	r1, #0
 8008ae6:	d045      	beq.n	8008b74 <_free_r+0x94>
 8008ae8:	f851 3c04 	ldr.w	r3, [r1, #-4]
 8008aec:	1f0c      	subs	r4, r1, #4
 8008aee:	2b00      	cmp	r3, #0
 8008af0:	bfb8      	it	lt
 8008af2:	18e4      	addlt	r4, r4, r3
 8008af4:	f000 fd84 	bl	8009600 <__malloc_lock>
 8008af8:	4a1f      	ldr	r2, [pc, #124]	; (8008b78 <_free_r+0x98>)
 8008afa:	6813      	ldr	r3, [r2, #0]
 8008afc:	4610      	mov	r0, r2
 8008afe:	b933      	cbnz	r3, 8008b0e <_free_r+0x2e>
 8008b00:	6063      	str	r3, [r4, #4]
 8008b02:	6014      	str	r4, [r2, #0]
 8008b04:	4628      	mov	r0, r5
 8008b06:	e8bd 4038 	ldmia.w	sp!, {r3, r4, r5, lr}
 8008b0a:	f000 bd7a 	b.w	8009602 <__malloc_unlock>
 8008b0e:	42a3      	cmp	r3, r4
 8008b10:	d90c      	bls.n	8008b2c <_free_r+0x4c>
 8008b12:	6821      	ldr	r1, [r4, #0]
 8008b14:	1862      	adds	r2, r4, r1
 8008b16:	4293      	cmp	r3, r2
 8008b18:	bf04      	itt	eq
 8008b1a:	681a      	ldreq	r2, [r3, #0]
 8008b1c:	685b      	ldreq	r3, [r3, #4]
 8008b1e:	6063      	str	r3, [r4, #4]
 8008b20:	bf04      	itt	eq
 8008b22:	1852      	addeq	r2, r2, r1
 8008b24:	6022      	streq	r2, [r4, #0]
 8008b26:	6004      	str	r4, [r0, #0]
 8008b28:	e7ec      	b.n	8008b04 <_free_r+0x24>
 8008b2a:	4613      	mov	r3, r2
 8008b2c:	685a      	ldr	r2, [r3, #4]
 8008b2e:	b10a      	cbz	r2, 8008b34 <_free_r+0x54>
 8008b30:	42a2      	cmp	r2, r4
 8008b32:	d9fa      	bls.n	8008b2a <_free_r+0x4a>
 8008b34:	6819      	ldr	r1, [r3, #0]
 8008b36:	1858      	adds	r0, r3, r1
 8008b38:	42a0      	cmp	r0, r4
 8008b3a:	d10b      	bne.n	8008b54 <_free_r+0x74>
 8008b3c:	6820      	ldr	r0, [r4, #0]
 8008b3e:	4401      	add	r1, r0
 8008b40:	1858      	adds	r0, r3, r1
 8008b42:	4282      	cmp	r2, r0
 8008b44:	6019      	str	r1, [r3, #0]
 8008b46:	d1dd      	bne.n	8008b04 <_free_r+0x24>
 8008b48:	6810      	ldr	r0, [r2, #0]
 8008b4a:	6852      	ldr	r2, [r2, #4]
 8008b4c:	605a      	str	r2, [r3, #4]
 8008b4e:	4401      	add	r1, r0
 8008b50:	6019      	str	r1, [r3, #0]
 8008b52:	e7d7      	b.n	8008b04 <_free_r+0x24>
 8008b54:	d902      	bls.n	8008b5c <_free_r+0x7c>
 8008b56:	230c      	movs	r3, #12
 8008b58:	602b      	str	r3, [r5, #0]
 8008b5a:	e7d3      	b.n	8008b04 <_free_r+0x24>
 8008b5c:	6820      	ldr	r0, [r4, #0]
 8008b5e:	1821      	adds	r1, r4, r0
 8008b60:	428a      	cmp	r2, r1
 8008b62:	bf04      	itt	eq
 8008b64:	6811      	ldreq	r1, [r2, #0]
 8008b66:	6852      	ldreq	r2, [r2, #4]
 8008b68:	6062      	str	r2, [r4, #4]
 8008b6a:	bf04      	itt	eq
 8008b6c:	1809      	addeq	r1, r1, r0
 8008b6e:	6021      	streq	r1, [r4, #0]
 8008b70:	605c      	str	r4, [r3, #4]
 8008b72:	e7c7      	b.n	8008b04 <_free_r+0x24>
 8008b74:	bd38      	pop	{r3, r4, r5, pc}
 8008b76:	bf00      	nop
 8008b78:	20001fe4 	.word	0x20001fe4

08008b7c <_malloc_r>:
 8008b7c:	b570      	push	{r4, r5, r6, lr}
 8008b7e:	1ccd      	adds	r5, r1, #3
 8008b80:	f025 0503 	bic.w	r5, r5, #3
 8008b84:	3508      	adds	r5, #8
 8008b86:	2d0c      	cmp	r5, #12
 8008b88:	bf38      	it	cc
 8008b8a:	250c      	movcc	r5, #12
 8008b8c:	2d00      	cmp	r5, #0
 8008b8e:	4606      	mov	r6, r0
 8008b90:	db01      	blt.n	8008b96 <_malloc_r+0x1a>
 8008b92:	42a9      	cmp	r1, r5
 8008b94:	d903      	bls.n	8008b9e <_malloc_r+0x22>
 8008b96:	230c      	movs	r3, #12
 8008b98:	6033      	str	r3, [r6, #0]
 8008b9a:	2000      	movs	r0, #0
 8008b9c:	bd70      	pop	{r4, r5, r6, pc}
 8008b9e:	f000 fd2f 	bl	8009600 <__malloc_lock>
 8008ba2:	4a21      	ldr	r2, [pc, #132]	; (8008c28 <_malloc_r+0xac>)
 8008ba4:	6814      	ldr	r4, [r2, #0]
 8008ba6:	4621      	mov	r1, r4
 8008ba8:	b991      	cbnz	r1, 8008bd0 <_malloc_r+0x54>
 8008baa:	4c20      	ldr	r4, [pc, #128]	; (8008c2c <_malloc_r+0xb0>)
 8008bac:	6823      	ldr	r3, [r4, #0]
 8008bae:	b91b      	cbnz	r3, 8008bb8 <_malloc_r+0x3c>
 8008bb0:	4630      	mov	r0, r6
 8008bb2:	f000 fc57 	bl	8009464 <_sbrk_r>
 8008bb6:	6020      	str	r0, [r4, #0]
 8008bb8:	4629      	mov	r1, r5
 8008bba:	4630      	mov	r0, r6
 8008bbc:	f000 fc52 	bl	8009464 <_sbrk_r>
 8008bc0:	1c43      	adds	r3, r0, #1
 8008bc2:	d124      	bne.n	8008c0e <_malloc_r+0x92>
 8008bc4:	230c      	movs	r3, #12
 8008bc6:	6033      	str	r3, [r6, #0]
 8008bc8:	4630      	mov	r0, r6
 8008bca:	f000 fd1a 	bl	8009602 <__malloc_unlock>
 8008bce:	e7e4      	b.n	8008b9a <_malloc_r+0x1e>
 8008bd0:	680b      	ldr	r3, [r1, #0]
 8008bd2:	1b5b      	subs	r3, r3, r5
 8008bd4:	d418      	bmi.n	8008c08 <_malloc_r+0x8c>
 8008bd6:	2b0b      	cmp	r3, #11
 8008bd8:	d90f      	bls.n	8008bfa <_malloc_r+0x7e>
 8008bda:	600b      	str	r3, [r1, #0]
 8008bdc:	50cd      	str	r5, [r1, r3]
 8008bde:	18cc      	adds	r4, r1, r3
 8008be0:	4630      	mov	r0, r6
 8008be2:	f000 fd0e 	bl	8009602 <__malloc_unlock>
 8008be6:	f104 000b 	add.w	r0, r4, #11
 8008bea:	1d23      	adds	r3, r4, #4
 8008bec:	f020 0007 	bic.w	r0, r0, #7
 8008bf0:	1ac3      	subs	r3, r0, r3
 8008bf2:	d0d3      	beq.n	8008b9c <_malloc_r+0x20>
 8008bf4:	425a      	negs	r2, r3
 8008bf6:	50e2      	str	r2, [r4, r3]
 8008bf8:	e7d0      	b.n	8008b9c <_malloc_r+0x20>
 8008bfa:	428c      	cmp	r4, r1
 8008bfc:	684b      	ldr	r3, [r1, #4]
 8008bfe:	bf16      	itet	ne
 8008c00:	6063      	strne	r3, [r4, #4]
 8008c02:	6013      	streq	r3, [r2, #0]
 8008c04:	460c      	movne	r4, r1
 8008c06:	e7eb      	b.n	8008be0 <_malloc_r+0x64>
 8008c08:	460c      	mov	r4, r1
 8008c0a:	6849      	ldr	r1, [r1, #4]
 8008c0c:	e7cc      	b.n	8008ba8 <_malloc_r+0x2c>
 8008c0e:	1cc4      	adds	r4, r0, #3
 8008c10:	f024 0403 	bic.w	r4, r4, #3
 8008c14:	42a0      	cmp	r0, r4
 8008c16:	d005      	beq.n	8008c24 <_malloc_r+0xa8>
 8008c18:	1a21      	subs	r1, r4, r0
 8008c1a:	4630      	mov	r0, r6
 8008c1c:	f000 fc22 	bl	8009464 <_sbrk_r>
 8008c20:	3001      	adds	r0, #1
 8008c22:	d0cf      	beq.n	8008bc4 <_malloc_r+0x48>
 8008c24:	6025      	str	r5, [r4, #0]
 8008c26:	e7db      	b.n	8008be0 <_malloc_r+0x64>
 8008c28:	20001fe4 	.word	0x20001fe4
 8008c2c:	20001fe8 	.word	0x20001fe8

08008c30 <__ssputs_r>:
 8008c30:	e92d 47f0 	stmdb	sp!, {r4, r5, r6, r7, r8, r9, sl, lr}
 8008c34:	688e      	ldr	r6, [r1, #8]
 8008c36:	429e      	cmp	r6, r3
 8008c38:	4682      	mov	sl, r0
 8008c3a:	460c      	mov	r4, r1
 8008c3c:	4690      	mov	r8, r2
 8008c3e:	4699      	mov	r9, r3
 8008c40:	d837      	bhi.n	8008cb2 <__ssputs_r+0x82>
 8008c42:	898a      	ldrh	r2, [r1, #12]
 8008c44:	f412 6f90 	tst.w	r2, #1152	; 0x480
 8008c48:	d031      	beq.n	8008cae <__ssputs_r+0x7e>
 8008c4a:	6825      	ldr	r5, [r4, #0]
 8008c4c:	6909      	ldr	r1, [r1, #16]
 8008c4e:	1a6f      	subs	r7, r5, r1
 8008c50:	6965      	ldr	r5, [r4, #20]
 8008c52:	2302      	movs	r3, #2
 8008c54:	eb05 0545 	add.w	r5, r5, r5, lsl #1
 8008c58:	fb95 f5f3 	sdiv	r5, r5, r3
 8008c5c:	f109 0301 	add.w	r3, r9, #1
 8008c60:	443b      	add	r3, r7
 8008c62:	429d      	cmp	r5, r3
 8008c64:	bf38      	it	cc
 8008c66:	461d      	movcc	r5, r3
 8008c68:	0553      	lsls	r3, r2, #21
 8008c6a:	d530      	bpl.n	8008cce <__ssputs_r+0x9e>
 8008c6c:	4629      	mov	r1, r5
 8008c6e:	f7ff ff85 	bl	8008b7c <_malloc_r>
 8008c72:	4606      	mov	r6, r0
 8008c74:	b950      	cbnz	r0, 8008c8c <__ssputs_r+0x5c>
 8008c76:	230c      	movs	r3, #12
 8008c78:	f8ca 3000 	str.w	r3, [sl]
 8008c7c:	89a3      	ldrh	r3, [r4, #12]
 8008c7e:	f043 0340 	orr.w	r3, r3, #64	; 0x40
 8008c82:	81a3      	strh	r3, [r4, #12]
 8008c84:	f04f 30ff 	mov.w	r0, #4294967295	; 0xffffffff
 8008c88:	e8bd 87f0 	ldmia.w	sp!, {r4, r5, r6, r7, r8, r9, sl, pc}
 8008c8c:	463a      	mov	r2, r7
 8008c8e:	6921      	ldr	r1, [r4, #16]
 8008c90:	f000 fc92 	bl	80095b8 <memcpy>
 8008c94:	89a3      	ldrh	r3, [r4, #12]
 8008c96:	f423 6390 	bic.w	r3, r3, #1152	; 0x480
 8008c9a:	f043 0380 	orr.w	r3, r3, #128	; 0x80
 8008c9e:	81a3      	strh	r3, [r4, #12]
 8008ca0:	6126      	str	r6, [r4, #16]
 8008ca2:	6165      	str	r5, [r4, #20]
 8008ca4:	443e      	add	r6, r7
 8008ca6:	1bed      	subs	r5, r5, r7
 8008ca8:	6026      	str	r6, [r4, #0]
 8008caa:	60a5      	str	r5, [r4, #8]
 8008cac:	464e      	mov	r6, r9
 8008cae:	454e      	cmp	r6, r9
 8008cb0:	d900      	bls.n	8008cb4 <__ssputs_r+0x84>
 8008cb2:	464e      	mov	r6, r9
 8008cb4:	4632      	mov	r2, r6
 8008cb6:	4641      	mov	r1, r8
 8008cb8:	6820      	ldr	r0, [r4, #0]
 8008cba:	f000 fc88 	bl	80095ce <memmove>
 8008cbe:	68a3      	ldr	r3, [r4, #8]
 8008cc0:	1b9b      	subs	r3, r3, r6
 8008cc2:	60a3      	str	r3, [r4, #8]
 8008cc4:	6823      	ldr	r3, [r4, #0]
 8008cc6:	441e      	add	r6, r3
 8008cc8:	6026      	str	r6, [r4, #0]
 8008cca:	2000      	movs	r0, #0
 8008ccc:	e7dc      	b.n	8008c88 <__ssputs_r+0x58>
 8008cce:	462a      	mov	r2, r5
 8008cd0:	f000 fc98 	bl	8009604 <_realloc_r>
 8008cd4:	4606      	mov	r6, r0
 8008cd6:	2800      	cmp	r0, #0
 8008cd8:	d1e2      	bne.n	8008ca0 <__ssputs_r+0x70>
 8008cda:	6921      	ldr	r1, [r4, #16]
 8008cdc:	4650      	mov	r0, sl
 8008cde:	f7ff feff 	bl	8008ae0 <_free_r>
 8008ce2:	e7c8      	b.n	8008c76 <__ssputs_r+0x46>

08008ce4 <_svfiprintf_r>:
 8008ce4:	e92d 4ff0 	stmdb	sp!, {r4, r5, r6, r7, r8, r9, sl, fp, lr}
 8008ce8:	461d      	mov	r5, r3
 8008cea:	898b      	ldrh	r3, [r1, #12]
 8008cec:	061f      	lsls	r7, r3, #24
 8008cee:	b09d      	sub	sp, #116	; 0x74
 8008cf0:	4680      	mov	r8, r0
 8008cf2:	460c      	mov	r4, r1
 8008cf4:	4616      	mov	r6, r2
 8008cf6:	d50f      	bpl.n	8008d18 <_svfiprintf_r+0x34>
 8008cf8:	690b      	ldr	r3, [r1, #16]
 8008cfa:	b96b      	cbnz	r3, 8008d18 <_svfiprintf_r+0x34>
 8008cfc:	2140      	movs	r1, #64	; 0x40
 8008cfe:	f7ff ff3d 	bl	8008b7c <_malloc_r>
 8008d02:	6020      	str	r0, [r4, #0]
 8008d04:	6120      	str	r0, [r4, #16]
 8008d06:	b928      	cbnz	r0, 8008d14 <_svfiprintf_r+0x30>
 8008d08:	230c      	movs	r3, #12
 8008d0a:	f8c8 3000 	str.w	r3, [r8]
 8008d0e:	f04f 30ff 	mov.w	r0, #4294967295	; 0xffffffff
 8008d12:	e0c8      	b.n	8008ea6 <_svfiprintf_r+0x1c2>
 8008d14:	2340      	movs	r3, #64	; 0x40
 8008d16:	6163      	str	r3, [r4, #20]
 8008d18:	2300      	movs	r3, #0
 8008d1a:	9309      	str	r3, [sp, #36]	; 0x24
 8008d1c:	2320      	movs	r3, #32
 8008d1e:	f88d 3029 	strb.w	r3, [sp, #41]	; 0x29
 8008d22:	2330      	movs	r3, #48	; 0x30
 8008d24:	f88d 302a 	strb.w	r3, [sp, #42]	; 0x2a
 8008d28:	9503      	str	r5, [sp, #12]
 8008d2a:	f04f 0b01 	mov.w	fp, #1
 8008d2e:	4637      	mov	r7, r6
 8008d30:	463d      	mov	r5, r7
 8008d32:	f815 3b01 	ldrb.w	r3, [r5], #1
 8008d36:	b10b      	cbz	r3, 8008d3c <_svfiprintf_r+0x58>
 8008d38:	2b25      	cmp	r3, #37	; 0x25
 8008d3a:	d13e      	bne.n	8008dba <_svfiprintf_r+0xd6>
 8008d3c:	ebb7 0a06 	subs.w	sl, r7, r6
 8008d40:	d00b      	beq.n	8008d5a <_svfiprintf_r+0x76>
 8008d42:	4653      	mov	r3, sl
 8008d44:	4632      	mov	r2, r6
 8008d46:	4621      	mov	r1, r4
 8008d48:	4640      	mov	r0, r8
 8008d4a:	f7ff ff71 	bl	8008c30 <__ssputs_r>
 8008d4e:	3001      	adds	r0, #1
 8008d50:	f000 80a4 	beq.w	8008e9c <_svfiprintf_r+0x1b8>
 8008d54:	9b09      	ldr	r3, [sp, #36]	; 0x24
 8008d56:	4453      	add	r3, sl
 8008d58:	9309      	str	r3, [sp, #36]	; 0x24
 8008d5a:	783b      	ldrb	r3, [r7, #0]
 8008d5c:	2b00      	cmp	r3, #0
 8008d5e:	f000 809d 	beq.w	8008e9c <_svfiprintf_r+0x1b8>
 8008d62:	2300      	movs	r3, #0
 8008d64:	f04f 32ff 	mov.w	r2, #4294967295	; 0xffffffff
 8008d68:	e9cd 2305 	strd	r2, r3, [sp, #20]
 8008d6c:	9304      	str	r3, [sp, #16]
 8008d6e:	9307      	str	r3, [sp, #28]
 8008d70:	f88d 3053 	strb.w	r3, [sp, #83]	; 0x53
 8008d74:	931a      	str	r3, [sp, #104]	; 0x68
 8008d76:	462f      	mov	r7, r5
 8008d78:	2205      	movs	r2, #5
 8008d7a:	f817 1b01 	ldrb.w	r1, [r7], #1
 8008d7e:	4850      	ldr	r0, [pc, #320]	; (8008ec0 <_svfiprintf_r+0x1dc>)
 8008d80:	f7f7 fa4e 	bl	8000220 <memchr>
 8008d84:	9b04      	ldr	r3, [sp, #16]
 8008d86:	b9d0      	cbnz	r0, 8008dbe <_svfiprintf_r+0xda>
 8008d88:	06d9      	lsls	r1, r3, #27
 8008d8a:	bf44      	itt	mi
 8008d8c:	2220      	movmi	r2, #32
 8008d8e:	f88d 2053 	strbmi.w	r2, [sp, #83]	; 0x53
 8008d92:	071a      	lsls	r2, r3, #28
 8008d94:	bf44      	itt	mi
 8008d96:	222b      	movmi	r2, #43	; 0x2b
 8008d98:	f88d 2053 	strbmi.w	r2, [sp, #83]	; 0x53
 8008d9c:	782a      	ldrb	r2, [r5, #0]
 8008d9e:	2a2a      	cmp	r2, #42	; 0x2a
 8008da0:	d015      	beq.n	8008dce <_svfiprintf_r+0xea>
 8008da2:	9a07      	ldr	r2, [sp, #28]
 8008da4:	462f      	mov	r7, r5
 8008da6:	2000      	movs	r0, #0
 8008da8:	250a      	movs	r5, #10
 8008daa:	4639      	mov	r1, r7
 8008dac:	f811 3b01 	ldrb.w	r3, [r1], #1
 8008db0:	3b30      	subs	r3, #48	; 0x30
 8008db2:	2b09      	cmp	r3, #9
 8008db4:	d94d      	bls.n	8008e52 <_svfiprintf_r+0x16e>
 8008db6:	b1b8      	cbz	r0, 8008de8 <_svfiprintf_r+0x104>
 8008db8:	e00f      	b.n	8008dda <_svfiprintf_r+0xf6>
 8008dba:	462f      	mov	r7, r5
 8008dbc:	e7b8      	b.n	8008d30 <_svfiprintf_r+0x4c>
 8008dbe:	4a40      	ldr	r2, [pc, #256]	; (8008ec0 <_svfiprintf_r+0x1dc>)
 8008dc0:	1a80      	subs	r0, r0, r2
 8008dc2:	fa0b f000 	lsl.w	r0, fp, r0
 8008dc6:	4318      	orrs	r0, r3
 8008dc8:	9004      	str	r0, [sp, #16]
 8008dca:	463d      	mov	r5, r7
 8008dcc:	e7d3      	b.n	8008d76 <_svfiprintf_r+0x92>
 8008dce:	9a03      	ldr	r2, [sp, #12]
 8008dd0:	1d11      	adds	r1, r2, #4
 8008dd2:	6812      	ldr	r2, [r2, #0]
 8008dd4:	9103      	str	r1, [sp, #12]
 8008dd6:	2a00      	cmp	r2, #0
 8008dd8:	db01      	blt.n	8008dde <_svfiprintf_r+0xfa>
 8008dda:	9207      	str	r2, [sp, #28]
 8008ddc:	e004      	b.n	8008de8 <_svfiprintf_r+0x104>
 8008dde:	4252      	negs	r2, r2
 8008de0:	f043 0302 	orr.w	r3, r3, #2
 8008de4:	9207      	str	r2, [sp, #28]
 8008de6:	9304      	str	r3, [sp, #16]
 8008de8:	783b      	ldrb	r3, [r7, #0]
 8008dea:	2b2e      	cmp	r3, #46	; 0x2e
 8008dec:	d10c      	bne.n	8008e08 <_svfiprintf_r+0x124>
 8008dee:	787b      	ldrb	r3, [r7, #1]
 8008df0:	2b2a      	cmp	r3, #42	; 0x2a
 8008df2:	d133      	bne.n	8008e5c <_svfiprintf_r+0x178>
 8008df4:	9b03      	ldr	r3, [sp, #12]
 8008df6:	1d1a      	adds	r2, r3, #4
 8008df8:	681b      	ldr	r3, [r3, #0]
 8008dfa:	9203      	str	r2, [sp, #12]
 8008dfc:	2b00      	cmp	r3, #0
 8008dfe:	bfb8      	it	lt
 8008e00:	f04f 33ff 	movlt.w	r3, #4294967295	; 0xffffffff
 8008e04:	3702      	adds	r7, #2
 8008e06:	9305      	str	r3, [sp, #20]
 8008e08:	4d2e      	ldr	r5, [pc, #184]	; (8008ec4 <_svfiprintf_r+0x1e0>)
 8008e0a:	7839      	ldrb	r1, [r7, #0]
 8008e0c:	2203      	movs	r2, #3
 8008e0e:	4628      	mov	r0, r5
 8008e10:	f7f7 fa06 	bl	8000220 <memchr>
 8008e14:	b138      	cbz	r0, 8008e26 <_svfiprintf_r+0x142>
 8008e16:	2340      	movs	r3, #64	; 0x40
 8008e18:	1b40      	subs	r0, r0, r5
 8008e1a:	fa03 f000 	lsl.w	r0, r3, r0
 8008e1e:	9b04      	ldr	r3, [sp, #16]
 8008e20:	4303      	orrs	r3, r0
 8008e22:	3701      	adds	r7, #1
 8008e24:	9304      	str	r3, [sp, #16]
 8008e26:	7839      	ldrb	r1, [r7, #0]
 8008e28:	4827      	ldr	r0, [pc, #156]	; (8008ec8 <_svfiprintf_r+0x1e4>)
 8008e2a:	f88d 1028 	strb.w	r1, [sp, #40]	; 0x28
 8008e2e:	2206      	movs	r2, #6
 8008e30:	1c7e      	adds	r6, r7, #1
 8008e32:	f7f7 f9f5 	bl	8000220 <memchr>
 8008e36:	2800      	cmp	r0, #0
 8008e38:	d038      	beq.n	8008eac <_svfiprintf_r+0x1c8>
 8008e3a:	4b24      	ldr	r3, [pc, #144]	; (8008ecc <_svfiprintf_r+0x1e8>)
 8008e3c:	bb13      	cbnz	r3, 8008e84 <_svfiprintf_r+0x1a0>
 8008e3e:	9b03      	ldr	r3, [sp, #12]
 8008e40:	3307      	adds	r3, #7
 8008e42:	f023 0307 	bic.w	r3, r3, #7
 8008e46:	3308      	adds	r3, #8
 8008e48:	9303      	str	r3, [sp, #12]
 8008e4a:	9b09      	ldr	r3, [sp, #36]	; 0x24
 8008e4c:	444b      	add	r3, r9
 8008e4e:	9309      	str	r3, [sp, #36]	; 0x24
 8008e50:	e76d      	b.n	8008d2e <_svfiprintf_r+0x4a>
 8008e52:	fb05 3202 	mla	r2, r5, r2, r3
 8008e56:	2001      	movs	r0, #1
 8008e58:	460f      	mov	r7, r1
 8008e5a:	e7a6      	b.n	8008daa <_svfiprintf_r+0xc6>
 8008e5c:	2300      	movs	r3, #0
 8008e5e:	3701      	adds	r7, #1
 8008e60:	9305      	str	r3, [sp, #20]
 8008e62:	4619      	mov	r1, r3
 8008e64:	250a      	movs	r5, #10
 8008e66:	4638      	mov	r0, r7
 8008e68:	f810 2b01 	ldrb.w	r2, [r0], #1
 8008e6c:	3a30      	subs	r2, #48	; 0x30
 8008e6e:	2a09      	cmp	r2, #9
 8008e70:	d903      	bls.n	8008e7a <_svfiprintf_r+0x196>
 8008e72:	2b00      	cmp	r3, #0
 8008e74:	d0c8      	beq.n	8008e08 <_svfiprintf_r+0x124>
 8008e76:	9105      	str	r1, [sp, #20]
 8008e78:	e7c6      	b.n	8008e08 <_svfiprintf_r+0x124>
 8008e7a:	fb05 2101 	mla	r1, r5, r1, r2
 8008e7e:	2301      	movs	r3, #1
 8008e80:	4607      	mov	r7, r0
 8008e82:	e7f0      	b.n	8008e66 <_svfiprintf_r+0x182>
 8008e84:	ab03      	add	r3, sp, #12
 8008e86:	9300      	str	r3, [sp, #0]
 8008e88:	4622      	mov	r2, r4
 8008e8a:	4b11      	ldr	r3, [pc, #68]	; (8008ed0 <_svfiprintf_r+0x1ec>)
 8008e8c:	a904      	add	r1, sp, #16
 8008e8e:	4640      	mov	r0, r8
 8008e90:	f3af 8000 	nop.w
 8008e94:	f1b0 3fff 	cmp.w	r0, #4294967295	; 0xffffffff
 8008e98:	4681      	mov	r9, r0
 8008e9a:	d1d6      	bne.n	8008e4a <_svfiprintf_r+0x166>
 8008e9c:	89a3      	ldrh	r3, [r4, #12]
 8008e9e:	065b      	lsls	r3, r3, #25
 8008ea0:	f53f af35 	bmi.w	8008d0e <_svfiprintf_r+0x2a>
 8008ea4:	9809      	ldr	r0, [sp, #36]	; 0x24
 8008ea6:	b01d      	add	sp, #116	; 0x74
 8008ea8:	e8bd 8ff0 	ldmia.w	sp!, {r4, r5, r6, r7, r8, r9, sl, fp, pc}
 8008eac:	ab03      	add	r3, sp, #12
 8008eae:	9300      	str	r3, [sp, #0]
 8008eb0:	4622      	mov	r2, r4
 8008eb2:	4b07      	ldr	r3, [pc, #28]	; (8008ed0 <_svfiprintf_r+0x1ec>)
 8008eb4:	a904      	add	r1, sp, #16
 8008eb6:	4640      	mov	r0, r8
 8008eb8:	f000 f9c2 	bl	8009240 <_printf_i>
 8008ebc:	e7ea      	b.n	8008e94 <_svfiprintf_r+0x1b0>
 8008ebe:	bf00      	nop
 8008ec0:	08009a04 	.word	0x08009a04
 8008ec4:	08009a0a 	.word	0x08009a0a
 8008ec8:	08009a0e 	.word	0x08009a0e
 8008ecc:	00000000 	.word	0x00000000
 8008ed0:	08008c31 	.word	0x08008c31

08008ed4 <__sfputc_r>:
 8008ed4:	6893      	ldr	r3, [r2, #8]
 8008ed6:	3b01      	subs	r3, #1
 8008ed8:	2b00      	cmp	r3, #0
 8008eda:	b410      	push	{r4}
 8008edc:	6093      	str	r3, [r2, #8]
 8008ede:	da08      	bge.n	8008ef2 <__sfputc_r+0x1e>
 8008ee0:	6994      	ldr	r4, [r2, #24]
 8008ee2:	42a3      	cmp	r3, r4
 8008ee4:	db01      	blt.n	8008eea <__sfputc_r+0x16>
 8008ee6:	290a      	cmp	r1, #10
 8008ee8:	d103      	bne.n	8008ef2 <__sfputc_r+0x1e>
 8008eea:	f85d 4b04 	ldr.w	r4, [sp], #4
 8008eee:	f7ff bb59 	b.w	80085a4 <__swbuf_r>
 8008ef2:	6813      	ldr	r3, [r2, #0]
 8008ef4:	1c58      	adds	r0, r3, #1
 8008ef6:	6010      	str	r0, [r2, #0]
 8008ef8:	7019      	strb	r1, [r3, #0]
 8008efa:	4608      	mov	r0, r1
 8008efc:	f85d 4b04 	ldr.w	r4, [sp], #4
 8008f00:	4770      	bx	lr

08008f02 <__sfputs_r>:
 8008f02:	b5f8      	push	{r3, r4, r5, r6, r7, lr}
 8008f04:	4606      	mov	r6, r0
 8008f06:	460f      	mov	r7, r1
 8008f08:	4614      	mov	r4, r2
 8008f0a:	18d5      	adds	r5, r2, r3
 8008f0c:	42ac      	cmp	r4, r5
 8008f0e:	d101      	bne.n	8008f14 <__sfputs_r+0x12>
 8008f10:	2000      	movs	r0, #0
 8008f12:	e007      	b.n	8008f24 <__sfputs_r+0x22>
 8008f14:	463a      	mov	r2, r7
 8008f16:	f814 1b01 	ldrb.w	r1, [r4], #1
 8008f1a:	4630      	mov	r0, r6
 8008f1c:	f7ff ffda 	bl	8008ed4 <__sfputc_r>
 8008f20:	1c43      	adds	r3, r0, #1
 8008f22:	d1f3      	bne.n	8008f0c <__sfputs_r+0xa>
 8008f24:	bdf8      	pop	{r3, r4, r5, r6, r7, pc}
	...

08008f28 <_vfiprintf_r>:
 8008f28:	e92d 4ff0 	stmdb	sp!, {r4, r5, r6, r7, r8, r9, sl, fp, lr}
 8008f2c:	460c      	mov	r4, r1
 8008f2e:	b09d      	sub	sp, #116	; 0x74
 8008f30:	4617      	mov	r7, r2
 8008f32:	461d      	mov	r5, r3
 8008f34:	4606      	mov	r6, r0
 8008f36:	b118      	cbz	r0, 8008f40 <_vfiprintf_r+0x18>
 8008f38:	6983      	ldr	r3, [r0, #24]
 8008f3a:	b90b      	cbnz	r3, 8008f40 <_vfiprintf_r+0x18>
 8008f3c:	f7ff fce2 	bl	8008904 <__sinit>
 8008f40:	4b7c      	ldr	r3, [pc, #496]	; (8009134 <_vfiprintf_r+0x20c>)
 8008f42:	429c      	cmp	r4, r3
 8008f44:	d158      	bne.n	8008ff8 <_vfiprintf_r+0xd0>
 8008f46:	6874      	ldr	r4, [r6, #4]
 8008f48:	89a3      	ldrh	r3, [r4, #12]
 8008f4a:	0718      	lsls	r0, r3, #28
 8008f4c:	d55e      	bpl.n	800900c <_vfiprintf_r+0xe4>
 8008f4e:	6923      	ldr	r3, [r4, #16]
 8008f50:	2b00      	cmp	r3, #0
 8008f52:	d05b      	beq.n	800900c <_vfiprintf_r+0xe4>
 8008f54:	2300      	movs	r3, #0
 8008f56:	9309      	str	r3, [sp, #36]	; 0x24
 8008f58:	2320      	movs	r3, #32
 8008f5a:	f88d 3029 	strb.w	r3, [sp, #41]	; 0x29
 8008f5e:	2330      	movs	r3, #48	; 0x30
 8008f60:	f88d 302a 	strb.w	r3, [sp, #42]	; 0x2a
 8008f64:	9503      	str	r5, [sp, #12]
 8008f66:	f04f 0b01 	mov.w	fp, #1
 8008f6a:	46b8      	mov	r8, r7
 8008f6c:	4645      	mov	r5, r8
 8008f6e:	f815 3b01 	ldrb.w	r3, [r5], #1
 8008f72:	b10b      	cbz	r3, 8008f78 <_vfiprintf_r+0x50>
 8008f74:	2b25      	cmp	r3, #37	; 0x25
 8008f76:	d154      	bne.n	8009022 <_vfiprintf_r+0xfa>
 8008f78:	ebb8 0a07 	subs.w	sl, r8, r7
 8008f7c:	d00b      	beq.n	8008f96 <_vfiprintf_r+0x6e>
 8008f7e:	4653      	mov	r3, sl
 8008f80:	463a      	mov	r2, r7
 8008f82:	4621      	mov	r1, r4
 8008f84:	4630      	mov	r0, r6
 8008f86:	f7ff ffbc 	bl	8008f02 <__sfputs_r>
 8008f8a:	3001      	adds	r0, #1
 8008f8c:	f000 80c2 	beq.w	8009114 <_vfiprintf_r+0x1ec>
 8008f90:	9b09      	ldr	r3, [sp, #36]	; 0x24
 8008f92:	4453      	add	r3, sl
 8008f94:	9309      	str	r3, [sp, #36]	; 0x24
 8008f96:	f898 3000 	ldrb.w	r3, [r8]
 8008f9a:	2b00      	cmp	r3, #0
 8008f9c:	f000 80ba 	beq.w	8009114 <_vfiprintf_r+0x1ec>
 8008fa0:	2300      	movs	r3, #0
 8008fa2:	f04f 32ff 	mov.w	r2, #4294967295	; 0xffffffff
 8008fa6:	e9cd 2305 	strd	r2, r3, [sp, #20]
 8008faa:	9304      	str	r3, [sp, #16]
 8008fac:	9307      	str	r3, [sp, #28]
 8008fae:	f88d 3053 	strb.w	r3, [sp, #83]	; 0x53
 8008fb2:	931a      	str	r3, [sp, #104]	; 0x68
 8008fb4:	46a8      	mov	r8, r5
 8008fb6:	2205      	movs	r2, #5
 8008fb8:	f818 1b01 	ldrb.w	r1, [r8], #1
 8008fbc:	485e      	ldr	r0, [pc, #376]	; (8009138 <_vfiprintf_r+0x210>)
 8008fbe:	f7f7 f92f 	bl	8000220 <memchr>
 8008fc2:	9b04      	ldr	r3, [sp, #16]
 8008fc4:	bb78      	cbnz	r0, 8009026 <_vfiprintf_r+0xfe>
 8008fc6:	06d9      	lsls	r1, r3, #27
 8008fc8:	bf44      	itt	mi
 8008fca:	2220      	movmi	r2, #32
 8008fcc:	f88d 2053 	strbmi.w	r2, [sp, #83]	; 0x53
 8008fd0:	071a      	lsls	r2, r3, #28
 8008fd2:	bf44      	itt	mi
 8008fd4:	222b      	movmi	r2, #43	; 0x2b
 8008fd6:	f88d 2053 	strbmi.w	r2, [sp, #83]	; 0x53
 8008fda:	782a      	ldrb	r2, [r5, #0]
 8008fdc:	2a2a      	cmp	r2, #42	; 0x2a
 8008fde:	d02a      	beq.n	8009036 <_vfiprintf_r+0x10e>
 8008fe0:	9a07      	ldr	r2, [sp, #28]
 8008fe2:	46a8      	mov	r8, r5
 8008fe4:	2000      	movs	r0, #0
 8008fe6:	250a      	movs	r5, #10
 8008fe8:	4641      	mov	r1, r8
 8008fea:	f811 3b01 	ldrb.w	r3, [r1], #1
 8008fee:	3b30      	subs	r3, #48	; 0x30
 8008ff0:	2b09      	cmp	r3, #9
 8008ff2:	d969      	bls.n	80090c8 <_vfiprintf_r+0x1a0>
 8008ff4:	b360      	cbz	r0, 8009050 <_vfiprintf_r+0x128>
 8008ff6:	e024      	b.n	8009042 <_vfiprintf_r+0x11a>
 8008ff8:	4b50      	ldr	r3, [pc, #320]	; (800913c <_vfiprintf_r+0x214>)
 8008ffa:	429c      	cmp	r4, r3
 8008ffc:	d101      	bne.n	8009002 <_vfiprintf_r+0xda>
 8008ffe:	68b4      	ldr	r4, [r6, #8]
 8009000:	e7a2      	b.n	8008f48 <_vfiprintf_r+0x20>
 8009002:	4b4f      	ldr	r3, [pc, #316]	; (8009140 <_vfiprintf_r+0x218>)
 8009004:	429c      	cmp	r4, r3
 8009006:	bf08      	it	eq
 8009008:	68f4      	ldreq	r4, [r6, #12]
 800900a:	e79d      	b.n	8008f48 <_vfiprintf_r+0x20>
 800900c:	4621      	mov	r1, r4
 800900e:	4630      	mov	r0, r6
 8009010:	f7ff fb1a 	bl	8008648 <__swsetup_r>
 8009014:	2800      	cmp	r0, #0
 8009016:	d09d      	beq.n	8008f54 <_vfiprintf_r+0x2c>
 8009018:	f04f 30ff 	mov.w	r0, #4294967295	; 0xffffffff
 800901c:	b01d      	add	sp, #116	; 0x74
 800901e:	e8bd 8ff0 	ldmia.w	sp!, {r4, r5, r6, r7, r8, r9, sl, fp, pc}
 8009022:	46a8      	mov	r8, r5
 8009024:	e7a2      	b.n	8008f6c <_vfiprintf_r+0x44>
 8009026:	4a44      	ldr	r2, [pc, #272]	; (8009138 <_vfiprintf_r+0x210>)
 8009028:	1a80      	subs	r0, r0, r2
 800902a:	fa0b f000 	lsl.w	r0, fp, r0
 800902e:	4318      	orrs	r0, r3
 8009030:	9004      	str	r0, [sp, #16]
 8009032:	4645      	mov	r5, r8
 8009034:	e7be      	b.n	8008fb4 <_vfiprintf_r+0x8c>
 8009036:	9a03      	ldr	r2, [sp, #12]
 8009038:	1d11      	adds	r1, r2, #4
 800903a:	6812      	ldr	r2, [r2, #0]
 800903c:	9103      	str	r1, [sp, #12]
 800903e:	2a00      	cmp	r2, #0
 8009040:	db01      	blt.n	8009046 <_vfiprintf_r+0x11e>
 8009042:	9207      	str	r2, [sp, #28]
 8009044:	e004      	b.n	8009050 <_vfiprintf_r+0x128>
 8009046:	4252      	negs	r2, r2
 8009048:	f043 0302 	orr.w	r3, r3, #2
 800904c:	9207      	str	r2, [sp, #28]
 800904e:	9304      	str	r3, [sp, #16]
 8009050:	f898 3000 	ldrb.w	r3, [r8]
 8009054:	2b2e      	cmp	r3, #46	; 0x2e
 8009056:	d10e      	bne.n	8009076 <_vfiprintf_r+0x14e>
 8009058:	f898 3001 	ldrb.w	r3, [r8, #1]
 800905c:	2b2a      	cmp	r3, #42	; 0x2a
 800905e:	d138      	bne.n	80090d2 <_vfiprintf_r+0x1aa>
 8009060:	9b03      	ldr	r3, [sp, #12]
 8009062:	1d1a      	adds	r2, r3, #4
 8009064:	681b      	ldr	r3, [r3, #0]
 8009066:	9203      	str	r2, [sp, #12]
 8009068:	2b00      	cmp	r3, #0
 800906a:	bfb8      	it	lt
 800906c:	f04f 33ff 	movlt.w	r3, #4294967295	; 0xffffffff
 8009070:	f108 0802 	add.w	r8, r8, #2
 8009074:	9305      	str	r3, [sp, #20]
 8009076:	4d33      	ldr	r5, [pc, #204]	; (8009144 <_vfiprintf_r+0x21c>)
 8009078:	f898 1000 	ldrb.w	r1, [r8]
 800907c:	2203      	movs	r2, #3
 800907e:	4628      	mov	r0, r5
 8009080:	f7f7 f8ce 	bl	8000220 <memchr>
 8009084:	b140      	cbz	r0, 8009098 <_vfiprintf_r+0x170>
 8009086:	2340      	movs	r3, #64	; 0x40
 8009088:	1b40      	subs	r0, r0, r5
 800908a:	fa03 f000 	lsl.w	r0, r3, r0
 800908e:	9b04      	ldr	r3, [sp, #16]
 8009090:	4303      	orrs	r3, r0
 8009092:	f108 0801 	add.w	r8, r8, #1
 8009096:	9304      	str	r3, [sp, #16]
 8009098:	f898 1000 	ldrb.w	r1, [r8]
 800909c:	482a      	ldr	r0, [pc, #168]	; (8009148 <_vfiprintf_r+0x220>)
 800909e:	f88d 1028 	strb.w	r1, [sp, #40]	; 0x28
 80090a2:	2206      	movs	r2, #6
 80090a4:	f108 0701 	add.w	r7, r8, #1
 80090a8:	f7f7 f8ba 	bl	8000220 <memchr>
 80090ac:	2800      	cmp	r0, #0
 80090ae:	d037      	beq.n	8009120 <_vfiprintf_r+0x1f8>
 80090b0:	4b26      	ldr	r3, [pc, #152]	; (800914c <_vfiprintf_r+0x224>)
 80090b2:	bb1b      	cbnz	r3, 80090fc <_vfiprintf_r+0x1d4>
 80090b4:	9b03      	ldr	r3, [sp, #12]
 80090b6:	3307      	adds	r3, #7
 80090b8:	f023 0307 	bic.w	r3, r3, #7
 80090bc:	3308      	adds	r3, #8
 80090be:	9303      	str	r3, [sp, #12]
 80090c0:	9b09      	ldr	r3, [sp, #36]	; 0x24
 80090c2:	444b      	add	r3, r9
 80090c4:	9309      	str	r3, [sp, #36]	; 0x24
 80090c6:	e750      	b.n	8008f6a <_vfiprintf_r+0x42>
 80090c8:	fb05 3202 	mla	r2, r5, r2, r3
 80090cc:	2001      	movs	r0, #1
 80090ce:	4688      	mov	r8, r1
 80090d0:	e78a      	b.n	8008fe8 <_vfiprintf_r+0xc0>
 80090d2:	2300      	movs	r3, #0
 80090d4:	f108 0801 	add.w	r8, r8, #1
 80090d8:	9305      	str	r3, [sp, #20]
 80090da:	4619      	mov	r1, r3
 80090dc:	250a      	movs	r5, #10
 80090de:	4640      	mov	r0, r8
 80090e0:	f810 2b01 	ldrb.w	r2, [r0], #1
 80090e4:	3a30      	subs	r2, #48	; 0x30
 80090e6:	2a09      	cmp	r2, #9
 80090e8:	d903      	bls.n	80090f2 <_vfiprintf_r+0x1ca>
 80090ea:	2b00      	cmp	r3, #0
 80090ec:	d0c3      	beq.n	8009076 <_vfiprintf_r+0x14e>
 80090ee:	9105      	str	r1, [sp, #20]
 80090f0:	e7c1      	b.n	8009076 <_vfiprintf_r+0x14e>
 80090f2:	fb05 2101 	mla	r1, r5, r1, r2
 80090f6:	2301      	movs	r3, #1
 80090f8:	4680      	mov	r8, r0
 80090fa:	e7f0      	b.n	80090de <_vfiprintf_r+0x1b6>
 80090fc:	ab03      	add	r3, sp, #12
 80090fe:	9300      	str	r3, [sp, #0]
 8009100:	4622      	mov	r2, r4
 8009102:	4b13      	ldr	r3, [pc, #76]	; (8009150 <_vfiprintf_r+0x228>)
 8009104:	a904      	add	r1, sp, #16
 8009106:	4630      	mov	r0, r6
 8009108:	f3af 8000 	nop.w
 800910c:	f1b0 3fff 	cmp.w	r0, #4294967295	; 0xffffffff
 8009110:	4681      	mov	r9, r0
 8009112:	d1d5      	bne.n	80090c0 <_vfiprintf_r+0x198>
 8009114:	89a3      	ldrh	r3, [r4, #12]
 8009116:	065b      	lsls	r3, r3, #25
 8009118:	f53f af7e 	bmi.w	8009018 <_vfiprintf_r+0xf0>
 800911c:	9809      	ldr	r0, [sp, #36]	; 0x24
 800911e:	e77d      	b.n	800901c <_vfiprintf_r+0xf4>
 8009120:	ab03      	add	r3, sp, #12
 8009122:	9300      	str	r3, [sp, #0]
 8009124:	4622      	mov	r2, r4
 8009126:	4b0a      	ldr	r3, [pc, #40]	; (8009150 <_vfiprintf_r+0x228>)
 8009128:	a904      	add	r1, sp, #16
 800912a:	4630      	mov	r0, r6
 800912c:	f000 f888 	bl	8009240 <_printf_i>
 8009130:	e7ec      	b.n	800910c <_vfiprintf_r+0x1e4>
 8009132:	bf00      	nop
 8009134:	080099c4 	.word	0x080099c4
 8009138:	08009a04 	.word	0x08009a04
 800913c:	080099e4 	.word	0x080099e4
 8009140:	080099a4 	.word	0x080099a4
 8009144:	08009a0a 	.word	0x08009a0a
 8009148:	08009a0e 	.word	0x08009a0e
 800914c:	00000000 	.word	0x00000000
 8009150:	08008f03 	.word	0x08008f03

08009154 <_printf_common>:
 8009154:	e92d 47f0 	stmdb	sp!, {r4, r5, r6, r7, r8, r9, sl, lr}
 8009158:	4691      	mov	r9, r2
 800915a:	461f      	mov	r7, r3
 800915c:	688a      	ldr	r2, [r1, #8]
 800915e:	690b      	ldr	r3, [r1, #16]
 8009160:	f8dd 8020 	ldr.w	r8, [sp, #32]
 8009164:	4293      	cmp	r3, r2
 8009166:	bfb8      	it	lt
 8009168:	4613      	movlt	r3, r2
 800916a:	f8c9 3000 	str.w	r3, [r9]
 800916e:	f891 2043 	ldrb.w	r2, [r1, #67]	; 0x43
 8009172:	4606      	mov	r6, r0
 8009174:	460c      	mov	r4, r1
 8009176:	b112      	cbz	r2, 800917e <_printf_common+0x2a>
 8009178:	3301      	adds	r3, #1
 800917a:	f8c9 3000 	str.w	r3, [r9]
 800917e:	6823      	ldr	r3, [r4, #0]
 8009180:	0699      	lsls	r1, r3, #26
 8009182:	bf42      	ittt	mi
 8009184:	f8d9 3000 	ldrmi.w	r3, [r9]
 8009188:	3302      	addmi	r3, #2
 800918a:	f8c9 3000 	strmi.w	r3, [r9]
 800918e:	6825      	ldr	r5, [r4, #0]
 8009190:	f015 0506 	ands.w	r5, r5, #6
 8009194:	d107      	bne.n	80091a6 <_printf_common+0x52>
 8009196:	f104 0a19 	add.w	sl, r4, #25
 800919a:	68e3      	ldr	r3, [r4, #12]
 800919c:	f8d9 2000 	ldr.w	r2, [r9]
 80091a0:	1a9b      	subs	r3, r3, r2
 80091a2:	42ab      	cmp	r3, r5
 80091a4:	dc28      	bgt.n	80091f8 <_printf_common+0xa4>
 80091a6:	f894 3043 	ldrb.w	r3, [r4, #67]	; 0x43
 80091aa:	6822      	ldr	r2, [r4, #0]
 80091ac:	3300      	adds	r3, #0
 80091ae:	bf18      	it	ne
 80091b0:	2301      	movne	r3, #1
 80091b2:	0692      	lsls	r2, r2, #26
 80091b4:	d42d      	bmi.n	8009212 <_printf_common+0xbe>
 80091b6:	f104 0243 	add.w	r2, r4, #67	; 0x43
 80091ba:	4639      	mov	r1, r7
 80091bc:	4630      	mov	r0, r6
 80091be:	47c0      	blx	r8
 80091c0:	3001      	adds	r0, #1
 80091c2:	d020      	beq.n	8009206 <_printf_common+0xb2>
 80091c4:	6823      	ldr	r3, [r4, #0]
 80091c6:	68e5      	ldr	r5, [r4, #12]
 80091c8:	f8d9 2000 	ldr.w	r2, [r9]
 80091cc:	f003 0306 	and.w	r3, r3, #6
 80091d0:	2b04      	cmp	r3, #4
 80091d2:	bf08      	it	eq
 80091d4:	1aad      	subeq	r5, r5, r2
 80091d6:	68a3      	ldr	r3, [r4, #8]
 80091d8:	6922      	ldr	r2, [r4, #16]
 80091da:	bf0c      	ite	eq
 80091dc:	ea25 75e5 	biceq.w	r5, r5, r5, asr #31
 80091e0:	2500      	movne	r5, #0
 80091e2:	4293      	cmp	r3, r2
 80091e4:	bfc4      	itt	gt
 80091e6:	1a9b      	subgt	r3, r3, r2
 80091e8:	18ed      	addgt	r5, r5, r3
 80091ea:	f04f 0900 	mov.w	r9, #0
 80091ee:	341a      	adds	r4, #26
 80091f0:	454d      	cmp	r5, r9
 80091f2:	d11a      	bne.n	800922a <_printf_common+0xd6>
 80091f4:	2000      	movs	r0, #0
 80091f6:	e008      	b.n	800920a <_printf_common+0xb6>
 80091f8:	2301      	movs	r3, #1
 80091fa:	4652      	mov	r2, sl
 80091fc:	4639      	mov	r1, r7
 80091fe:	4630      	mov	r0, r6
 8009200:	47c0      	blx	r8
 8009202:	3001      	adds	r0, #1
 8009204:	d103      	bne.n	800920e <_printf_common+0xba>
 8009206:	f04f 30ff 	mov.w	r0, #4294967295	; 0xffffffff
 800920a:	e8bd 87f0 	ldmia.w	sp!, {r4, r5, r6, r7, r8, r9, sl, pc}
 800920e:	3501      	adds	r5, #1
 8009210:	e7c3      	b.n	800919a <_printf_common+0x46>
 8009212:	18e1      	adds	r1, r4, r3
 8009214:	1c5a      	adds	r2, r3, #1
 8009216:	2030      	movs	r0, #48	; 0x30
 8009218:	f881 0043 	strb.w	r0, [r1, #67]	; 0x43
 800921c:	4422      	add	r2, r4
 800921e:	f894 1045 	ldrb.w	r1, [r4, #69]	; 0x45
 8009222:	f882 1043 	strb.w	r1, [r2, #67]	; 0x43
 8009226:	3302      	adds	r3, #2
 8009228:	e7c5      	b.n	80091b6 <_printf_common+0x62>
 800922a:	2301      	movs	r3, #1
 800922c:	4622      	mov	r2, r4
 800922e:	4639      	mov	r1, r7
 8009230:	4630      	mov	r0, r6
 8009232:	47c0      	blx	r8
 8009234:	3001      	adds	r0, #1
 8009236:	d0e6      	beq.n	8009206 <_printf_common+0xb2>
 8009238:	f109 0901 	add.w	r9, r9, #1
 800923c:	e7d8      	b.n	80091f0 <_printf_common+0x9c>
	...

08009240 <_printf_i>:
 8009240:	e92d 43f0 	stmdb	sp!, {r4, r5, r6, r7, r8, r9, lr}
 8009244:	f101 0c43 	add.w	ip, r1, #67	; 0x43
 8009248:	460c      	mov	r4, r1
 800924a:	7e09      	ldrb	r1, [r1, #24]
 800924c:	b085      	sub	sp, #20
 800924e:	296e      	cmp	r1, #110	; 0x6e
 8009250:	4617      	mov	r7, r2
 8009252:	4606      	mov	r6, r0
 8009254:	4698      	mov	r8, r3
 8009256:	9a0c      	ldr	r2, [sp, #48]	; 0x30
 8009258:	f000 80b3 	beq.w	80093c2 <_printf_i+0x182>
 800925c:	d822      	bhi.n	80092a4 <_printf_i+0x64>
 800925e:	2963      	cmp	r1, #99	; 0x63
 8009260:	d036      	beq.n	80092d0 <_printf_i+0x90>
 8009262:	d80a      	bhi.n	800927a <_printf_i+0x3a>
 8009264:	2900      	cmp	r1, #0
 8009266:	f000 80b9 	beq.w	80093dc <_printf_i+0x19c>
 800926a:	2958      	cmp	r1, #88	; 0x58
 800926c:	f000 8083 	beq.w	8009376 <_printf_i+0x136>
 8009270:	f104 0542 	add.w	r5, r4, #66	; 0x42
 8009274:	f884 1042 	strb.w	r1, [r4, #66]	; 0x42
 8009278:	e032      	b.n	80092e0 <_printf_i+0xa0>
 800927a:	2964      	cmp	r1, #100	; 0x64
 800927c:	d001      	beq.n	8009282 <_printf_i+0x42>
 800927e:	2969      	cmp	r1, #105	; 0x69
 8009280:	d1f6      	bne.n	8009270 <_printf_i+0x30>
 8009282:	6820      	ldr	r0, [r4, #0]
 8009284:	6813      	ldr	r3, [r2, #0]
 8009286:	0605      	lsls	r5, r0, #24
 8009288:	f103 0104 	add.w	r1, r3, #4
 800928c:	d52a      	bpl.n	80092e4 <_printf_i+0xa4>
 800928e:	681b      	ldr	r3, [r3, #0]
 8009290:	6011      	str	r1, [r2, #0]
 8009292:	2b00      	cmp	r3, #0
 8009294:	da03      	bge.n	800929e <_printf_i+0x5e>
 8009296:	222d      	movs	r2, #45	; 0x2d
 8009298:	425b      	negs	r3, r3
 800929a:	f884 2043 	strb.w	r2, [r4, #67]	; 0x43
 800929e:	486f      	ldr	r0, [pc, #444]	; (800945c <_printf_i+0x21c>)
 80092a0:	220a      	movs	r2, #10
 80092a2:	e039      	b.n	8009318 <_printf_i+0xd8>
 80092a4:	2973      	cmp	r1, #115	; 0x73
 80092a6:	f000 809d 	beq.w	80093e4 <_printf_i+0x1a4>
 80092aa:	d808      	bhi.n	80092be <_printf_i+0x7e>
 80092ac:	296f      	cmp	r1, #111	; 0x6f
 80092ae:	d020      	beq.n	80092f2 <_printf_i+0xb2>
 80092b0:	2970      	cmp	r1, #112	; 0x70
 80092b2:	d1dd      	bne.n	8009270 <_printf_i+0x30>
 80092b4:	6823      	ldr	r3, [r4, #0]
 80092b6:	f043 0320 	orr.w	r3, r3, #32
 80092ba:	6023      	str	r3, [r4, #0]
 80092bc:	e003      	b.n	80092c6 <_printf_i+0x86>
 80092be:	2975      	cmp	r1, #117	; 0x75
 80092c0:	d017      	beq.n	80092f2 <_printf_i+0xb2>
 80092c2:	2978      	cmp	r1, #120	; 0x78
 80092c4:	d1d4      	bne.n	8009270 <_printf_i+0x30>
 80092c6:	2378      	movs	r3, #120	; 0x78
 80092c8:	f884 3045 	strb.w	r3, [r4, #69]	; 0x45
 80092cc:	4864      	ldr	r0, [pc, #400]	; (8009460 <_printf_i+0x220>)
 80092ce:	e055      	b.n	800937c <_printf_i+0x13c>
 80092d0:	6813      	ldr	r3, [r2, #0]
 80092d2:	1d19      	adds	r1, r3, #4
 80092d4:	681b      	ldr	r3, [r3, #0]
 80092d6:	6011      	str	r1, [r2, #0]
 80092d8:	f104 0542 	add.w	r5, r4, #66	; 0x42
 80092dc:	f884 3042 	strb.w	r3, [r4, #66]	; 0x42
 80092e0:	2301      	movs	r3, #1
 80092e2:	e08c      	b.n	80093fe <_printf_i+0x1be>
 80092e4:	681b      	ldr	r3, [r3, #0]
 80092e6:	6011      	str	r1, [r2, #0]
 80092e8:	f010 0f40 	tst.w	r0, #64	; 0x40
 80092ec:	bf18      	it	ne
 80092ee:	b21b      	sxthne	r3, r3
 80092f0:	e7cf      	b.n	8009292 <_printf_i+0x52>
 80092f2:	6813      	ldr	r3, [r2, #0]
 80092f4:	6825      	ldr	r5, [r4, #0]
 80092f6:	1d18      	adds	r0, r3, #4
 80092f8:	6010      	str	r0, [r2, #0]
 80092fa:	0628      	lsls	r0, r5, #24
 80092fc:	d501      	bpl.n	8009302 <_printf_i+0xc2>
 80092fe:	681b      	ldr	r3, [r3, #0]
 8009300:	e002      	b.n	8009308 <_printf_i+0xc8>
 8009302:	0668      	lsls	r0, r5, #25
 8009304:	d5fb      	bpl.n	80092fe <_printf_i+0xbe>
 8009306:	881b      	ldrh	r3, [r3, #0]
 8009308:	4854      	ldr	r0, [pc, #336]	; (800945c <_printf_i+0x21c>)
 800930a:	296f      	cmp	r1, #111	; 0x6f
 800930c:	bf14      	ite	ne
 800930e:	220a      	movne	r2, #10
 8009310:	2208      	moveq	r2, #8
 8009312:	2100      	movs	r1, #0
 8009314:	f884 1043 	strb.w	r1, [r4, #67]	; 0x43
 8009318:	6865      	ldr	r5, [r4, #4]
 800931a:	60a5      	str	r5, [r4, #8]
 800931c:	2d00      	cmp	r5, #0
 800931e:	f2c0 8095 	blt.w	800944c <_printf_i+0x20c>
 8009322:	6821      	ldr	r1, [r4, #0]
 8009324:	f021 0104 	bic.w	r1, r1, #4
 8009328:	6021      	str	r1, [r4, #0]
 800932a:	2b00      	cmp	r3, #0
 800932c:	d13d      	bne.n	80093aa <_printf_i+0x16a>
 800932e:	2d00      	cmp	r5, #0
 8009330:	f040 808e 	bne.w	8009450 <_printf_i+0x210>
 8009334:	4665      	mov	r5, ip
 8009336:	2a08      	cmp	r2, #8
 8009338:	d10b      	bne.n	8009352 <_printf_i+0x112>
 800933a:	6823      	ldr	r3, [r4, #0]
 800933c:	07db      	lsls	r3, r3, #31
 800933e:	d508      	bpl.n	8009352 <_printf_i+0x112>
 8009340:	6923      	ldr	r3, [r4, #16]
 8009342:	6862      	ldr	r2, [r4, #4]
 8009344:	429a      	cmp	r2, r3
 8009346:	bfde      	ittt	le
 8009348:	2330      	movle	r3, #48	; 0x30
 800934a:	f805 3c01 	strble.w	r3, [r5, #-1]
 800934e:	f105 35ff 	addle.w	r5, r5, #4294967295	; 0xffffffff
 8009352:	ebac 0305 	sub.w	r3, ip, r5
 8009356:	6123      	str	r3, [r4, #16]
 8009358:	f8cd 8000 	str.w	r8, [sp]
 800935c:	463b      	mov	r3, r7
 800935e:	aa03      	add	r2, sp, #12
 8009360:	4621      	mov	r1, r4
 8009362:	4630      	mov	r0, r6
 8009364:	f7ff fef6 	bl	8009154 <_printf_common>
 8009368:	3001      	adds	r0, #1
 800936a:	d14d      	bne.n	8009408 <_printf_i+0x1c8>
 800936c:	f04f 30ff 	mov.w	r0, #4294967295	; 0xffffffff
 8009370:	b005      	add	sp, #20
 8009372:	e8bd 83f0 	ldmia.w	sp!, {r4, r5, r6, r7, r8, r9, pc}
 8009376:	4839      	ldr	r0, [pc, #228]	; (800945c <_printf_i+0x21c>)
 8009378:	f884 1045 	strb.w	r1, [r4, #69]	; 0x45
 800937c:	6813      	ldr	r3, [r2, #0]
 800937e:	6821      	ldr	r1, [r4, #0]
 8009380:	1d1d      	adds	r5, r3, #4
 8009382:	681b      	ldr	r3, [r3, #0]
 8009384:	6015      	str	r5, [r2, #0]
 8009386:	060a      	lsls	r2, r1, #24
 8009388:	d50b      	bpl.n	80093a2 <_printf_i+0x162>
 800938a:	07ca      	lsls	r2, r1, #31
 800938c:	bf44      	itt	mi
 800938e:	f041 0120 	orrmi.w	r1, r1, #32
 8009392:	6021      	strmi	r1, [r4, #0]
 8009394:	b91b      	cbnz	r3, 800939e <_printf_i+0x15e>
 8009396:	6822      	ldr	r2, [r4, #0]
 8009398:	f022 0220 	bic.w	r2, r2, #32
 800939c:	6022      	str	r2, [r4, #0]
 800939e:	2210      	movs	r2, #16
 80093a0:	e7b7      	b.n	8009312 <_printf_i+0xd2>
 80093a2:	064d      	lsls	r5, r1, #25
 80093a4:	bf48      	it	mi
 80093a6:	b29b      	uxthmi	r3, r3
 80093a8:	e7ef      	b.n	800938a <_printf_i+0x14a>
 80093aa:	4665      	mov	r5, ip
 80093ac:	fbb3 f1f2 	udiv	r1, r3, r2
 80093b0:	fb02 3311 	mls	r3, r2, r1, r3
 80093b4:	5cc3      	ldrb	r3, [r0, r3]
 80093b6:	f805 3d01 	strb.w	r3, [r5, #-1]!
 80093ba:	460b      	mov	r3, r1
 80093bc:	2900      	cmp	r1, #0
 80093be:	d1f5      	bne.n	80093ac <_printf_i+0x16c>
 80093c0:	e7b9      	b.n	8009336 <_printf_i+0xf6>
 80093c2:	6813      	ldr	r3, [r2, #0]
 80093c4:	6825      	ldr	r5, [r4, #0]
 80093c6:	6961      	ldr	r1, [r4, #20]
 80093c8:	1d18      	adds	r0, r3, #4
 80093ca:	6010      	str	r0, [r2, #0]
 80093cc:	0628      	lsls	r0, r5, #24
 80093ce:	681b      	ldr	r3, [r3, #0]
 80093d0:	d501      	bpl.n	80093d6 <_printf_i+0x196>
 80093d2:	6019      	str	r1, [r3, #0]
 80093d4:	e002      	b.n	80093dc <_printf_i+0x19c>
 80093d6:	066a      	lsls	r2, r5, #25
 80093d8:	d5fb      	bpl.n	80093d2 <_printf_i+0x192>
 80093da:	8019      	strh	r1, [r3, #0]
 80093dc:	2300      	movs	r3, #0
 80093de:	6123      	str	r3, [r4, #16]
 80093e0:	4665      	mov	r5, ip
 80093e2:	e7b9      	b.n	8009358 <_printf_i+0x118>
 80093e4:	6813      	ldr	r3, [r2, #0]
 80093e6:	1d19      	adds	r1, r3, #4
 80093e8:	6011      	str	r1, [r2, #0]
 80093ea:	681d      	ldr	r5, [r3, #0]
 80093ec:	6862      	ldr	r2, [r4, #4]
 80093ee:	2100      	movs	r1, #0
 80093f0:	4628      	mov	r0, r5
 80093f2:	f7f6 ff15 	bl	8000220 <memchr>
 80093f6:	b108      	cbz	r0, 80093fc <_printf_i+0x1bc>
 80093f8:	1b40      	subs	r0, r0, r5
 80093fa:	6060      	str	r0, [r4, #4]
 80093fc:	6863      	ldr	r3, [r4, #4]
 80093fe:	6123      	str	r3, [r4, #16]
 8009400:	2300      	movs	r3, #0
 8009402:	f884 3043 	strb.w	r3, [r4, #67]	; 0x43
 8009406:	e7a7      	b.n	8009358 <_printf_i+0x118>
 8009408:	6923      	ldr	r3, [r4, #16]
 800940a:	462a      	mov	r2, r5
 800940c:	4639      	mov	r1, r7
 800940e:	4630      	mov	r0, r6
 8009410:	47c0      	blx	r8
 8009412:	3001      	adds	r0, #1
 8009414:	d0aa      	beq.n	800936c <_printf_i+0x12c>
 8009416:	6823      	ldr	r3, [r4, #0]
 8009418:	079b      	lsls	r3, r3, #30
 800941a:	d413      	bmi.n	8009444 <_printf_i+0x204>
 800941c:	68e0      	ldr	r0, [r4, #12]
 800941e:	9b03      	ldr	r3, [sp, #12]
 8009420:	4298      	cmp	r0, r3
 8009422:	bfb8      	it	lt
 8009424:	4618      	movlt	r0, r3
 8009426:	e7a3      	b.n	8009370 <_printf_i+0x130>
 8009428:	2301      	movs	r3, #1
 800942a:	464a      	mov	r2, r9
 800942c:	4639      	mov	r1, r7
 800942e:	4630      	mov	r0, r6
 8009430:	47c0      	blx	r8
 8009432:	3001      	adds	r0, #1
 8009434:	d09a      	beq.n	800936c <_printf_i+0x12c>
 8009436:	3501      	adds	r5, #1
 8009438:	68e3      	ldr	r3, [r4, #12]
 800943a:	9a03      	ldr	r2, [sp, #12]
 800943c:	1a9b      	subs	r3, r3, r2
 800943e:	42ab      	cmp	r3, r5
 8009440:	dcf2      	bgt.n	8009428 <_printf_i+0x1e8>
 8009442:	e7eb      	b.n	800941c <_printf_i+0x1dc>
 8009444:	2500      	movs	r5, #0
 8009446:	f104 0919 	add.w	r9, r4, #25
 800944a:	e7f5      	b.n	8009438 <_printf_i+0x1f8>
 800944c:	2b00      	cmp	r3, #0
 800944e:	d1ac      	bne.n	80093aa <_printf_i+0x16a>
 8009450:	7803      	ldrb	r3, [r0, #0]
 8009452:	f884 3042 	strb.w	r3, [r4, #66]	; 0x42
 8009456:	f104 0542 	add.w	r5, r4, #66	; 0x42
 800945a:	e76c      	b.n	8009336 <_printf_i+0xf6>
 800945c:	08009a15 	.word	0x08009a15
 8009460:	08009a26 	.word	0x08009a26

08009464 <_sbrk_r>:
 8009464:	b538      	push	{r3, r4, r5, lr}
 8009466:	4c06      	ldr	r4, [pc, #24]	; (8009480 <_sbrk_r+0x1c>)
 8009468:	2300      	movs	r3, #0
 800946a:	4605      	mov	r5, r0
 800946c:	4608      	mov	r0, r1
 800946e:	6023      	str	r3, [r4, #0]
 8009470:	f7f8 fa22 	bl	80018b8 <_sbrk>
 8009474:	1c43      	adds	r3, r0, #1
 8009476:	d102      	bne.n	800947e <_sbrk_r+0x1a>
 8009478:	6823      	ldr	r3, [r4, #0]
 800947a:	b103      	cbz	r3, 800947e <_sbrk_r+0x1a>
 800947c:	602b      	str	r3, [r5, #0]
 800947e:	bd38      	pop	{r3, r4, r5, pc}
 8009480:	20002460 	.word	0x20002460

08009484 <__sread>:
 8009484:	b510      	push	{r4, lr}
 8009486:	460c      	mov	r4, r1
 8009488:	f9b1 100e 	ldrsh.w	r1, [r1, #14]
 800948c:	f000 f8e0 	bl	8009650 <_read_r>
 8009490:	2800      	cmp	r0, #0
 8009492:	bfab      	itete	ge
 8009494:	6d63      	ldrge	r3, [r4, #84]	; 0x54
 8009496:	89a3      	ldrhlt	r3, [r4, #12]
 8009498:	181b      	addge	r3, r3, r0
 800949a:	f423 5380 	biclt.w	r3, r3, #4096	; 0x1000
 800949e:	bfac      	ite	ge
 80094a0:	6563      	strge	r3, [r4, #84]	; 0x54
 80094a2:	81a3      	strhlt	r3, [r4, #12]
 80094a4:	bd10      	pop	{r4, pc}

080094a6 <__swrite>:
 80094a6:	e92d 41f0 	stmdb	sp!, {r4, r5, r6, r7, r8, lr}
 80094aa:	461f      	mov	r7, r3
 80094ac:	898b      	ldrh	r3, [r1, #12]
 80094ae:	05db      	lsls	r3, r3, #23
 80094b0:	4605      	mov	r5, r0
 80094b2:	460c      	mov	r4, r1
 80094b4:	4616      	mov	r6, r2
 80094b6:	d505      	bpl.n	80094c4 <__swrite+0x1e>
 80094b8:	2302      	movs	r3, #2
 80094ba:	2200      	movs	r2, #0
 80094bc:	f9b1 100e 	ldrsh.w	r1, [r1, #14]
 80094c0:	f000 f868 	bl	8009594 <_lseek_r>
 80094c4:	89a3      	ldrh	r3, [r4, #12]
 80094c6:	f9b4 100e 	ldrsh.w	r1, [r4, #14]
 80094ca:	f423 5380 	bic.w	r3, r3, #4096	; 0x1000
 80094ce:	81a3      	strh	r3, [r4, #12]
 80094d0:	4632      	mov	r2, r6
 80094d2:	463b      	mov	r3, r7
 80094d4:	4628      	mov	r0, r5
 80094d6:	e8bd 41f0 	ldmia.w	sp!, {r4, r5, r6, r7, r8, lr}
 80094da:	f000 b817 	b.w	800950c <_write_r>

080094de <__sseek>:
 80094de:	b510      	push	{r4, lr}
 80094e0:	460c      	mov	r4, r1
 80094e2:	f9b1 100e 	ldrsh.w	r1, [r1, #14]
 80094e6:	f000 f855 	bl	8009594 <_lseek_r>
 80094ea:	1c43      	adds	r3, r0, #1
 80094ec:	89a3      	ldrh	r3, [r4, #12]
 80094ee:	bf15      	itete	ne
 80094f0:	6560      	strne	r0, [r4, #84]	; 0x54
 80094f2:	f423 5380 	biceq.w	r3, r3, #4096	; 0x1000
 80094f6:	f443 5380 	orrne.w	r3, r3, #4096	; 0x1000
 80094fa:	81a3      	strheq	r3, [r4, #12]
 80094fc:	bf18      	it	ne
 80094fe:	81a3      	strhne	r3, [r4, #12]
 8009500:	bd10      	pop	{r4, pc}

08009502 <__sclose>:
 8009502:	f9b1 100e 	ldrsh.w	r1, [r1, #14]
 8009506:	f000 b813 	b.w	8009530 <_close_r>
	...

0800950c <_write_r>:
 800950c:	b538      	push	{r3, r4, r5, lr}
 800950e:	4c07      	ldr	r4, [pc, #28]	; (800952c <_write_r+0x20>)
 8009510:	4605      	mov	r5, r0
 8009512:	4608      	mov	r0, r1
 8009514:	4611      	mov	r1, r2
 8009516:	2200      	movs	r2, #0
 8009518:	6022      	str	r2, [r4, #0]
 800951a:	461a      	mov	r2, r3
 800951c:	f7f7 fd1f 	bl	8000f5e <_write>
 8009520:	1c43      	adds	r3, r0, #1
 8009522:	d102      	bne.n	800952a <_write_r+0x1e>
 8009524:	6823      	ldr	r3, [r4, #0]
 8009526:	b103      	cbz	r3, 800952a <_write_r+0x1e>
 8009528:	602b      	str	r3, [r5, #0]
 800952a:	bd38      	pop	{r3, r4, r5, pc}
 800952c:	20002460 	.word	0x20002460

08009530 <_close_r>:
 8009530:	b538      	push	{r3, r4, r5, lr}
 8009532:	4c06      	ldr	r4, [pc, #24]	; (800954c <_close_r+0x1c>)
 8009534:	2300      	movs	r3, #0
 8009536:	4605      	mov	r5, r0
 8009538:	4608      	mov	r0, r1
 800953a:	6023      	str	r3, [r4, #0]
 800953c:	f7f8 f987 	bl	800184e <_close>
 8009540:	1c43      	adds	r3, r0, #1
 8009542:	d102      	bne.n	800954a <_close_r+0x1a>
 8009544:	6823      	ldr	r3, [r4, #0]
 8009546:	b103      	cbz	r3, 800954a <_close_r+0x1a>
 8009548:	602b      	str	r3, [r5, #0]
 800954a:	bd38      	pop	{r3, r4, r5, pc}
 800954c:	20002460 	.word	0x20002460

08009550 <_fstat_r>:
 8009550:	b538      	push	{r3, r4, r5, lr}
 8009552:	4c07      	ldr	r4, [pc, #28]	; (8009570 <_fstat_r+0x20>)
 8009554:	2300      	movs	r3, #0
 8009556:	4605      	mov	r5, r0
 8009558:	4608      	mov	r0, r1
 800955a:	4611      	mov	r1, r2
 800955c:	6023      	str	r3, [r4, #0]
 800955e:	f7f8 f982 	bl	8001866 <_fstat>
 8009562:	1c43      	adds	r3, r0, #1
 8009564:	d102      	bne.n	800956c <_fstat_r+0x1c>
 8009566:	6823      	ldr	r3, [r4, #0]
 8009568:	b103      	cbz	r3, 800956c <_fstat_r+0x1c>
 800956a:	602b      	str	r3, [r5, #0]
 800956c:	bd38      	pop	{r3, r4, r5, pc}
 800956e:	bf00      	nop
 8009570:	20002460 	.word	0x20002460

08009574 <_isatty_r>:
 8009574:	b538      	push	{r3, r4, r5, lr}
 8009576:	4c06      	ldr	r4, [pc, #24]	; (8009590 <_isatty_r+0x1c>)
 8009578:	2300      	movs	r3, #0
 800957a:	4605      	mov	r5, r0
 800957c:	4608      	mov	r0, r1
 800957e:	6023      	str	r3, [r4, #0]
 8009580:	f7f8 f981 	bl	8001886 <_isatty>
 8009584:	1c43      	adds	r3, r0, #1
 8009586:	d102      	bne.n	800958e <_isatty_r+0x1a>
 8009588:	6823      	ldr	r3, [r4, #0]
 800958a:	b103      	cbz	r3, 800958e <_isatty_r+0x1a>
 800958c:	602b      	str	r3, [r5, #0]
 800958e:	bd38      	pop	{r3, r4, r5, pc}
 8009590:	20002460 	.word	0x20002460

08009594 <_lseek_r>:
 8009594:	b538      	push	{r3, r4, r5, lr}
 8009596:	4c07      	ldr	r4, [pc, #28]	; (80095b4 <_lseek_r+0x20>)
 8009598:	4605      	mov	r5, r0
 800959a:	4608      	mov	r0, r1
 800959c:	4611      	mov	r1, r2
 800959e:	2200      	movs	r2, #0
 80095a0:	6022      	str	r2, [r4, #0]
 80095a2:	461a      	mov	r2, r3
 80095a4:	f7f8 f97a 	bl	800189c <_lseek>
 80095a8:	1c43      	adds	r3, r0, #1
 80095aa:	d102      	bne.n	80095b2 <_lseek_r+0x1e>
 80095ac:	6823      	ldr	r3, [r4, #0]
 80095ae:	b103      	cbz	r3, 80095b2 <_lseek_r+0x1e>
 80095b0:	602b      	str	r3, [r5, #0]
 80095b2:	bd38      	pop	{r3, r4, r5, pc}
 80095b4:	20002460 	.word	0x20002460

080095b8 <memcpy>:
 80095b8:	b510      	push	{r4, lr}
 80095ba:	1e43      	subs	r3, r0, #1
 80095bc:	440a      	add	r2, r1
 80095be:	4291      	cmp	r1, r2
 80095c0:	d100      	bne.n	80095c4 <memcpy+0xc>
 80095c2:	bd10      	pop	{r4, pc}
 80095c4:	f811 4b01 	ldrb.w	r4, [r1], #1
 80095c8:	f803 4f01 	strb.w	r4, [r3, #1]!
 80095cc:	e7f7      	b.n	80095be <memcpy+0x6>

080095ce <memmove>:
 80095ce:	4288      	cmp	r0, r1
 80095d0:	b510      	push	{r4, lr}
 80095d2:	eb01 0302 	add.w	r3, r1, r2
 80095d6:	d807      	bhi.n	80095e8 <memmove+0x1a>
 80095d8:	1e42      	subs	r2, r0, #1
 80095da:	4299      	cmp	r1, r3
 80095dc:	d00a      	beq.n	80095f4 <memmove+0x26>
 80095de:	f811 4b01 	ldrb.w	r4, [r1], #1
 80095e2:	f802 4f01 	strb.w	r4, [r2, #1]!
 80095e6:	e7f8      	b.n	80095da <memmove+0xc>
 80095e8:	4283      	cmp	r3, r0
 80095ea:	d9f5      	bls.n	80095d8 <memmove+0xa>
 80095ec:	1881      	adds	r1, r0, r2
 80095ee:	1ad2      	subs	r2, r2, r3
 80095f0:	42d3      	cmn	r3, r2
 80095f2:	d100      	bne.n	80095f6 <memmove+0x28>
 80095f4:	bd10      	pop	{r4, pc}
 80095f6:	f813 4d01 	ldrb.w	r4, [r3, #-1]!
 80095fa:	f801 4d01 	strb.w	r4, [r1, #-1]!
 80095fe:	e7f7      	b.n	80095f0 <memmove+0x22>

08009600 <__malloc_lock>:
 8009600:	4770      	bx	lr

08009602 <__malloc_unlock>:
 8009602:	4770      	bx	lr

08009604 <_realloc_r>:
 8009604:	b5f8      	push	{r3, r4, r5, r6, r7, lr}
 8009606:	4607      	mov	r7, r0
 8009608:	4614      	mov	r4, r2
 800960a:	460e      	mov	r6, r1
 800960c:	b921      	cbnz	r1, 8009618 <_realloc_r+0x14>
 800960e:	4611      	mov	r1, r2
 8009610:	e8bd 40f8 	ldmia.w	sp!, {r3, r4, r5, r6, r7, lr}
 8009614:	f7ff bab2 	b.w	8008b7c <_malloc_r>
 8009618:	b922      	cbnz	r2, 8009624 <_realloc_r+0x20>
 800961a:	f7ff fa61 	bl	8008ae0 <_free_r>
 800961e:	4625      	mov	r5, r4
 8009620:	4628      	mov	r0, r5
 8009622:	bdf8      	pop	{r3, r4, r5, r6, r7, pc}
 8009624:	f000 f826 	bl	8009674 <_malloc_usable_size_r>
 8009628:	42a0      	cmp	r0, r4
 800962a:	d20f      	bcs.n	800964c <_realloc_r+0x48>
 800962c:	4621      	mov	r1, r4
 800962e:	4638      	mov	r0, r7
 8009630:	f7ff faa4 	bl	8008b7c <_malloc_r>
 8009634:	4605      	mov	r5, r0
 8009636:	2800      	cmp	r0, #0
 8009638:	d0f2      	beq.n	8009620 <_realloc_r+0x1c>
 800963a:	4631      	mov	r1, r6
 800963c:	4622      	mov	r2, r4
 800963e:	f7ff ffbb 	bl	80095b8 <memcpy>
 8009642:	4631      	mov	r1, r6
 8009644:	4638      	mov	r0, r7
 8009646:	f7ff fa4b 	bl	8008ae0 <_free_r>
 800964a:	e7e9      	b.n	8009620 <_realloc_r+0x1c>
 800964c:	4635      	mov	r5, r6
 800964e:	e7e7      	b.n	8009620 <_realloc_r+0x1c>

08009650 <_read_r>:
 8009650:	b538      	push	{r3, r4, r5, lr}
 8009652:	4c07      	ldr	r4, [pc, #28]	; (8009670 <_read_r+0x20>)
 8009654:	4605      	mov	r5, r0
 8009656:	4608      	mov	r0, r1
 8009658:	4611      	mov	r1, r2
 800965a:	2200      	movs	r2, #0
 800965c:	6022      	str	r2, [r4, #0]
 800965e:	461a      	mov	r2, r3
 8009660:	f7f8 f8d8 	bl	8001814 <_read>
 8009664:	1c43      	adds	r3, r0, #1
 8009666:	d102      	bne.n	800966e <_read_r+0x1e>
 8009668:	6823      	ldr	r3, [r4, #0]
 800966a:	b103      	cbz	r3, 800966e <_read_r+0x1e>
 800966c:	602b      	str	r3, [r5, #0]
 800966e:	bd38      	pop	{r3, r4, r5, pc}
 8009670:	20002460 	.word	0x20002460

08009674 <_malloc_usable_size_r>:
 8009674:	f851 3c04 	ldr.w	r3, [r1, #-4]
 8009678:	1f18      	subs	r0, r3, #4
 800967a:	2b00      	cmp	r3, #0
 800967c:	bfbc      	itt	lt
 800967e:	580b      	ldrlt	r3, [r1, r0]
 8009680:	18c0      	addlt	r0, r0, r3
 8009682:	4770      	bx	lr

08009684 <_init>:
 8009684:	b5f8      	push	{r3, r4, r5, r6, r7, lr}
 8009686:	bf00      	nop
 8009688:	bcf8      	pop	{r3, r4, r5, r6, r7}
 800968a:	bc08      	pop	{r3}
 800968c:	469e      	mov	lr, r3
 800968e:	4770      	bx	lr

08009690 <_fini>:
 8009690:	b5f8      	push	{r3, r4, r5, r6, r7, lr}
 8009692:	bf00      	nop
 8009694:	bcf8      	pop	{r3, r4, r5, r6, r7}
 8009696:	bc08      	pop	{r3}
 8009698:	469e      	mov	lr, r3
 800969a:	4770      	bx	lr
