
FunctionGeneratorCortexM4_SW_V1.elf:     file format elf32-littlearm

Sections:
Idx Name          Size      VMA       LMA       File off  Algn
  0 .isr_vector   000001d8  08000000  08000000  00010000  2**0
                  CONTENTS, ALLOC, LOAD, READONLY, DATA
  1 .text         00002aa4  080001d8  080001d8  000101d8  2**2
                  CONTENTS, ALLOC, LOAD, READONLY, CODE
  2 .rodata       0000007c  08002c7c  08002c7c  00012c7c  2**2
                  CONTENTS, ALLOC, LOAD, READONLY, DATA
  3 .ARM.extab    00000000  08002cf8  08002cf8  00020074  2**0
                  CONTENTS
  4 .ARM          00000000  08002cf8  08002cf8  00020074  2**0
                  CONTENTS
  5 .preinit_array 00000000  08002cf8  08002cf8  00020074  2**0
                  CONTENTS, ALLOC, LOAD, DATA
  6 .init_array   00000004  08002cf8  08002cf8  00012cf8  2**2
                  CONTENTS, ALLOC, LOAD, DATA
  7 .fini_array   00000004  08002cfc  08002cfc  00012cfc  2**2
                  CONTENTS, ALLOC, LOAD, DATA
  8 .data         00000074  20000000  08002d00  00020000  2**2
                  CONTENTS, ALLOC, LOAD, DATA
  9 .bss          00000098  20000074  08002d74  00020074  2**2
                  ALLOC
 10 ._user_heap_stack 00000604  2000010c  08002d74  0002010c  2**0
                  ALLOC
 11 .ARM.attributes 00000030  00000000  00000000  00020074  2**0
                  CONTENTS, READONLY
 12 .debug_info   0000ff62  00000000  00000000  000200a4  2**0
                  CONTENTS, READONLY, DEBUGGING
 13 .debug_abbrev 0000225d  00000000  00000000  00030006  2**0
                  CONTENTS, READONLY, DEBUGGING
 14 .debug_aranges 00000e78  00000000  00000000  00032268  2**3
                  CONTENTS, READONLY, DEBUGGING
 15 .debug_ranges 00000d50  00000000  00000000  000330e0  2**3
                  CONTENTS, READONLY, DEBUGGING
 16 .debug_macro  00026de2  00000000  00000000  00033e30  2**0
                  CONTENTS, READONLY, DEBUGGING
 17 .debug_line   0000c2fa  00000000  00000000  0005ac12  2**0
                  CONTENTS, READONLY, DEBUGGING
 18 .debug_str    000f702a  00000000  00000000  00066f0c  2**0
                  CONTENTS, READONLY, DEBUGGING
 19 .comment      0000007b  00000000  00000000  0015df36  2**0
                  CONTENTS, READONLY
 20 .debug_frame  00004124  00000000  00000000  0015dfb4  2**2
                  CONTENTS, READONLY, DEBUGGING

Disassembly of section .text:

080001d8 <__do_global_dtors_aux>:
 80001d8:	b510      	push	{r4, lr}
 80001da:	4c05      	ldr	r4, [pc, #20]	; (80001f0 <__do_global_dtors_aux+0x18>)
 80001dc:	7823      	ldrb	r3, [r4, #0]
 80001de:	b933      	cbnz	r3, 80001ee <__do_global_dtors_aux+0x16>
 80001e0:	4b04      	ldr	r3, [pc, #16]	; (80001f4 <__do_global_dtors_aux+0x1c>)
 80001e2:	b113      	cbz	r3, 80001ea <__do_global_dtors_aux+0x12>
 80001e4:	4804      	ldr	r0, [pc, #16]	; (80001f8 <__do_global_dtors_aux+0x20>)
 80001e6:	f3af 8000 	nop.w
 80001ea:	2301      	movs	r3, #1
 80001ec:	7023      	strb	r3, [r4, #0]
 80001ee:	bd10      	pop	{r4, pc}
 80001f0:	20000074 	.word	0x20000074
 80001f4:	00000000 	.word	0x00000000
 80001f8:	08002c64 	.word	0x08002c64

080001fc <frame_dummy>:
 80001fc:	b508      	push	{r3, lr}
 80001fe:	4b03      	ldr	r3, [pc, #12]	; (800020c <frame_dummy+0x10>)
 8000200:	b11b      	cbz	r3, 800020a <frame_dummy+0xe>
 8000202:	4903      	ldr	r1, [pc, #12]	; (8000210 <frame_dummy+0x14>)
 8000204:	4803      	ldr	r0, [pc, #12]	; (8000214 <frame_dummy+0x18>)
 8000206:	f3af 8000 	nop.w
 800020a:	bd08      	pop	{r3, pc}
 800020c:	00000000 	.word	0x00000000
 8000210:	20000078 	.word	0x20000078
 8000214:	08002c64 	.word	0x08002c64

08000218 <MX_DAC1_Init>:

DAC_HandleTypeDef hdac1;

/* DAC1 init function */
void MX_DAC1_Init(void)
{
 8000218:	b580      	push	{r7, lr}
 800021a:	b08c      	sub	sp, #48	; 0x30
 800021c:	af00      	add	r7, sp, #0
  DAC_ChannelConfTypeDef sConfig = {0};
 800021e:	463b      	mov	r3, r7
 8000220:	2230      	movs	r2, #48	; 0x30
 8000222:	2100      	movs	r1, #0
 8000224:	4618      	mov	r0, r3
 8000226:	f002 f8ad 	bl	8002384 <memset>

  /** DAC Initialization 
  */
  hdac1.Instance = DAC1;
 800022a:	4b23      	ldr	r3, [pc, #140]	; (80002b8 <MX_DAC1_Init+0xa0>)
 800022c:	4a23      	ldr	r2, [pc, #140]	; (80002bc <MX_DAC1_Init+0xa4>)
 800022e:	601a      	str	r2, [r3, #0]
  if (HAL_DAC_Init(&hdac1) != HAL_OK)
 8000230:	4821      	ldr	r0, [pc, #132]	; (80002b8 <MX_DAC1_Init+0xa0>)
 8000232:	f000 fcf2 	bl	8000c1a <HAL_DAC_Init>
 8000236:	4603      	mov	r3, r0
 8000238:	2b00      	cmp	r3, #0
 800023a:	d001      	beq.n	8000240 <MX_DAC1_Init+0x28>
  {
    Error_Handler();
 800023c:	f000 f9fa 	bl	8000634 <Error_Handler>
  }
  /** DAC channel OUT1 config 
  */
  sConfig.DAC_HighFrequency = DAC_HIGH_FREQUENCY_INTERFACE_MODE_AUTOMATIC;
 8000240:	2302      	movs	r3, #2
 8000242:	603b      	str	r3, [r7, #0]
  sConfig.DAC_DMADoubleDataMode = DISABLE;
 8000244:	2300      	movs	r3, #0
 8000246:	713b      	strb	r3, [r7, #4]
  sConfig.DAC_SignedFormat = DISABLE;
 8000248:	2300      	movs	r3, #0
 800024a:	717b      	strb	r3, [r7, #5]
  sConfig.DAC_SampleAndHold = DAC_SAMPLEANDHOLD_DISABLE;
 800024c:	2300      	movs	r3, #0
 800024e:	60bb      	str	r3, [r7, #8]
  sConfig.DAC_Trigger = DAC_TRIGGER_T6_TRGO;
 8000250:	231e      	movs	r3, #30
 8000252:	60fb      	str	r3, [r7, #12]
  sConfig.DAC_Trigger2 = DAC_TRIGGER_NONE;
 8000254:	2300      	movs	r3, #0
 8000256:	613b      	str	r3, [r7, #16]
  sConfig.DAC_OutputBuffer = DAC_OUTPUTBUFFER_ENABLE;
 8000258:	2300      	movs	r3, #0
 800025a:	617b      	str	r3, [r7, #20]
  sConfig.DAC_ConnectOnChipPeripheral = DAC_CHIPCONNECT_DISABLE;
 800025c:	2301      	movs	r3, #1
 800025e:	61bb      	str	r3, [r7, #24]
  sConfig.DAC_UserTrimming = DAC_TRIMMING_FACTORY;
 8000260:	2300      	movs	r3, #0
 8000262:	61fb      	str	r3, [r7, #28]
  if (HAL_DAC_ConfigChannel(&hdac1, &sConfig, DAC_CHANNEL_1) != HAL_OK)
 8000264:	463b      	mov	r3, r7
 8000266:	2200      	movs	r2, #0
 8000268:	4619      	mov	r1, r3
 800026a:	4813      	ldr	r0, [pc, #76]	; (80002b8 <MX_DAC1_Init+0xa0>)
 800026c:	f000 fd72 	bl	8000d54 <HAL_DAC_ConfigChannel>
 8000270:	4603      	mov	r3, r0
 8000272:	2b00      	cmp	r3, #0
 8000274:	d001      	beq.n	800027a <MX_DAC1_Init+0x62>
  {
    Error_Handler();
 8000276:	f000 f9dd 	bl	8000634 <Error_Handler>
  }
  /** Configure Triangle wave generation on DAC OUT1 
  */
  if (HAL_DACEx_TriangleWaveGenerate(&hdac1, DAC_CHANNEL_1, DAC_TRIANGLEAMPLITUDE_4095) != HAL_OK)
 800027a:	f44f 6230 	mov.w	r2, #2816	; 0xb00
 800027e:	2100      	movs	r1, #0
 8000280:	480d      	ldr	r0, [pc, #52]	; (80002b8 <MX_DAC1_Init+0xa0>)
 8000282:	f000 ff13 	bl	80010ac <HAL_DACEx_TriangleWaveGenerate>
 8000286:	4603      	mov	r3, r0
 8000288:	2b00      	cmp	r3, #0
 800028a:	d001      	beq.n	8000290 <MX_DAC1_Init+0x78>
  {
    Error_Handler();
 800028c:	f000 f9d2 	bl	8000634 <Error_Handler>
  }
  /** DAC channel OUT2 config 
  */
  sConfig.DAC_Trigger = DAC_TRIGGER_NONE;
 8000290:	2300      	movs	r3, #0
 8000292:	60fb      	str	r3, [r7, #12]
  sConfig.DAC_ConnectOnChipPeripheral = DAC_CHIPCONNECT_DISABLE;
 8000294:	2301      	movs	r3, #1
 8000296:	61bb      	str	r3, [r7, #24]
  if (HAL_DAC_ConfigChannel(&hdac1, &sConfig, DAC_CHANNEL_2) != HAL_OK)
 8000298:	463b      	mov	r3, r7
 800029a:	2210      	movs	r2, #16
 800029c:	4619      	mov	r1, r3
 800029e:	4806      	ldr	r0, [pc, #24]	; (80002b8 <MX_DAC1_Init+0xa0>)
 80002a0:	f000 fd58 	bl	8000d54 <HAL_DAC_ConfigChannel>
 80002a4:	4603      	mov	r3, r0
 80002a6:	2b00      	cmp	r3, #0
 80002a8:	d001      	beq.n	80002ae <MX_DAC1_Init+0x96>
  {
    Error_Handler();
 80002aa:	f000 f9c3 	bl	8000634 <Error_Handler>
  }

}
 80002ae:	bf00      	nop
 80002b0:	3730      	adds	r7, #48	; 0x30
 80002b2:	46bd      	mov	sp, r7
 80002b4:	bd80      	pop	{r7, pc}
 80002b6:	bf00      	nop
 80002b8:	200000a4 	.word	0x200000a4
 80002bc:	50000800 	.word	0x50000800

080002c0 <HAL_DAC_MspInit>:

void HAL_DAC_MspInit(DAC_HandleTypeDef* dacHandle)
{
 80002c0:	b580      	push	{r7, lr}
 80002c2:	b08a      	sub	sp, #40	; 0x28
 80002c4:	af00      	add	r7, sp, #0
 80002c6:	6078      	str	r0, [r7, #4]

  GPIO_InitTypeDef GPIO_InitStruct = {0};
 80002c8:	f107 0314 	add.w	r3, r7, #20
 80002cc:	2200      	movs	r2, #0
 80002ce:	601a      	str	r2, [r3, #0]
 80002d0:	605a      	str	r2, [r3, #4]
 80002d2:	609a      	str	r2, [r3, #8]
 80002d4:	60da      	str	r2, [r3, #12]
 80002d6:	611a      	str	r2, [r3, #16]
  if(dacHandle->Instance==DAC1)
 80002d8:	687b      	ldr	r3, [r7, #4]
 80002da:	681b      	ldr	r3, [r3, #0]
 80002dc:	4a15      	ldr	r2, [pc, #84]	; (8000334 <HAL_DAC_MspInit+0x74>)
 80002de:	4293      	cmp	r3, r2
 80002e0:	d124      	bne.n	800032c <HAL_DAC_MspInit+0x6c>
  {
  /* USER CODE BEGIN DAC1_MspInit 0 */

  /* USER CODE END DAC1_MspInit 0 */
    /* DAC1 clock enable */
    __HAL_RCC_DAC1_CLK_ENABLE();
 80002e2:	4b15      	ldr	r3, [pc, #84]	; (8000338 <HAL_DAC_MspInit+0x78>)
 80002e4:	6cdb      	ldr	r3, [r3, #76]	; 0x4c
 80002e6:	4a14      	ldr	r2, [pc, #80]	; (8000338 <HAL_DAC_MspInit+0x78>)
 80002e8:	f443 3380 	orr.w	r3, r3, #65536	; 0x10000
 80002ec:	64d3      	str	r3, [r2, #76]	; 0x4c
 80002ee:	4b12      	ldr	r3, [pc, #72]	; (8000338 <HAL_DAC_MspInit+0x78>)
 80002f0:	6cdb      	ldr	r3, [r3, #76]	; 0x4c
 80002f2:	f403 3380 	and.w	r3, r3, #65536	; 0x10000
 80002f6:	613b      	str	r3, [r7, #16]
 80002f8:	693b      	ldr	r3, [r7, #16]
  
    __HAL_RCC_GPIOA_CLK_ENABLE();
 80002fa:	4b0f      	ldr	r3, [pc, #60]	; (8000338 <HAL_DAC_MspInit+0x78>)
 80002fc:	6cdb      	ldr	r3, [r3, #76]	; 0x4c
 80002fe:	4a0e      	ldr	r2, [pc, #56]	; (8000338 <HAL_DAC_MspInit+0x78>)
 8000300:	f043 0301 	orr.w	r3, r3, #1
 8000304:	64d3      	str	r3, [r2, #76]	; 0x4c
 8000306:	4b0c      	ldr	r3, [pc, #48]	; (8000338 <HAL_DAC_MspInit+0x78>)
 8000308:	6cdb      	ldr	r3, [r3, #76]	; 0x4c
 800030a:	f003 0301 	and.w	r3, r3, #1
 800030e:	60fb      	str	r3, [r7, #12]
 8000310:	68fb      	ldr	r3, [r7, #12]
    /**DAC1 GPIO Configuration    
    PA4     ------> DAC1_OUT1
    PA5     ------> DAC1_OUT2 
    */
    GPIO_InitStruct.Pin = GPIO_PIN_4|GPIO_PIN_5;
 8000312:	2330      	movs	r3, #48	; 0x30
 8000314:	617b      	str	r3, [r7, #20]
    GPIO_InitStruct.Mode = GPIO_MODE_ANALOG;
 8000316:	2303      	movs	r3, #3
 8000318:	61bb      	str	r3, [r7, #24]
    GPIO_InitStruct.Pull = GPIO_NOPULL;
 800031a:	2300      	movs	r3, #0
 800031c:	61fb      	str	r3, [r7, #28]
    HAL_GPIO_Init(GPIOA, &GPIO_InitStruct);
 800031e:	f107 0314 	add.w	r3, r7, #20
 8000322:	4619      	mov	r1, r3
 8000324:	f04f 4090 	mov.w	r0, #1207959552	; 0x48000000
 8000328:	f000 fef8 	bl	800111c <HAL_GPIO_Init>

  /* USER CODE BEGIN DAC1_MspInit 1 */

  /* USER CODE END DAC1_MspInit 1 */
  }
}
 800032c:	bf00      	nop
 800032e:	3728      	adds	r7, #40	; 0x28
 8000330:	46bd      	mov	sp, r7
 8000332:	bd80      	pop	{r7, pc}
 8000334:	50000800 	.word	0x50000800
 8000338:	40021000 	.word	0x40021000

0800033c <MX_GPIO_Init>:
        * Output
        * EVENT_OUT
        * EXTI
*/
void MX_GPIO_Init(void)
{
 800033c:	b580      	push	{r7, lr}
 800033e:	b088      	sub	sp, #32
 8000340:	af00      	add	r7, sp, #0

  GPIO_InitTypeDef GPIO_InitStruct = {0};
 8000342:	f107 030c 	add.w	r3, r7, #12
 8000346:	2200      	movs	r2, #0
 8000348:	601a      	str	r2, [r3, #0]
 800034a:	605a      	str	r2, [r3, #4]
 800034c:	609a      	str	r2, [r3, #8]
 800034e:	60da      	str	r2, [r3, #12]
 8000350:	611a      	str	r2, [r3, #16]

  /* GPIO Ports Clock Enable */
  __HAL_RCC_GPIOA_CLK_ENABLE();
 8000352:	4b31      	ldr	r3, [pc, #196]	; (8000418 <MX_GPIO_Init+0xdc>)
 8000354:	6cdb      	ldr	r3, [r3, #76]	; 0x4c
 8000356:	4a30      	ldr	r2, [pc, #192]	; (8000418 <MX_GPIO_Init+0xdc>)
 8000358:	f043 0301 	orr.w	r3, r3, #1
 800035c:	64d3      	str	r3, [r2, #76]	; 0x4c
 800035e:	4b2e      	ldr	r3, [pc, #184]	; (8000418 <MX_GPIO_Init+0xdc>)
 8000360:	6cdb      	ldr	r3, [r3, #76]	; 0x4c
 8000362:	f003 0301 	and.w	r3, r3, #1
 8000366:	60bb      	str	r3, [r7, #8]
 8000368:	68bb      	ldr	r3, [r7, #8]
  __HAL_RCC_GPIOC_CLK_ENABLE();
 800036a:	4b2b      	ldr	r3, [pc, #172]	; (8000418 <MX_GPIO_Init+0xdc>)
 800036c:	6cdb      	ldr	r3, [r3, #76]	; 0x4c
 800036e:	4a2a      	ldr	r2, [pc, #168]	; (8000418 <MX_GPIO_Init+0xdc>)
 8000370:	f043 0304 	orr.w	r3, r3, #4
 8000374:	64d3      	str	r3, [r2, #76]	; 0x4c
 8000376:	4b28      	ldr	r3, [pc, #160]	; (8000418 <MX_GPIO_Init+0xdc>)
 8000378:	6cdb      	ldr	r3, [r3, #76]	; 0x4c
 800037a:	f003 0304 	and.w	r3, r3, #4
 800037e:	607b      	str	r3, [r7, #4]
 8000380:	687b      	ldr	r3, [r7, #4]
  __HAL_RCC_GPIOB_CLK_ENABLE();
 8000382:	4b25      	ldr	r3, [pc, #148]	; (8000418 <MX_GPIO_Init+0xdc>)
 8000384:	6cdb      	ldr	r3, [r3, #76]	; 0x4c
 8000386:	4a24      	ldr	r2, [pc, #144]	; (8000418 <MX_GPIO_Init+0xdc>)
 8000388:	f043 0302 	orr.w	r3, r3, #2
 800038c:	64d3      	str	r3, [r2, #76]	; 0x4c
 800038e:	4b22      	ldr	r3, [pc, #136]	; (8000418 <MX_GPIO_Init+0xdc>)
 8000390:	6cdb      	ldr	r3, [r3, #76]	; 0x4c
 8000392:	f003 0302 	and.w	r3, r3, #2
 8000396:	603b      	str	r3, [r7, #0]
 8000398:	683b      	ldr	r3, [r7, #0]

  /*Configure GPIO pin Output Level */
  HAL_GPIO_WritePin(DCBIAS_INVERT_GPIO_Port, DCBIAS_INVERT_Pin, GPIO_PIN_RESET);
 800039a:	2200      	movs	r2, #0
 800039c:	2108      	movs	r1, #8
 800039e:	f04f 4090 	mov.w	r0, #1207959552	; 0x48000000
 80003a2:	f001 f83d 	bl	8001420 <HAL_GPIO_WritePin>

  /*Configure GPIO pin Output Level */
  HAL_GPIO_WritePin(GPIOC, SG2_Pin|SG1_Pin, GPIO_PIN_RESET);
 80003a6:	2200      	movs	r2, #0
 80003a8:	2130      	movs	r1, #48	; 0x30
 80003aa:	481c      	ldr	r0, [pc, #112]	; (800041c <MX_GPIO_Init+0xe0>)
 80003ac:	f001 f838 	bl	8001420 <HAL_GPIO_WritePin>

  /*Configure GPIO pin Output Level */
  HAL_GPIO_WritePin(SG0_GPIO_Port, SG0_Pin, GPIO_PIN_RESET);
 80003b0:	2200      	movs	r2, #0
 80003b2:	2101      	movs	r1, #1
 80003b4:	481a      	ldr	r0, [pc, #104]	; (8000420 <MX_GPIO_Init+0xe4>)
 80003b6:	f001 f833 	bl	8001420 <HAL_GPIO_WritePin>

  /*Configure GPIO pin : PtPin */
  GPIO_InitStruct.Pin = DCBIAS_INVERT_Pin;
 80003ba:	2308      	movs	r3, #8
 80003bc:	60fb      	str	r3, [r7, #12]
  GPIO_InitStruct.Mode = GPIO_MODE_OUTPUT_PP;
 80003be:	2301      	movs	r3, #1
 80003c0:	613b      	str	r3, [r7, #16]
  GPIO_InitStruct.Pull = GPIO_NOPULL;
 80003c2:	2300      	movs	r3, #0
 80003c4:	617b      	str	r3, [r7, #20]
  GPIO_InitStruct.Speed = GPIO_SPEED_FREQ_LOW;
 80003c6:	2300      	movs	r3, #0
 80003c8:	61bb      	str	r3, [r7, #24]
  HAL_GPIO_Init(DCBIAS_INVERT_GPIO_Port, &GPIO_InitStruct);
 80003ca:	f107 030c 	add.w	r3, r7, #12
 80003ce:	4619      	mov	r1, r3
 80003d0:	f04f 4090 	mov.w	r0, #1207959552	; 0x48000000
 80003d4:	f000 fea2 	bl	800111c <HAL_GPIO_Init>

  /*Configure GPIO pins : PCPin PCPin */
  GPIO_InitStruct.Pin = SG2_Pin|SG1_Pin;
 80003d8:	2330      	movs	r3, #48	; 0x30
 80003da:	60fb      	str	r3, [r7, #12]
  GPIO_InitStruct.Mode = GPIO_MODE_OUTPUT_PP;
 80003dc:	2301      	movs	r3, #1
 80003de:	613b      	str	r3, [r7, #16]
  GPIO_InitStruct.Pull = GPIO_NOPULL;
 80003e0:	2300      	movs	r3, #0
 80003e2:	617b      	str	r3, [r7, #20]
  GPIO_InitStruct.Speed = GPIO_SPEED_FREQ_LOW;
 80003e4:	2300      	movs	r3, #0
 80003e6:	61bb      	str	r3, [r7, #24]
  HAL_GPIO_Init(GPIOC, &GPIO_InitStruct);
 80003e8:	f107 030c 	add.w	r3, r7, #12
 80003ec:	4619      	mov	r1, r3
 80003ee:	480b      	ldr	r0, [pc, #44]	; (800041c <MX_GPIO_Init+0xe0>)
 80003f0:	f000 fe94 	bl	800111c <HAL_GPIO_Init>

  /*Configure GPIO pin : PtPin */
  GPIO_InitStruct.Pin = SG0_Pin;
 80003f4:	2301      	movs	r3, #1
 80003f6:	60fb      	str	r3, [r7, #12]
  GPIO_InitStruct.Mode = GPIO_MODE_OUTPUT_PP;
 80003f8:	2301      	movs	r3, #1
 80003fa:	613b      	str	r3, [r7, #16]
  GPIO_InitStruct.Pull = GPIO_NOPULL;
 80003fc:	2300      	movs	r3, #0
 80003fe:	617b      	str	r3, [r7, #20]
  GPIO_InitStruct.Speed = GPIO_SPEED_FREQ_LOW;
 8000400:	2300      	movs	r3, #0
 8000402:	61bb      	str	r3, [r7, #24]
  HAL_GPIO_Init(SG0_GPIO_Port, &GPIO_InitStruct);
 8000404:	f107 030c 	add.w	r3, r7, #12
 8000408:	4619      	mov	r1, r3
 800040a:	4805      	ldr	r0, [pc, #20]	; (8000420 <MX_GPIO_Init+0xe4>)
 800040c:	f000 fe86 	bl	800111c <HAL_GPIO_Init>

}
 8000410:	bf00      	nop
 8000412:	3720      	adds	r7, #32
 8000414:	46bd      	mov	sp, r7
 8000416:	bd80      	pop	{r7, pc}
 8000418:	40021000 	.word	0x40021000
 800041c:	48000800 	.word	0x48000800
 8000420:	48000400 	.word	0x48000400

08000424 <ITM_SendChar>:
           \li Is blocking when a debugger is connected, but the previous character sent has not been transmitted.
  \param [in]     ch  Character to transmit.
  \returns            Character to transmit.
 */
__STATIC_INLINE uint32_t ITM_SendChar (uint32_t ch)
{
 8000424:	b480      	push	{r7}
 8000426:	b083      	sub	sp, #12
 8000428:	af00      	add	r7, sp, #0
 800042a:	6078      	str	r0, [r7, #4]
  if (((ITM->TCR & ITM_TCR_ITMENA_Msk) != 0UL) &&      /* ITM enabled */
 800042c:	f04f 4360 	mov.w	r3, #3758096384	; 0xe0000000
 8000430:	f8d3 3e80 	ldr.w	r3, [r3, #3712]	; 0xe80
 8000434:	f003 0301 	and.w	r3, r3, #1
 8000438:	2b00      	cmp	r3, #0
 800043a:	d013      	beq.n	8000464 <ITM_SendChar+0x40>
      ((ITM->TER & 1UL               ) != 0UL)   )     /* ITM Port #0 enabled */
 800043c:	f04f 4360 	mov.w	r3, #3758096384	; 0xe0000000
 8000440:	f8d3 3e00 	ldr.w	r3, [r3, #3584]	; 0xe00
 8000444:	f003 0301 	and.w	r3, r3, #1
  if (((ITM->TCR & ITM_TCR_ITMENA_Msk) != 0UL) &&      /* ITM enabled */
 8000448:	2b00      	cmp	r3, #0
 800044a:	d00b      	beq.n	8000464 <ITM_SendChar+0x40>
  {
    while (ITM->PORT[0U].u32 == 0UL)
 800044c:	e000      	b.n	8000450 <ITM_SendChar+0x2c>
    {
      __NOP();
 800044e:	bf00      	nop
    while (ITM->PORT[0U].u32 == 0UL)
 8000450:	f04f 4360 	mov.w	r3, #3758096384	; 0xe0000000
 8000454:	681b      	ldr	r3, [r3, #0]
 8000456:	2b00      	cmp	r3, #0
 8000458:	d0f9      	beq.n	800044e <ITM_SendChar+0x2a>
    }
    ITM->PORT[0U].u8 = (uint8_t)ch;
 800045a:	f04f 4360 	mov.w	r3, #3758096384	; 0xe0000000
 800045e:	687a      	ldr	r2, [r7, #4]
 8000460:	b2d2      	uxtb	r2, r2
 8000462:	701a      	strb	r2, [r3, #0]
  }
  return (ch);
 8000464:	687b      	ldr	r3, [r7, #4]
}
 8000466:	4618      	mov	r0, r3
 8000468:	370c      	adds	r7, #12
 800046a:	46bd      	mov	sp, r7
 800046c:	f85d 7b04 	ldr.w	r7, [sp], #4
 8000470:	4770      	bx	lr

08000472 <_write>:
/* USER CODE END PFP */

/* Private user code ---------------------------------------------------------*/
/* USER CODE BEGIN 0 */
int _write(int file, char *ptr, int len)
{
 8000472:	b580      	push	{r7, lr}
 8000474:	b086      	sub	sp, #24
 8000476:	af00      	add	r7, sp, #0
 8000478:	60f8      	str	r0, [r7, #12]
 800047a:	60b9      	str	r1, [r7, #8]
 800047c:	607a      	str	r2, [r7, #4]
  /* Implement your write code here, this is used by puts and printf for example */
  int i=0;
 800047e:	2300      	movs	r3, #0
 8000480:	617b      	str	r3, [r7, #20]
  for(i=0 ; i<len ; i++)
 8000482:	2300      	movs	r3, #0
 8000484:	617b      	str	r3, [r7, #20]
 8000486:	e009      	b.n	800049c <_write+0x2a>
    ITM_SendChar((*ptr++));
 8000488:	68bb      	ldr	r3, [r7, #8]
 800048a:	1c5a      	adds	r2, r3, #1
 800048c:	60ba      	str	r2, [r7, #8]
 800048e:	781b      	ldrb	r3, [r3, #0]
 8000490:	4618      	mov	r0, r3
 8000492:	f7ff ffc7 	bl	8000424 <ITM_SendChar>
  for(i=0 ; i<len ; i++)
 8000496:	697b      	ldr	r3, [r7, #20]
 8000498:	3301      	adds	r3, #1
 800049a:	617b      	str	r3, [r7, #20]
 800049c:	697a      	ldr	r2, [r7, #20]
 800049e:	687b      	ldr	r3, [r7, #4]
 80004a0:	429a      	cmp	r2, r3
 80004a2:	dbf1      	blt.n	8000488 <_write+0x16>
  return len;
 80004a4:	687b      	ldr	r3, [r7, #4]
}
 80004a6:	4618      	mov	r0, r3
 80004a8:	3718      	adds	r7, #24
 80004aa:	46bd      	mov	sp, r7
 80004ac:	bd80      	pop	{r7, pc}
	...

080004b0 <main>:
/**
  * @brief  The application entry point.
  * @retval int
  */
int main(void)
{
 80004b0:	b580      	push	{r7, lr}
 80004b2:	af00      	add	r7, sp, #0
  /* USER CODE END 1 */

  /* MCU Configuration--------------------------------------------------------*/

  /* Reset of all peripherals, Initializes the Flash interface and the Systick. */
  HAL_Init();
 80004b4:	f000 fa3b 	bl	800092e <HAL_Init>
  /* USER CODE BEGIN Init */

  /* USER CODE END Init */

  /* Configure the system clock */
  SystemClock_Config();
 80004b8:	f000 f87c 	bl	80005b4 <SystemClock_Config>
  /* USER CODE BEGIN SysInit */

  /* USER CODE END SysInit */

  /* Initialize all configured peripherals */
  MX_GPIO_Init();
 80004bc:	f7ff ff3e 	bl	800033c <MX_GPIO_Init>
  MX_DAC1_Init();
 80004c0:	f7ff feaa 	bl	8000218 <MX_DAC1_Init>
  MX_TIM6_Init();
 80004c4:	f000 f9b4 	bl	8000830 <MX_TIM6_Init>
  /* USER CODE BEGIN 2 */

  HAL_DAC_Start(&hdac1, DAC1_CHANNEL_1);
 80004c8:	2100      	movs	r1, #0
 80004ca:	4832      	ldr	r0, [pc, #200]	; (8000594 <main+0xe4>)
 80004cc:	f000 fbc7 	bl	8000c5e <HAL_DAC_Start>
  HAL_DAC_Start(&hdac1, DAC1_CHANNEL_2);
 80004d0:	2110      	movs	r1, #16
 80004d2:	4830      	ldr	r0, [pc, #192]	; (8000594 <main+0xe4>)
 80004d4:	f000 fbc3 	bl	8000c5e <HAL_DAC_Start>
  HAL_TIM_Base_Start(&htim6);
 80004d8:	482f      	ldr	r0, [pc, #188]	; (8000598 <main+0xe8>)
 80004da:	f001 fdbd 	bl	8002058 <HAL_TIM_Base_Start>


  HAL_GPIO_WritePin(DCBIAS_INVERT_GPIO_Port, DCBIAS_INVERT_Pin, GPIO_PIN_SET);
 80004de:	2201      	movs	r2, #1
 80004e0:	2108      	movs	r1, #8
 80004e2:	f04f 4090 	mov.w	r0, #1207959552	; 0x48000000
 80004e6:	f000 ff9b 	bl	8001420 <HAL_GPIO_WritePin>

  HAL_GPIO_WritePin(SG0_GPIO_Port, SG0_Pin, GPIO_PIN_SET);
 80004ea:	2201      	movs	r2, #1
 80004ec:	2101      	movs	r1, #1
 80004ee:	482b      	ldr	r0, [pc, #172]	; (800059c <main+0xec>)
 80004f0:	f000 ff96 	bl	8001420 <HAL_GPIO_WritePin>
  HAL_GPIO_WritePin(SG1_GPIO_Port, SG1_Pin, GPIO_PIN_RESET);
 80004f4:	2200      	movs	r2, #0
 80004f6:	2120      	movs	r1, #32
 80004f8:	4829      	ldr	r0, [pc, #164]	; (80005a0 <main+0xf0>)
 80004fa:	f000 ff91 	bl	8001420 <HAL_GPIO_WritePin>
  HAL_GPIO_WritePin(SG2_GPIO_Port, SG2_Pin, GPIO_PIN_RESET);
 80004fe:	2200      	movs	r2, #0
 8000500:	2110      	movs	r1, #16
 8000502:	4827      	ldr	r0, [pc, #156]	; (80005a0 <main+0xf0>)
 8000504:	f000 ff8c 	bl	8001420 <HAL_GPIO_WritePin>

  /* Infinite loop */
  /* USER CODE BEGIN WHILE */
  while (1)
  {
	  printf("Test\n");
 8000508:	4826      	ldr	r0, [pc, #152]	; (80005a4 <main+0xf4>)
 800050a:	f001 ff9f 	bl	800244c <puts>

	  // up=1, down=0
	  if(dcbias_dir) 	{ dcbias++; }
 800050e:	4b26      	ldr	r3, [pc, #152]	; (80005a8 <main+0xf8>)
 8000510:	681b      	ldr	r3, [r3, #0]
 8000512:	2b00      	cmp	r3, #0
 8000514:	d006      	beq.n	8000524 <main+0x74>
 8000516:	4b25      	ldr	r3, [pc, #148]	; (80005ac <main+0xfc>)
 8000518:	881b      	ldrh	r3, [r3, #0]
 800051a:	3301      	adds	r3, #1
 800051c:	b29a      	uxth	r2, r3
 800051e:	4b23      	ldr	r3, [pc, #140]	; (80005ac <main+0xfc>)
 8000520:	801a      	strh	r2, [r3, #0]
 8000522:	e005      	b.n	8000530 <main+0x80>
	  else 				{ dcbias--; }
 8000524:	4b21      	ldr	r3, [pc, #132]	; (80005ac <main+0xfc>)
 8000526:	881b      	ldrh	r3, [r3, #0]
 8000528:	3b01      	subs	r3, #1
 800052a:	b29a      	uxth	r2, r3
 800052c:	4b1f      	ldr	r3, [pc, #124]	; (80005ac <main+0xfc>)
 800052e:	801a      	strh	r2, [r3, #0]

	  // invert the bias signal at zero crossing
	  if(dcbias < 1) {
 8000530:	4b1e      	ldr	r3, [pc, #120]	; (80005ac <main+0xfc>)
 8000532:	881b      	ldrh	r3, [r3, #0]
 8000534:	2b00      	cmp	r3, #0
 8000536:	d10a      	bne.n	800054e <main+0x9e>
		if(dcinverted)	{ dcinverted=0; }
 8000538:	4b1d      	ldr	r3, [pc, #116]	; (80005b0 <main+0x100>)
 800053a:	681b      	ldr	r3, [r3, #0]
 800053c:	2b00      	cmp	r3, #0
 800053e:	d003      	beq.n	8000548 <main+0x98>
 8000540:	4b1b      	ldr	r3, [pc, #108]	; (80005b0 <main+0x100>)
 8000542:	2200      	movs	r2, #0
 8000544:	601a      	str	r2, [r3, #0]
 8000546:	e002      	b.n	800054e <main+0x9e>
		else 		  	{ dcinverted=1; }
 8000548:	4b19      	ldr	r3, [pc, #100]	; (80005b0 <main+0x100>)
 800054a:	2201      	movs	r2, #1
 800054c:	601a      	str	r2, [r3, #0]
	  }

	  // change direction if dac limits are reached
	  if(dcbias < 1) 	{ dcbias_dir = 1; }
 800054e:	4b17      	ldr	r3, [pc, #92]	; (80005ac <main+0xfc>)
 8000550:	881b      	ldrh	r3, [r3, #0]
 8000552:	2b00      	cmp	r3, #0
 8000554:	d102      	bne.n	800055c <main+0xac>
 8000556:	4b14      	ldr	r3, [pc, #80]	; (80005a8 <main+0xf8>)
 8000558:	2201      	movs	r2, #1
 800055a:	601a      	str	r2, [r3, #0]
	  if(dcbias > 4095) { dcbias_dir = 0; }
 800055c:	4b13      	ldr	r3, [pc, #76]	; (80005ac <main+0xfc>)
 800055e:	881b      	ldrh	r3, [r3, #0]
 8000560:	f5b3 5f80 	cmp.w	r3, #4096	; 0x1000
 8000564:	d302      	bcc.n	800056c <main+0xbc>
 8000566:	4b10      	ldr	r3, [pc, #64]	; (80005a8 <main+0xf8>)
 8000568:	2200      	movs	r2, #0
 800056a:	601a      	str	r2, [r3, #0]


	  HAL_GPIO_WritePin(DCBIAS_INVERT_GPIO_Port, DCBIAS_INVERT_Pin, dcinverted);
 800056c:	4b10      	ldr	r3, [pc, #64]	; (80005b0 <main+0x100>)
 800056e:	681b      	ldr	r3, [r3, #0]
 8000570:	b2db      	uxtb	r3, r3
 8000572:	461a      	mov	r2, r3
 8000574:	2108      	movs	r1, #8
 8000576:	f04f 4090 	mov.w	r0, #1207959552	; 0x48000000
 800057a:	f000 ff51 	bl	8001420 <HAL_GPIO_WritePin>
	  HAL_DAC_SetValue(&hdac1, DAC1_CHANNEL_2, DAC_ALIGN_12B_R, dcbias);
 800057e:	4b0b      	ldr	r3, [pc, #44]	; (80005ac <main+0xfc>)
 8000580:	881b      	ldrh	r3, [r3, #0]
 8000582:	2200      	movs	r2, #0
 8000584:	2110      	movs	r1, #16
 8000586:	4803      	ldr	r0, [pc, #12]	; (8000594 <main+0xe4>)
 8000588:	f000 fbbc 	bl	8000d04 <HAL_DAC_SetValue>
	  //HAL_GPIO_TogglePin(DCBIAS_INVERT_GPIO_Port, DCBIAS_INVERT_Pin);
	  HAL_Delay(1);
 800058c:	2001      	movs	r0, #1
 800058e:	f000 fa3f 	bl	8000a10 <HAL_Delay>
	  printf("Test\n");
 8000592:	e7b9      	b.n	8000508 <main+0x58>
 8000594:	200000a4 	.word	0x200000a4
 8000598:	200000b8 	.word	0x200000b8
 800059c:	48000400 	.word	0x48000400
 80005a0:	48000800 	.word	0x48000800
 80005a4:	08002c7c 	.word	0x08002c7c
 80005a8:	20000000 	.word	0x20000000
 80005ac:	20000090 	.word	0x20000090
 80005b0:	20000094 	.word	0x20000094

080005b4 <SystemClock_Config>:
/**
  * @brief System Clock Configuration
  * @retval None
  */
void SystemClock_Config(void)
{
 80005b4:	b580      	push	{r7, lr}
 80005b6:	b094      	sub	sp, #80	; 0x50
 80005b8:	af00      	add	r7, sp, #0
  RCC_OscInitTypeDef RCC_OscInitStruct = {0};
 80005ba:	f107 0318 	add.w	r3, r7, #24
 80005be:	2238      	movs	r2, #56	; 0x38
 80005c0:	2100      	movs	r1, #0
 80005c2:	4618      	mov	r0, r3
 80005c4:	f001 fede 	bl	8002384 <memset>
  RCC_ClkInitTypeDef RCC_ClkInitStruct = {0};
 80005c8:	1d3b      	adds	r3, r7, #4
 80005ca:	2200      	movs	r2, #0
 80005cc:	601a      	str	r2, [r3, #0]
 80005ce:	605a      	str	r2, [r3, #4]
 80005d0:	609a      	str	r2, [r3, #8]
 80005d2:	60da      	str	r2, [r3, #12]
 80005d4:	611a      	str	r2, [r3, #16]

  /** Configure the main internal regulator output voltage 
  */
  HAL_PWREx_ControlVoltageScaling(PWR_REGULATOR_VOLTAGE_SCALE1);
 80005d6:	f44f 7000 	mov.w	r0, #512	; 0x200
 80005da:	f000 ff39 	bl	8001450 <HAL_PWREx_ControlVoltageScaling>
  /** Initializes the CPU, AHB and APB busses clocks 
  */
  RCC_OscInitStruct.OscillatorType = RCC_OSCILLATORTYPE_HSI;
 80005de:	2302      	movs	r3, #2
 80005e0:	61bb      	str	r3, [r7, #24]
  RCC_OscInitStruct.HSIState = RCC_HSI_ON;
 80005e2:	f44f 7380 	mov.w	r3, #256	; 0x100
 80005e6:	627b      	str	r3, [r7, #36]	; 0x24
  RCC_OscInitStruct.HSICalibrationValue = RCC_HSICALIBRATION_DEFAULT;
 80005e8:	2340      	movs	r3, #64	; 0x40
 80005ea:	62bb      	str	r3, [r7, #40]	; 0x28
  RCC_OscInitStruct.PLL.PLLState = RCC_PLL_NONE;
 80005ec:	2300      	movs	r3, #0
 80005ee:	637b      	str	r3, [r7, #52]	; 0x34
  if (HAL_RCC_OscConfig(&RCC_OscInitStruct) != HAL_OK)
 80005f0:	f107 0318 	add.w	r3, r7, #24
 80005f4:	4618      	mov	r0, r3
 80005f6:	f000 ffcf 	bl	8001598 <HAL_RCC_OscConfig>
 80005fa:	4603      	mov	r3, r0
 80005fc:	2b00      	cmp	r3, #0
 80005fe:	d001      	beq.n	8000604 <SystemClock_Config+0x50>
  {
    Error_Handler();
 8000600:	f000 f818 	bl	8000634 <Error_Handler>
  }
  /** Initializes the CPU, AHB and APB busses clocks 
  */
  RCC_ClkInitStruct.ClockType = RCC_CLOCKTYPE_HCLK|RCC_CLOCKTYPE_SYSCLK
 8000604:	230f      	movs	r3, #15
 8000606:	607b      	str	r3, [r7, #4]
                              |RCC_CLOCKTYPE_PCLK1|RCC_CLOCKTYPE_PCLK2;
  RCC_ClkInitStruct.SYSCLKSource = RCC_SYSCLKSOURCE_HSI;
 8000608:	2301      	movs	r3, #1
 800060a:	60bb      	str	r3, [r7, #8]
  RCC_ClkInitStruct.AHBCLKDivider = RCC_SYSCLK_DIV1;
 800060c:	2300      	movs	r3, #0
 800060e:	60fb      	str	r3, [r7, #12]
  RCC_ClkInitStruct.APB1CLKDivider = RCC_HCLK_DIV1;
 8000610:	2300      	movs	r3, #0
 8000612:	613b      	str	r3, [r7, #16]
  RCC_ClkInitStruct.APB2CLKDivider = RCC_HCLK_DIV1;
 8000614:	2300      	movs	r3, #0
 8000616:	617b      	str	r3, [r7, #20]

  if (HAL_RCC_ClockConfig(&RCC_ClkInitStruct, FLASH_LATENCY_0) != HAL_OK)
 8000618:	1d3b      	adds	r3, r7, #4
 800061a:	2100      	movs	r1, #0
 800061c:	4618      	mov	r0, r3
 800061e:	f001 fad3 	bl	8001bc8 <HAL_RCC_ClockConfig>
 8000622:	4603      	mov	r3, r0
 8000624:	2b00      	cmp	r3, #0
 8000626:	d001      	beq.n	800062c <SystemClock_Config+0x78>
  {
    Error_Handler();
 8000628:	f000 f804 	bl	8000634 <Error_Handler>
  }
}
 800062c:	bf00      	nop
 800062e:	3750      	adds	r7, #80	; 0x50
 8000630:	46bd      	mov	sp, r7
 8000632:	bd80      	pop	{r7, pc}

08000634 <Error_Handler>:
/**
  * @brief  This function is executed in case of error occurrence.
  * @retval None
  */
void Error_Handler(void)
{
 8000634:	b480      	push	{r7}
 8000636:	af00      	add	r7, sp, #0
  /* USER CODE BEGIN Error_Handler_Debug */
  /* User can add his own implementation to report the HAL error return state */

  /* USER CODE END Error_Handler_Debug */
}
 8000638:	bf00      	nop
 800063a:	46bd      	mov	sp, r7
 800063c:	f85d 7b04 	ldr.w	r7, [sp], #4
 8000640:	4770      	bx	lr
	...

08000644 <LL_PWR_DisableUCPDDeadBattery>:
  *         control to the UCPD (which should therefore be initialized before doing the disable).
  * @rmtoll CR3          UCPD_DBDIS           LL_PWR_DisableUCPDDeadBattery
  * @retval None
  */
__STATIC_INLINE void LL_PWR_DisableUCPDDeadBattery(void)
{
 8000644:	b480      	push	{r7}
 8000646:	af00      	add	r7, sp, #0
  SET_BIT(PWR->CR3, PWR_CR3_UCPD_DBDIS);
 8000648:	4b05      	ldr	r3, [pc, #20]	; (8000660 <LL_PWR_DisableUCPDDeadBattery+0x1c>)
 800064a:	689b      	ldr	r3, [r3, #8]
 800064c:	4a04      	ldr	r2, [pc, #16]	; (8000660 <LL_PWR_DisableUCPDDeadBattery+0x1c>)
 800064e:	f443 4380 	orr.w	r3, r3, #16384	; 0x4000
 8000652:	6093      	str	r3, [r2, #8]
}
 8000654:	bf00      	nop
 8000656:	46bd      	mov	sp, r7
 8000658:	f85d 7b04 	ldr.w	r7, [sp], #4
 800065c:	4770      	bx	lr
 800065e:	bf00      	nop
 8000660:	40007000 	.word	0x40007000

08000664 <HAL_MspInit>:
/* USER CODE END 0 */
/**
  * Initializes the Global MSP.
  */
void HAL_MspInit(void)
{
 8000664:	b580      	push	{r7, lr}
 8000666:	b082      	sub	sp, #8
 8000668:	af00      	add	r7, sp, #0
  /* USER CODE BEGIN MspInit 0 */

  /* USER CODE END MspInit 0 */

  __HAL_RCC_SYSCFG_CLK_ENABLE();
 800066a:	4b0f      	ldr	r3, [pc, #60]	; (80006a8 <HAL_MspInit+0x44>)
 800066c:	6e1b      	ldr	r3, [r3, #96]	; 0x60
 800066e:	4a0e      	ldr	r2, [pc, #56]	; (80006a8 <HAL_MspInit+0x44>)
 8000670:	f043 0301 	orr.w	r3, r3, #1
 8000674:	6613      	str	r3, [r2, #96]	; 0x60
 8000676:	4b0c      	ldr	r3, [pc, #48]	; (80006a8 <HAL_MspInit+0x44>)
 8000678:	6e1b      	ldr	r3, [r3, #96]	; 0x60
 800067a:	f003 0301 	and.w	r3, r3, #1
 800067e:	607b      	str	r3, [r7, #4]
 8000680:	687b      	ldr	r3, [r7, #4]
  __HAL_RCC_PWR_CLK_ENABLE();
 8000682:	4b09      	ldr	r3, [pc, #36]	; (80006a8 <HAL_MspInit+0x44>)
 8000684:	6d9b      	ldr	r3, [r3, #88]	; 0x58
 8000686:	4a08      	ldr	r2, [pc, #32]	; (80006a8 <HAL_MspInit+0x44>)
 8000688:	f043 5380 	orr.w	r3, r3, #268435456	; 0x10000000
 800068c:	6593      	str	r3, [r2, #88]	; 0x58
 800068e:	4b06      	ldr	r3, [pc, #24]	; (80006a8 <HAL_MspInit+0x44>)
 8000690:	6d9b      	ldr	r3, [r3, #88]	; 0x58
 8000692:	f003 5380 	and.w	r3, r3, #268435456	; 0x10000000
 8000696:	603b      	str	r3, [r7, #0]
 8000698:	683b      	ldr	r3, [r7, #0]

  /* System interrupt init*/

  /** Disable the internal Pull-Up in Dead Battery pins of UCPD peripheral 
  */
  LL_PWR_DisableDeadBatteryPD();
 800069a:	f7ff ffd3 	bl	8000644 <LL_PWR_DisableUCPDDeadBattery>

  /* USER CODE BEGIN MspInit 1 */

  /* USER CODE END MspInit 1 */
}
 800069e:	bf00      	nop
 80006a0:	3708      	adds	r7, #8
 80006a2:	46bd      	mov	sp, r7
 80006a4:	bd80      	pop	{r7, pc}
 80006a6:	bf00      	nop
 80006a8:	40021000 	.word	0x40021000

080006ac <NMI_Handler>:
/******************************************************************************/
/**
  * @brief This function handles Non maskable interrupt.
  */
void NMI_Handler(void)
{
 80006ac:	b480      	push	{r7}
 80006ae:	af00      	add	r7, sp, #0

  /* USER CODE END NonMaskableInt_IRQn 0 */
  /* USER CODE BEGIN NonMaskableInt_IRQn 1 */

  /* USER CODE END NonMaskableInt_IRQn 1 */
}
 80006b0:	bf00      	nop
 80006b2:	46bd      	mov	sp, r7
 80006b4:	f85d 7b04 	ldr.w	r7, [sp], #4
 80006b8:	4770      	bx	lr

080006ba <HardFault_Handler>:

/**
  * @brief This function handles Hard fault interrupt.
  */
void HardFault_Handler(void)
{
 80006ba:	b480      	push	{r7}
 80006bc:	af00      	add	r7, sp, #0
  /* USER CODE BEGIN HardFault_IRQn 0 */

  /* USER CODE END HardFault_IRQn 0 */
  while (1)
 80006be:	e7fe      	b.n	80006be <HardFault_Handler+0x4>

080006c0 <MemManage_Handler>:

/**
  * @brief This function handles Memory management fault.
  */
void MemManage_Handler(void)
{
 80006c0:	b480      	push	{r7}
 80006c2:	af00      	add	r7, sp, #0
  /* USER CODE BEGIN MemoryManagement_IRQn 0 */

  /* USER CODE END MemoryManagement_IRQn 0 */
  while (1)
 80006c4:	e7fe      	b.n	80006c4 <MemManage_Handler+0x4>

080006c6 <BusFault_Handler>:

/**
  * @brief This function handles Prefetch fault, memory access fault.
  */
void BusFault_Handler(void)
{
 80006c6:	b480      	push	{r7}
 80006c8:	af00      	add	r7, sp, #0
  /* USER CODE BEGIN BusFault_IRQn 0 */

  /* USER CODE END BusFault_IRQn 0 */
  while (1)
 80006ca:	e7fe      	b.n	80006ca <BusFault_Handler+0x4>

080006cc <UsageFault_Handler>:

/**
  * @brief This function handles Undefined instruction or illegal state.
  */
void UsageFault_Handler(void)
{
 80006cc:	b480      	push	{r7}
 80006ce:	af00      	add	r7, sp, #0
  /* USER CODE BEGIN UsageFault_IRQn 0 */

  /* USER CODE END UsageFault_IRQn 0 */
  while (1)
 80006d0:	e7fe      	b.n	80006d0 <UsageFault_Handler+0x4>

080006d2 <SVC_Handler>:

/**
  * @brief This function handles System service call via SWI instruction.
  */
void SVC_Handler(void)
{
 80006d2:	b480      	push	{r7}
 80006d4:	af00      	add	r7, sp, #0

  /* USER CODE END SVCall_IRQn 0 */
  /* USER CODE BEGIN SVCall_IRQn 1 */

  /* USER CODE END SVCall_IRQn 1 */
}
 80006d6:	bf00      	nop
 80006d8:	46bd      	mov	sp, r7
 80006da:	f85d 7b04 	ldr.w	r7, [sp], #4
 80006de:	4770      	bx	lr

080006e0 <DebugMon_Handler>:

/**
  * @brief This function handles Debug monitor.
  */
void DebugMon_Handler(void)
{
 80006e0:	b480      	push	{r7}
 80006e2:	af00      	add	r7, sp, #0

  /* USER CODE END DebugMonitor_IRQn 0 */
  /* USER CODE BEGIN DebugMonitor_IRQn 1 */

  /* USER CODE END DebugMonitor_IRQn 1 */
}
 80006e4:	bf00      	nop
 80006e6:	46bd      	mov	sp, r7
 80006e8:	f85d 7b04 	ldr.w	r7, [sp], #4
 80006ec:	4770      	bx	lr

080006ee <PendSV_Handler>:

/**
  * @brief This function handles Pendable request for system service.
  */
void PendSV_Handler(void)
{
 80006ee:	b480      	push	{r7}
 80006f0:	af00      	add	r7, sp, #0

  /* USER CODE END PendSV_IRQn 0 */
  /* USER CODE BEGIN PendSV_IRQn 1 */

  /* USER CODE END PendSV_IRQn 1 */
}
 80006f2:	bf00      	nop
 80006f4:	46bd      	mov	sp, r7
 80006f6:	f85d 7b04 	ldr.w	r7, [sp], #4
 80006fa:	4770      	bx	lr

080006fc <SysTick_Handler>:

/**
  * @brief This function handles System tick timer.
  */
void SysTick_Handler(void)
{
 80006fc:	b580      	push	{r7, lr}
 80006fe:	af00      	add	r7, sp, #0
  /* USER CODE BEGIN SysTick_IRQn 0 */

  /* USER CODE END SysTick_IRQn 0 */
  HAL_IncTick();
 8000700:	f000 f968 	bl	80009d4 <HAL_IncTick>
  /* USER CODE BEGIN SysTick_IRQn 1 */

  /* USER CODE END SysTick_IRQn 1 */
}
 8000704:	bf00      	nop
 8000706:	bd80      	pop	{r7, pc}

08000708 <_read>:
	_kill(status, -1);
	while (1) {}		/* Make sure we hang here */
}

__attribute__((weak)) int _read(int file, char *ptr, int len)
{
 8000708:	b580      	push	{r7, lr}
 800070a:	b086      	sub	sp, #24
 800070c:	af00      	add	r7, sp, #0
 800070e:	60f8      	str	r0, [r7, #12]
 8000710:	60b9      	str	r1, [r7, #8]
 8000712:	607a      	str	r2, [r7, #4]
	int DataIdx;

	for (DataIdx = 0; DataIdx < len; DataIdx++)
 8000714:	2300      	movs	r3, #0
 8000716:	617b      	str	r3, [r7, #20]
 8000718:	e00a      	b.n	8000730 <_read+0x28>
	{
		*ptr++ = __io_getchar();
 800071a:	f3af 8000 	nop.w
 800071e:	4601      	mov	r1, r0
 8000720:	68bb      	ldr	r3, [r7, #8]
 8000722:	1c5a      	adds	r2, r3, #1
 8000724:	60ba      	str	r2, [r7, #8]
 8000726:	b2ca      	uxtb	r2, r1
 8000728:	701a      	strb	r2, [r3, #0]
	for (DataIdx = 0; DataIdx < len; DataIdx++)
 800072a:	697b      	ldr	r3, [r7, #20]
 800072c:	3301      	adds	r3, #1
 800072e:	617b      	str	r3, [r7, #20]
 8000730:	697a      	ldr	r2, [r7, #20]
 8000732:	687b      	ldr	r3, [r7, #4]
 8000734:	429a      	cmp	r2, r3
 8000736:	dbf0      	blt.n	800071a <_read+0x12>
	}

return len;
 8000738:	687b      	ldr	r3, [r7, #4]
}
 800073a:	4618      	mov	r0, r3
 800073c:	3718      	adds	r7, #24
 800073e:	46bd      	mov	sp, r7
 8000740:	bd80      	pop	{r7, pc}

08000742 <_close>:
	}
	return len;
}

int _close(int file)
{
 8000742:	b480      	push	{r7}
 8000744:	b083      	sub	sp, #12
 8000746:	af00      	add	r7, sp, #0
 8000748:	6078      	str	r0, [r7, #4]
	return -1;
 800074a:	f04f 33ff 	mov.w	r3, #4294967295	; 0xffffffff
}
 800074e:	4618      	mov	r0, r3
 8000750:	370c      	adds	r7, #12
 8000752:	46bd      	mov	sp, r7
 8000754:	f85d 7b04 	ldr.w	r7, [sp], #4
 8000758:	4770      	bx	lr

0800075a <_fstat>:


int _fstat(int file, struct stat *st)
{
 800075a:	b480      	push	{r7}
 800075c:	b083      	sub	sp, #12
 800075e:	af00      	add	r7, sp, #0
 8000760:	6078      	str	r0, [r7, #4]
 8000762:	6039      	str	r1, [r7, #0]
	st->st_mode = S_IFCHR;
 8000764:	683b      	ldr	r3, [r7, #0]
 8000766:	f44f 5200 	mov.w	r2, #8192	; 0x2000
 800076a:	605a      	str	r2, [r3, #4]
	return 0;
 800076c:	2300      	movs	r3, #0
}
 800076e:	4618      	mov	r0, r3
 8000770:	370c      	adds	r7, #12
 8000772:	46bd      	mov	sp, r7
 8000774:	f85d 7b04 	ldr.w	r7, [sp], #4
 8000778:	4770      	bx	lr

0800077a <_isatty>:

int _isatty(int file)
{
 800077a:	b480      	push	{r7}
 800077c:	b083      	sub	sp, #12
 800077e:	af00      	add	r7, sp, #0
 8000780:	6078      	str	r0, [r7, #4]
	return 1;
 8000782:	2301      	movs	r3, #1
}
 8000784:	4618      	mov	r0, r3
 8000786:	370c      	adds	r7, #12
 8000788:	46bd      	mov	sp, r7
 800078a:	f85d 7b04 	ldr.w	r7, [sp], #4
 800078e:	4770      	bx	lr

08000790 <_lseek>:

int _lseek(int file, int ptr, int dir)
{
 8000790:	b480      	push	{r7}
 8000792:	b085      	sub	sp, #20
 8000794:	af00      	add	r7, sp, #0
 8000796:	60f8      	str	r0, [r7, #12]
 8000798:	60b9      	str	r1, [r7, #8]
 800079a:	607a      	str	r2, [r7, #4]
	return 0;
 800079c:	2300      	movs	r3, #0
}
 800079e:	4618      	mov	r0, r3
 80007a0:	3714      	adds	r7, #20
 80007a2:	46bd      	mov	sp, r7
 80007a4:	f85d 7b04 	ldr.w	r7, [sp], #4
 80007a8:	4770      	bx	lr
	...

080007ac <_sbrk>:
/**
 _sbrk
 Increase program data space. Malloc and related functions depend on this
**/
caddr_t _sbrk(int incr)
{
 80007ac:	b580      	push	{r7, lr}
 80007ae:	b084      	sub	sp, #16
 80007b0:	af00      	add	r7, sp, #0
 80007b2:	6078      	str	r0, [r7, #4]
	extern char end asm("end");
	static char *heap_end;
	char *prev_heap_end;

	if (heap_end == 0)
 80007b4:	4b11      	ldr	r3, [pc, #68]	; (80007fc <_sbrk+0x50>)
 80007b6:	681b      	ldr	r3, [r3, #0]
 80007b8:	2b00      	cmp	r3, #0
 80007ba:	d102      	bne.n	80007c2 <_sbrk+0x16>
		heap_end = &end;
 80007bc:	4b0f      	ldr	r3, [pc, #60]	; (80007fc <_sbrk+0x50>)
 80007be:	4a10      	ldr	r2, [pc, #64]	; (8000800 <_sbrk+0x54>)
 80007c0:	601a      	str	r2, [r3, #0]

	prev_heap_end = heap_end;
 80007c2:	4b0e      	ldr	r3, [pc, #56]	; (80007fc <_sbrk+0x50>)
 80007c4:	681b      	ldr	r3, [r3, #0]
 80007c6:	60fb      	str	r3, [r7, #12]
	if (heap_end + incr > stack_ptr)
 80007c8:	4b0c      	ldr	r3, [pc, #48]	; (80007fc <_sbrk+0x50>)
 80007ca:	681a      	ldr	r2, [r3, #0]
 80007cc:	687b      	ldr	r3, [r7, #4]
 80007ce:	4413      	add	r3, r2
 80007d0:	466a      	mov	r2, sp
 80007d2:	4293      	cmp	r3, r2
 80007d4:	d907      	bls.n	80007e6 <_sbrk+0x3a>
	{
		errno = ENOMEM;
 80007d6:	f001 fdab 	bl	8002330 <__errno>
 80007da:	4602      	mov	r2, r0
 80007dc:	230c      	movs	r3, #12
 80007de:	6013      	str	r3, [r2, #0]
		return (caddr_t) -1;
 80007e0:	f04f 33ff 	mov.w	r3, #4294967295	; 0xffffffff
 80007e4:	e006      	b.n	80007f4 <_sbrk+0x48>
	}

	heap_end += incr;
 80007e6:	4b05      	ldr	r3, [pc, #20]	; (80007fc <_sbrk+0x50>)
 80007e8:	681a      	ldr	r2, [r3, #0]
 80007ea:	687b      	ldr	r3, [r7, #4]
 80007ec:	4413      	add	r3, r2
 80007ee:	4a03      	ldr	r2, [pc, #12]	; (80007fc <_sbrk+0x50>)
 80007f0:	6013      	str	r3, [r2, #0]

	return (caddr_t) prev_heap_end;
 80007f2:	68fb      	ldr	r3, [r7, #12]
}
 80007f4:	4618      	mov	r0, r3
 80007f6:	3710      	adds	r7, #16
 80007f8:	46bd      	mov	sp, r7
 80007fa:	bd80      	pop	{r7, pc}
 80007fc:	20000098 	.word	0x20000098
 8000800:	20000110 	.word	0x20000110

08000804 <SystemInit>:
  * @param  None
  * @retval None
  */

void SystemInit(void)
{
 8000804:	b480      	push	{r7}
 8000806:	af00      	add	r7, sp, #0
  /* FPU settings ------------------------------------------------------------*/
  #if (__FPU_PRESENT == 1) && (__FPU_USED == 1)
    SCB->CPACR |= ((3UL << (10*2))|(3UL << (11*2)));  /* set CP10 and CP11 Full Access */
 8000808:	4b08      	ldr	r3, [pc, #32]	; (800082c <SystemInit+0x28>)
 800080a:	f8d3 3088 	ldr.w	r3, [r3, #136]	; 0x88
 800080e:	4a07      	ldr	r2, [pc, #28]	; (800082c <SystemInit+0x28>)
 8000810:	f443 0370 	orr.w	r3, r3, #15728640	; 0xf00000
 8000814:	f8c2 3088 	str.w	r3, [r2, #136]	; 0x88

  /* Configure the Vector Table location add offset address ------------------*/
#ifdef VECT_TAB_SRAM
  SCB->VTOR = SRAM_BASE | VECT_TAB_OFFSET; /* Vector Table Relocation in Internal SRAM */
#else
  SCB->VTOR = FLASH_BASE | VECT_TAB_OFFSET; /* Vector Table Relocation in Internal FLASH */
 8000818:	4b04      	ldr	r3, [pc, #16]	; (800082c <SystemInit+0x28>)
 800081a:	f04f 6200 	mov.w	r2, #134217728	; 0x8000000
 800081e:	609a      	str	r2, [r3, #8]
#endif
}
 8000820:	bf00      	nop
 8000822:	46bd      	mov	sp, r7
 8000824:	f85d 7b04 	ldr.w	r7, [sp], #4
 8000828:	4770      	bx	lr
 800082a:	bf00      	nop
 800082c:	e000ed00 	.word	0xe000ed00

08000830 <MX_TIM6_Init>:

TIM_HandleTypeDef htim6;

/* TIM6 init function */
void MX_TIM6_Init(void)
{
 8000830:	b580      	push	{r7, lr}
 8000832:	b084      	sub	sp, #16
 8000834:	af00      	add	r7, sp, #0
  TIM_MasterConfigTypeDef sMasterConfig = {0};
 8000836:	1d3b      	adds	r3, r7, #4
 8000838:	2200      	movs	r2, #0
 800083a:	601a      	str	r2, [r3, #0]
 800083c:	605a      	str	r2, [r3, #4]
 800083e:	609a      	str	r2, [r3, #8]

  htim6.Instance = TIM6;
 8000840:	4b14      	ldr	r3, [pc, #80]	; (8000894 <MX_TIM6_Init+0x64>)
 8000842:	4a15      	ldr	r2, [pc, #84]	; (8000898 <MX_TIM6_Init+0x68>)
 8000844:	601a      	str	r2, [r3, #0]
  htim6.Init.Prescaler = 1;
 8000846:	4b13      	ldr	r3, [pc, #76]	; (8000894 <MX_TIM6_Init+0x64>)
 8000848:	2201      	movs	r2, #1
 800084a:	605a      	str	r2, [r3, #4]
  htim6.Init.CounterMode = TIM_COUNTERMODE_UP;
 800084c:	4b11      	ldr	r3, [pc, #68]	; (8000894 <MX_TIM6_Init+0x64>)
 800084e:	2200      	movs	r2, #0
 8000850:	609a      	str	r2, [r3, #8]
  htim6.Init.Period = 64;
 8000852:	4b10      	ldr	r3, [pc, #64]	; (8000894 <MX_TIM6_Init+0x64>)
 8000854:	2240      	movs	r2, #64	; 0x40
 8000856:	60da      	str	r2, [r3, #12]
  htim6.Init.AutoReloadPreload = TIM_AUTORELOAD_PRELOAD_DISABLE;
 8000858:	4b0e      	ldr	r3, [pc, #56]	; (8000894 <MX_TIM6_Init+0x64>)
 800085a:	2200      	movs	r2, #0
 800085c:	619a      	str	r2, [r3, #24]
  if (HAL_TIM_Base_Init(&htim6) != HAL_OK)
 800085e:	480d      	ldr	r0, [pc, #52]	; (8000894 <MX_TIM6_Init+0x64>)
 8000860:	f001 fba2 	bl	8001fa8 <HAL_TIM_Base_Init>
 8000864:	4603      	mov	r3, r0
 8000866:	2b00      	cmp	r3, #0
 8000868:	d001      	beq.n	800086e <MX_TIM6_Init+0x3e>
  {
    Error_Handler();
 800086a:	f7ff fee3 	bl	8000634 <Error_Handler>
  }
  sMasterConfig.MasterOutputTrigger = TIM_TRGO_UPDATE;
 800086e:	2320      	movs	r3, #32
 8000870:	607b      	str	r3, [r7, #4]
  sMasterConfig.MasterSlaveMode = TIM_MASTERSLAVEMODE_DISABLE;
 8000872:	2300      	movs	r3, #0
 8000874:	60fb      	str	r3, [r7, #12]
  if (HAL_TIMEx_MasterConfigSynchronization(&htim6, &sMasterConfig) != HAL_OK)
 8000876:	1d3b      	adds	r3, r7, #4
 8000878:	4619      	mov	r1, r3
 800087a:	4806      	ldr	r0, [pc, #24]	; (8000894 <MX_TIM6_Init+0x64>)
 800087c:	f001 fcc2 	bl	8002204 <HAL_TIMEx_MasterConfigSynchronization>
 8000880:	4603      	mov	r3, r0
 8000882:	2b00      	cmp	r3, #0
 8000884:	d001      	beq.n	800088a <MX_TIM6_Init+0x5a>
  {
    Error_Handler();
 8000886:	f7ff fed5 	bl	8000634 <Error_Handler>
  }

}
 800088a:	bf00      	nop
 800088c:	3710      	adds	r7, #16
 800088e:	46bd      	mov	sp, r7
 8000890:	bd80      	pop	{r7, pc}
 8000892:	bf00      	nop
 8000894:	200000b8 	.word	0x200000b8
 8000898:	40001000 	.word	0x40001000

0800089c <HAL_TIM_Base_MspInit>:

void HAL_TIM_Base_MspInit(TIM_HandleTypeDef* tim_baseHandle)
{
 800089c:	b480      	push	{r7}
 800089e:	b085      	sub	sp, #20
 80008a0:	af00      	add	r7, sp, #0
 80008a2:	6078      	str	r0, [r7, #4]

  if(tim_baseHandle->Instance==TIM6)
 80008a4:	687b      	ldr	r3, [r7, #4]
 80008a6:	681b      	ldr	r3, [r3, #0]
 80008a8:	4a0a      	ldr	r2, [pc, #40]	; (80008d4 <HAL_TIM_Base_MspInit+0x38>)
 80008aa:	4293      	cmp	r3, r2
 80008ac:	d10b      	bne.n	80008c6 <HAL_TIM_Base_MspInit+0x2a>
  {
  /* USER CODE BEGIN TIM6_MspInit 0 */

  /* USER CODE END TIM6_MspInit 0 */
    /* TIM6 clock enable */
    __HAL_RCC_TIM6_CLK_ENABLE();
 80008ae:	4b0a      	ldr	r3, [pc, #40]	; (80008d8 <HAL_TIM_Base_MspInit+0x3c>)
 80008b0:	6d9b      	ldr	r3, [r3, #88]	; 0x58
 80008b2:	4a09      	ldr	r2, [pc, #36]	; (80008d8 <HAL_TIM_Base_MspInit+0x3c>)
 80008b4:	f043 0310 	orr.w	r3, r3, #16
 80008b8:	6593      	str	r3, [r2, #88]	; 0x58
 80008ba:	4b07      	ldr	r3, [pc, #28]	; (80008d8 <HAL_TIM_Base_MspInit+0x3c>)
 80008bc:	6d9b      	ldr	r3, [r3, #88]	; 0x58
 80008be:	f003 0310 	and.w	r3, r3, #16
 80008c2:	60fb      	str	r3, [r7, #12]
 80008c4:	68fb      	ldr	r3, [r7, #12]
  /* USER CODE BEGIN TIM6_MspInit 1 */

  /* USER CODE END TIM6_MspInit 1 */
  }
}
 80008c6:	bf00      	nop
 80008c8:	3714      	adds	r7, #20
 80008ca:	46bd      	mov	sp, r7
 80008cc:	f85d 7b04 	ldr.w	r7, [sp], #4
 80008d0:	4770      	bx	lr
 80008d2:	bf00      	nop
 80008d4:	40001000 	.word	0x40001000
 80008d8:	40021000 	.word	0x40021000

080008dc <Reset_Handler>:

    .section	.text.Reset_Handler
	.weak	Reset_Handler
	.type	Reset_Handler, %function
Reset_Handler:
  ldr   r0, =_estack
 80008dc:	480d      	ldr	r0, [pc, #52]	; (8000914 <LoopForever+0x2>)
  mov   sp, r0          /* set stack pointer */
 80008de:	4685      	mov	sp, r0

/* Copy the data segment initializers from flash to SRAM */
  ldr r0, =_sdata
 80008e0:	480d      	ldr	r0, [pc, #52]	; (8000918 <LoopForever+0x6>)
  ldr r1, =_edata
 80008e2:	490e      	ldr	r1, [pc, #56]	; (800091c <LoopForever+0xa>)
  ldr r2, =_sidata
 80008e4:	4a0e      	ldr	r2, [pc, #56]	; (8000920 <LoopForever+0xe>)
  movs r3, #0
 80008e6:	2300      	movs	r3, #0
  b	LoopCopyDataInit
 80008e8:	e002      	b.n	80008f0 <LoopCopyDataInit>

080008ea <CopyDataInit>:

CopyDataInit:
  ldr r4, [r2, r3]
 80008ea:	58d4      	ldr	r4, [r2, r3]
  str r4, [r0, r3]
 80008ec:	50c4      	str	r4, [r0, r3]
  adds r3, r3, #4
 80008ee:	3304      	adds	r3, #4

080008f0 <LoopCopyDataInit>:

LoopCopyDataInit:
  adds r4, r0, r3
 80008f0:	18c4      	adds	r4, r0, r3
  cmp r4, r1
 80008f2:	428c      	cmp	r4, r1
  bcc CopyDataInit
 80008f4:	d3f9      	bcc.n	80008ea <CopyDataInit>
  
/* Zero fill the bss segment. */
  ldr r2, =_sbss
 80008f6:	4a0b      	ldr	r2, [pc, #44]	; (8000924 <LoopForever+0x12>)
  ldr r4, =_ebss
 80008f8:	4c0b      	ldr	r4, [pc, #44]	; (8000928 <LoopForever+0x16>)
  movs r3, #0
 80008fa:	2300      	movs	r3, #0
  b LoopFillZerobss
 80008fc:	e001      	b.n	8000902 <LoopFillZerobss>

080008fe <FillZerobss>:

FillZerobss:
  str  r3, [r2]
 80008fe:	6013      	str	r3, [r2, #0]
  adds r2, r2, #4
 8000900:	3204      	adds	r2, #4

08000902 <LoopFillZerobss>:

LoopFillZerobss:
  cmp r2, r4
 8000902:	42a2      	cmp	r2, r4
  bcc FillZerobss
 8000904:	d3fb      	bcc.n	80008fe <FillZerobss>

/* Call the clock system intitialization function.*/
    bl  SystemInit
 8000906:	f7ff ff7d 	bl	8000804 <SystemInit>
/* Call static constructors */
    bl __libc_init_array
 800090a:	f001 fd17 	bl	800233c <__libc_init_array>
/* Call the application's entry point.*/
	bl	main
 800090e:	f7ff fdcf 	bl	80004b0 <main>

08000912 <LoopForever>:

LoopForever:
    b LoopForever
 8000912:	e7fe      	b.n	8000912 <LoopForever>
  ldr   r0, =_estack
 8000914:	20020000 	.word	0x20020000
  ldr r0, =_sdata
 8000918:	20000000 	.word	0x20000000
  ldr r1, =_edata
 800091c:	20000074 	.word	0x20000074
  ldr r2, =_sidata
 8000920:	08002d00 	.word	0x08002d00
  ldr r2, =_sbss
 8000924:	20000074 	.word	0x20000074
  ldr r4, =_ebss
 8000928:	2000010c 	.word	0x2000010c

0800092c <ADC1_2_IRQHandler>:
 * @retval : None
*/
    .section	.text.Default_Handler,"ax",%progbits
Default_Handler:
Infinite_Loop:
	b	Infinite_Loop
 800092c:	e7fe      	b.n	800092c <ADC1_2_IRQHandler>

0800092e <HAL_Init>:
  *         each 1ms in the SysTick_Handler() interrupt handler.
  *
  * @retval HAL status
  */
HAL_StatusTypeDef HAL_Init(void)
{
 800092e:	b580      	push	{r7, lr}
 8000930:	b082      	sub	sp, #8
 8000932:	af00      	add	r7, sp, #0
  HAL_StatusTypeDef  status = HAL_OK;
 8000934:	2300      	movs	r3, #0
 8000936:	71fb      	strb	r3, [r7, #7]
#if (PREFETCH_ENABLE != 0U)
  __HAL_FLASH_PREFETCH_BUFFER_ENABLE();
#endif /* PREFETCH_ENABLE */

  /* Set Interrupt Group Priority */
  HAL_NVIC_SetPriorityGrouping(NVIC_PRIORITYGROUP_4);
 8000938:	2003      	movs	r0, #3
 800093a:	f000 f93d 	bl	8000bb8 <HAL_NVIC_SetPriorityGrouping>

  /* Use SysTick as time base source and configure 1ms tick (default clock after Reset is HSI) */
  if (HAL_InitTick(TICK_INT_PRIORITY) != HAL_OK)
 800093e:	2000      	movs	r0, #0
 8000940:	f000 f80e 	bl	8000960 <HAL_InitTick>
 8000944:	4603      	mov	r3, r0
 8000946:	2b00      	cmp	r3, #0
 8000948:	d002      	beq.n	8000950 <HAL_Init+0x22>
  {
    status = HAL_ERROR;
 800094a:	2301      	movs	r3, #1
 800094c:	71fb      	strb	r3, [r7, #7]
 800094e:	e001      	b.n	8000954 <HAL_Init+0x26>
  }
  else
  {
    /* Init the low level hardware */
    HAL_MspInit();
 8000950:	f7ff fe88 	bl	8000664 <HAL_MspInit>
  }

  /* Return function status */
  return status;
 8000954:	79fb      	ldrb	r3, [r7, #7]

}
 8000956:	4618      	mov	r0, r3
 8000958:	3708      	adds	r7, #8
 800095a:	46bd      	mov	sp, r7
 800095c:	bd80      	pop	{r7, pc}
	...

08000960 <HAL_InitTick>:
  *       implementation  in user file.
  * @param TickPriority: Tick interrupt priority.
  * @retval HAL status
  */
__weak HAL_StatusTypeDef HAL_InitTick(uint32_t TickPriority)
{
 8000960:	b580      	push	{r7, lr}
 8000962:	b084      	sub	sp, #16
 8000964:	af00      	add	r7, sp, #0
 8000966:	6078      	str	r0, [r7, #4]
  HAL_StatusTypeDef  status = HAL_OK;
 8000968:	2300      	movs	r3, #0
 800096a:	73fb      	strb	r3, [r7, #15]

  if (uwTickFreq != 0U)
 800096c:	4b16      	ldr	r3, [pc, #88]	; (80009c8 <HAL_InitTick+0x68>)
 800096e:	681b      	ldr	r3, [r3, #0]
 8000970:	2b00      	cmp	r3, #0
 8000972:	d022      	beq.n	80009ba <HAL_InitTick+0x5a>
  {
    /* Configure the SysTick to have interrupt in 1ms time basis*/
    if (HAL_SYSTICK_Config(SystemCoreClock / (1000U / uwTickFreq)) == 0U)
 8000974:	4b15      	ldr	r3, [pc, #84]	; (80009cc <HAL_InitTick+0x6c>)
 8000976:	681a      	ldr	r2, [r3, #0]
 8000978:	4b13      	ldr	r3, [pc, #76]	; (80009c8 <HAL_InitTick+0x68>)
 800097a:	681b      	ldr	r3, [r3, #0]
 800097c:	f44f 717a 	mov.w	r1, #1000	; 0x3e8
 8000980:	fbb1 f3f3 	udiv	r3, r1, r3
 8000984:	fbb2 f3f3 	udiv	r3, r2, r3
 8000988:	4618      	mov	r0, r3
 800098a:	f000 f93a 	bl	8000c02 <HAL_SYSTICK_Config>
 800098e:	4603      	mov	r3, r0
 8000990:	2b00      	cmp	r3, #0
 8000992:	d10f      	bne.n	80009b4 <HAL_InitTick+0x54>
    {
      /* Configure the SysTick IRQ priority */
      if (TickPriority < (1UL << __NVIC_PRIO_BITS))
 8000994:	687b      	ldr	r3, [r7, #4]
 8000996:	2b0f      	cmp	r3, #15
 8000998:	d809      	bhi.n	80009ae <HAL_InitTick+0x4e>
      {
        HAL_NVIC_SetPriority(SysTick_IRQn, TickPriority, 0U);
 800099a:	2200      	movs	r2, #0
 800099c:	6879      	ldr	r1, [r7, #4]
 800099e:	f04f 30ff 	mov.w	r0, #4294967295	; 0xffffffff
 80009a2:	f000 f914 	bl	8000bce <HAL_NVIC_SetPriority>
        uwTickPrio = TickPriority;
 80009a6:	4a0a      	ldr	r2, [pc, #40]	; (80009d0 <HAL_InitTick+0x70>)
 80009a8:	687b      	ldr	r3, [r7, #4]
 80009aa:	6013      	str	r3, [r2, #0]
 80009ac:	e007      	b.n	80009be <HAL_InitTick+0x5e>
      }
      else
      {
        status = HAL_ERROR;
 80009ae:	2301      	movs	r3, #1
 80009b0:	73fb      	strb	r3, [r7, #15]
 80009b2:	e004      	b.n	80009be <HAL_InitTick+0x5e>
      }
    }
    else
    {
      status = HAL_ERROR;
 80009b4:	2301      	movs	r3, #1
 80009b6:	73fb      	strb	r3, [r7, #15]
 80009b8:	e001      	b.n	80009be <HAL_InitTick+0x5e>
    }
  }
  else
  {
    status = HAL_ERROR;
 80009ba:	2301      	movs	r3, #1
 80009bc:	73fb      	strb	r3, [r7, #15]
  }

  /* Return function status */
  return status;
 80009be:	7bfb      	ldrb	r3, [r7, #15]
}
 80009c0:	4618      	mov	r0, r3
 80009c2:	3710      	adds	r7, #16
 80009c4:	46bd      	mov	sp, r7
 80009c6:	bd80      	pop	{r7, pc}
 80009c8:	2000000c 	.word	0x2000000c
 80009cc:	20000004 	.word	0x20000004
 80009d0:	20000008 	.word	0x20000008

080009d4 <HAL_IncTick>:
  * @note This function is declared as __weak to be overwritten in case of other
  *      implementations in user file.
  * @retval None
  */
__weak void HAL_IncTick(void)
{
 80009d4:	b480      	push	{r7}
 80009d6:	af00      	add	r7, sp, #0
  uwTick += uwTickFreq;
 80009d8:	4b05      	ldr	r3, [pc, #20]	; (80009f0 <HAL_IncTick+0x1c>)
 80009da:	681a      	ldr	r2, [r3, #0]
 80009dc:	4b05      	ldr	r3, [pc, #20]	; (80009f4 <HAL_IncTick+0x20>)
 80009de:	681b      	ldr	r3, [r3, #0]
 80009e0:	4413      	add	r3, r2
 80009e2:	4a03      	ldr	r2, [pc, #12]	; (80009f0 <HAL_IncTick+0x1c>)
 80009e4:	6013      	str	r3, [r2, #0]
}
 80009e6:	bf00      	nop
 80009e8:	46bd      	mov	sp, r7
 80009ea:	f85d 7b04 	ldr.w	r7, [sp], #4
 80009ee:	4770      	bx	lr
 80009f0:	20000104 	.word	0x20000104
 80009f4:	2000000c 	.word	0x2000000c

080009f8 <HAL_GetTick>:
  * @note This function is declared as __weak to be overwritten in case of other
  *       implementations in user file.
  * @retval tick value
  */
__weak uint32_t HAL_GetTick(void)
{
 80009f8:	b480      	push	{r7}
 80009fa:	af00      	add	r7, sp, #0
  return uwTick;
 80009fc:	4b03      	ldr	r3, [pc, #12]	; (8000a0c <HAL_GetTick+0x14>)
 80009fe:	681b      	ldr	r3, [r3, #0]
}
 8000a00:	4618      	mov	r0, r3
 8000a02:	46bd      	mov	sp, r7
 8000a04:	f85d 7b04 	ldr.w	r7, [sp], #4
 8000a08:	4770      	bx	lr
 8000a0a:	bf00      	nop
 8000a0c:	20000104 	.word	0x20000104

08000a10 <HAL_Delay>:
  *       implementations in user file.
  * @param Delay specifies the delay time length, in milliseconds.
  * @retval None
  */
__weak void HAL_Delay(uint32_t Delay)
{
 8000a10:	b580      	push	{r7, lr}
 8000a12:	b084      	sub	sp, #16
 8000a14:	af00      	add	r7, sp, #0
 8000a16:	6078      	str	r0, [r7, #4]
  uint32_t tickstart = HAL_GetTick();
 8000a18:	f7ff ffee 	bl	80009f8 <HAL_GetTick>
 8000a1c:	60b8      	str	r0, [r7, #8]
  uint32_t wait = Delay;
 8000a1e:	687b      	ldr	r3, [r7, #4]
 8000a20:	60fb      	str	r3, [r7, #12]

  /* Add a freq to guarantee minimum wait */
  if (wait < HAL_MAX_DELAY)
 8000a22:	68fb      	ldr	r3, [r7, #12]
 8000a24:	f1b3 3fff 	cmp.w	r3, #4294967295	; 0xffffffff
 8000a28:	d004      	beq.n	8000a34 <HAL_Delay+0x24>
  {
    wait += (uint32_t)(uwTickFreq);
 8000a2a:	4b09      	ldr	r3, [pc, #36]	; (8000a50 <HAL_Delay+0x40>)
 8000a2c:	681b      	ldr	r3, [r3, #0]
 8000a2e:	68fa      	ldr	r2, [r7, #12]
 8000a30:	4413      	add	r3, r2
 8000a32:	60fb      	str	r3, [r7, #12]
  }

  while ((HAL_GetTick() - tickstart) < wait)
 8000a34:	bf00      	nop
 8000a36:	f7ff ffdf 	bl	80009f8 <HAL_GetTick>
 8000a3a:	4602      	mov	r2, r0
 8000a3c:	68bb      	ldr	r3, [r7, #8]
 8000a3e:	1ad3      	subs	r3, r2, r3
 8000a40:	68fa      	ldr	r2, [r7, #12]
 8000a42:	429a      	cmp	r2, r3
 8000a44:	d8f7      	bhi.n	8000a36 <HAL_Delay+0x26>
  {
  }
}
 8000a46:	bf00      	nop
 8000a48:	3710      	adds	r7, #16
 8000a4a:	46bd      	mov	sp, r7
 8000a4c:	bd80      	pop	{r7, pc}
 8000a4e:	bf00      	nop
 8000a50:	2000000c 	.word	0x2000000c

08000a54 <__NVIC_SetPriorityGrouping>:
{
 8000a54:	b480      	push	{r7}
 8000a56:	b085      	sub	sp, #20
 8000a58:	af00      	add	r7, sp, #0
 8000a5a:	6078      	str	r0, [r7, #4]
  uint32_t PriorityGroupTmp = (PriorityGroup & (uint32_t)0x07UL);             /* only values 0..7 are used          */
 8000a5c:	687b      	ldr	r3, [r7, #4]
 8000a5e:	f003 0307 	and.w	r3, r3, #7
 8000a62:	60fb      	str	r3, [r7, #12]
  reg_value  =  SCB->AIRCR;                                                   /* read old register configuration    */
 8000a64:	4b0c      	ldr	r3, [pc, #48]	; (8000a98 <__NVIC_SetPriorityGrouping+0x44>)
 8000a66:	68db      	ldr	r3, [r3, #12]
 8000a68:	60bb      	str	r3, [r7, #8]
  reg_value &= ~((uint32_t)(SCB_AIRCR_VECTKEY_Msk | SCB_AIRCR_PRIGROUP_Msk)); /* clear bits to change               */
 8000a6a:	68ba      	ldr	r2, [r7, #8]
 8000a6c:	f64f 03ff 	movw	r3, #63743	; 0xf8ff
 8000a70:	4013      	ands	r3, r2
 8000a72:	60bb      	str	r3, [r7, #8]
                (PriorityGroupTmp << SCB_AIRCR_PRIGROUP_Pos)  );              /* Insert write key and priority group */
 8000a74:	68fb      	ldr	r3, [r7, #12]
 8000a76:	021a      	lsls	r2, r3, #8
                ((uint32_t)0x5FAUL << SCB_AIRCR_VECTKEY_Pos) |
 8000a78:	68bb      	ldr	r3, [r7, #8]
 8000a7a:	4313      	orrs	r3, r2
  reg_value  =  (reg_value                                   |
 8000a7c:	f043 63bf 	orr.w	r3, r3, #100139008	; 0x5f80000
 8000a80:	f443 3300 	orr.w	r3, r3, #131072	; 0x20000
 8000a84:	60bb      	str	r3, [r7, #8]
  SCB->AIRCR =  reg_value;
 8000a86:	4a04      	ldr	r2, [pc, #16]	; (8000a98 <__NVIC_SetPriorityGrouping+0x44>)
 8000a88:	68bb      	ldr	r3, [r7, #8]
 8000a8a:	60d3      	str	r3, [r2, #12]
}
 8000a8c:	bf00      	nop
 8000a8e:	3714      	adds	r7, #20
 8000a90:	46bd      	mov	sp, r7
 8000a92:	f85d 7b04 	ldr.w	r7, [sp], #4
 8000a96:	4770      	bx	lr
 8000a98:	e000ed00 	.word	0xe000ed00

08000a9c <__NVIC_GetPriorityGrouping>:
{
 8000a9c:	b480      	push	{r7}
 8000a9e:	af00      	add	r7, sp, #0
  return ((uint32_t)((SCB->AIRCR & SCB_AIRCR_PRIGROUP_Msk) >> SCB_AIRCR_PRIGROUP_Pos));
 8000aa0:	4b04      	ldr	r3, [pc, #16]	; (8000ab4 <__NVIC_GetPriorityGrouping+0x18>)
 8000aa2:	68db      	ldr	r3, [r3, #12]
 8000aa4:	0a1b      	lsrs	r3, r3, #8
 8000aa6:	f003 0307 	and.w	r3, r3, #7
}
 8000aaa:	4618      	mov	r0, r3
 8000aac:	46bd      	mov	sp, r7
 8000aae:	f85d 7b04 	ldr.w	r7, [sp], #4
 8000ab2:	4770      	bx	lr
 8000ab4:	e000ed00 	.word	0xe000ed00

08000ab8 <__NVIC_SetPriority>:
{
 8000ab8:	b480      	push	{r7}
 8000aba:	b083      	sub	sp, #12
 8000abc:	af00      	add	r7, sp, #0
 8000abe:	4603      	mov	r3, r0
 8000ac0:	6039      	str	r1, [r7, #0]
 8000ac2:	71fb      	strb	r3, [r7, #7]
  if ((int32_t)(IRQn) >= 0)
 8000ac4:	f997 3007 	ldrsb.w	r3, [r7, #7]
 8000ac8:	2b00      	cmp	r3, #0
 8000aca:	db0a      	blt.n	8000ae2 <__NVIC_SetPriority+0x2a>
    NVIC->IP[((uint32_t)IRQn)]               = (uint8_t)((priority << (8U - __NVIC_PRIO_BITS)) & (uint32_t)0xFFUL);
 8000acc:	683b      	ldr	r3, [r7, #0]
 8000ace:	b2da      	uxtb	r2, r3
 8000ad0:	490c      	ldr	r1, [pc, #48]	; (8000b04 <__NVIC_SetPriority+0x4c>)
 8000ad2:	f997 3007 	ldrsb.w	r3, [r7, #7]
 8000ad6:	0112      	lsls	r2, r2, #4
 8000ad8:	b2d2      	uxtb	r2, r2
 8000ada:	440b      	add	r3, r1
 8000adc:	f883 2300 	strb.w	r2, [r3, #768]	; 0x300
}
 8000ae0:	e00a      	b.n	8000af8 <__NVIC_SetPriority+0x40>
    SCB->SHP[(((uint32_t)IRQn) & 0xFUL)-4UL] = (uint8_t)((priority << (8U - __NVIC_PRIO_BITS)) & (uint32_t)0xFFUL);
 8000ae2:	683b      	ldr	r3, [r7, #0]
 8000ae4:	b2da      	uxtb	r2, r3
 8000ae6:	4908      	ldr	r1, [pc, #32]	; (8000b08 <__NVIC_SetPriority+0x50>)
 8000ae8:	79fb      	ldrb	r3, [r7, #7]
 8000aea:	f003 030f 	and.w	r3, r3, #15
 8000aee:	3b04      	subs	r3, #4
 8000af0:	0112      	lsls	r2, r2, #4
 8000af2:	b2d2      	uxtb	r2, r2
 8000af4:	440b      	add	r3, r1
 8000af6:	761a      	strb	r2, [r3, #24]
}
 8000af8:	bf00      	nop
 8000afa:	370c      	adds	r7, #12
 8000afc:	46bd      	mov	sp, r7
 8000afe:	f85d 7b04 	ldr.w	r7, [sp], #4
 8000b02:	4770      	bx	lr
 8000b04:	e000e100 	.word	0xe000e100
 8000b08:	e000ed00 	.word	0xe000ed00

08000b0c <NVIC_EncodePriority>:
{
 8000b0c:	b480      	push	{r7}
 8000b0e:	b089      	sub	sp, #36	; 0x24
 8000b10:	af00      	add	r7, sp, #0
 8000b12:	60f8      	str	r0, [r7, #12]
 8000b14:	60b9      	str	r1, [r7, #8]
 8000b16:	607a      	str	r2, [r7, #4]
  uint32_t PriorityGroupTmp = (PriorityGroup & (uint32_t)0x07UL);   /* only values 0..7 are used          */
 8000b18:	68fb      	ldr	r3, [r7, #12]
 8000b1a:	f003 0307 	and.w	r3, r3, #7
 8000b1e:	61fb      	str	r3, [r7, #28]
  PreemptPriorityBits = ((7UL - PriorityGroupTmp) > (uint32_t)(__NVIC_PRIO_BITS)) ? (uint32_t)(__NVIC_PRIO_BITS) : (uint32_t)(7UL - PriorityGroupTmp);
 8000b20:	69fb      	ldr	r3, [r7, #28]
 8000b22:	f1c3 0307 	rsb	r3, r3, #7
 8000b26:	2b04      	cmp	r3, #4
 8000b28:	bf28      	it	cs
 8000b2a:	2304      	movcs	r3, #4
 8000b2c:	61bb      	str	r3, [r7, #24]
  SubPriorityBits     = ((PriorityGroupTmp + (uint32_t)(__NVIC_PRIO_BITS)) < (uint32_t)7UL) ? (uint32_t)0UL : (uint32_t)((PriorityGroupTmp - 7UL) + (uint32_t)(__NVIC_PRIO_BITS));
 8000b2e:	69fb      	ldr	r3, [r7, #28]
 8000b30:	3304      	adds	r3, #4
 8000b32:	2b06      	cmp	r3, #6
 8000b34:	d902      	bls.n	8000b3c <NVIC_EncodePriority+0x30>
 8000b36:	69fb      	ldr	r3, [r7, #28]
 8000b38:	3b03      	subs	r3, #3
 8000b3a:	e000      	b.n	8000b3e <NVIC_EncodePriority+0x32>
 8000b3c:	2300      	movs	r3, #0
 8000b3e:	617b      	str	r3, [r7, #20]
           ((PreemptPriority & (uint32_t)((1UL << (PreemptPriorityBits)) - 1UL)) << SubPriorityBits) |
 8000b40:	f04f 32ff 	mov.w	r2, #4294967295	; 0xffffffff
 8000b44:	69bb      	ldr	r3, [r7, #24]
 8000b46:	fa02 f303 	lsl.w	r3, r2, r3
 8000b4a:	43da      	mvns	r2, r3
 8000b4c:	68bb      	ldr	r3, [r7, #8]
 8000b4e:	401a      	ands	r2, r3
 8000b50:	697b      	ldr	r3, [r7, #20]
 8000b52:	409a      	lsls	r2, r3
           ((SubPriority     & (uint32_t)((1UL << (SubPriorityBits    )) - 1UL)))
 8000b54:	f04f 31ff 	mov.w	r1, #4294967295	; 0xffffffff
 8000b58:	697b      	ldr	r3, [r7, #20]
 8000b5a:	fa01 f303 	lsl.w	r3, r1, r3
 8000b5e:	43d9      	mvns	r1, r3
 8000b60:	687b      	ldr	r3, [r7, #4]
 8000b62:	400b      	ands	r3, r1
           ((PreemptPriority & (uint32_t)((1UL << (PreemptPriorityBits)) - 1UL)) << SubPriorityBits) |
 8000b64:	4313      	orrs	r3, r2
}
 8000b66:	4618      	mov	r0, r3
 8000b68:	3724      	adds	r7, #36	; 0x24
 8000b6a:	46bd      	mov	sp, r7
 8000b6c:	f85d 7b04 	ldr.w	r7, [sp], #4
 8000b70:	4770      	bx	lr
	...

08000b74 <SysTick_Config>:
{
 8000b74:	b580      	push	{r7, lr}
 8000b76:	b082      	sub	sp, #8
 8000b78:	af00      	add	r7, sp, #0
 8000b7a:	6078      	str	r0, [r7, #4]
  if ((ticks - 1UL) > SysTick_LOAD_RELOAD_Msk)
 8000b7c:	687b      	ldr	r3, [r7, #4]
 8000b7e:	3b01      	subs	r3, #1
 8000b80:	f1b3 7f80 	cmp.w	r3, #16777216	; 0x1000000
 8000b84:	d301      	bcc.n	8000b8a <SysTick_Config+0x16>
    return (1UL);                                                   /* Reload value impossible */
 8000b86:	2301      	movs	r3, #1
 8000b88:	e00f      	b.n	8000baa <SysTick_Config+0x36>
  SysTick->LOAD  = (uint32_t)(ticks - 1UL);                         /* set reload register */
 8000b8a:	4a0a      	ldr	r2, [pc, #40]	; (8000bb4 <SysTick_Config+0x40>)
 8000b8c:	687b      	ldr	r3, [r7, #4]
 8000b8e:	3b01      	subs	r3, #1
 8000b90:	6053      	str	r3, [r2, #4]
  NVIC_SetPriority (SysTick_IRQn, (1UL << __NVIC_PRIO_BITS) - 1UL); /* set Priority for Systick Interrupt */
 8000b92:	210f      	movs	r1, #15
 8000b94:	f04f 30ff 	mov.w	r0, #4294967295	; 0xffffffff
 8000b98:	f7ff ff8e 	bl	8000ab8 <__NVIC_SetPriority>
  SysTick->VAL   = 0UL;                                             /* Load the SysTick Counter Value */
 8000b9c:	4b05      	ldr	r3, [pc, #20]	; (8000bb4 <SysTick_Config+0x40>)
 8000b9e:	2200      	movs	r2, #0
 8000ba0:	609a      	str	r2, [r3, #8]
  SysTick->CTRL  = SysTick_CTRL_CLKSOURCE_Msk |
 8000ba2:	4b04      	ldr	r3, [pc, #16]	; (8000bb4 <SysTick_Config+0x40>)
 8000ba4:	2207      	movs	r2, #7
 8000ba6:	601a      	str	r2, [r3, #0]
  return (0UL);                                                     /* Function successful */
 8000ba8:	2300      	movs	r3, #0
}
 8000baa:	4618      	mov	r0, r3
 8000bac:	3708      	adds	r7, #8
 8000bae:	46bd      	mov	sp, r7
 8000bb0:	bd80      	pop	{r7, pc}
 8000bb2:	bf00      	nop
 8000bb4:	e000e010 	.word	0xe000e010

08000bb8 <HAL_NVIC_SetPriorityGrouping>:
  * @note   When the NVIC_PriorityGroup_0 is selected, IRQ pre-emption is no more possible.
  *         The pending IRQ priority will be managed only by the subpriority.
  * @retval None
  */
void HAL_NVIC_SetPriorityGrouping(uint32_t PriorityGroup)
{
 8000bb8:	b580      	push	{r7, lr}
 8000bba:	b082      	sub	sp, #8
 8000bbc:	af00      	add	r7, sp, #0
 8000bbe:	6078      	str	r0, [r7, #4]
  /* Check the parameters */
  assert_param(IS_NVIC_PRIORITY_GROUP(PriorityGroup));

  /* Set the PRIGROUP[10:8] bits according to the PriorityGroup parameter value */
  NVIC_SetPriorityGrouping(PriorityGroup);
 8000bc0:	6878      	ldr	r0, [r7, #4]
 8000bc2:	f7ff ff47 	bl	8000a54 <__NVIC_SetPriorityGrouping>
}
 8000bc6:	bf00      	nop
 8000bc8:	3708      	adds	r7, #8
 8000bca:	46bd      	mov	sp, r7
 8000bcc:	bd80      	pop	{r7, pc}

08000bce <HAL_NVIC_SetPriority>:
  *         This parameter can be a value between 0 and 15
  *         A lower priority value indicates a higher priority.
  * @retval None
  */
void HAL_NVIC_SetPriority(IRQn_Type IRQn, uint32_t PreemptPriority, uint32_t SubPriority)
{
 8000bce:	b580      	push	{r7, lr}
 8000bd0:	b086      	sub	sp, #24
 8000bd2:	af00      	add	r7, sp, #0
 8000bd4:	4603      	mov	r3, r0
 8000bd6:	60b9      	str	r1, [r7, #8]
 8000bd8:	607a      	str	r2, [r7, #4]
 8000bda:	73fb      	strb	r3, [r7, #15]

  /* Check the parameters */
  assert_param(IS_NVIC_SUB_PRIORITY(SubPriority));
  assert_param(IS_NVIC_PREEMPTION_PRIORITY(PreemptPriority));

  prioritygroup = NVIC_GetPriorityGrouping();
 8000bdc:	f7ff ff5e 	bl	8000a9c <__NVIC_GetPriorityGrouping>
 8000be0:	6178      	str	r0, [r7, #20]

  NVIC_SetPriority(IRQn, NVIC_EncodePriority(prioritygroup, PreemptPriority, SubPriority));
 8000be2:	687a      	ldr	r2, [r7, #4]
 8000be4:	68b9      	ldr	r1, [r7, #8]
 8000be6:	6978      	ldr	r0, [r7, #20]
 8000be8:	f7ff ff90 	bl	8000b0c <NVIC_EncodePriority>
 8000bec:	4602      	mov	r2, r0
 8000bee:	f997 300f 	ldrsb.w	r3, [r7, #15]
 8000bf2:	4611      	mov	r1, r2
 8000bf4:	4618      	mov	r0, r3
 8000bf6:	f7ff ff5f 	bl	8000ab8 <__NVIC_SetPriority>
}
 8000bfa:	bf00      	nop
 8000bfc:	3718      	adds	r7, #24
 8000bfe:	46bd      	mov	sp, r7
 8000c00:	bd80      	pop	{r7, pc}

08000c02 <HAL_SYSTICK_Config>:
  * @param  TicksNumb: Specifies the ticks Number of ticks between two interrupts.
  * @retval status:  - 0  Function succeeded.
  *                  - 1  Function failed.
  */
uint32_t HAL_SYSTICK_Config(uint32_t TicksNumb)
{
 8000c02:	b580      	push	{r7, lr}
 8000c04:	b082      	sub	sp, #8
 8000c06:	af00      	add	r7, sp, #0
 8000c08:	6078      	str	r0, [r7, #4]
   return SysTick_Config(TicksNumb);
 8000c0a:	6878      	ldr	r0, [r7, #4]
 8000c0c:	f7ff ffb2 	bl	8000b74 <SysTick_Config>
 8000c10:	4603      	mov	r3, r0
}
 8000c12:	4618      	mov	r0, r3
 8000c14:	3708      	adds	r7, #8
 8000c16:	46bd      	mov	sp, r7
 8000c18:	bd80      	pop	{r7, pc}

08000c1a <HAL_DAC_Init>:
  * @param  hdac pointer to a DAC_HandleTypeDef structure that contains
  *         the configuration information for the specified DAC.
  * @retval HAL status
  */
HAL_StatusTypeDef HAL_DAC_Init(DAC_HandleTypeDef *hdac)
{
 8000c1a:	b580      	push	{r7, lr}
 8000c1c:	b082      	sub	sp, #8
 8000c1e:	af00      	add	r7, sp, #0
 8000c20:	6078      	str	r0, [r7, #4]
  /* Check DAC handle */
  if (hdac == NULL)
 8000c22:	687b      	ldr	r3, [r7, #4]
 8000c24:	2b00      	cmp	r3, #0
 8000c26:	d101      	bne.n	8000c2c <HAL_DAC_Init+0x12>
  {
    return HAL_ERROR;
 8000c28:	2301      	movs	r3, #1
 8000c2a:	e014      	b.n	8000c56 <HAL_DAC_Init+0x3c>
  }
  /* Check the parameters */
  assert_param(IS_DAC_ALL_INSTANCE(hdac->Instance));

  if (hdac->State == HAL_DAC_STATE_RESET)
 8000c2c:	687b      	ldr	r3, [r7, #4]
 8000c2e:	791b      	ldrb	r3, [r3, #4]
 8000c30:	b2db      	uxtb	r3, r3
 8000c32:	2b00      	cmp	r3, #0
 8000c34:	d105      	bne.n	8000c42 <HAL_DAC_Init+0x28>
      hdac->MspInitCallback             = HAL_DAC_MspInit;
    }
#endif /* USE_HAL_DAC_REGISTER_CALLBACKS */

    /* Allocate lock resource and initialize it */
    hdac->Lock = HAL_UNLOCKED;
 8000c36:	687b      	ldr	r3, [r7, #4]
 8000c38:	2200      	movs	r2, #0
 8000c3a:	715a      	strb	r2, [r3, #5]
#if (USE_HAL_DAC_REGISTER_CALLBACKS == 1)
    /* Init the low level hardware */
    hdac->MspInitCallback(hdac);
#else
    /* Init the low level hardware */
    HAL_DAC_MspInit(hdac);
 8000c3c:	6878      	ldr	r0, [r7, #4]
 8000c3e:	f7ff fb3f 	bl	80002c0 <HAL_DAC_MspInit>
#endif /* USE_HAL_DAC_REGISTER_CALLBACKS */
  }

  /* Initialize the DAC state*/
  hdac->State = HAL_DAC_STATE_BUSY;
 8000c42:	687b      	ldr	r3, [r7, #4]
 8000c44:	2202      	movs	r2, #2
 8000c46:	711a      	strb	r2, [r3, #4]

  /* Set DAC error code to none */
  hdac->ErrorCode = HAL_DAC_ERROR_NONE;
 8000c48:	687b      	ldr	r3, [r7, #4]
 8000c4a:	2200      	movs	r2, #0
 8000c4c:	611a      	str	r2, [r3, #16]

  /* Initialize the DAC state*/
  hdac->State = HAL_DAC_STATE_READY;
 8000c4e:	687b      	ldr	r3, [r7, #4]
 8000c50:	2201      	movs	r2, #1
 8000c52:	711a      	strb	r2, [r3, #4]

  /* Return function status */
  return HAL_OK;
 8000c54:	2300      	movs	r3, #0
}
 8000c56:	4618      	mov	r0, r3
 8000c58:	3708      	adds	r7, #8
 8000c5a:	46bd      	mov	sp, r7
 8000c5c:	bd80      	pop	{r7, pc}

08000c5e <HAL_DAC_Start>:
  *         (1) On this STM32 serie, parameter not available on all instances.
  *             Refer to device datasheet for channels availability.
  * @retval HAL status
  */
HAL_StatusTypeDef HAL_DAC_Start(DAC_HandleTypeDef *hdac, uint32_t Channel)
{
 8000c5e:	b580      	push	{r7, lr}
 8000c60:	b082      	sub	sp, #8
 8000c62:	af00      	add	r7, sp, #0
 8000c64:	6078      	str	r0, [r7, #4]
 8000c66:	6039      	str	r1, [r7, #0]
  /* Check the parameters */
  assert_param(IS_DAC_CHANNEL(hdac->Instance, Channel));

  /* Process locked */
  __HAL_LOCK(hdac);
 8000c68:	687b      	ldr	r3, [r7, #4]
 8000c6a:	795b      	ldrb	r3, [r3, #5]
 8000c6c:	2b01      	cmp	r3, #1
 8000c6e:	d101      	bne.n	8000c74 <HAL_DAC_Start+0x16>
 8000c70:	2302      	movs	r3, #2
 8000c72:	e043      	b.n	8000cfc <HAL_DAC_Start+0x9e>
 8000c74:	687b      	ldr	r3, [r7, #4]
 8000c76:	2201      	movs	r2, #1
 8000c78:	715a      	strb	r2, [r3, #5]

  /* Change DAC state */
  hdac->State = HAL_DAC_STATE_BUSY;
 8000c7a:	687b      	ldr	r3, [r7, #4]
 8000c7c:	2202      	movs	r2, #2
 8000c7e:	711a      	strb	r2, [r3, #4]

  /* Enable the Peripheral */
  __HAL_DAC_ENABLE(hdac, Channel);
 8000c80:	687b      	ldr	r3, [r7, #4]
 8000c82:	681b      	ldr	r3, [r3, #0]
 8000c84:	6819      	ldr	r1, [r3, #0]
 8000c86:	683b      	ldr	r3, [r7, #0]
 8000c88:	f003 0310 	and.w	r3, r3, #16
 8000c8c:	2201      	movs	r2, #1
 8000c8e:	409a      	lsls	r2, r3
 8000c90:	687b      	ldr	r3, [r7, #4]
 8000c92:	681b      	ldr	r3, [r3, #0]
 8000c94:	430a      	orrs	r2, r1
 8000c96:	601a      	str	r2, [r3, #0]
  /* Ensure minimum wait before using peripheral after enabling it */
  HAL_Delay(1);
 8000c98:	2001      	movs	r0, #1
 8000c9a:	f7ff feb9 	bl	8000a10 <HAL_Delay>

  if (Channel == DAC_CHANNEL_1)
 8000c9e:	683b      	ldr	r3, [r7, #0]
 8000ca0:	2b00      	cmp	r3, #0
 8000ca2:	d10f      	bne.n	8000cc4 <HAL_DAC_Start+0x66>
  {
    /* Check if software trigger enabled */
    if ((hdac->Instance->CR & (DAC_CR_TEN1 | DAC_CR_TSEL1)) == DAC_TRIGGER_SOFTWARE)
 8000ca4:	687b      	ldr	r3, [r7, #4]
 8000ca6:	681b      	ldr	r3, [r3, #0]
 8000ca8:	681b      	ldr	r3, [r3, #0]
 8000caa:	f003 033e 	and.w	r3, r3, #62	; 0x3e
 8000cae:	2b02      	cmp	r3, #2
 8000cb0:	d11d      	bne.n	8000cee <HAL_DAC_Start+0x90>
    {
      /* Enable the selected DAC software conversion */
      SET_BIT(hdac->Instance->SWTRIGR, DAC_SWTRIGR_SWTRIG1);
 8000cb2:	687b      	ldr	r3, [r7, #4]
 8000cb4:	681b      	ldr	r3, [r3, #0]
 8000cb6:	685a      	ldr	r2, [r3, #4]
 8000cb8:	687b      	ldr	r3, [r7, #4]
 8000cba:	681b      	ldr	r3, [r3, #0]
 8000cbc:	f042 0201 	orr.w	r2, r2, #1
 8000cc0:	605a      	str	r2, [r3, #4]
 8000cc2:	e014      	b.n	8000cee <HAL_DAC_Start+0x90>
    }
  }
  else
  {
    /* Check if software trigger enabled */
    if ((hdac->Instance->CR & (DAC_CR_TEN2 | DAC_CR_TSEL2)) == (DAC_TRIGGER_SOFTWARE << (Channel & 0x10UL)))
 8000cc4:	687b      	ldr	r3, [r7, #4]
 8000cc6:	681b      	ldr	r3, [r3, #0]
 8000cc8:	681b      	ldr	r3, [r3, #0]
 8000cca:	f403 1278 	and.w	r2, r3, #4063232	; 0x3e0000
 8000cce:	683b      	ldr	r3, [r7, #0]
 8000cd0:	f003 0310 	and.w	r3, r3, #16
 8000cd4:	2102      	movs	r1, #2
 8000cd6:	fa01 f303 	lsl.w	r3, r1, r3
 8000cda:	429a      	cmp	r2, r3
 8000cdc:	d107      	bne.n	8000cee <HAL_DAC_Start+0x90>
    {
      /* Enable the selected DAC software conversion*/
      SET_BIT(hdac->Instance->SWTRIGR, DAC_SWTRIGR_SWTRIG2);
 8000cde:	687b      	ldr	r3, [r7, #4]
 8000ce0:	681b      	ldr	r3, [r3, #0]
 8000ce2:	685a      	ldr	r2, [r3, #4]
 8000ce4:	687b      	ldr	r3, [r7, #4]
 8000ce6:	681b      	ldr	r3, [r3, #0]
 8000ce8:	f042 0202 	orr.w	r2, r2, #2
 8000cec:	605a      	str	r2, [r3, #4]
    }
  }

  /* Change DAC state */
  hdac->State = HAL_DAC_STATE_READY;
 8000cee:	687b      	ldr	r3, [r7, #4]
 8000cf0:	2201      	movs	r2, #1
 8000cf2:	711a      	strb	r2, [r3, #4]

  /* Process unlocked */
  __HAL_UNLOCK(hdac);
 8000cf4:	687b      	ldr	r3, [r7, #4]
 8000cf6:	2200      	movs	r2, #0
 8000cf8:	715a      	strb	r2, [r3, #5]

  /* Return function status */
  return HAL_OK;
 8000cfa:	2300      	movs	r3, #0
}
 8000cfc:	4618      	mov	r0, r3
 8000cfe:	3708      	adds	r7, #8
 8000d00:	46bd      	mov	sp, r7
 8000d02:	bd80      	pop	{r7, pc}

08000d04 <HAL_DAC_SetValue>:
  *            @arg DAC_ALIGN_12B_R: 12bit right data alignment selected
  * @param  Data Data to be loaded in the selected data holding register.
  * @retval HAL status
  */
HAL_StatusTypeDef HAL_DAC_SetValue(DAC_HandleTypeDef *hdac, uint32_t Channel, uint32_t Alignment, uint32_t Data)
{
 8000d04:	b480      	push	{r7}
 8000d06:	b087      	sub	sp, #28
 8000d08:	af00      	add	r7, sp, #0
 8000d0a:	60f8      	str	r0, [r7, #12]
 8000d0c:	60b9      	str	r1, [r7, #8]
 8000d0e:	607a      	str	r2, [r7, #4]
 8000d10:	603b      	str	r3, [r7, #0]
  __IO uint32_t tmp = 0;
 8000d12:	2300      	movs	r3, #0
 8000d14:	617b      	str	r3, [r7, #20]

  /* Check the parameters */
  assert_param(IS_DAC_CHANNEL(hdac->Instance, Channel));
  assert_param(IS_DAC_ALIGN(Alignment));
  /* In case DMA Double data mode is activated, DATA range is almost full uin32_t one: no check */
  if ((hdac->Instance->MCR & (DAC_MCR_DMADOUBLE1 << (Channel & 0x10UL))) == 0UL)
 8000d16:	68fb      	ldr	r3, [r7, #12]
 8000d18:	681b      	ldr	r3, [r3, #0]
 8000d1a:	6bdb      	ldr	r3, [r3, #60]	; 0x3c
  {
    assert_param(IS_DAC_DATA(Data));
  }

  tmp = (uint32_t)hdac->Instance;
 8000d1c:	68fb      	ldr	r3, [r7, #12]
 8000d1e:	681b      	ldr	r3, [r3, #0]
 8000d20:	617b      	str	r3, [r7, #20]
  if (Channel == DAC_CHANNEL_1)
 8000d22:	68bb      	ldr	r3, [r7, #8]
 8000d24:	2b00      	cmp	r3, #0
 8000d26:	d105      	bne.n	8000d34 <HAL_DAC_SetValue+0x30>
  {
    tmp += DAC_DHR12R1_ALIGNMENT(Alignment);
 8000d28:	697a      	ldr	r2, [r7, #20]
 8000d2a:	687b      	ldr	r3, [r7, #4]
 8000d2c:	4413      	add	r3, r2
 8000d2e:	3308      	adds	r3, #8
 8000d30:	617b      	str	r3, [r7, #20]
 8000d32:	e004      	b.n	8000d3e <HAL_DAC_SetValue+0x3a>
  }
  else
  {
    tmp += DAC_DHR12R2_ALIGNMENT(Alignment);
 8000d34:	697a      	ldr	r2, [r7, #20]
 8000d36:	687b      	ldr	r3, [r7, #4]
 8000d38:	4413      	add	r3, r2
 8000d3a:	3314      	adds	r3, #20
 8000d3c:	617b      	str	r3, [r7, #20]
  }

  /* Set the DAC channel selected data holding register */
  *(__IO uint32_t *) tmp = Data;
 8000d3e:	697b      	ldr	r3, [r7, #20]
 8000d40:	461a      	mov	r2, r3
 8000d42:	683b      	ldr	r3, [r7, #0]
 8000d44:	6013      	str	r3, [r2, #0]

  /* Return function status */
  return HAL_OK;
 8000d46:	2300      	movs	r3, #0
}
 8000d48:	4618      	mov	r0, r3
 8000d4a:	371c      	adds	r7, #28
 8000d4c:	46bd      	mov	sp, r7
 8000d4e:	f85d 7b04 	ldr.w	r7, [sp], #4
 8000d52:	4770      	bx	lr

08000d54 <HAL_DAC_ConfigChannel>:
  *         (1) On this STM32 serie, parameter not available on all instances.
  *             Refer to device datasheet for channels availability.
  * @retval HAL status
  */
HAL_StatusTypeDef HAL_DAC_ConfigChannel(DAC_HandleTypeDef *hdac, DAC_ChannelConfTypeDef *sConfig, uint32_t Channel)
{
 8000d54:	b580      	push	{r7, lr}
 8000d56:	b08a      	sub	sp, #40	; 0x28
 8000d58:	af00      	add	r7, sp, #0
 8000d5a:	60f8      	str	r0, [r7, #12]
 8000d5c:	60b9      	str	r1, [r7, #8]
 8000d5e:	607a      	str	r2, [r7, #4]
  uint32_t tmpreg1;
  uint32_t tmpreg2;
  uint32_t tickstart = 0U;
 8000d60:	2300      	movs	r3, #0
 8000d62:	61fb      	str	r3, [r7, #28]
  assert_param(IS_DAC_CHANNEL(hdac->Instance, Channel));
  assert_param(IS_FUNCTIONAL_STATE(sConfig->DAC_DMADoubleDataMode));
  assert_param(IS_FUNCTIONAL_STATE(sConfig->DAC_SignedFormat));

  /* Process locked */
  __HAL_LOCK(hdac);
 8000d64:	68fb      	ldr	r3, [r7, #12]
 8000d66:	795b      	ldrb	r3, [r3, #5]
 8000d68:	2b01      	cmp	r3, #1
 8000d6a:	d101      	bne.n	8000d70 <HAL_DAC_ConfigChannel+0x1c>
 8000d6c:	2302      	movs	r3, #2
 8000d6e:	e194      	b.n	800109a <HAL_DAC_ConfigChannel+0x346>
 8000d70:	68fb      	ldr	r3, [r7, #12]
 8000d72:	2201      	movs	r2, #1
 8000d74:	715a      	strb	r2, [r3, #5]

  /* Change DAC state */
  hdac->State = HAL_DAC_STATE_BUSY;
 8000d76:	68fb      	ldr	r3, [r7, #12]
 8000d78:	2202      	movs	r2, #2
 8000d7a:	711a      	strb	r2, [r3, #4]

  if (sConfig->DAC_SampleAndHold == DAC_SAMPLEANDHOLD_ENABLE)
 8000d7c:	68bb      	ldr	r3, [r7, #8]
 8000d7e:	689b      	ldr	r3, [r3, #8]
 8000d80:	2b04      	cmp	r3, #4
 8000d82:	d174      	bne.n	8000e6e <HAL_DAC_ConfigChannel+0x11a>
    /* Sample on old configuration */
  {
    /* SampleTime */
    if (Channel == DAC_CHANNEL_1)
 8000d84:	687b      	ldr	r3, [r7, #4]
 8000d86:	2b00      	cmp	r3, #0
 8000d88:	d137      	bne.n	8000dfa <HAL_DAC_ConfigChannel+0xa6>
    {
      /* Get timeout */
      tickstart = HAL_GetTick();
 8000d8a:	f7ff fe35 	bl	80009f8 <HAL_GetTick>
 8000d8e:	61f8      	str	r0, [r7, #28]

      /* SHSR1 can be written when BWST1 is cleared */
      while (((hdac->Instance->SR) & DAC_SR_BWST1) != 0UL)
 8000d90:	e011      	b.n	8000db6 <HAL_DAC_ConfigChannel+0x62>
      {
        /* Check for the Timeout */
        if ((HAL_GetTick() - tickstart) > TIMEOUT_DAC_CALIBCONFIG)
 8000d92:	f7ff fe31 	bl	80009f8 <HAL_GetTick>
 8000d96:	4602      	mov	r2, r0
 8000d98:	69fb      	ldr	r3, [r7, #28]
 8000d9a:	1ad3      	subs	r3, r2, r3
 8000d9c:	2b01      	cmp	r3, #1
 8000d9e:	d90a      	bls.n	8000db6 <HAL_DAC_ConfigChannel+0x62>
        {
          /* Update error code */
          SET_BIT(hdac->ErrorCode, HAL_DAC_ERROR_TIMEOUT);
 8000da0:	68fb      	ldr	r3, [r7, #12]
 8000da2:	691b      	ldr	r3, [r3, #16]
 8000da4:	f043 0208 	orr.w	r2, r3, #8
 8000da8:	68fb      	ldr	r3, [r7, #12]
 8000daa:	611a      	str	r2, [r3, #16]

          /* Change the DMA state */
          hdac->State = HAL_DAC_STATE_TIMEOUT;
 8000dac:	68fb      	ldr	r3, [r7, #12]
 8000dae:	2203      	movs	r2, #3
 8000db0:	711a      	strb	r2, [r3, #4]

          return HAL_TIMEOUT;
 8000db2:	2303      	movs	r3, #3
 8000db4:	e171      	b.n	800109a <HAL_DAC_ConfigChannel+0x346>
      while (((hdac->Instance->SR) & DAC_SR_BWST1) != 0UL)
 8000db6:	68fb      	ldr	r3, [r7, #12]
 8000db8:	681b      	ldr	r3, [r3, #0]
 8000dba:	6b5b      	ldr	r3, [r3, #52]	; 0x34
 8000dbc:	f403 4300 	and.w	r3, r3, #32768	; 0x8000
 8000dc0:	2b00      	cmp	r3, #0
 8000dc2:	d1e6      	bne.n	8000d92 <HAL_DAC_ConfigChannel+0x3e>
        }
      }
      HAL_Delay(1);
 8000dc4:	2001      	movs	r0, #1
 8000dc6:	f7ff fe23 	bl	8000a10 <HAL_Delay>
      hdac->Instance->SHSR1 = sConfig->DAC_SampleAndHoldConfig.DAC_SampleTime;
 8000dca:	68fb      	ldr	r3, [r7, #12]
 8000dcc:	681b      	ldr	r3, [r3, #0]
 8000dce:	68ba      	ldr	r2, [r7, #8]
 8000dd0:	6a52      	ldr	r2, [r2, #36]	; 0x24
 8000dd2:	641a      	str	r2, [r3, #64]	; 0x40
 8000dd4:	e01e      	b.n	8000e14 <HAL_DAC_ConfigChannel+0xc0>
      /* SHSR2 can be written when BWST2 is cleared */

      while (((hdac->Instance->SR) & DAC_SR_BWST2) != 0UL)
      {
        /* Check for the Timeout */
        if ((HAL_GetTick() - tickstart) > TIMEOUT_DAC_CALIBCONFIG)
 8000dd6:	f7ff fe0f 	bl	80009f8 <HAL_GetTick>
 8000dda:	4602      	mov	r2, r0
 8000ddc:	69fb      	ldr	r3, [r7, #28]
 8000dde:	1ad3      	subs	r3, r2, r3
 8000de0:	2b01      	cmp	r3, #1
 8000de2:	d90a      	bls.n	8000dfa <HAL_DAC_ConfigChannel+0xa6>
        {
          /* Update error code */
          SET_BIT(hdac->ErrorCode, HAL_DAC_ERROR_TIMEOUT);
 8000de4:	68fb      	ldr	r3, [r7, #12]
 8000de6:	691b      	ldr	r3, [r3, #16]
 8000de8:	f043 0208 	orr.w	r2, r3, #8
 8000dec:	68fb      	ldr	r3, [r7, #12]
 8000dee:	611a      	str	r2, [r3, #16]

          /* Change the DMA state */
          hdac->State = HAL_DAC_STATE_TIMEOUT;
 8000df0:	68fb      	ldr	r3, [r7, #12]
 8000df2:	2203      	movs	r2, #3
 8000df4:	711a      	strb	r2, [r3, #4]

          return HAL_TIMEOUT;
 8000df6:	2303      	movs	r3, #3
 8000df8:	e14f      	b.n	800109a <HAL_DAC_ConfigChannel+0x346>
      while (((hdac->Instance->SR) & DAC_SR_BWST2) != 0UL)
 8000dfa:	68fb      	ldr	r3, [r7, #12]
 8000dfc:	681b      	ldr	r3, [r3, #0]
 8000dfe:	6b5b      	ldr	r3, [r3, #52]	; 0x34
 8000e00:	2b00      	cmp	r3, #0
 8000e02:	dbe8      	blt.n	8000dd6 <HAL_DAC_ConfigChannel+0x82>
        }
      }
      HAL_Delay(1U);
 8000e04:	2001      	movs	r0, #1
 8000e06:	f7ff fe03 	bl	8000a10 <HAL_Delay>
      hdac->Instance->SHSR2 = sConfig->DAC_SampleAndHoldConfig.DAC_SampleTime;
 8000e0a:	68fb      	ldr	r3, [r7, #12]
 8000e0c:	681b      	ldr	r3, [r3, #0]
 8000e0e:	68ba      	ldr	r2, [r7, #8]
 8000e10:	6a52      	ldr	r2, [r2, #36]	; 0x24
 8000e12:	645a      	str	r2, [r3, #68]	; 0x44
    }

    /* HoldTime */
    MODIFY_REG(hdac->Instance->SHHR, DAC_SHHR_THOLD1 << (Channel & 0x10UL), (sConfig->DAC_SampleAndHoldConfig.DAC_HoldTime) << (Channel & 0x10UL));
 8000e14:	68fb      	ldr	r3, [r7, #12]
 8000e16:	681b      	ldr	r3, [r3, #0]
 8000e18:	6c9a      	ldr	r2, [r3, #72]	; 0x48
 8000e1a:	687b      	ldr	r3, [r7, #4]
 8000e1c:	f003 0310 	and.w	r3, r3, #16
 8000e20:	f240 31ff 	movw	r1, #1023	; 0x3ff
 8000e24:	fa01 f303 	lsl.w	r3, r1, r3
 8000e28:	43db      	mvns	r3, r3
 8000e2a:	ea02 0103 	and.w	r1, r2, r3
 8000e2e:	68bb      	ldr	r3, [r7, #8]
 8000e30:	6a9a      	ldr	r2, [r3, #40]	; 0x28
 8000e32:	687b      	ldr	r3, [r7, #4]
 8000e34:	f003 0310 	and.w	r3, r3, #16
 8000e38:	409a      	lsls	r2, r3
 8000e3a:	68fb      	ldr	r3, [r7, #12]
 8000e3c:	681b      	ldr	r3, [r3, #0]
 8000e3e:	430a      	orrs	r2, r1
 8000e40:	649a      	str	r2, [r3, #72]	; 0x48
    /* RefreshTime */
    MODIFY_REG(hdac->Instance->SHRR, DAC_SHRR_TREFRESH1 << (Channel & 0x10UL), (sConfig->DAC_SampleAndHoldConfig.DAC_RefreshTime) << (Channel & 0x10UL));
 8000e42:	68fb      	ldr	r3, [r7, #12]
 8000e44:	681b      	ldr	r3, [r3, #0]
 8000e46:	6cda      	ldr	r2, [r3, #76]	; 0x4c
 8000e48:	687b      	ldr	r3, [r7, #4]
 8000e4a:	f003 0310 	and.w	r3, r3, #16
 8000e4e:	21ff      	movs	r1, #255	; 0xff
 8000e50:	fa01 f303 	lsl.w	r3, r1, r3
 8000e54:	43db      	mvns	r3, r3
 8000e56:	ea02 0103 	and.w	r1, r2, r3
 8000e5a:	68bb      	ldr	r3, [r7, #8]
 8000e5c:	6ada      	ldr	r2, [r3, #44]	; 0x2c
 8000e5e:	687b      	ldr	r3, [r7, #4]
 8000e60:	f003 0310 	and.w	r3, r3, #16
 8000e64:	409a      	lsls	r2, r3
 8000e66:	68fb      	ldr	r3, [r7, #12]
 8000e68:	681b      	ldr	r3, [r3, #0]
 8000e6a:	430a      	orrs	r2, r1
 8000e6c:	64da      	str	r2, [r3, #76]	; 0x4c
  }

  if (sConfig->DAC_UserTrimming == DAC_TRIMMING_USER)
 8000e6e:	68bb      	ldr	r3, [r7, #8]
 8000e70:	69db      	ldr	r3, [r3, #28]
 8000e72:	2b01      	cmp	r3, #1
 8000e74:	d11d      	bne.n	8000eb2 <HAL_DAC_ConfigChannel+0x15e>
    /* USER TRIMMING */
  {
    /* Get the DAC CCR value */
    tmpreg1 = hdac->Instance->CCR;
 8000e76:	68fb      	ldr	r3, [r7, #12]
 8000e78:	681b      	ldr	r3, [r3, #0]
 8000e7a:	6b9b      	ldr	r3, [r3, #56]	; 0x38
 8000e7c:	627b      	str	r3, [r7, #36]	; 0x24
    /* Clear trimming value */
    tmpreg1 &= ~(((uint32_t)(DAC_CCR_OTRIM1)) << (Channel & 0x10UL));
 8000e7e:	687b      	ldr	r3, [r7, #4]
 8000e80:	f003 0310 	and.w	r3, r3, #16
 8000e84:	221f      	movs	r2, #31
 8000e86:	fa02 f303 	lsl.w	r3, r2, r3
 8000e8a:	43db      	mvns	r3, r3
 8000e8c:	6a7a      	ldr	r2, [r7, #36]	; 0x24
 8000e8e:	4013      	ands	r3, r2
 8000e90:	627b      	str	r3, [r7, #36]	; 0x24
    /* Configure for the selected trimming offset */
    tmpreg2 = sConfig->DAC_TrimmingValue;
 8000e92:	68bb      	ldr	r3, [r7, #8]
 8000e94:	6a1b      	ldr	r3, [r3, #32]
 8000e96:	61bb      	str	r3, [r7, #24]
    /* Calculate CCR register value depending on DAC_Channel */
    tmpreg1 |= tmpreg2 << (Channel & 0x10UL);
 8000e98:	687b      	ldr	r3, [r7, #4]
 8000e9a:	f003 0310 	and.w	r3, r3, #16
 8000e9e:	69ba      	ldr	r2, [r7, #24]
 8000ea0:	fa02 f303 	lsl.w	r3, r2, r3
 8000ea4:	6a7a      	ldr	r2, [r7, #36]	; 0x24
 8000ea6:	4313      	orrs	r3, r2
 8000ea8:	627b      	str	r3, [r7, #36]	; 0x24
    /* Write to DAC CCR */
    hdac->Instance->CCR = tmpreg1;
 8000eaa:	68fb      	ldr	r3, [r7, #12]
 8000eac:	681b      	ldr	r3, [r3, #0]
 8000eae:	6a7a      	ldr	r2, [r7, #36]	; 0x24
 8000eb0:	639a      	str	r2, [r3, #56]	; 0x38
  }
  /* else factory trimming is used (factory setting are available at reset)*/
  /* SW Nothing has nothing to do */

  /* Get the DAC MCR value */
  tmpreg1 = hdac->Instance->MCR;
 8000eb2:	68fb      	ldr	r3, [r7, #12]
 8000eb4:	681b      	ldr	r3, [r3, #0]
 8000eb6:	6bdb      	ldr	r3, [r3, #60]	; 0x3c
 8000eb8:	627b      	str	r3, [r7, #36]	; 0x24
  /* Clear DAC_MCR_MODEx bits */
  tmpreg1 &= ~(((uint32_t)(DAC_MCR_MODE1)) << (Channel & 0x10UL));
 8000eba:	687b      	ldr	r3, [r7, #4]
 8000ebc:	f003 0310 	and.w	r3, r3, #16
 8000ec0:	2207      	movs	r2, #7
 8000ec2:	fa02 f303 	lsl.w	r3, r2, r3
 8000ec6:	43db      	mvns	r3, r3
 8000ec8:	6a7a      	ldr	r2, [r7, #36]	; 0x24
 8000eca:	4013      	ands	r3, r2
 8000ecc:	627b      	str	r3, [r7, #36]	; 0x24
  /* Configure for the selected DAC channel: mode, buffer output & on chip peripheral connect */
  if ((sConfig->DAC_ConnectOnChipPeripheral & DAC_CHIPCONNECT_EXTERNAL) == DAC_CHIPCONNECT_EXTERNAL)
 8000ece:	68bb      	ldr	r3, [r7, #8]
 8000ed0:	699b      	ldr	r3, [r3, #24]
 8000ed2:	f003 0301 	and.w	r3, r3, #1
 8000ed6:	2b00      	cmp	r3, #0
 8000ed8:	d002      	beq.n	8000ee0 <HAL_DAC_ConfigChannel+0x18c>
  {
    connectOnChip = 0x00000000UL;
 8000eda:	2300      	movs	r3, #0
 8000edc:	623b      	str	r3, [r7, #32]
 8000ede:	e011      	b.n	8000f04 <HAL_DAC_ConfigChannel+0x1b0>
  }
  else if ((sConfig->DAC_ConnectOnChipPeripheral & DAC_CHIPCONNECT_INTERNAL) == DAC_CHIPCONNECT_INTERNAL)
 8000ee0:	68bb      	ldr	r3, [r7, #8]
 8000ee2:	699b      	ldr	r3, [r3, #24]
 8000ee4:	f003 0302 	and.w	r3, r3, #2
 8000ee8:	2b00      	cmp	r3, #0
 8000eea:	d002      	beq.n	8000ef2 <HAL_DAC_ConfigChannel+0x19e>
  {
    connectOnChip = DAC_MCR_MODE1_0;
 8000eec:	2301      	movs	r3, #1
 8000eee:	623b      	str	r3, [r7, #32]
 8000ef0:	e008      	b.n	8000f04 <HAL_DAC_ConfigChannel+0x1b0>
  }
  else /* (sConfig->DAC_ConnectOnChipPeripheral & DAC_CHIPCONNECT_BOTH) == DAC_CHIPCONNECT_BOTH */
  {
    if (sConfig->DAC_OutputBuffer == DAC_OUTPUTBUFFER_ENABLE)
 8000ef2:	68bb      	ldr	r3, [r7, #8]
 8000ef4:	695b      	ldr	r3, [r3, #20]
 8000ef6:	2b00      	cmp	r3, #0
 8000ef8:	d102      	bne.n	8000f00 <HAL_DAC_ConfigChannel+0x1ac>
    {
      connectOnChip = DAC_MCR_MODE1_0;
 8000efa:	2301      	movs	r3, #1
 8000efc:	623b      	str	r3, [r7, #32]
 8000efe:	e001      	b.n	8000f04 <HAL_DAC_ConfigChannel+0x1b0>
    }
    else
    {
      connectOnChip = 0x00000000UL;
 8000f00:	2300      	movs	r3, #0
 8000f02:	623b      	str	r3, [r7, #32]
    }
  }
  tmpreg2 = (sConfig->DAC_SampleAndHold | sConfig->DAC_OutputBuffer | connectOnChip);
 8000f04:	68bb      	ldr	r3, [r7, #8]
 8000f06:	689a      	ldr	r2, [r3, #8]
 8000f08:	68bb      	ldr	r3, [r7, #8]
 8000f0a:	695b      	ldr	r3, [r3, #20]
 8000f0c:	4313      	orrs	r3, r2
 8000f0e:	6a3a      	ldr	r2, [r7, #32]
 8000f10:	4313      	orrs	r3, r2
 8000f12:	61bb      	str	r3, [r7, #24]
  /* Clear DAC_MCR_DMADOUBLEx */
  tmpreg1 &= ~(((uint32_t)(DAC_MCR_DMADOUBLE1)) << (Channel & 0x10UL));
 8000f14:	687b      	ldr	r3, [r7, #4]
 8000f16:	f003 0310 	and.w	r3, r3, #16
 8000f1a:	f44f 7280 	mov.w	r2, #256	; 0x100
 8000f1e:	fa02 f303 	lsl.w	r3, r2, r3
 8000f22:	43db      	mvns	r3, r3
 8000f24:	6a7a      	ldr	r2, [r7, #36]	; 0x24
 8000f26:	4013      	ands	r3, r2
 8000f28:	627b      	str	r3, [r7, #36]	; 0x24
  /* Configure for the selected DAC channel: DMA double data mode */
  tmpreg2 |= (sConfig->DAC_DMADoubleDataMode == ENABLE) ? DAC_MCR_DMADOUBLE1 : 0UL;
 8000f2a:	68bb      	ldr	r3, [r7, #8]
 8000f2c:	791b      	ldrb	r3, [r3, #4]
 8000f2e:	2b01      	cmp	r3, #1
 8000f30:	d102      	bne.n	8000f38 <HAL_DAC_ConfigChannel+0x1e4>
 8000f32:	f44f 7380 	mov.w	r3, #256	; 0x100
 8000f36:	e000      	b.n	8000f3a <HAL_DAC_ConfigChannel+0x1e6>
 8000f38:	2300      	movs	r3, #0
 8000f3a:	69ba      	ldr	r2, [r7, #24]
 8000f3c:	4313      	orrs	r3, r2
 8000f3e:	61bb      	str	r3, [r7, #24]
  /* Clear DAC_MCR_SINFORMATx */
  tmpreg1 &= ~(((uint32_t)(DAC_MCR_SINFORMAT1)) << (Channel & 0x10UL));
 8000f40:	687b      	ldr	r3, [r7, #4]
 8000f42:	f003 0310 	and.w	r3, r3, #16
 8000f46:	f44f 7200 	mov.w	r2, #512	; 0x200
 8000f4a:	fa02 f303 	lsl.w	r3, r2, r3
 8000f4e:	43db      	mvns	r3, r3
 8000f50:	6a7a      	ldr	r2, [r7, #36]	; 0x24
 8000f52:	4013      	ands	r3, r2
 8000f54:	627b      	str	r3, [r7, #36]	; 0x24
  /* Configure for the selected DAC channel: Signed format */
  tmpreg2 |= (sConfig->DAC_SignedFormat == ENABLE) ? DAC_MCR_SINFORMAT1 : 0UL;
 8000f56:	68bb      	ldr	r3, [r7, #8]
 8000f58:	795b      	ldrb	r3, [r3, #5]
 8000f5a:	2b01      	cmp	r3, #1
 8000f5c:	d102      	bne.n	8000f64 <HAL_DAC_ConfigChannel+0x210>
 8000f5e:	f44f 7300 	mov.w	r3, #512	; 0x200
 8000f62:	e000      	b.n	8000f66 <HAL_DAC_ConfigChannel+0x212>
 8000f64:	2300      	movs	r3, #0
 8000f66:	69ba      	ldr	r2, [r7, #24]
 8000f68:	4313      	orrs	r3, r2
 8000f6a:	61bb      	str	r3, [r7, #24]
  /* Clear DAC_MCR_HFSEL bits */
  tmpreg1 &= ~(DAC_MCR_HFSEL);
 8000f6c:	6a7b      	ldr	r3, [r7, #36]	; 0x24
 8000f6e:	f423 4340 	bic.w	r3, r3, #49152	; 0xc000
 8000f72:	627b      	str	r3, [r7, #36]	; 0x24
  /* Configure for both DAC channels: high frequency mode */
  if (DAC_HIGH_FREQUENCY_INTERFACE_MODE_AUTOMATIC == sConfig->DAC_HighFrequency)
 8000f74:	68bb      	ldr	r3, [r7, #8]
 8000f76:	681b      	ldr	r3, [r3, #0]
 8000f78:	2b02      	cmp	r3, #2
 8000f7a:	d114      	bne.n	8000fa6 <HAL_DAC_ConfigChannel+0x252>
  {
    hclkfreq = HAL_RCC_GetHCLKFreq();
 8000f7c:	f000 ffc2 	bl	8001f04 <HAL_RCC_GetHCLKFreq>
 8000f80:	6178      	str	r0, [r7, #20]
    if (hclkfreq > HFSEL_ENABLE_THRESHOLD_160MHZ)
 8000f82:	697b      	ldr	r3, [r7, #20]
 8000f84:	4a47      	ldr	r2, [pc, #284]	; (80010a4 <HAL_DAC_ConfigChannel+0x350>)
 8000f86:	4293      	cmp	r3, r2
 8000f88:	d904      	bls.n	8000f94 <HAL_DAC_ConfigChannel+0x240>
    {
      tmpreg1 |= DAC_HIGH_FREQUENCY_INTERFACE_MODE_ABOVE_160MHZ;
 8000f8a:	6a7b      	ldr	r3, [r7, #36]	; 0x24
 8000f8c:	f443 4300 	orr.w	r3, r3, #32768	; 0x8000
 8000f90:	627b      	str	r3, [r7, #36]	; 0x24
 8000f92:	e00d      	b.n	8000fb0 <HAL_DAC_ConfigChannel+0x25c>
    }
    else if (hclkfreq > HFSEL_ENABLE_THRESHOLD_80MHZ)
 8000f94:	697b      	ldr	r3, [r7, #20]
 8000f96:	4a44      	ldr	r2, [pc, #272]	; (80010a8 <HAL_DAC_ConfigChannel+0x354>)
 8000f98:	4293      	cmp	r3, r2
 8000f9a:	d909      	bls.n	8000fb0 <HAL_DAC_ConfigChannel+0x25c>
    {
      tmpreg1 |= DAC_HIGH_FREQUENCY_INTERFACE_MODE_ABOVE_80MHZ;
 8000f9c:	6a7b      	ldr	r3, [r7, #36]	; 0x24
 8000f9e:	f443 4380 	orr.w	r3, r3, #16384	; 0x4000
 8000fa2:	627b      	str	r3, [r7, #36]	; 0x24
 8000fa4:	e004      	b.n	8000fb0 <HAL_DAC_ConfigChannel+0x25c>
      tmpreg1 |= DAC_HIGH_FREQUENCY_INTERFACE_MODE_DISABLE;
    }
  }
  else
  {
    tmpreg1 |= sConfig->DAC_HighFrequency;
 8000fa6:	68bb      	ldr	r3, [r7, #8]
 8000fa8:	681b      	ldr	r3, [r3, #0]
 8000faa:	6a7a      	ldr	r2, [r7, #36]	; 0x24
 8000fac:	4313      	orrs	r3, r2
 8000fae:	627b      	str	r3, [r7, #36]	; 0x24
  }
  /* Calculate MCR register value depending on DAC_Channel */
  tmpreg1 |= tmpreg2 << (Channel & 0x10UL);
 8000fb0:	687b      	ldr	r3, [r7, #4]
 8000fb2:	f003 0310 	and.w	r3, r3, #16
 8000fb6:	69ba      	ldr	r2, [r7, #24]
 8000fb8:	fa02 f303 	lsl.w	r3, r2, r3
 8000fbc:	6a7a      	ldr	r2, [r7, #36]	; 0x24
 8000fbe:	4313      	orrs	r3, r2
 8000fc0:	627b      	str	r3, [r7, #36]	; 0x24
  /* Write to DAC MCR */
  hdac->Instance->MCR = tmpreg1;
 8000fc2:	68fb      	ldr	r3, [r7, #12]
 8000fc4:	681b      	ldr	r3, [r3, #0]
 8000fc6:	6a7a      	ldr	r2, [r7, #36]	; 0x24
 8000fc8:	63da      	str	r2, [r3, #60]	; 0x3c

  /* DAC in normal operating mode hence clear DAC_CR_CENx bit */
  CLEAR_BIT(hdac->Instance->CR, DAC_CR_CEN1 << (Channel & 0x10UL));
 8000fca:	68fb      	ldr	r3, [r7, #12]
 8000fcc:	681b      	ldr	r3, [r3, #0]
 8000fce:	6819      	ldr	r1, [r3, #0]
 8000fd0:	687b      	ldr	r3, [r7, #4]
 8000fd2:	f003 0310 	and.w	r3, r3, #16
 8000fd6:	f44f 4280 	mov.w	r2, #16384	; 0x4000
 8000fda:	fa02 f303 	lsl.w	r3, r2, r3
 8000fde:	43da      	mvns	r2, r3
 8000fe0:	68fb      	ldr	r3, [r7, #12]
 8000fe2:	681b      	ldr	r3, [r3, #0]
 8000fe4:	400a      	ands	r2, r1
 8000fe6:	601a      	str	r2, [r3, #0]

  /* Get the DAC CR value */
  tmpreg1 = hdac->Instance->CR;
 8000fe8:	68fb      	ldr	r3, [r7, #12]
 8000fea:	681b      	ldr	r3, [r3, #0]
 8000fec:	681b      	ldr	r3, [r3, #0]
 8000fee:	627b      	str	r3, [r7, #36]	; 0x24
  /* Clear TENx, TSELx, WAVEx and MAMPx bits */
  tmpreg1 &= ~(((uint32_t)(DAC_CR_MAMP1 | DAC_CR_WAVE1 | DAC_CR_TSEL1 | DAC_CR_TEN1)) << (Channel & 0x10UL));
 8000ff0:	687b      	ldr	r3, [r7, #4]
 8000ff2:	f003 0310 	and.w	r3, r3, #16
 8000ff6:	f640 72fe 	movw	r2, #4094	; 0xffe
 8000ffa:	fa02 f303 	lsl.w	r3, r2, r3
 8000ffe:	43db      	mvns	r3, r3
 8001000:	6a7a      	ldr	r2, [r7, #36]	; 0x24
 8001002:	4013      	ands	r3, r2
 8001004:	627b      	str	r3, [r7, #36]	; 0x24
  /* Configure for the selected DAC channel: trigger */
  /* Set TSELx and TENx bits according to DAC_Trigger value */
  tmpreg2 = sConfig->DAC_Trigger;
 8001006:	68bb      	ldr	r3, [r7, #8]
 8001008:	68db      	ldr	r3, [r3, #12]
 800100a:	61bb      	str	r3, [r7, #24]
  /* Calculate CR register value depending on DAC_Channel */
  tmpreg1 |= tmpreg2 << (Channel & 0x10UL);
 800100c:	687b      	ldr	r3, [r7, #4]
 800100e:	f003 0310 	and.w	r3, r3, #16
 8001012:	69ba      	ldr	r2, [r7, #24]
 8001014:	fa02 f303 	lsl.w	r3, r2, r3
 8001018:	6a7a      	ldr	r2, [r7, #36]	; 0x24
 800101a:	4313      	orrs	r3, r2
 800101c:	627b      	str	r3, [r7, #36]	; 0x24
  /* Write to DAC CR */
  hdac->Instance->CR = tmpreg1;
 800101e:	68fb      	ldr	r3, [r7, #12]
 8001020:	681b      	ldr	r3, [r3, #0]
 8001022:	6a7a      	ldr	r2, [r7, #36]	; 0x24
 8001024:	601a      	str	r2, [r3, #0]
  /* Disable wave generation */
  hdac->Instance->CR &= ~(DAC_CR_WAVE1 << (Channel & 0x10UL));
 8001026:	68fb      	ldr	r3, [r7, #12]
 8001028:	681b      	ldr	r3, [r3, #0]
 800102a:	6819      	ldr	r1, [r3, #0]
 800102c:	687b      	ldr	r3, [r7, #4]
 800102e:	f003 0310 	and.w	r3, r3, #16
 8001032:	22c0      	movs	r2, #192	; 0xc0
 8001034:	fa02 f303 	lsl.w	r3, r2, r3
 8001038:	43da      	mvns	r2, r3
 800103a:	68fb      	ldr	r3, [r7, #12]
 800103c:	681b      	ldr	r3, [r3, #0]
 800103e:	400a      	ands	r2, r1
 8001040:	601a      	str	r2, [r3, #0]

  /* Set STRSTTRIGSELx and STINCTRIGSELx bits according to DAC_Trigger & DAC_Trigger2 values */
  tmpreg2 = ((sConfig->DAC_Trigger & DAC_CR_TSEL1) >> DAC_CR_TSEL1_Pos) << DAC_STMODR_STRSTTRIGSEL1_Pos;
 8001042:	68bb      	ldr	r3, [r7, #8]
 8001044:	68db      	ldr	r3, [r3, #12]
 8001046:	089b      	lsrs	r3, r3, #2
 8001048:	f003 030f 	and.w	r3, r3, #15
 800104c:	61bb      	str	r3, [r7, #24]
  tmpreg2 |= ((sConfig->DAC_Trigger2 & DAC_CR_TSEL1) >> DAC_CR_TSEL1_Pos) << DAC_STMODR_STINCTRIGSEL1_Pos;
 800104e:	68bb      	ldr	r3, [r7, #8]
 8001050:	691b      	ldr	r3, [r3, #16]
 8001052:	089b      	lsrs	r3, r3, #2
 8001054:	021b      	lsls	r3, r3, #8
 8001056:	f403 6370 	and.w	r3, r3, #3840	; 0xf00
 800105a:	69ba      	ldr	r2, [r7, #24]
 800105c:	4313      	orrs	r3, r2
 800105e:	61bb      	str	r3, [r7, #24]
  /* Modify STMODR register value depending on DAC_Channel */
  MODIFY_REG(hdac->Instance->STMODR, (DAC_STMODR_STINCTRIGSEL1 | DAC_STMODR_STRSTTRIGSEL1) << (Channel & 0x10UL), tmpreg2 << (Channel & 0x10UL));
 8001060:	68fb      	ldr	r3, [r7, #12]
 8001062:	681b      	ldr	r3, [r3, #0]
 8001064:	6e1a      	ldr	r2, [r3, #96]	; 0x60
 8001066:	687b      	ldr	r3, [r7, #4]
 8001068:	f003 0310 	and.w	r3, r3, #16
 800106c:	f640 710f 	movw	r1, #3855	; 0xf0f
 8001070:	fa01 f303 	lsl.w	r3, r1, r3
 8001074:	43db      	mvns	r3, r3
 8001076:	ea02 0103 	and.w	r1, r2, r3
 800107a:	687b      	ldr	r3, [r7, #4]
 800107c:	f003 0310 	and.w	r3, r3, #16
 8001080:	69ba      	ldr	r2, [r7, #24]
 8001082:	409a      	lsls	r2, r3
 8001084:	68fb      	ldr	r3, [r7, #12]
 8001086:	681b      	ldr	r3, [r3, #0]
 8001088:	430a      	orrs	r2, r1
 800108a:	661a      	str	r2, [r3, #96]	; 0x60
  /* Change DAC state */
  hdac->State = HAL_DAC_STATE_READY;
 800108c:	68fb      	ldr	r3, [r7, #12]
 800108e:	2201      	movs	r2, #1
 8001090:	711a      	strb	r2, [r3, #4]

  /* Process unlocked */
  __HAL_UNLOCK(hdac);
 8001092:	68fb      	ldr	r3, [r7, #12]
 8001094:	2200      	movs	r2, #0
 8001096:	715a      	strb	r2, [r3, #5]

  /* Return function status */
  return HAL_OK;
 8001098:	2300      	movs	r3, #0
}
 800109a:	4618      	mov	r0, r3
 800109c:	3728      	adds	r7, #40	; 0x28
 800109e:	46bd      	mov	sp, r7
 80010a0:	bd80      	pop	{r7, pc}
 80010a2:	bf00      	nop
 80010a4:	09896800 	.word	0x09896800
 80010a8:	04c4b400 	.word	0x04c4b400

080010ac <HAL_DACEx_TriangleWaveGenerate>:
  *            @arg DAC_TRIANGLEAMPLITUDE_2047: Select max triangle amplitude of 2047
  *            @arg DAC_TRIANGLEAMPLITUDE_4095: Select max triangle amplitude of 4095
  * @retval HAL status
  */
HAL_StatusTypeDef HAL_DACEx_TriangleWaveGenerate(DAC_HandleTypeDef *hdac, uint32_t Channel, uint32_t Amplitude)
{
 80010ac:	b480      	push	{r7}
 80010ae:	b085      	sub	sp, #20
 80010b0:	af00      	add	r7, sp, #0
 80010b2:	60f8      	str	r0, [r7, #12]
 80010b4:	60b9      	str	r1, [r7, #8]
 80010b6:	607a      	str	r2, [r7, #4]
  /* Check the parameters */
  assert_param(IS_DAC_CHANNEL(hdac->Instance, Channel));
  assert_param(IS_DAC_LFSR_UNMASK_TRIANGLE_AMPLITUDE(Amplitude));

  /* Process locked */
  __HAL_LOCK(hdac);
 80010b8:	68fb      	ldr	r3, [r7, #12]
 80010ba:	795b      	ldrb	r3, [r3, #5]
 80010bc:	2b01      	cmp	r3, #1
 80010be:	d101      	bne.n	80010c4 <HAL_DACEx_TriangleWaveGenerate+0x18>
 80010c0:	2302      	movs	r3, #2
 80010c2:	e024      	b.n	800110e <HAL_DACEx_TriangleWaveGenerate+0x62>
 80010c4:	68fb      	ldr	r3, [r7, #12]
 80010c6:	2201      	movs	r2, #1
 80010c8:	715a      	strb	r2, [r3, #5]

  /* Change DAC state */
  hdac->State = HAL_DAC_STATE_BUSY;
 80010ca:	68fb      	ldr	r3, [r7, #12]
 80010cc:	2202      	movs	r2, #2
 80010ce:	711a      	strb	r2, [r3, #4]

  /* Enable the triangle wave generation for the selected DAC channel */
  MODIFY_REG(hdac->Instance->CR, ((DAC_CR_WAVE1) | (DAC_CR_MAMP1)) << (Channel & 0x10UL), (DAC_CR_WAVE1_1 | Amplitude) << (Channel & 0x10UL));
 80010d0:	68fb      	ldr	r3, [r7, #12]
 80010d2:	681b      	ldr	r3, [r3, #0]
 80010d4:	681a      	ldr	r2, [r3, #0]
 80010d6:	68bb      	ldr	r3, [r7, #8]
 80010d8:	f003 0310 	and.w	r3, r3, #16
 80010dc:	f44f 617c 	mov.w	r1, #4032	; 0xfc0
 80010e0:	fa01 f303 	lsl.w	r3, r1, r3
 80010e4:	43db      	mvns	r3, r3
 80010e6:	ea02 0103 	and.w	r1, r2, r3
 80010ea:	687b      	ldr	r3, [r7, #4]
 80010ec:	f043 0280 	orr.w	r2, r3, #128	; 0x80
 80010f0:	68bb      	ldr	r3, [r7, #8]
 80010f2:	f003 0310 	and.w	r3, r3, #16
 80010f6:	409a      	lsls	r2, r3
 80010f8:	68fb      	ldr	r3, [r7, #12]
 80010fa:	681b      	ldr	r3, [r3, #0]
 80010fc:	430a      	orrs	r2, r1
 80010fe:	601a      	str	r2, [r3, #0]

  /* Change DAC state */
  hdac->State = HAL_DAC_STATE_READY;
 8001100:	68fb      	ldr	r3, [r7, #12]
 8001102:	2201      	movs	r2, #1
 8001104:	711a      	strb	r2, [r3, #4]

  /* Process unlocked */
  __HAL_UNLOCK(hdac);
 8001106:	68fb      	ldr	r3, [r7, #12]
 8001108:	2200      	movs	r2, #0
 800110a:	715a      	strb	r2, [r3, #5]

  /* Return function status */
  return HAL_OK;
 800110c:	2300      	movs	r3, #0
}
 800110e:	4618      	mov	r0, r3
 8001110:	3714      	adds	r7, #20
 8001112:	46bd      	mov	sp, r7
 8001114:	f85d 7b04 	ldr.w	r7, [sp], #4
 8001118:	4770      	bx	lr
	...

0800111c <HAL_GPIO_Init>:
  * @param  GPIO_Init pointer to a GPIO_InitTypeDef structure that contains
  *         the configuration information for the specified GPIO peripheral.
  * @retval None
  */
void HAL_GPIO_Init(GPIO_TypeDef  *GPIOx, GPIO_InitTypeDef *GPIO_Init)
{
 800111c:	b480      	push	{r7}
 800111e:	b087      	sub	sp, #28
 8001120:	af00      	add	r7, sp, #0
 8001122:	6078      	str	r0, [r7, #4]
 8001124:	6039      	str	r1, [r7, #0]
  uint32_t position = 0x00U;
 8001126:	2300      	movs	r3, #0
 8001128:	617b      	str	r3, [r7, #20]
  assert_param(IS_GPIO_PIN(GPIO_Init->Pin));
  assert_param(IS_GPIO_MODE(GPIO_Init->Mode));
  assert_param(IS_GPIO_PULL(GPIO_Init->Pull));

  /* Configure the port pins */
  while (((GPIO_Init->Pin) >> position) != 0U)
 800112a:	e15a      	b.n	80013e2 <HAL_GPIO_Init+0x2c6>
  {
    /* Get current io position */
    iocurrent = (GPIO_Init->Pin) & (1UL << position);
 800112c:	683b      	ldr	r3, [r7, #0]
 800112e:	681a      	ldr	r2, [r3, #0]
 8001130:	2101      	movs	r1, #1
 8001132:	697b      	ldr	r3, [r7, #20]
 8001134:	fa01 f303 	lsl.w	r3, r1, r3
 8001138:	4013      	ands	r3, r2
 800113a:	60fb      	str	r3, [r7, #12]

    if (iocurrent != 0x00u)
 800113c:	68fb      	ldr	r3, [r7, #12]
 800113e:	2b00      	cmp	r3, #0
 8001140:	f000 814c 	beq.w	80013dc <HAL_GPIO_Init+0x2c0>
    {
      /*--------------------- GPIO Mode Configuration ------------------------*/
      /* In case of Output or Alternate function mode selection */
      if ((GPIO_Init->Mode == GPIO_MODE_OUTPUT_PP) || (GPIO_Init->Mode == GPIO_MODE_AF_PP) ||
 8001144:	683b      	ldr	r3, [r7, #0]
 8001146:	685b      	ldr	r3, [r3, #4]
 8001148:	2b01      	cmp	r3, #1
 800114a:	d00b      	beq.n	8001164 <HAL_GPIO_Init+0x48>
 800114c:	683b      	ldr	r3, [r7, #0]
 800114e:	685b      	ldr	r3, [r3, #4]
 8001150:	2b02      	cmp	r3, #2
 8001152:	d007      	beq.n	8001164 <HAL_GPIO_Init+0x48>
          (GPIO_Init->Mode == GPIO_MODE_OUTPUT_OD) || (GPIO_Init->Mode == GPIO_MODE_AF_OD))
 8001154:	683b      	ldr	r3, [r7, #0]
 8001156:	685b      	ldr	r3, [r3, #4]
      if ((GPIO_Init->Mode == GPIO_MODE_OUTPUT_PP) || (GPIO_Init->Mode == GPIO_MODE_AF_PP) ||
 8001158:	2b11      	cmp	r3, #17
 800115a:	d003      	beq.n	8001164 <HAL_GPIO_Init+0x48>
          (GPIO_Init->Mode == GPIO_MODE_OUTPUT_OD) || (GPIO_Init->Mode == GPIO_MODE_AF_OD))
 800115c:	683b      	ldr	r3, [r7, #0]
 800115e:	685b      	ldr	r3, [r3, #4]
 8001160:	2b12      	cmp	r3, #18
 8001162:	d130      	bne.n	80011c6 <HAL_GPIO_Init+0xaa>
      {
        /* Check the Speed parameter */
        assert_param(IS_GPIO_SPEED(GPIO_Init->Speed));
        /* Configure the IO Speed */
        temp = GPIOx->OSPEEDR;
 8001164:	687b      	ldr	r3, [r7, #4]
 8001166:	689b      	ldr	r3, [r3, #8]
 8001168:	613b      	str	r3, [r7, #16]
        temp &= ~(GPIO_OSPEEDR_OSPEED0 << (position * 2U));
 800116a:	697b      	ldr	r3, [r7, #20]
 800116c:	005b      	lsls	r3, r3, #1
 800116e:	2203      	movs	r2, #3
 8001170:	fa02 f303 	lsl.w	r3, r2, r3
 8001174:	43db      	mvns	r3, r3
 8001176:	693a      	ldr	r2, [r7, #16]
 8001178:	4013      	ands	r3, r2
 800117a:	613b      	str	r3, [r7, #16]
        temp |= (GPIO_Init->Speed << (position * 2U));
 800117c:	683b      	ldr	r3, [r7, #0]
 800117e:	68da      	ldr	r2, [r3, #12]
 8001180:	697b      	ldr	r3, [r7, #20]
 8001182:	005b      	lsls	r3, r3, #1
 8001184:	fa02 f303 	lsl.w	r3, r2, r3
 8001188:	693a      	ldr	r2, [r7, #16]
 800118a:	4313      	orrs	r3, r2
 800118c:	613b      	str	r3, [r7, #16]
        GPIOx->OSPEEDR = temp;
 800118e:	687b      	ldr	r3, [r7, #4]
 8001190:	693a      	ldr	r2, [r7, #16]
 8001192:	609a      	str	r2, [r3, #8]

        /* Configure the IO Output Type */
        temp = GPIOx->OTYPER;
 8001194:	687b      	ldr	r3, [r7, #4]
 8001196:	685b      	ldr	r3, [r3, #4]
 8001198:	613b      	str	r3, [r7, #16]
        temp &= ~(GPIO_OTYPER_OT0 << position) ;
 800119a:	2201      	movs	r2, #1
 800119c:	697b      	ldr	r3, [r7, #20]
 800119e:	fa02 f303 	lsl.w	r3, r2, r3
 80011a2:	43db      	mvns	r3, r3
 80011a4:	693a      	ldr	r2, [r7, #16]
 80011a6:	4013      	ands	r3, r2
 80011a8:	613b      	str	r3, [r7, #16]
        temp |= (((GPIO_Init->Mode & GPIO_OUTPUT_TYPE) >> 4U) << position);
 80011aa:	683b      	ldr	r3, [r7, #0]
 80011ac:	685b      	ldr	r3, [r3, #4]
 80011ae:	091b      	lsrs	r3, r3, #4
 80011b0:	f003 0201 	and.w	r2, r3, #1
 80011b4:	697b      	ldr	r3, [r7, #20]
 80011b6:	fa02 f303 	lsl.w	r3, r2, r3
 80011ba:	693a      	ldr	r2, [r7, #16]
 80011bc:	4313      	orrs	r3, r2
 80011be:	613b      	str	r3, [r7, #16]
        GPIOx->OTYPER = temp;
 80011c0:	687b      	ldr	r3, [r7, #4]
 80011c2:	693a      	ldr	r2, [r7, #16]
 80011c4:	605a      	str	r2, [r3, #4]
      }

      /* Activate the Pull-up or Pull down resistor for the current IO */
      temp = GPIOx->PUPDR;
 80011c6:	687b      	ldr	r3, [r7, #4]
 80011c8:	68db      	ldr	r3, [r3, #12]
 80011ca:	613b      	str	r3, [r7, #16]
      temp &= ~(GPIO_PUPDR_PUPD0 << (position * 2U));
 80011cc:	697b      	ldr	r3, [r7, #20]
 80011ce:	005b      	lsls	r3, r3, #1
 80011d0:	2203      	movs	r2, #3
 80011d2:	fa02 f303 	lsl.w	r3, r2, r3
 80011d6:	43db      	mvns	r3, r3
 80011d8:	693a      	ldr	r2, [r7, #16]
 80011da:	4013      	ands	r3, r2
 80011dc:	613b      	str	r3, [r7, #16]
      temp |= ((GPIO_Init->Pull) << (position * 2U));
 80011de:	683b      	ldr	r3, [r7, #0]
 80011e0:	689a      	ldr	r2, [r3, #8]
 80011e2:	697b      	ldr	r3, [r7, #20]
 80011e4:	005b      	lsls	r3, r3, #1
 80011e6:	fa02 f303 	lsl.w	r3, r2, r3
 80011ea:	693a      	ldr	r2, [r7, #16]
 80011ec:	4313      	orrs	r3, r2
 80011ee:	613b      	str	r3, [r7, #16]
      GPIOx->PUPDR = temp;
 80011f0:	687b      	ldr	r3, [r7, #4]
 80011f2:	693a      	ldr	r2, [r7, #16]
 80011f4:	60da      	str	r2, [r3, #12]

      /* In case of Alternate function mode selection */
      if ((GPIO_Init->Mode == GPIO_MODE_AF_PP) || (GPIO_Init->Mode == GPIO_MODE_AF_OD))
 80011f6:	683b      	ldr	r3, [r7, #0]
 80011f8:	685b      	ldr	r3, [r3, #4]
 80011fa:	2b02      	cmp	r3, #2
 80011fc:	d003      	beq.n	8001206 <HAL_GPIO_Init+0xea>
 80011fe:	683b      	ldr	r3, [r7, #0]
 8001200:	685b      	ldr	r3, [r3, #4]
 8001202:	2b12      	cmp	r3, #18
 8001204:	d123      	bne.n	800124e <HAL_GPIO_Init+0x132>
        /* Check the Alternate function parameters */
        assert_param(IS_GPIO_AF_INSTANCE(GPIOx));
        assert_param(IS_GPIO_AF(GPIO_Init->Alternate));

        /* Configure Alternate function mapped with the current IO */
        temp = GPIOx->AFR[position >> 3U];
 8001206:	697b      	ldr	r3, [r7, #20]
 8001208:	08da      	lsrs	r2, r3, #3
 800120a:	687b      	ldr	r3, [r7, #4]
 800120c:	3208      	adds	r2, #8
 800120e:	f853 3022 	ldr.w	r3, [r3, r2, lsl #2]
 8001212:	613b      	str	r3, [r7, #16]
        temp &= ~(0xFU << ((position & 0x07U) * 4U));
 8001214:	697b      	ldr	r3, [r7, #20]
 8001216:	f003 0307 	and.w	r3, r3, #7
 800121a:	009b      	lsls	r3, r3, #2
 800121c:	220f      	movs	r2, #15
 800121e:	fa02 f303 	lsl.w	r3, r2, r3
 8001222:	43db      	mvns	r3, r3
 8001224:	693a      	ldr	r2, [r7, #16]
 8001226:	4013      	ands	r3, r2
 8001228:	613b      	str	r3, [r7, #16]
        temp |= ((GPIO_Init->Alternate) << ((position & 0x07U) * 4U));
 800122a:	683b      	ldr	r3, [r7, #0]
 800122c:	691a      	ldr	r2, [r3, #16]
 800122e:	697b      	ldr	r3, [r7, #20]
 8001230:	f003 0307 	and.w	r3, r3, #7
 8001234:	009b      	lsls	r3, r3, #2
 8001236:	fa02 f303 	lsl.w	r3, r2, r3
 800123a:	693a      	ldr	r2, [r7, #16]
 800123c:	4313      	orrs	r3, r2
 800123e:	613b      	str	r3, [r7, #16]
        GPIOx->AFR[position >> 3U] = temp;
 8001240:	697b      	ldr	r3, [r7, #20]
 8001242:	08da      	lsrs	r2, r3, #3
 8001244:	687b      	ldr	r3, [r7, #4]
 8001246:	3208      	adds	r2, #8
 8001248:	6939      	ldr	r1, [r7, #16]
 800124a:	f843 1022 	str.w	r1, [r3, r2, lsl #2]
      }

      /* Configure IO Direction mode (Input, Output, Alternate or Analog) */
      temp = GPIOx->MODER;
 800124e:	687b      	ldr	r3, [r7, #4]
 8001250:	681b      	ldr	r3, [r3, #0]
 8001252:	613b      	str	r3, [r7, #16]
      temp &= ~(GPIO_MODER_MODE0 << (position * 2U));
 8001254:	697b      	ldr	r3, [r7, #20]
 8001256:	005b      	lsls	r3, r3, #1
 8001258:	2203      	movs	r2, #3
 800125a:	fa02 f303 	lsl.w	r3, r2, r3
 800125e:	43db      	mvns	r3, r3
 8001260:	693a      	ldr	r2, [r7, #16]
 8001262:	4013      	ands	r3, r2
 8001264:	613b      	str	r3, [r7, #16]
      temp |= ((GPIO_Init->Mode & GPIO_MODE) << (position * 2U));
 8001266:	683b      	ldr	r3, [r7, #0]
 8001268:	685b      	ldr	r3, [r3, #4]
 800126a:	f003 0203 	and.w	r2, r3, #3
 800126e:	697b      	ldr	r3, [r7, #20]
 8001270:	005b      	lsls	r3, r3, #1
 8001272:	fa02 f303 	lsl.w	r3, r2, r3
 8001276:	693a      	ldr	r2, [r7, #16]
 8001278:	4313      	orrs	r3, r2
 800127a:	613b      	str	r3, [r7, #16]
      GPIOx->MODER = temp;
 800127c:	687b      	ldr	r3, [r7, #4]
 800127e:	693a      	ldr	r2, [r7, #16]
 8001280:	601a      	str	r2, [r3, #0]

      /*--------------------- EXTI Mode Configuration ------------------------*/
      /* Configure the External Interrupt or event for the current IO */
      if ((GPIO_Init->Mode & EXTI_MODE) == EXTI_MODE)
 8001282:	683b      	ldr	r3, [r7, #0]
 8001284:	685b      	ldr	r3, [r3, #4]
 8001286:	f003 5380 	and.w	r3, r3, #268435456	; 0x10000000
 800128a:	2b00      	cmp	r3, #0
 800128c:	f000 80a6 	beq.w	80013dc <HAL_GPIO_Init+0x2c0>
      {
        /* Enable SYSCFG Clock */
        __HAL_RCC_SYSCFG_CLK_ENABLE();
 8001290:	4b5b      	ldr	r3, [pc, #364]	; (8001400 <HAL_GPIO_Init+0x2e4>)
 8001292:	6e1b      	ldr	r3, [r3, #96]	; 0x60
 8001294:	4a5a      	ldr	r2, [pc, #360]	; (8001400 <HAL_GPIO_Init+0x2e4>)
 8001296:	f043 0301 	orr.w	r3, r3, #1
 800129a:	6613      	str	r3, [r2, #96]	; 0x60
 800129c:	4b58      	ldr	r3, [pc, #352]	; (8001400 <HAL_GPIO_Init+0x2e4>)
 800129e:	6e1b      	ldr	r3, [r3, #96]	; 0x60
 80012a0:	f003 0301 	and.w	r3, r3, #1
 80012a4:	60bb      	str	r3, [r7, #8]
 80012a6:	68bb      	ldr	r3, [r7, #8]

        temp = SYSCFG->EXTICR[position >> 2U];
 80012a8:	4a56      	ldr	r2, [pc, #344]	; (8001404 <HAL_GPIO_Init+0x2e8>)
 80012aa:	697b      	ldr	r3, [r7, #20]
 80012ac:	089b      	lsrs	r3, r3, #2
 80012ae:	3302      	adds	r3, #2
 80012b0:	f852 3023 	ldr.w	r3, [r2, r3, lsl #2]
 80012b4:	613b      	str	r3, [r7, #16]
        temp &= ~(0x0FUL << (4U * (position & 0x03U)));
 80012b6:	697b      	ldr	r3, [r7, #20]
 80012b8:	f003 0303 	and.w	r3, r3, #3
 80012bc:	009b      	lsls	r3, r3, #2
 80012be:	220f      	movs	r2, #15
 80012c0:	fa02 f303 	lsl.w	r3, r2, r3
 80012c4:	43db      	mvns	r3, r3
 80012c6:	693a      	ldr	r2, [r7, #16]
 80012c8:	4013      	ands	r3, r2
 80012ca:	613b      	str	r3, [r7, #16]
        temp |= (GPIO_GET_INDEX(GPIOx) << (4U * (position & 0x03U)));
 80012cc:	687b      	ldr	r3, [r7, #4]
 80012ce:	f1b3 4f90 	cmp.w	r3, #1207959552	; 0x48000000
 80012d2:	d01f      	beq.n	8001314 <HAL_GPIO_Init+0x1f8>
 80012d4:	687b      	ldr	r3, [r7, #4]
 80012d6:	4a4c      	ldr	r2, [pc, #304]	; (8001408 <HAL_GPIO_Init+0x2ec>)
 80012d8:	4293      	cmp	r3, r2
 80012da:	d019      	beq.n	8001310 <HAL_GPIO_Init+0x1f4>
 80012dc:	687b      	ldr	r3, [r7, #4]
 80012de:	4a4b      	ldr	r2, [pc, #300]	; (800140c <HAL_GPIO_Init+0x2f0>)
 80012e0:	4293      	cmp	r3, r2
 80012e2:	d013      	beq.n	800130c <HAL_GPIO_Init+0x1f0>
 80012e4:	687b      	ldr	r3, [r7, #4]
 80012e6:	4a4a      	ldr	r2, [pc, #296]	; (8001410 <HAL_GPIO_Init+0x2f4>)
 80012e8:	4293      	cmp	r3, r2
 80012ea:	d00d      	beq.n	8001308 <HAL_GPIO_Init+0x1ec>
 80012ec:	687b      	ldr	r3, [r7, #4]
 80012ee:	4a49      	ldr	r2, [pc, #292]	; (8001414 <HAL_GPIO_Init+0x2f8>)
 80012f0:	4293      	cmp	r3, r2
 80012f2:	d007      	beq.n	8001304 <HAL_GPIO_Init+0x1e8>
 80012f4:	687b      	ldr	r3, [r7, #4]
 80012f6:	4a48      	ldr	r2, [pc, #288]	; (8001418 <HAL_GPIO_Init+0x2fc>)
 80012f8:	4293      	cmp	r3, r2
 80012fa:	d101      	bne.n	8001300 <HAL_GPIO_Init+0x1e4>
 80012fc:	2305      	movs	r3, #5
 80012fe:	e00a      	b.n	8001316 <HAL_GPIO_Init+0x1fa>
 8001300:	2306      	movs	r3, #6
 8001302:	e008      	b.n	8001316 <HAL_GPIO_Init+0x1fa>
 8001304:	2304      	movs	r3, #4
 8001306:	e006      	b.n	8001316 <HAL_GPIO_Init+0x1fa>
 8001308:	2303      	movs	r3, #3
 800130a:	e004      	b.n	8001316 <HAL_GPIO_Init+0x1fa>
 800130c:	2302      	movs	r3, #2
 800130e:	e002      	b.n	8001316 <HAL_GPIO_Init+0x1fa>
 8001310:	2301      	movs	r3, #1
 8001312:	e000      	b.n	8001316 <HAL_GPIO_Init+0x1fa>
 8001314:	2300      	movs	r3, #0
 8001316:	697a      	ldr	r2, [r7, #20]
 8001318:	f002 0203 	and.w	r2, r2, #3
 800131c:	0092      	lsls	r2, r2, #2
 800131e:	4093      	lsls	r3, r2
 8001320:	693a      	ldr	r2, [r7, #16]
 8001322:	4313      	orrs	r3, r2
 8001324:	613b      	str	r3, [r7, #16]
        SYSCFG->EXTICR[position >> 2U] = temp;
 8001326:	4937      	ldr	r1, [pc, #220]	; (8001404 <HAL_GPIO_Init+0x2e8>)
 8001328:	697b      	ldr	r3, [r7, #20]
 800132a:	089b      	lsrs	r3, r3, #2
 800132c:	3302      	adds	r3, #2
 800132e:	693a      	ldr	r2, [r7, #16]
 8001330:	f841 2023 	str.w	r2, [r1, r3, lsl #2]

        /* Clear EXTI line configuration */
        temp = EXTI->IMR1;
 8001334:	4b39      	ldr	r3, [pc, #228]	; (800141c <HAL_GPIO_Init+0x300>)
 8001336:	681b      	ldr	r3, [r3, #0]
 8001338:	613b      	str	r3, [r7, #16]
        temp &= ~(iocurrent);
 800133a:	68fb      	ldr	r3, [r7, #12]
 800133c:	43db      	mvns	r3, r3
 800133e:	693a      	ldr	r2, [r7, #16]
 8001340:	4013      	ands	r3, r2
 8001342:	613b      	str	r3, [r7, #16]
        if ((GPIO_Init->Mode & GPIO_MODE_IT) == GPIO_MODE_IT)
 8001344:	683b      	ldr	r3, [r7, #0]
 8001346:	685b      	ldr	r3, [r3, #4]
 8001348:	f403 3380 	and.w	r3, r3, #65536	; 0x10000
 800134c:	2b00      	cmp	r3, #0
 800134e:	d003      	beq.n	8001358 <HAL_GPIO_Init+0x23c>
        {
          temp |= iocurrent;
 8001350:	693a      	ldr	r2, [r7, #16]
 8001352:	68fb      	ldr	r3, [r7, #12]
 8001354:	4313      	orrs	r3, r2
 8001356:	613b      	str	r3, [r7, #16]
        }
        EXTI->IMR1 = temp;
 8001358:	4a30      	ldr	r2, [pc, #192]	; (800141c <HAL_GPIO_Init+0x300>)
 800135a:	693b      	ldr	r3, [r7, #16]
 800135c:	6013      	str	r3, [r2, #0]

        temp = EXTI->EMR1;
 800135e:	4b2f      	ldr	r3, [pc, #188]	; (800141c <HAL_GPIO_Init+0x300>)
 8001360:	685b      	ldr	r3, [r3, #4]
 8001362:	613b      	str	r3, [r7, #16]
        temp &= ~(iocurrent);
 8001364:	68fb      	ldr	r3, [r7, #12]
 8001366:	43db      	mvns	r3, r3
 8001368:	693a      	ldr	r2, [r7, #16]
 800136a:	4013      	ands	r3, r2
 800136c:	613b      	str	r3, [r7, #16]
        if ((GPIO_Init->Mode & GPIO_MODE_EVT) == GPIO_MODE_EVT)
 800136e:	683b      	ldr	r3, [r7, #0]
 8001370:	685b      	ldr	r3, [r3, #4]
 8001372:	f403 3300 	and.w	r3, r3, #131072	; 0x20000
 8001376:	2b00      	cmp	r3, #0
 8001378:	d003      	beq.n	8001382 <HAL_GPIO_Init+0x266>
        {
          temp |= iocurrent;
 800137a:	693a      	ldr	r2, [r7, #16]
 800137c:	68fb      	ldr	r3, [r7, #12]
 800137e:	4313      	orrs	r3, r2
 8001380:	613b      	str	r3, [r7, #16]
        }
        EXTI->EMR1 = temp;
 8001382:	4a26      	ldr	r2, [pc, #152]	; (800141c <HAL_GPIO_Init+0x300>)
 8001384:	693b      	ldr	r3, [r7, #16]
 8001386:	6053      	str	r3, [r2, #4]

        /* Clear Rising Falling edge configuration */
        temp = EXTI->RTSR1;
 8001388:	4b24      	ldr	r3, [pc, #144]	; (800141c <HAL_GPIO_Init+0x300>)
 800138a:	689b      	ldr	r3, [r3, #8]
 800138c:	613b      	str	r3, [r7, #16]
        temp &= ~(iocurrent);
 800138e:	68fb      	ldr	r3, [r7, #12]
 8001390:	43db      	mvns	r3, r3
 8001392:	693a      	ldr	r2, [r7, #16]
 8001394:	4013      	ands	r3, r2
 8001396:	613b      	str	r3, [r7, #16]
        if ((GPIO_Init->Mode & RISING_EDGE) == RISING_EDGE)
 8001398:	683b      	ldr	r3, [r7, #0]
 800139a:	685b      	ldr	r3, [r3, #4]
 800139c:	f403 1380 	and.w	r3, r3, #1048576	; 0x100000
 80013a0:	2b00      	cmp	r3, #0
 80013a2:	d003      	beq.n	80013ac <HAL_GPIO_Init+0x290>
        {
          temp |= iocurrent;
 80013a4:	693a      	ldr	r2, [r7, #16]
 80013a6:	68fb      	ldr	r3, [r7, #12]
 80013a8:	4313      	orrs	r3, r2
 80013aa:	613b      	str	r3, [r7, #16]
        }
        EXTI->RTSR1 = temp;
 80013ac:	4a1b      	ldr	r2, [pc, #108]	; (800141c <HAL_GPIO_Init+0x300>)
 80013ae:	693b      	ldr	r3, [r7, #16]
 80013b0:	6093      	str	r3, [r2, #8]

        temp = EXTI->FTSR1;
 80013b2:	4b1a      	ldr	r3, [pc, #104]	; (800141c <HAL_GPIO_Init+0x300>)
 80013b4:	68db      	ldr	r3, [r3, #12]
 80013b6:	613b      	str	r3, [r7, #16]
        temp &= ~(iocurrent);
 80013b8:	68fb      	ldr	r3, [r7, #12]
 80013ba:	43db      	mvns	r3, r3
 80013bc:	693a      	ldr	r2, [r7, #16]
 80013be:	4013      	ands	r3, r2
 80013c0:	613b      	str	r3, [r7, #16]
        if ((GPIO_Init->Mode & FALLING_EDGE) == FALLING_EDGE)
 80013c2:	683b      	ldr	r3, [r7, #0]
 80013c4:	685b      	ldr	r3, [r3, #4]
 80013c6:	f403 1300 	and.w	r3, r3, #2097152	; 0x200000
 80013ca:	2b00      	cmp	r3, #0
 80013cc:	d003      	beq.n	80013d6 <HAL_GPIO_Init+0x2ba>
        {
          temp |= iocurrent;
 80013ce:	693a      	ldr	r2, [r7, #16]
 80013d0:	68fb      	ldr	r3, [r7, #12]
 80013d2:	4313      	orrs	r3, r2
 80013d4:	613b      	str	r3, [r7, #16]
        }
        EXTI->FTSR1 = temp;
 80013d6:	4a11      	ldr	r2, [pc, #68]	; (800141c <HAL_GPIO_Init+0x300>)
 80013d8:	693b      	ldr	r3, [r7, #16]
 80013da:	60d3      	str	r3, [r2, #12]
      }
    }

    position++;
 80013dc:	697b      	ldr	r3, [r7, #20]
 80013de:	3301      	adds	r3, #1
 80013e0:	617b      	str	r3, [r7, #20]
  while (((GPIO_Init->Pin) >> position) != 0U)
 80013e2:	683b      	ldr	r3, [r7, #0]
 80013e4:	681a      	ldr	r2, [r3, #0]
 80013e6:	697b      	ldr	r3, [r7, #20]
 80013e8:	fa22 f303 	lsr.w	r3, r2, r3
 80013ec:	2b00      	cmp	r3, #0
 80013ee:	f47f ae9d 	bne.w	800112c <HAL_GPIO_Init+0x10>
  }
}
 80013f2:	bf00      	nop
 80013f4:	371c      	adds	r7, #28
 80013f6:	46bd      	mov	sp, r7
 80013f8:	f85d 7b04 	ldr.w	r7, [sp], #4
 80013fc:	4770      	bx	lr
 80013fe:	bf00      	nop
 8001400:	40021000 	.word	0x40021000
 8001404:	40010000 	.word	0x40010000
 8001408:	48000400 	.word	0x48000400
 800140c:	48000800 	.word	0x48000800
 8001410:	48000c00 	.word	0x48000c00
 8001414:	48001000 	.word	0x48001000
 8001418:	48001400 	.word	0x48001400
 800141c:	40010400 	.word	0x40010400

08001420 <HAL_GPIO_WritePin>:
  *            @arg GPIO_PIN_RESET: to clear the port pin
  *            @arg GPIO_PIN_SET: to set the port pin
  * @retval None
  */
void HAL_GPIO_WritePin(GPIO_TypeDef *GPIOx, uint16_t GPIO_Pin, GPIO_PinState PinState)
{
 8001420:	b480      	push	{r7}
 8001422:	b083      	sub	sp, #12
 8001424:	af00      	add	r7, sp, #0
 8001426:	6078      	str	r0, [r7, #4]
 8001428:	460b      	mov	r3, r1
 800142a:	807b      	strh	r3, [r7, #2]
 800142c:	4613      	mov	r3, r2
 800142e:	707b      	strb	r3, [r7, #1]
  /* Check the parameters */
  assert_param(IS_GPIO_PIN(GPIO_Pin));
  assert_param(IS_GPIO_PIN_ACTION(PinState));

  if (PinState != GPIO_PIN_RESET)
 8001430:	787b      	ldrb	r3, [r7, #1]
 8001432:	2b00      	cmp	r3, #0
 8001434:	d003      	beq.n	800143e <HAL_GPIO_WritePin+0x1e>
  {
    GPIOx->BSRR = (uint32_t)GPIO_Pin;
 8001436:	887a      	ldrh	r2, [r7, #2]
 8001438:	687b      	ldr	r3, [r7, #4]
 800143a:	619a      	str	r2, [r3, #24]
  }
  else
  {
    GPIOx->BRR = (uint32_t)GPIO_Pin;
  }
}
 800143c:	e002      	b.n	8001444 <HAL_GPIO_WritePin+0x24>
    GPIOx->BRR = (uint32_t)GPIO_Pin;
 800143e:	887a      	ldrh	r2, [r7, #2]
 8001440:	687b      	ldr	r3, [r7, #4]
 8001442:	629a      	str	r2, [r3, #40]	; 0x28
}
 8001444:	bf00      	nop
 8001446:	370c      	adds	r7, #12
 8001448:	46bd      	mov	sp, r7
 800144a:	f85d 7b04 	ldr.w	r7, [sp], #4
 800144e:	4770      	bx	lr

08001450 <HAL_PWREx_ControlVoltageScaling>:
  *        cleared before returning the status. If the flag is not cleared within
  *        50 microseconds, HAL_TIMEOUT status is reported.
  * @retval HAL Status
  */
HAL_StatusTypeDef HAL_PWREx_ControlVoltageScaling(uint32_t VoltageScaling)
{
 8001450:	b480      	push	{r7}
 8001452:	b085      	sub	sp, #20
 8001454:	af00      	add	r7, sp, #0
 8001456:	6078      	str	r0, [r7, #4]
  uint32_t wait_loop_index;

  assert_param(IS_PWR_VOLTAGE_SCALING_RANGE(VoltageScaling));

  if (VoltageScaling == PWR_REGULATOR_VOLTAGE_SCALE1_BOOST)
 8001458:	687b      	ldr	r3, [r7, #4]
 800145a:	2b00      	cmp	r3, #0
 800145c:	d141      	bne.n	80014e2 <HAL_PWREx_ControlVoltageScaling+0x92>
  {
    /* If current range is range 2 */
    if (READ_BIT(PWR->CR1, PWR_CR1_VOS) == PWR_REGULATOR_VOLTAGE_SCALE2)
 800145e:	4b4b      	ldr	r3, [pc, #300]	; (800158c <HAL_PWREx_ControlVoltageScaling+0x13c>)
 8001460:	681b      	ldr	r3, [r3, #0]
 8001462:	f403 63c0 	and.w	r3, r3, #1536	; 0x600
 8001466:	f5b3 6f80 	cmp.w	r3, #1024	; 0x400
 800146a:	d131      	bne.n	80014d0 <HAL_PWREx_ControlVoltageScaling+0x80>
    {
      /* Make sure Range 1 Boost is enabled */
      CLEAR_BIT(PWR->CR5, PWR_CR5_R1MODE);
 800146c:	4b47      	ldr	r3, [pc, #284]	; (800158c <HAL_PWREx_ControlVoltageScaling+0x13c>)
 800146e:	f8d3 3080 	ldr.w	r3, [r3, #128]	; 0x80
 8001472:	4a46      	ldr	r2, [pc, #280]	; (800158c <HAL_PWREx_ControlVoltageScaling+0x13c>)
 8001474:	f423 7380 	bic.w	r3, r3, #256	; 0x100
 8001478:	f8c2 3080 	str.w	r3, [r2, #128]	; 0x80

      /* Set Range 1 */
      MODIFY_REG(PWR->CR1, PWR_CR1_VOS, PWR_REGULATOR_VOLTAGE_SCALE1);
 800147c:	4b43      	ldr	r3, [pc, #268]	; (800158c <HAL_PWREx_ControlVoltageScaling+0x13c>)
 800147e:	681b      	ldr	r3, [r3, #0]
 8001480:	f423 63c0 	bic.w	r3, r3, #1536	; 0x600
 8001484:	4a41      	ldr	r2, [pc, #260]	; (800158c <HAL_PWREx_ControlVoltageScaling+0x13c>)
 8001486:	f443 7300 	orr.w	r3, r3, #512	; 0x200
 800148a:	6013      	str	r3, [r2, #0]

      /* Wait until VOSF is cleared */
      wait_loop_index = ((PWR_FLAG_SETTING_DELAY_US * SystemCoreClock) / 1000000U) + 1U;
 800148c:	4b40      	ldr	r3, [pc, #256]	; (8001590 <HAL_PWREx_ControlVoltageScaling+0x140>)
 800148e:	681b      	ldr	r3, [r3, #0]
 8001490:	2232      	movs	r2, #50	; 0x32
 8001492:	fb02 f303 	mul.w	r3, r2, r3
 8001496:	4a3f      	ldr	r2, [pc, #252]	; (8001594 <HAL_PWREx_ControlVoltageScaling+0x144>)
 8001498:	fba2 2303 	umull	r2, r3, r2, r3
 800149c:	0c9b      	lsrs	r3, r3, #18
 800149e:	3301      	adds	r3, #1
 80014a0:	60fb      	str	r3, [r7, #12]
      while ((HAL_IS_BIT_SET(PWR->SR2, PWR_SR2_VOSF)) && (wait_loop_index != 0U))
 80014a2:	e002      	b.n	80014aa <HAL_PWREx_ControlVoltageScaling+0x5a>
      {
        wait_loop_index--;
 80014a4:	68fb      	ldr	r3, [r7, #12]
 80014a6:	3b01      	subs	r3, #1
 80014a8:	60fb      	str	r3, [r7, #12]
      while ((HAL_IS_BIT_SET(PWR->SR2, PWR_SR2_VOSF)) && (wait_loop_index != 0U))
 80014aa:	4b38      	ldr	r3, [pc, #224]	; (800158c <HAL_PWREx_ControlVoltageScaling+0x13c>)
 80014ac:	695b      	ldr	r3, [r3, #20]
 80014ae:	f403 6380 	and.w	r3, r3, #1024	; 0x400
 80014b2:	f5b3 6f80 	cmp.w	r3, #1024	; 0x400
 80014b6:	d102      	bne.n	80014be <HAL_PWREx_ControlVoltageScaling+0x6e>
 80014b8:	68fb      	ldr	r3, [r7, #12]
 80014ba:	2b00      	cmp	r3, #0
 80014bc:	d1f2      	bne.n	80014a4 <HAL_PWREx_ControlVoltageScaling+0x54>
      }
      if (HAL_IS_BIT_SET(PWR->SR2, PWR_SR2_VOSF))
 80014be:	4b33      	ldr	r3, [pc, #204]	; (800158c <HAL_PWREx_ControlVoltageScaling+0x13c>)
 80014c0:	695b      	ldr	r3, [r3, #20]
 80014c2:	f403 6380 	and.w	r3, r3, #1024	; 0x400
 80014c6:	f5b3 6f80 	cmp.w	r3, #1024	; 0x400
 80014ca:	d158      	bne.n	800157e <HAL_PWREx_ControlVoltageScaling+0x12e>
      {
        return HAL_TIMEOUT;
 80014cc:	2303      	movs	r3, #3
 80014ce:	e057      	b.n	8001580 <HAL_PWREx_ControlVoltageScaling+0x130>
    }
    /* If current range is range 1 normal or boost mode */
    else
    {
      /* Enable Range 1 Boost (no issue if bit already reset) */
      CLEAR_BIT(PWR->CR5, PWR_CR5_R1MODE);
 80014d0:	4b2e      	ldr	r3, [pc, #184]	; (800158c <HAL_PWREx_ControlVoltageScaling+0x13c>)
 80014d2:	f8d3 3080 	ldr.w	r3, [r3, #128]	; 0x80
 80014d6:	4a2d      	ldr	r2, [pc, #180]	; (800158c <HAL_PWREx_ControlVoltageScaling+0x13c>)
 80014d8:	f423 7380 	bic.w	r3, r3, #256	; 0x100
 80014dc:	f8c2 3080 	str.w	r3, [r2, #128]	; 0x80
 80014e0:	e04d      	b.n	800157e <HAL_PWREx_ControlVoltageScaling+0x12e>
    }
  }
  else if (VoltageScaling == PWR_REGULATOR_VOLTAGE_SCALE1)
 80014e2:	687b      	ldr	r3, [r7, #4]
 80014e4:	f5b3 7f00 	cmp.w	r3, #512	; 0x200
 80014e8:	d141      	bne.n	800156e <HAL_PWREx_ControlVoltageScaling+0x11e>
  {
    /* If current range is range 2 */
    if (READ_BIT(PWR->CR1, PWR_CR1_VOS) == PWR_REGULATOR_VOLTAGE_SCALE2)
 80014ea:	4b28      	ldr	r3, [pc, #160]	; (800158c <HAL_PWREx_ControlVoltageScaling+0x13c>)
 80014ec:	681b      	ldr	r3, [r3, #0]
 80014ee:	f403 63c0 	and.w	r3, r3, #1536	; 0x600
 80014f2:	f5b3 6f80 	cmp.w	r3, #1024	; 0x400
 80014f6:	d131      	bne.n	800155c <HAL_PWREx_ControlVoltageScaling+0x10c>
    {
      /* Make sure Range 1 Boost is disabled */
      SET_BIT(PWR->CR5, PWR_CR5_R1MODE);
 80014f8:	4b24      	ldr	r3, [pc, #144]	; (800158c <HAL_PWREx_ControlVoltageScaling+0x13c>)
 80014fa:	f8d3 3080 	ldr.w	r3, [r3, #128]	; 0x80
 80014fe:	4a23      	ldr	r2, [pc, #140]	; (800158c <HAL_PWREx_ControlVoltageScaling+0x13c>)
 8001500:	f443 7380 	orr.w	r3, r3, #256	; 0x100
 8001504:	f8c2 3080 	str.w	r3, [r2, #128]	; 0x80

      /* Set Range 1 */
      MODIFY_REG(PWR->CR1, PWR_CR1_VOS, PWR_REGULATOR_VOLTAGE_SCALE1);
 8001508:	4b20      	ldr	r3, [pc, #128]	; (800158c <HAL_PWREx_ControlVoltageScaling+0x13c>)
 800150a:	681b      	ldr	r3, [r3, #0]
 800150c:	f423 63c0 	bic.w	r3, r3, #1536	; 0x600
 8001510:	4a1e      	ldr	r2, [pc, #120]	; (800158c <HAL_PWREx_ControlVoltageScaling+0x13c>)
 8001512:	f443 7300 	orr.w	r3, r3, #512	; 0x200
 8001516:	6013      	str	r3, [r2, #0]

      /* Wait until VOSF is cleared */
      wait_loop_index = ((PWR_FLAG_SETTING_DELAY_US * SystemCoreClock) / 1000000U) + 1U;
 8001518:	4b1d      	ldr	r3, [pc, #116]	; (8001590 <HAL_PWREx_ControlVoltageScaling+0x140>)
 800151a:	681b      	ldr	r3, [r3, #0]
 800151c:	2232      	movs	r2, #50	; 0x32
 800151e:	fb02 f303 	mul.w	r3, r2, r3
 8001522:	4a1c      	ldr	r2, [pc, #112]	; (8001594 <HAL_PWREx_ControlVoltageScaling+0x144>)
 8001524:	fba2 2303 	umull	r2, r3, r2, r3
 8001528:	0c9b      	lsrs	r3, r3, #18
 800152a:	3301      	adds	r3, #1
 800152c:	60fb      	str	r3, [r7, #12]
      while ((HAL_IS_BIT_SET(PWR->SR2, PWR_SR2_VOSF)) && (wait_loop_index != 0U))
 800152e:	e002      	b.n	8001536 <HAL_PWREx_ControlVoltageScaling+0xe6>
      {
        wait_loop_index--;
 8001530:	68fb      	ldr	r3, [r7, #12]
 8001532:	3b01      	subs	r3, #1
 8001534:	60fb      	str	r3, [r7, #12]
      while ((HAL_IS_BIT_SET(PWR->SR2, PWR_SR2_VOSF)) && (wait_loop_index != 0U))
 8001536:	4b15      	ldr	r3, [pc, #84]	; (800158c <HAL_PWREx_ControlVoltageScaling+0x13c>)
 8001538:	695b      	ldr	r3, [r3, #20]
 800153a:	f403 6380 	and.w	r3, r3, #1024	; 0x400
 800153e:	f5b3 6f80 	cmp.w	r3, #1024	; 0x400
 8001542:	d102      	bne.n	800154a <HAL_PWREx_ControlVoltageScaling+0xfa>
 8001544:	68fb      	ldr	r3, [r7, #12]
 8001546:	2b00      	cmp	r3, #0
 8001548:	d1f2      	bne.n	8001530 <HAL_PWREx_ControlVoltageScaling+0xe0>
      }
      if (HAL_IS_BIT_SET(PWR->SR2, PWR_SR2_VOSF))
 800154a:	4b10      	ldr	r3, [pc, #64]	; (800158c <HAL_PWREx_ControlVoltageScaling+0x13c>)
 800154c:	695b      	ldr	r3, [r3, #20]
 800154e:	f403 6380 	and.w	r3, r3, #1024	; 0x400
 8001552:	f5b3 6f80 	cmp.w	r3, #1024	; 0x400
 8001556:	d112      	bne.n	800157e <HAL_PWREx_ControlVoltageScaling+0x12e>
      {
        return HAL_TIMEOUT;
 8001558:	2303      	movs	r3, #3
 800155a:	e011      	b.n	8001580 <HAL_PWREx_ControlVoltageScaling+0x130>
    }
     /* If current range is range 1 normal or boost mode */
    else
    {
      /* Disable Range 1 Boost (no issue if bit already set) */
      SET_BIT(PWR->CR5, PWR_CR5_R1MODE);
 800155c:	4b0b      	ldr	r3, [pc, #44]	; (800158c <HAL_PWREx_ControlVoltageScaling+0x13c>)
 800155e:	f8d3 3080 	ldr.w	r3, [r3, #128]	; 0x80
 8001562:	4a0a      	ldr	r2, [pc, #40]	; (800158c <HAL_PWREx_ControlVoltageScaling+0x13c>)
 8001564:	f443 7380 	orr.w	r3, r3, #256	; 0x100
 8001568:	f8c2 3080 	str.w	r3, [r2, #128]	; 0x80
 800156c:	e007      	b.n	800157e <HAL_PWREx_ControlVoltageScaling+0x12e>
    }
  }
  else
  {
    /* Set Range 2 */
    MODIFY_REG(PWR->CR1, PWR_CR1_VOS, PWR_REGULATOR_VOLTAGE_SCALE2);
 800156e:	4b07      	ldr	r3, [pc, #28]	; (800158c <HAL_PWREx_ControlVoltageScaling+0x13c>)
 8001570:	681b      	ldr	r3, [r3, #0]
 8001572:	f423 63c0 	bic.w	r3, r3, #1536	; 0x600
 8001576:	4a05      	ldr	r2, [pc, #20]	; (800158c <HAL_PWREx_ControlVoltageScaling+0x13c>)
 8001578:	f443 6380 	orr.w	r3, r3, #1024	; 0x400
 800157c:	6013      	str	r3, [r2, #0]
    /* No need to wait for VOSF to be cleared for this transition */
    /* PWR_CR5_R1MODE bit setting has no effect in Range 2        */
  }

  return HAL_OK;
 800157e:	2300      	movs	r3, #0
}
 8001580:	4618      	mov	r0, r3
 8001582:	3714      	adds	r7, #20
 8001584:	46bd      	mov	sp, r7
 8001586:	f85d 7b04 	ldr.w	r7, [sp], #4
 800158a:	4770      	bx	lr
 800158c:	40007000 	.word	0x40007000
 8001590:	20000004 	.word	0x20000004
 8001594:	431bde83 	.word	0x431bde83

08001598 <HAL_RCC_OscConfig>:
  *         supported by this macro. User should request a transition to HSE Off
  *         first and then HSE On or HSE Bypass.
  * @retval HAL status
  */
HAL_StatusTypeDef HAL_RCC_OscConfig(RCC_OscInitTypeDef  *RCC_OscInitStruct)
{
 8001598:	b580      	push	{r7, lr}
 800159a:	b088      	sub	sp, #32
 800159c:	af00      	add	r7, sp, #0
 800159e:	6078      	str	r0, [r7, #4]
  uint32_t tickstart;
  uint32_t temp_sysclksrc;
  uint32_t temp_pllckcfg;

  /* Check Null pointer */
  if (RCC_OscInitStruct == NULL)
 80015a0:	687b      	ldr	r3, [r7, #4]
 80015a2:	2b00      	cmp	r3, #0
 80015a4:	d101      	bne.n	80015aa <HAL_RCC_OscConfig+0x12>
  {
    return HAL_ERROR;
 80015a6:	2301      	movs	r3, #1
 80015a8:	e308      	b.n	8001bbc <HAL_RCC_OscConfig+0x624>

  /* Check the parameters */
  assert_param(IS_RCC_OSCILLATORTYPE(RCC_OscInitStruct->OscillatorType));

  /*------------------------------- HSE Configuration ------------------------*/
  if (((RCC_OscInitStruct->OscillatorType) & RCC_OSCILLATORTYPE_HSE) == RCC_OSCILLATORTYPE_HSE)
 80015aa:	687b      	ldr	r3, [r7, #4]
 80015ac:	681b      	ldr	r3, [r3, #0]
 80015ae:	f003 0301 	and.w	r3, r3, #1
 80015b2:	2b00      	cmp	r3, #0
 80015b4:	d075      	beq.n	80016a2 <HAL_RCC_OscConfig+0x10a>
  {
    /* Check the parameters */
    assert_param(IS_RCC_HSE(RCC_OscInitStruct->HSEState));

    temp_sysclksrc = __HAL_RCC_GET_SYSCLK_SOURCE();
 80015b6:	4ba3      	ldr	r3, [pc, #652]	; (8001844 <HAL_RCC_OscConfig+0x2ac>)
 80015b8:	689b      	ldr	r3, [r3, #8]
 80015ba:	f003 030c 	and.w	r3, r3, #12
 80015be:	61bb      	str	r3, [r7, #24]
    temp_pllckcfg = __HAL_RCC_GET_PLL_OSCSOURCE();
 80015c0:	4ba0      	ldr	r3, [pc, #640]	; (8001844 <HAL_RCC_OscConfig+0x2ac>)
 80015c2:	68db      	ldr	r3, [r3, #12]
 80015c4:	f003 0303 	and.w	r3, r3, #3
 80015c8:	617b      	str	r3, [r7, #20]

    /* When the HSE is used as system clock or clock source for PLL in these cases it is not allowed to be disabled */
    if (((temp_sysclksrc == RCC_CFGR_SWS_PLL) && (temp_pllckcfg == RCC_PLLSOURCE_HSE)) || (temp_sysclksrc == RCC_CFGR_SWS_HSE))
 80015ca:	69bb      	ldr	r3, [r7, #24]
 80015cc:	2b0c      	cmp	r3, #12
 80015ce:	d102      	bne.n	80015d6 <HAL_RCC_OscConfig+0x3e>
 80015d0:	697b      	ldr	r3, [r7, #20]
 80015d2:	2b03      	cmp	r3, #3
 80015d4:	d002      	beq.n	80015dc <HAL_RCC_OscConfig+0x44>
 80015d6:	69bb      	ldr	r3, [r7, #24]
 80015d8:	2b08      	cmp	r3, #8
 80015da:	d10b      	bne.n	80015f4 <HAL_RCC_OscConfig+0x5c>
    {
      if ((READ_BIT(RCC->CR, RCC_CR_HSERDY) != 0U) && (RCC_OscInitStruct->HSEState == RCC_HSE_OFF))
 80015dc:	4b99      	ldr	r3, [pc, #612]	; (8001844 <HAL_RCC_OscConfig+0x2ac>)
 80015de:	681b      	ldr	r3, [r3, #0]
 80015e0:	f403 3300 	and.w	r3, r3, #131072	; 0x20000
 80015e4:	2b00      	cmp	r3, #0
 80015e6:	d05b      	beq.n	80016a0 <HAL_RCC_OscConfig+0x108>
 80015e8:	687b      	ldr	r3, [r7, #4]
 80015ea:	685b      	ldr	r3, [r3, #4]
 80015ec:	2b00      	cmp	r3, #0
 80015ee:	d157      	bne.n	80016a0 <HAL_RCC_OscConfig+0x108>
      {
        return HAL_ERROR;
 80015f0:	2301      	movs	r3, #1
 80015f2:	e2e3      	b.n	8001bbc <HAL_RCC_OscConfig+0x624>
      }
    }
    else
    {
      /* Set the new HSE configuration ---------------------------------------*/
      __HAL_RCC_HSE_CONFIG(RCC_OscInitStruct->HSEState);
 80015f4:	687b      	ldr	r3, [r7, #4]
 80015f6:	685b      	ldr	r3, [r3, #4]
 80015f8:	f5b3 3f80 	cmp.w	r3, #65536	; 0x10000
 80015fc:	d106      	bne.n	800160c <HAL_RCC_OscConfig+0x74>
 80015fe:	4b91      	ldr	r3, [pc, #580]	; (8001844 <HAL_RCC_OscConfig+0x2ac>)
 8001600:	681b      	ldr	r3, [r3, #0]
 8001602:	4a90      	ldr	r2, [pc, #576]	; (8001844 <HAL_RCC_OscConfig+0x2ac>)
 8001604:	f443 3380 	orr.w	r3, r3, #65536	; 0x10000
 8001608:	6013      	str	r3, [r2, #0]
 800160a:	e01d      	b.n	8001648 <HAL_RCC_OscConfig+0xb0>
 800160c:	687b      	ldr	r3, [r7, #4]
 800160e:	685b      	ldr	r3, [r3, #4]
 8001610:	f5b3 2fa0 	cmp.w	r3, #327680	; 0x50000
 8001614:	d10c      	bne.n	8001630 <HAL_RCC_OscConfig+0x98>
 8001616:	4b8b      	ldr	r3, [pc, #556]	; (8001844 <HAL_RCC_OscConfig+0x2ac>)
 8001618:	681b      	ldr	r3, [r3, #0]
 800161a:	4a8a      	ldr	r2, [pc, #552]	; (8001844 <HAL_RCC_OscConfig+0x2ac>)
 800161c:	f443 2380 	orr.w	r3, r3, #262144	; 0x40000
 8001620:	6013      	str	r3, [r2, #0]
 8001622:	4b88      	ldr	r3, [pc, #544]	; (8001844 <HAL_RCC_OscConfig+0x2ac>)
 8001624:	681b      	ldr	r3, [r3, #0]
 8001626:	4a87      	ldr	r2, [pc, #540]	; (8001844 <HAL_RCC_OscConfig+0x2ac>)
 8001628:	f443 3380 	orr.w	r3, r3, #65536	; 0x10000
 800162c:	6013      	str	r3, [r2, #0]
 800162e:	e00b      	b.n	8001648 <HAL_RCC_OscConfig+0xb0>
 8001630:	4b84      	ldr	r3, [pc, #528]	; (8001844 <HAL_RCC_OscConfig+0x2ac>)
 8001632:	681b      	ldr	r3, [r3, #0]
 8001634:	4a83      	ldr	r2, [pc, #524]	; (8001844 <HAL_RCC_OscConfig+0x2ac>)
 8001636:	f423 3380 	bic.w	r3, r3, #65536	; 0x10000
 800163a:	6013      	str	r3, [r2, #0]
 800163c:	4b81      	ldr	r3, [pc, #516]	; (8001844 <HAL_RCC_OscConfig+0x2ac>)
 800163e:	681b      	ldr	r3, [r3, #0]
 8001640:	4a80      	ldr	r2, [pc, #512]	; (8001844 <HAL_RCC_OscConfig+0x2ac>)
 8001642:	f423 2380 	bic.w	r3, r3, #262144	; 0x40000
 8001646:	6013      	str	r3, [r2, #0]

      /* Check the HSE State */
      if (RCC_OscInitStruct->HSEState != RCC_HSE_OFF)
 8001648:	687b      	ldr	r3, [r7, #4]
 800164a:	685b      	ldr	r3, [r3, #4]
 800164c:	2b00      	cmp	r3, #0
 800164e:	d013      	beq.n	8001678 <HAL_RCC_OscConfig+0xe0>
      {
        /* Get Start Tick*/
        tickstart = HAL_GetTick();
 8001650:	f7ff f9d2 	bl	80009f8 <HAL_GetTick>
 8001654:	6138      	str	r0, [r7, #16]

        /* Wait till HSE is ready */
        while (READ_BIT(RCC->CR, RCC_CR_HSERDY) == 0U)
 8001656:	e008      	b.n	800166a <HAL_RCC_OscConfig+0xd2>
        {
          if ((HAL_GetTick() - tickstart) > HSE_TIMEOUT_VALUE)
 8001658:	f7ff f9ce 	bl	80009f8 <HAL_GetTick>
 800165c:	4602      	mov	r2, r0
 800165e:	693b      	ldr	r3, [r7, #16]
 8001660:	1ad3      	subs	r3, r2, r3
 8001662:	2b64      	cmp	r3, #100	; 0x64
 8001664:	d901      	bls.n	800166a <HAL_RCC_OscConfig+0xd2>
          {
            return HAL_TIMEOUT;
 8001666:	2303      	movs	r3, #3
 8001668:	e2a8      	b.n	8001bbc <HAL_RCC_OscConfig+0x624>
        while (READ_BIT(RCC->CR, RCC_CR_HSERDY) == 0U)
 800166a:	4b76      	ldr	r3, [pc, #472]	; (8001844 <HAL_RCC_OscConfig+0x2ac>)
 800166c:	681b      	ldr	r3, [r3, #0]
 800166e:	f403 3300 	and.w	r3, r3, #131072	; 0x20000
 8001672:	2b00      	cmp	r3, #0
 8001674:	d0f0      	beq.n	8001658 <HAL_RCC_OscConfig+0xc0>
 8001676:	e014      	b.n	80016a2 <HAL_RCC_OscConfig+0x10a>
        }
      }
      else
      {
        /* Get Start Tick*/
        tickstart = HAL_GetTick();
 8001678:	f7ff f9be 	bl	80009f8 <HAL_GetTick>
 800167c:	6138      	str	r0, [r7, #16]

        /* Wait till HSE is disabled */
        while (READ_BIT(RCC->CR, RCC_CR_HSERDY) != 0U)
 800167e:	e008      	b.n	8001692 <HAL_RCC_OscConfig+0xfa>
        {
          if ((HAL_GetTick() - tickstart) > HSE_TIMEOUT_VALUE)
 8001680:	f7ff f9ba 	bl	80009f8 <HAL_GetTick>
 8001684:	4602      	mov	r2, r0
 8001686:	693b      	ldr	r3, [r7, #16]
 8001688:	1ad3      	subs	r3, r2, r3
 800168a:	2b64      	cmp	r3, #100	; 0x64
 800168c:	d901      	bls.n	8001692 <HAL_RCC_OscConfig+0xfa>
          {
            return HAL_TIMEOUT;
 800168e:	2303      	movs	r3, #3
 8001690:	e294      	b.n	8001bbc <HAL_RCC_OscConfig+0x624>
        while (READ_BIT(RCC->CR, RCC_CR_HSERDY) != 0U)
 8001692:	4b6c      	ldr	r3, [pc, #432]	; (8001844 <HAL_RCC_OscConfig+0x2ac>)
 8001694:	681b      	ldr	r3, [r3, #0]
 8001696:	f403 3300 	and.w	r3, r3, #131072	; 0x20000
 800169a:	2b00      	cmp	r3, #0
 800169c:	d1f0      	bne.n	8001680 <HAL_RCC_OscConfig+0xe8>
 800169e:	e000      	b.n	80016a2 <HAL_RCC_OscConfig+0x10a>
      if ((READ_BIT(RCC->CR, RCC_CR_HSERDY) != 0U) && (RCC_OscInitStruct->HSEState == RCC_HSE_OFF))
 80016a0:	bf00      	nop
        }
      }
    }
  }
  /*----------------------------- HSI Configuration --------------------------*/
  if (((RCC_OscInitStruct->OscillatorType) & RCC_OSCILLATORTYPE_HSI) == RCC_OSCILLATORTYPE_HSI)
 80016a2:	687b      	ldr	r3, [r7, #4]
 80016a4:	681b      	ldr	r3, [r3, #0]
 80016a6:	f003 0302 	and.w	r3, r3, #2
 80016aa:	2b00      	cmp	r3, #0
 80016ac:	d075      	beq.n	800179a <HAL_RCC_OscConfig+0x202>
    /* Check the parameters */
    assert_param(IS_RCC_HSI(RCC_OscInitStruct->HSIState));
    assert_param(IS_RCC_HSI_CALIBRATION_VALUE(RCC_OscInitStruct->HSICalibrationValue));

    /* Check if HSI is used as system clock or as PLL source when PLL is selected as system clock */
    temp_sysclksrc = __HAL_RCC_GET_SYSCLK_SOURCE();
 80016ae:	4b65      	ldr	r3, [pc, #404]	; (8001844 <HAL_RCC_OscConfig+0x2ac>)
 80016b0:	689b      	ldr	r3, [r3, #8]
 80016b2:	f003 030c 	and.w	r3, r3, #12
 80016b6:	61bb      	str	r3, [r7, #24]
    temp_pllckcfg = __HAL_RCC_GET_PLL_OSCSOURCE();
 80016b8:	4b62      	ldr	r3, [pc, #392]	; (8001844 <HAL_RCC_OscConfig+0x2ac>)
 80016ba:	68db      	ldr	r3, [r3, #12]
 80016bc:	f003 0303 	and.w	r3, r3, #3
 80016c0:	617b      	str	r3, [r7, #20]
    if (((temp_sysclksrc == RCC_CFGR_SWS_PLL) && (temp_pllckcfg == RCC_PLLSOURCE_HSI)) || (temp_sysclksrc == RCC_CFGR_SWS_HSI))
 80016c2:	69bb      	ldr	r3, [r7, #24]
 80016c4:	2b0c      	cmp	r3, #12
 80016c6:	d102      	bne.n	80016ce <HAL_RCC_OscConfig+0x136>
 80016c8:	697b      	ldr	r3, [r7, #20]
 80016ca:	2b02      	cmp	r3, #2
 80016cc:	d002      	beq.n	80016d4 <HAL_RCC_OscConfig+0x13c>
 80016ce:	69bb      	ldr	r3, [r7, #24]
 80016d0:	2b04      	cmp	r3, #4
 80016d2:	d11f      	bne.n	8001714 <HAL_RCC_OscConfig+0x17c>
    {
      /* When HSI is used as system clock it will not be disabled */
      if ((READ_BIT(RCC->CR, RCC_CR_HSIRDY) != 0U) && (RCC_OscInitStruct->HSIState == RCC_HSI_OFF))
 80016d4:	4b5b      	ldr	r3, [pc, #364]	; (8001844 <HAL_RCC_OscConfig+0x2ac>)
 80016d6:	681b      	ldr	r3, [r3, #0]
 80016d8:	f403 6380 	and.w	r3, r3, #1024	; 0x400
 80016dc:	2b00      	cmp	r3, #0
 80016de:	d005      	beq.n	80016ec <HAL_RCC_OscConfig+0x154>
 80016e0:	687b      	ldr	r3, [r7, #4]
 80016e2:	68db      	ldr	r3, [r3, #12]
 80016e4:	2b00      	cmp	r3, #0
 80016e6:	d101      	bne.n	80016ec <HAL_RCC_OscConfig+0x154>
      {
        return HAL_ERROR;
 80016e8:	2301      	movs	r3, #1
 80016ea:	e267      	b.n	8001bbc <HAL_RCC_OscConfig+0x624>
      }
      /* Otherwise, just the calibration is allowed */
      else
      {
        /* Adjusts the Internal High Speed oscillator (HSI) calibration value.*/
        __HAL_RCC_HSI_CALIBRATIONVALUE_ADJUST(RCC_OscInitStruct->HSICalibrationValue);
 80016ec:	4b55      	ldr	r3, [pc, #340]	; (8001844 <HAL_RCC_OscConfig+0x2ac>)
 80016ee:	685b      	ldr	r3, [r3, #4]
 80016f0:	f023 42fe 	bic.w	r2, r3, #2130706432	; 0x7f000000
 80016f4:	687b      	ldr	r3, [r7, #4]
 80016f6:	691b      	ldr	r3, [r3, #16]
 80016f8:	061b      	lsls	r3, r3, #24
 80016fa:	4952      	ldr	r1, [pc, #328]	; (8001844 <HAL_RCC_OscConfig+0x2ac>)
 80016fc:	4313      	orrs	r3, r2
 80016fe:	604b      	str	r3, [r1, #4]

        /* Adapt Systick interrupt period */
        if (HAL_InitTick(uwTickPrio) != HAL_OK)
 8001700:	4b51      	ldr	r3, [pc, #324]	; (8001848 <HAL_RCC_OscConfig+0x2b0>)
 8001702:	681b      	ldr	r3, [r3, #0]
 8001704:	4618      	mov	r0, r3
 8001706:	f7ff f92b 	bl	8000960 <HAL_InitTick>
 800170a:	4603      	mov	r3, r0
 800170c:	2b00      	cmp	r3, #0
 800170e:	d043      	beq.n	8001798 <HAL_RCC_OscConfig+0x200>
        {
          return HAL_ERROR;
 8001710:	2301      	movs	r3, #1
 8001712:	e253      	b.n	8001bbc <HAL_RCC_OscConfig+0x624>
      }
    }
    else
    {
      /* Check the HSI State */
      if (RCC_OscInitStruct->HSIState != RCC_HSI_OFF)
 8001714:	687b      	ldr	r3, [r7, #4]
 8001716:	68db      	ldr	r3, [r3, #12]
 8001718:	2b00      	cmp	r3, #0
 800171a:	d023      	beq.n	8001764 <HAL_RCC_OscConfig+0x1cc>
      {
        /* Enable the Internal High Speed oscillator (HSI). */
        __HAL_RCC_HSI_ENABLE();
 800171c:	4b49      	ldr	r3, [pc, #292]	; (8001844 <HAL_RCC_OscConfig+0x2ac>)
 800171e:	681b      	ldr	r3, [r3, #0]
 8001720:	4a48      	ldr	r2, [pc, #288]	; (8001844 <HAL_RCC_OscConfig+0x2ac>)
 8001722:	f443 7380 	orr.w	r3, r3, #256	; 0x100
 8001726:	6013      	str	r3, [r2, #0]

        /* Get Start Tick*/
        tickstart = HAL_GetTick();
 8001728:	f7ff f966 	bl	80009f8 <HAL_GetTick>
 800172c:	6138      	str	r0, [r7, #16]

        /* Wait till HSI is ready */
        while (READ_BIT(RCC->CR, RCC_CR_HSIRDY) == 0U)
 800172e:	e008      	b.n	8001742 <HAL_RCC_OscConfig+0x1aa>
        {
          if ((HAL_GetTick() - tickstart) > HSI_TIMEOUT_VALUE)
 8001730:	f7ff f962 	bl	80009f8 <HAL_GetTick>
 8001734:	4602      	mov	r2, r0
 8001736:	693b      	ldr	r3, [r7, #16]
 8001738:	1ad3      	subs	r3, r2, r3
 800173a:	2b02      	cmp	r3, #2
 800173c:	d901      	bls.n	8001742 <HAL_RCC_OscConfig+0x1aa>
          {
            return HAL_TIMEOUT;
 800173e:	2303      	movs	r3, #3
 8001740:	e23c      	b.n	8001bbc <HAL_RCC_OscConfig+0x624>
        while (READ_BIT(RCC->CR, RCC_CR_HSIRDY) == 0U)
 8001742:	4b40      	ldr	r3, [pc, #256]	; (8001844 <HAL_RCC_OscConfig+0x2ac>)
 8001744:	681b      	ldr	r3, [r3, #0]
 8001746:	f403 6380 	and.w	r3, r3, #1024	; 0x400
 800174a:	2b00      	cmp	r3, #0
 800174c:	d0f0      	beq.n	8001730 <HAL_RCC_OscConfig+0x198>
          }
        }

        /* Adjusts the Internal High Speed oscillator (HSI) calibration value.*/
        __HAL_RCC_HSI_CALIBRATIONVALUE_ADJUST(RCC_OscInitStruct->HSICalibrationValue);
 800174e:	4b3d      	ldr	r3, [pc, #244]	; (8001844 <HAL_RCC_OscConfig+0x2ac>)
 8001750:	685b      	ldr	r3, [r3, #4]
 8001752:	f023 42fe 	bic.w	r2, r3, #2130706432	; 0x7f000000
 8001756:	687b      	ldr	r3, [r7, #4]
 8001758:	691b      	ldr	r3, [r3, #16]
 800175a:	061b      	lsls	r3, r3, #24
 800175c:	4939      	ldr	r1, [pc, #228]	; (8001844 <HAL_RCC_OscConfig+0x2ac>)
 800175e:	4313      	orrs	r3, r2
 8001760:	604b      	str	r3, [r1, #4]
 8001762:	e01a      	b.n	800179a <HAL_RCC_OscConfig+0x202>
      }
      else
      {
        /* Disable the Internal High Speed oscillator (HSI). */
        __HAL_RCC_HSI_DISABLE();
 8001764:	4b37      	ldr	r3, [pc, #220]	; (8001844 <HAL_RCC_OscConfig+0x2ac>)
 8001766:	681b      	ldr	r3, [r3, #0]
 8001768:	4a36      	ldr	r2, [pc, #216]	; (8001844 <HAL_RCC_OscConfig+0x2ac>)
 800176a:	f423 7380 	bic.w	r3, r3, #256	; 0x100
 800176e:	6013      	str	r3, [r2, #0]

        /* Get Start Tick*/
        tickstart = HAL_GetTick();
 8001770:	f7ff f942 	bl	80009f8 <HAL_GetTick>
 8001774:	6138      	str	r0, [r7, #16]

        /* Wait till HSI is disabled */
        while (READ_BIT(RCC->CR, RCC_CR_HSIRDY) != 0U)
 8001776:	e008      	b.n	800178a <HAL_RCC_OscConfig+0x1f2>
        {
          if ((HAL_GetTick() - tickstart) > HSI_TIMEOUT_VALUE)
 8001778:	f7ff f93e 	bl	80009f8 <HAL_GetTick>
 800177c:	4602      	mov	r2, r0
 800177e:	693b      	ldr	r3, [r7, #16]
 8001780:	1ad3      	subs	r3, r2, r3
 8001782:	2b02      	cmp	r3, #2
 8001784:	d901      	bls.n	800178a <HAL_RCC_OscConfig+0x1f2>
          {
            return HAL_TIMEOUT;
 8001786:	2303      	movs	r3, #3
 8001788:	e218      	b.n	8001bbc <HAL_RCC_OscConfig+0x624>
        while (READ_BIT(RCC->CR, RCC_CR_HSIRDY) != 0U)
 800178a:	4b2e      	ldr	r3, [pc, #184]	; (8001844 <HAL_RCC_OscConfig+0x2ac>)
 800178c:	681b      	ldr	r3, [r3, #0]
 800178e:	f403 6380 	and.w	r3, r3, #1024	; 0x400
 8001792:	2b00      	cmp	r3, #0
 8001794:	d1f0      	bne.n	8001778 <HAL_RCC_OscConfig+0x1e0>
 8001796:	e000      	b.n	800179a <HAL_RCC_OscConfig+0x202>
      if ((READ_BIT(RCC->CR, RCC_CR_HSIRDY) != 0U) && (RCC_OscInitStruct->HSIState == RCC_HSI_OFF))
 8001798:	bf00      	nop
        }
      }
    }
  }
  /*------------------------------ LSI Configuration -------------------------*/
  if (((RCC_OscInitStruct->OscillatorType) & RCC_OSCILLATORTYPE_LSI) == RCC_OSCILLATORTYPE_LSI)
 800179a:	687b      	ldr	r3, [r7, #4]
 800179c:	681b      	ldr	r3, [r3, #0]
 800179e:	f003 0308 	and.w	r3, r3, #8
 80017a2:	2b00      	cmp	r3, #0
 80017a4:	d03c      	beq.n	8001820 <HAL_RCC_OscConfig+0x288>
  {
    /* Check the parameters */
    assert_param(IS_RCC_LSI(RCC_OscInitStruct->LSIState));

    /* Check the LSI State */
    if(RCC_OscInitStruct->LSIState != RCC_LSI_OFF)
 80017a6:	687b      	ldr	r3, [r7, #4]
 80017a8:	695b      	ldr	r3, [r3, #20]
 80017aa:	2b00      	cmp	r3, #0
 80017ac:	d01c      	beq.n	80017e8 <HAL_RCC_OscConfig+0x250>
    {
      /* Enable the Internal Low Speed oscillator (LSI). */
      __HAL_RCC_LSI_ENABLE();
 80017ae:	4b25      	ldr	r3, [pc, #148]	; (8001844 <HAL_RCC_OscConfig+0x2ac>)
 80017b0:	f8d3 3094 	ldr.w	r3, [r3, #148]	; 0x94
 80017b4:	4a23      	ldr	r2, [pc, #140]	; (8001844 <HAL_RCC_OscConfig+0x2ac>)
 80017b6:	f043 0301 	orr.w	r3, r3, #1
 80017ba:	f8c2 3094 	str.w	r3, [r2, #148]	; 0x94

      /* Get Start Tick*/
      tickstart = HAL_GetTick();
 80017be:	f7ff f91b 	bl	80009f8 <HAL_GetTick>
 80017c2:	6138      	str	r0, [r7, #16]

      /* Wait till LSI is ready */
      while (READ_BIT(RCC->CSR, RCC_CSR_LSIRDY) == 0U)
 80017c4:	e008      	b.n	80017d8 <HAL_RCC_OscConfig+0x240>
      {
        if ((HAL_GetTick() - tickstart) > LSI_TIMEOUT_VALUE)
 80017c6:	f7ff f917 	bl	80009f8 <HAL_GetTick>
 80017ca:	4602      	mov	r2, r0
 80017cc:	693b      	ldr	r3, [r7, #16]
 80017ce:	1ad3      	subs	r3, r2, r3
 80017d0:	2b02      	cmp	r3, #2
 80017d2:	d901      	bls.n	80017d8 <HAL_RCC_OscConfig+0x240>
        {
          return HAL_TIMEOUT;
 80017d4:	2303      	movs	r3, #3
 80017d6:	e1f1      	b.n	8001bbc <HAL_RCC_OscConfig+0x624>
      while (READ_BIT(RCC->CSR, RCC_CSR_LSIRDY) == 0U)
 80017d8:	4b1a      	ldr	r3, [pc, #104]	; (8001844 <HAL_RCC_OscConfig+0x2ac>)
 80017da:	f8d3 3094 	ldr.w	r3, [r3, #148]	; 0x94
 80017de:	f003 0302 	and.w	r3, r3, #2
 80017e2:	2b00      	cmp	r3, #0
 80017e4:	d0ef      	beq.n	80017c6 <HAL_RCC_OscConfig+0x22e>
 80017e6:	e01b      	b.n	8001820 <HAL_RCC_OscConfig+0x288>
      }
    }
    else
    {
      /* Disable the Internal Low Speed oscillator (LSI). */
      __HAL_RCC_LSI_DISABLE();
 80017e8:	4b16      	ldr	r3, [pc, #88]	; (8001844 <HAL_RCC_OscConfig+0x2ac>)
 80017ea:	f8d3 3094 	ldr.w	r3, [r3, #148]	; 0x94
 80017ee:	4a15      	ldr	r2, [pc, #84]	; (8001844 <HAL_RCC_OscConfig+0x2ac>)
 80017f0:	f023 0301 	bic.w	r3, r3, #1
 80017f4:	f8c2 3094 	str.w	r3, [r2, #148]	; 0x94

      /* Get Start Tick*/
      tickstart = HAL_GetTick();
 80017f8:	f7ff f8fe 	bl	80009f8 <HAL_GetTick>
 80017fc:	6138      	str	r0, [r7, #16]

      /* Wait till LSI is disabled */
      while(READ_BIT(RCC->CSR, RCC_CSR_LSIRDY) != 0U)
 80017fe:	e008      	b.n	8001812 <HAL_RCC_OscConfig+0x27a>
      {
        if((HAL_GetTick() - tickstart) > LSI_TIMEOUT_VALUE)
 8001800:	f7ff f8fa 	bl	80009f8 <HAL_GetTick>
 8001804:	4602      	mov	r2, r0
 8001806:	693b      	ldr	r3, [r7, #16]
 8001808:	1ad3      	subs	r3, r2, r3
 800180a:	2b02      	cmp	r3, #2
 800180c:	d901      	bls.n	8001812 <HAL_RCC_OscConfig+0x27a>
        {
          return HAL_TIMEOUT;
 800180e:	2303      	movs	r3, #3
 8001810:	e1d4      	b.n	8001bbc <HAL_RCC_OscConfig+0x624>
      while(READ_BIT(RCC->CSR, RCC_CSR_LSIRDY) != 0U)
 8001812:	4b0c      	ldr	r3, [pc, #48]	; (8001844 <HAL_RCC_OscConfig+0x2ac>)
 8001814:	f8d3 3094 	ldr.w	r3, [r3, #148]	; 0x94
 8001818:	f003 0302 	and.w	r3, r3, #2
 800181c:	2b00      	cmp	r3, #0
 800181e:	d1ef      	bne.n	8001800 <HAL_RCC_OscConfig+0x268>
        }
      }
    }
  }
  /*------------------------------ LSE Configuration -------------------------*/
  if (((RCC_OscInitStruct->OscillatorType) & RCC_OSCILLATORTYPE_LSE) == RCC_OSCILLATORTYPE_LSE)
 8001820:	687b      	ldr	r3, [r7, #4]
 8001822:	681b      	ldr	r3, [r3, #0]
 8001824:	f003 0304 	and.w	r3, r3, #4
 8001828:	2b00      	cmp	r3, #0
 800182a:	f000 80ab 	beq.w	8001984 <HAL_RCC_OscConfig+0x3ec>
  {
    FlagStatus       pwrclkchanged = RESET;
 800182e:	2300      	movs	r3, #0
 8001830:	77fb      	strb	r3, [r7, #31]
    /* Check the parameters */
    assert_param(IS_RCC_LSE(RCC_OscInitStruct->LSEState));

    /* Update LSE configuration in Backup Domain control register    */
    /* Requires to enable write access to Backup Domain if necessary */
    if (__HAL_RCC_PWR_IS_CLK_DISABLED() != 0U)
 8001832:	4b04      	ldr	r3, [pc, #16]	; (8001844 <HAL_RCC_OscConfig+0x2ac>)
 8001834:	6d9b      	ldr	r3, [r3, #88]	; 0x58
 8001836:	f003 5380 	and.w	r3, r3, #268435456	; 0x10000000
 800183a:	2b00      	cmp	r3, #0
 800183c:	d106      	bne.n	800184c <HAL_RCC_OscConfig+0x2b4>
 800183e:	2301      	movs	r3, #1
 8001840:	e005      	b.n	800184e <HAL_RCC_OscConfig+0x2b6>
 8001842:	bf00      	nop
 8001844:	40021000 	.word	0x40021000
 8001848:	20000008 	.word	0x20000008
 800184c:	2300      	movs	r3, #0
 800184e:	2b00      	cmp	r3, #0
 8001850:	d00d      	beq.n	800186e <HAL_RCC_OscConfig+0x2d6>
    {
      __HAL_RCC_PWR_CLK_ENABLE();
 8001852:	4baf      	ldr	r3, [pc, #700]	; (8001b10 <HAL_RCC_OscConfig+0x578>)
 8001854:	6d9b      	ldr	r3, [r3, #88]	; 0x58
 8001856:	4aae      	ldr	r2, [pc, #696]	; (8001b10 <HAL_RCC_OscConfig+0x578>)
 8001858:	f043 5380 	orr.w	r3, r3, #268435456	; 0x10000000
 800185c:	6593      	str	r3, [r2, #88]	; 0x58
 800185e:	4bac      	ldr	r3, [pc, #688]	; (8001b10 <HAL_RCC_OscConfig+0x578>)
 8001860:	6d9b      	ldr	r3, [r3, #88]	; 0x58
 8001862:	f003 5380 	and.w	r3, r3, #268435456	; 0x10000000
 8001866:	60fb      	str	r3, [r7, #12]
 8001868:	68fb      	ldr	r3, [r7, #12]
      pwrclkchanged = SET;
 800186a:	2301      	movs	r3, #1
 800186c:	77fb      	strb	r3, [r7, #31]
    }

    if (HAL_IS_BIT_CLR(PWR->CR1, PWR_CR1_DBP))
 800186e:	4ba9      	ldr	r3, [pc, #676]	; (8001b14 <HAL_RCC_OscConfig+0x57c>)
 8001870:	681b      	ldr	r3, [r3, #0]
 8001872:	f403 7380 	and.w	r3, r3, #256	; 0x100
 8001876:	2b00      	cmp	r3, #0
 8001878:	d118      	bne.n	80018ac <HAL_RCC_OscConfig+0x314>
    {
      /* Enable write access to Backup domain */
      SET_BIT(PWR->CR1, PWR_CR1_DBP);
 800187a:	4ba6      	ldr	r3, [pc, #664]	; (8001b14 <HAL_RCC_OscConfig+0x57c>)
 800187c:	681b      	ldr	r3, [r3, #0]
 800187e:	4aa5      	ldr	r2, [pc, #660]	; (8001b14 <HAL_RCC_OscConfig+0x57c>)
 8001880:	f443 7380 	orr.w	r3, r3, #256	; 0x100
 8001884:	6013      	str	r3, [r2, #0]

      /* Wait for Backup domain Write protection disable */
      tickstart = HAL_GetTick();
 8001886:	f7ff f8b7 	bl	80009f8 <HAL_GetTick>
 800188a:	6138      	str	r0, [r7, #16]

      while (HAL_IS_BIT_CLR(PWR->CR1, PWR_CR1_DBP))
 800188c:	e008      	b.n	80018a0 <HAL_RCC_OscConfig+0x308>
      {
        if ((HAL_GetTick() - tickstart) > RCC_DBP_TIMEOUT_VALUE)
 800188e:	f7ff f8b3 	bl	80009f8 <HAL_GetTick>
 8001892:	4602      	mov	r2, r0
 8001894:	693b      	ldr	r3, [r7, #16]
 8001896:	1ad3      	subs	r3, r2, r3
 8001898:	2b02      	cmp	r3, #2
 800189a:	d901      	bls.n	80018a0 <HAL_RCC_OscConfig+0x308>
        {
          return HAL_TIMEOUT;
 800189c:	2303      	movs	r3, #3
 800189e:	e18d      	b.n	8001bbc <HAL_RCC_OscConfig+0x624>
      while (HAL_IS_BIT_CLR(PWR->CR1, PWR_CR1_DBP))
 80018a0:	4b9c      	ldr	r3, [pc, #624]	; (8001b14 <HAL_RCC_OscConfig+0x57c>)
 80018a2:	681b      	ldr	r3, [r3, #0]
 80018a4:	f403 7380 	and.w	r3, r3, #256	; 0x100
 80018a8:	2b00      	cmp	r3, #0
 80018aa:	d0f0      	beq.n	800188e <HAL_RCC_OscConfig+0x2f6>
        }
      }
    }

    /* Set the new LSE configuration -----------------------------------------*/
    __HAL_RCC_LSE_CONFIG(RCC_OscInitStruct->LSEState);
 80018ac:	687b      	ldr	r3, [r7, #4]
 80018ae:	689b      	ldr	r3, [r3, #8]
 80018b0:	2b01      	cmp	r3, #1
 80018b2:	d108      	bne.n	80018c6 <HAL_RCC_OscConfig+0x32e>
 80018b4:	4b96      	ldr	r3, [pc, #600]	; (8001b10 <HAL_RCC_OscConfig+0x578>)
 80018b6:	f8d3 3090 	ldr.w	r3, [r3, #144]	; 0x90
 80018ba:	4a95      	ldr	r2, [pc, #596]	; (8001b10 <HAL_RCC_OscConfig+0x578>)
 80018bc:	f043 0301 	orr.w	r3, r3, #1
 80018c0:	f8c2 3090 	str.w	r3, [r2, #144]	; 0x90
 80018c4:	e024      	b.n	8001910 <HAL_RCC_OscConfig+0x378>
 80018c6:	687b      	ldr	r3, [r7, #4]
 80018c8:	689b      	ldr	r3, [r3, #8]
 80018ca:	2b05      	cmp	r3, #5
 80018cc:	d110      	bne.n	80018f0 <HAL_RCC_OscConfig+0x358>
 80018ce:	4b90      	ldr	r3, [pc, #576]	; (8001b10 <HAL_RCC_OscConfig+0x578>)
 80018d0:	f8d3 3090 	ldr.w	r3, [r3, #144]	; 0x90
 80018d4:	4a8e      	ldr	r2, [pc, #568]	; (8001b10 <HAL_RCC_OscConfig+0x578>)
 80018d6:	f043 0304 	orr.w	r3, r3, #4
 80018da:	f8c2 3090 	str.w	r3, [r2, #144]	; 0x90
 80018de:	4b8c      	ldr	r3, [pc, #560]	; (8001b10 <HAL_RCC_OscConfig+0x578>)
 80018e0:	f8d3 3090 	ldr.w	r3, [r3, #144]	; 0x90
 80018e4:	4a8a      	ldr	r2, [pc, #552]	; (8001b10 <HAL_RCC_OscConfig+0x578>)
 80018e6:	f043 0301 	orr.w	r3, r3, #1
 80018ea:	f8c2 3090 	str.w	r3, [r2, #144]	; 0x90
 80018ee:	e00f      	b.n	8001910 <HAL_RCC_OscConfig+0x378>
 80018f0:	4b87      	ldr	r3, [pc, #540]	; (8001b10 <HAL_RCC_OscConfig+0x578>)
 80018f2:	f8d3 3090 	ldr.w	r3, [r3, #144]	; 0x90
 80018f6:	4a86      	ldr	r2, [pc, #536]	; (8001b10 <HAL_RCC_OscConfig+0x578>)
 80018f8:	f023 0301 	bic.w	r3, r3, #1
 80018fc:	f8c2 3090 	str.w	r3, [r2, #144]	; 0x90
 8001900:	4b83      	ldr	r3, [pc, #524]	; (8001b10 <HAL_RCC_OscConfig+0x578>)
 8001902:	f8d3 3090 	ldr.w	r3, [r3, #144]	; 0x90
 8001906:	4a82      	ldr	r2, [pc, #520]	; (8001b10 <HAL_RCC_OscConfig+0x578>)
 8001908:	f023 0304 	bic.w	r3, r3, #4
 800190c:	f8c2 3090 	str.w	r3, [r2, #144]	; 0x90

    /* Check the LSE State */
    if (RCC_OscInitStruct->LSEState != RCC_LSE_OFF)
 8001910:	687b      	ldr	r3, [r7, #4]
 8001912:	689b      	ldr	r3, [r3, #8]
 8001914:	2b00      	cmp	r3, #0
 8001916:	d016      	beq.n	8001946 <HAL_RCC_OscConfig+0x3ae>
    {
      /* Get Start Tick*/
      tickstart = HAL_GetTick();
 8001918:	f7ff f86e 	bl	80009f8 <HAL_GetTick>
 800191c:	6138      	str	r0, [r7, #16]

      /* Wait till LSE is ready */
      while (READ_BIT(RCC->BDCR, RCC_BDCR_LSERDY) == 0U)
 800191e:	e00a      	b.n	8001936 <HAL_RCC_OscConfig+0x39e>
      {
        if((HAL_GetTick() - tickstart) > RCC_LSE_TIMEOUT_VALUE)
 8001920:	f7ff f86a 	bl	80009f8 <HAL_GetTick>
 8001924:	4602      	mov	r2, r0
 8001926:	693b      	ldr	r3, [r7, #16]
 8001928:	1ad3      	subs	r3, r2, r3
 800192a:	f241 3288 	movw	r2, #5000	; 0x1388
 800192e:	4293      	cmp	r3, r2
 8001930:	d901      	bls.n	8001936 <HAL_RCC_OscConfig+0x39e>
        {
          return HAL_TIMEOUT;
 8001932:	2303      	movs	r3, #3
 8001934:	e142      	b.n	8001bbc <HAL_RCC_OscConfig+0x624>
      while (READ_BIT(RCC->BDCR, RCC_BDCR_LSERDY) == 0U)
 8001936:	4b76      	ldr	r3, [pc, #472]	; (8001b10 <HAL_RCC_OscConfig+0x578>)
 8001938:	f8d3 3090 	ldr.w	r3, [r3, #144]	; 0x90
 800193c:	f003 0302 	and.w	r3, r3, #2
 8001940:	2b00      	cmp	r3, #0
 8001942:	d0ed      	beq.n	8001920 <HAL_RCC_OscConfig+0x388>
 8001944:	e015      	b.n	8001972 <HAL_RCC_OscConfig+0x3da>
      }
    }
    else
    {
      /* Get Start Tick*/
      tickstart = HAL_GetTick();
 8001946:	f7ff f857 	bl	80009f8 <HAL_GetTick>
 800194a:	6138      	str	r0, [r7, #16]

      /* Wait till LSE is disabled */
      while (READ_BIT(RCC->BDCR, RCC_BDCR_LSERDY) != 0U)
 800194c:	e00a      	b.n	8001964 <HAL_RCC_OscConfig+0x3cc>
      {
        if((HAL_GetTick() - tickstart) > RCC_LSE_TIMEOUT_VALUE)
 800194e:	f7ff f853 	bl	80009f8 <HAL_GetTick>
 8001952:	4602      	mov	r2, r0
 8001954:	693b      	ldr	r3, [r7, #16]
 8001956:	1ad3      	subs	r3, r2, r3
 8001958:	f241 3288 	movw	r2, #5000	; 0x1388
 800195c:	4293      	cmp	r3, r2
 800195e:	d901      	bls.n	8001964 <HAL_RCC_OscConfig+0x3cc>
        {
          return HAL_TIMEOUT;
 8001960:	2303      	movs	r3, #3
 8001962:	e12b      	b.n	8001bbc <HAL_RCC_OscConfig+0x624>
      while (READ_BIT(RCC->BDCR, RCC_BDCR_LSERDY) != 0U)
 8001964:	4b6a      	ldr	r3, [pc, #424]	; (8001b10 <HAL_RCC_OscConfig+0x578>)
 8001966:	f8d3 3090 	ldr.w	r3, [r3, #144]	; 0x90
 800196a:	f003 0302 	and.w	r3, r3, #2
 800196e:	2b00      	cmp	r3, #0
 8001970:	d1ed      	bne.n	800194e <HAL_RCC_OscConfig+0x3b6>
        }
      }
    }

    /* Restore clock configuration if changed */
    if (pwrclkchanged == SET)
 8001972:	7ffb      	ldrb	r3, [r7, #31]
 8001974:	2b01      	cmp	r3, #1
 8001976:	d105      	bne.n	8001984 <HAL_RCC_OscConfig+0x3ec>
    {
      __HAL_RCC_PWR_CLK_DISABLE();
 8001978:	4b65      	ldr	r3, [pc, #404]	; (8001b10 <HAL_RCC_OscConfig+0x578>)
 800197a:	6d9b      	ldr	r3, [r3, #88]	; 0x58
 800197c:	4a64      	ldr	r2, [pc, #400]	; (8001b10 <HAL_RCC_OscConfig+0x578>)
 800197e:	f023 5380 	bic.w	r3, r3, #268435456	; 0x10000000
 8001982:	6593      	str	r3, [r2, #88]	; 0x58
    }
  }

  /*------------------------------ HSI48 Configuration -----------------------*/
  if(((RCC_OscInitStruct->OscillatorType) & RCC_OSCILLATORTYPE_HSI48) == RCC_OSCILLATORTYPE_HSI48)
 8001984:	687b      	ldr	r3, [r7, #4]
 8001986:	681b      	ldr	r3, [r3, #0]
 8001988:	f003 0320 	and.w	r3, r3, #32
 800198c:	2b00      	cmp	r3, #0
 800198e:	d03c      	beq.n	8001a0a <HAL_RCC_OscConfig+0x472>
  {
    /* Check the parameters */
    assert_param(IS_RCC_HSI48(RCC_OscInitStruct->HSI48State));

    /* Check the HSI48 State */
    if(RCC_OscInitStruct->HSI48State != RCC_HSI48_OFF)
 8001990:	687b      	ldr	r3, [r7, #4]
 8001992:	699b      	ldr	r3, [r3, #24]
 8001994:	2b00      	cmp	r3, #0
 8001996:	d01c      	beq.n	80019d2 <HAL_RCC_OscConfig+0x43a>
    {
      /* Enable the Internal Low Speed oscillator (HSI48). */
      __HAL_RCC_HSI48_ENABLE();
 8001998:	4b5d      	ldr	r3, [pc, #372]	; (8001b10 <HAL_RCC_OscConfig+0x578>)
 800199a:	f8d3 3098 	ldr.w	r3, [r3, #152]	; 0x98
 800199e:	4a5c      	ldr	r2, [pc, #368]	; (8001b10 <HAL_RCC_OscConfig+0x578>)
 80019a0:	f043 0301 	orr.w	r3, r3, #1
 80019a4:	f8c2 3098 	str.w	r3, [r2, #152]	; 0x98

      /* Get Start Tick*/
      tickstart = HAL_GetTick();
 80019a8:	f7ff f826 	bl	80009f8 <HAL_GetTick>
 80019ac:	6138      	str	r0, [r7, #16]

      /* Wait till HSI48 is ready */
      while(READ_BIT(RCC->CRRCR, RCC_CRRCR_HSI48RDY) == 0U)
 80019ae:	e008      	b.n	80019c2 <HAL_RCC_OscConfig+0x42a>
      {
        if((HAL_GetTick() - tickstart) > HSI48_TIMEOUT_VALUE)
 80019b0:	f7ff f822 	bl	80009f8 <HAL_GetTick>
 80019b4:	4602      	mov	r2, r0
 80019b6:	693b      	ldr	r3, [r7, #16]
 80019b8:	1ad3      	subs	r3, r2, r3
 80019ba:	2b02      	cmp	r3, #2
 80019bc:	d901      	bls.n	80019c2 <HAL_RCC_OscConfig+0x42a>
        {
          return HAL_TIMEOUT;
 80019be:	2303      	movs	r3, #3
 80019c0:	e0fc      	b.n	8001bbc <HAL_RCC_OscConfig+0x624>
      while(READ_BIT(RCC->CRRCR, RCC_CRRCR_HSI48RDY) == 0U)
 80019c2:	4b53      	ldr	r3, [pc, #332]	; (8001b10 <HAL_RCC_OscConfig+0x578>)
 80019c4:	f8d3 3098 	ldr.w	r3, [r3, #152]	; 0x98
 80019c8:	f003 0302 	and.w	r3, r3, #2
 80019cc:	2b00      	cmp	r3, #0
 80019ce:	d0ef      	beq.n	80019b0 <HAL_RCC_OscConfig+0x418>
 80019d0:	e01b      	b.n	8001a0a <HAL_RCC_OscConfig+0x472>
      }
    }
    else
    {
      /* Disable the Internal Low Speed oscillator (HSI48). */
      __HAL_RCC_HSI48_DISABLE();
 80019d2:	4b4f      	ldr	r3, [pc, #316]	; (8001b10 <HAL_RCC_OscConfig+0x578>)
 80019d4:	f8d3 3098 	ldr.w	r3, [r3, #152]	; 0x98
 80019d8:	4a4d      	ldr	r2, [pc, #308]	; (8001b10 <HAL_RCC_OscConfig+0x578>)
 80019da:	f023 0301 	bic.w	r3, r3, #1
 80019de:	f8c2 3098 	str.w	r3, [r2, #152]	; 0x98

      /* Get Start Tick*/
      tickstart = HAL_GetTick();
 80019e2:	f7ff f809 	bl	80009f8 <HAL_GetTick>
 80019e6:	6138      	str	r0, [r7, #16]

      /* Wait till HSI48 is disabled */
      while(READ_BIT(RCC->CRRCR, RCC_CRRCR_HSI48RDY) != 0U)
 80019e8:	e008      	b.n	80019fc <HAL_RCC_OscConfig+0x464>
      {
        if((HAL_GetTick() - tickstart) > HSI48_TIMEOUT_VALUE)
 80019ea:	f7ff f805 	bl	80009f8 <HAL_GetTick>
 80019ee:	4602      	mov	r2, r0
 80019f0:	693b      	ldr	r3, [r7, #16]
 80019f2:	1ad3      	subs	r3, r2, r3
 80019f4:	2b02      	cmp	r3, #2
 80019f6:	d901      	bls.n	80019fc <HAL_RCC_OscConfig+0x464>
        {
          return HAL_TIMEOUT;
 80019f8:	2303      	movs	r3, #3
 80019fa:	e0df      	b.n	8001bbc <HAL_RCC_OscConfig+0x624>
      while(READ_BIT(RCC->CRRCR, RCC_CRRCR_HSI48RDY) != 0U)
 80019fc:	4b44      	ldr	r3, [pc, #272]	; (8001b10 <HAL_RCC_OscConfig+0x578>)
 80019fe:	f8d3 3098 	ldr.w	r3, [r3, #152]	; 0x98
 8001a02:	f003 0302 	and.w	r3, r3, #2
 8001a06:	2b00      	cmp	r3, #0
 8001a08:	d1ef      	bne.n	80019ea <HAL_RCC_OscConfig+0x452>

  /*-------------------------------- PLL Configuration -----------------------*/
  /* Check the parameters */
  assert_param(IS_RCC_PLL(RCC_OscInitStruct->PLL.PLLState));

  if (RCC_OscInitStruct->PLL.PLLState != RCC_PLL_NONE)
 8001a0a:	687b      	ldr	r3, [r7, #4]
 8001a0c:	69db      	ldr	r3, [r3, #28]
 8001a0e:	2b00      	cmp	r3, #0
 8001a10:	f000 80d3 	beq.w	8001bba <HAL_RCC_OscConfig+0x622>
  {
    /* Check if the PLL is used as system clock or not */
    if (__HAL_RCC_GET_SYSCLK_SOURCE() != RCC_CFGR_SWS_PLL)
 8001a14:	4b3e      	ldr	r3, [pc, #248]	; (8001b10 <HAL_RCC_OscConfig+0x578>)
 8001a16:	689b      	ldr	r3, [r3, #8]
 8001a18:	f003 030c 	and.w	r3, r3, #12
 8001a1c:	2b0c      	cmp	r3, #12
 8001a1e:	f000 808d 	beq.w	8001b3c <HAL_RCC_OscConfig+0x5a4>
    {
      if (RCC_OscInitStruct->PLL.PLLState == RCC_PLL_ON)
 8001a22:	687b      	ldr	r3, [r7, #4]
 8001a24:	69db      	ldr	r3, [r3, #28]
 8001a26:	2b02      	cmp	r3, #2
 8001a28:	d15a      	bne.n	8001ae0 <HAL_RCC_OscConfig+0x548>
        assert_param(IS_RCC_PLLP_VALUE(RCC_OscInitStruct->PLL.PLLP));
        assert_param(IS_RCC_PLLQ_VALUE(RCC_OscInitStruct->PLL.PLLQ));
        assert_param(IS_RCC_PLLR_VALUE(RCC_OscInitStruct->PLL.PLLR));

        /* Disable the main PLL. */
        __HAL_RCC_PLL_DISABLE();
 8001a2a:	4b39      	ldr	r3, [pc, #228]	; (8001b10 <HAL_RCC_OscConfig+0x578>)
 8001a2c:	681b      	ldr	r3, [r3, #0]
 8001a2e:	4a38      	ldr	r2, [pc, #224]	; (8001b10 <HAL_RCC_OscConfig+0x578>)
 8001a30:	f023 7380 	bic.w	r3, r3, #16777216	; 0x1000000
 8001a34:	6013      	str	r3, [r2, #0]

        /* Get Start Tick*/
        tickstart = HAL_GetTick();
 8001a36:	f7fe ffdf 	bl	80009f8 <HAL_GetTick>
 8001a3a:	6138      	str	r0, [r7, #16]

        /* Wait till PLL is ready */
        while (READ_BIT(RCC->CR, RCC_CR_PLLRDY) != 0U)
 8001a3c:	e008      	b.n	8001a50 <HAL_RCC_OscConfig+0x4b8>
        {
          if ((HAL_GetTick() - tickstart) > PLL_TIMEOUT_VALUE)
 8001a3e:	f7fe ffdb 	bl	80009f8 <HAL_GetTick>
 8001a42:	4602      	mov	r2, r0
 8001a44:	693b      	ldr	r3, [r7, #16]
 8001a46:	1ad3      	subs	r3, r2, r3
 8001a48:	2b02      	cmp	r3, #2
 8001a4a:	d901      	bls.n	8001a50 <HAL_RCC_OscConfig+0x4b8>
          {
            return HAL_TIMEOUT;
 8001a4c:	2303      	movs	r3, #3
 8001a4e:	e0b5      	b.n	8001bbc <HAL_RCC_OscConfig+0x624>
        while (READ_BIT(RCC->CR, RCC_CR_PLLRDY) != 0U)
 8001a50:	4b2f      	ldr	r3, [pc, #188]	; (8001b10 <HAL_RCC_OscConfig+0x578>)
 8001a52:	681b      	ldr	r3, [r3, #0]
 8001a54:	f003 7300 	and.w	r3, r3, #33554432	; 0x2000000
 8001a58:	2b00      	cmp	r3, #0
 8001a5a:	d1f0      	bne.n	8001a3e <HAL_RCC_OscConfig+0x4a6>
          }
        }

        /* Configure the main PLL clock source, multiplication and division factors. */
        __HAL_RCC_PLL_CONFIG(RCC_OscInitStruct->PLL.PLLSource,
 8001a5c:	4b2c      	ldr	r3, [pc, #176]	; (8001b10 <HAL_RCC_OscConfig+0x578>)
 8001a5e:	68da      	ldr	r2, [r3, #12]
 8001a60:	4b2d      	ldr	r3, [pc, #180]	; (8001b18 <HAL_RCC_OscConfig+0x580>)
 8001a62:	4013      	ands	r3, r2
 8001a64:	687a      	ldr	r2, [r7, #4]
 8001a66:	6a11      	ldr	r1, [r2, #32]
 8001a68:	687a      	ldr	r2, [r7, #4]
 8001a6a:	6a52      	ldr	r2, [r2, #36]	; 0x24
 8001a6c:	3a01      	subs	r2, #1
 8001a6e:	0112      	lsls	r2, r2, #4
 8001a70:	4311      	orrs	r1, r2
 8001a72:	687a      	ldr	r2, [r7, #4]
 8001a74:	6a92      	ldr	r2, [r2, #40]	; 0x28
 8001a76:	0212      	lsls	r2, r2, #8
 8001a78:	4311      	orrs	r1, r2
 8001a7a:	687a      	ldr	r2, [r7, #4]
 8001a7c:	6b12      	ldr	r2, [r2, #48]	; 0x30
 8001a7e:	0852      	lsrs	r2, r2, #1
 8001a80:	3a01      	subs	r2, #1
 8001a82:	0552      	lsls	r2, r2, #21
 8001a84:	4311      	orrs	r1, r2
 8001a86:	687a      	ldr	r2, [r7, #4]
 8001a88:	6b52      	ldr	r2, [r2, #52]	; 0x34
 8001a8a:	0852      	lsrs	r2, r2, #1
 8001a8c:	3a01      	subs	r2, #1
 8001a8e:	0652      	lsls	r2, r2, #25
 8001a90:	4311      	orrs	r1, r2
 8001a92:	687a      	ldr	r2, [r7, #4]
 8001a94:	6ad2      	ldr	r2, [r2, #44]	; 0x2c
 8001a96:	06d2      	lsls	r2, r2, #27
 8001a98:	430a      	orrs	r2, r1
 8001a9a:	491d      	ldr	r1, [pc, #116]	; (8001b10 <HAL_RCC_OscConfig+0x578>)
 8001a9c:	4313      	orrs	r3, r2
 8001a9e:	60cb      	str	r3, [r1, #12]
                             RCC_OscInitStruct->PLL.PLLP,
                             RCC_OscInitStruct->PLL.PLLQ,
                             RCC_OscInitStruct->PLL.PLLR);

        /* Enable the main PLL. */
        __HAL_RCC_PLL_ENABLE();
 8001aa0:	4b1b      	ldr	r3, [pc, #108]	; (8001b10 <HAL_RCC_OscConfig+0x578>)
 8001aa2:	681b      	ldr	r3, [r3, #0]
 8001aa4:	4a1a      	ldr	r2, [pc, #104]	; (8001b10 <HAL_RCC_OscConfig+0x578>)
 8001aa6:	f043 7380 	orr.w	r3, r3, #16777216	; 0x1000000
 8001aaa:	6013      	str	r3, [r2, #0]

        /* Enable PLL System Clock output. */
         __HAL_RCC_PLLCLKOUT_ENABLE(RCC_PLL_SYSCLK);
 8001aac:	4b18      	ldr	r3, [pc, #96]	; (8001b10 <HAL_RCC_OscConfig+0x578>)
 8001aae:	68db      	ldr	r3, [r3, #12]
 8001ab0:	4a17      	ldr	r2, [pc, #92]	; (8001b10 <HAL_RCC_OscConfig+0x578>)
 8001ab2:	f043 7380 	orr.w	r3, r3, #16777216	; 0x1000000
 8001ab6:	60d3      	str	r3, [r2, #12]

        /* Get Start Tick*/
        tickstart = HAL_GetTick();
 8001ab8:	f7fe ff9e 	bl	80009f8 <HAL_GetTick>
 8001abc:	6138      	str	r0, [r7, #16]

        /* Wait till PLL is ready */
        while (READ_BIT(RCC->CR, RCC_CR_PLLRDY) == 0U)
 8001abe:	e008      	b.n	8001ad2 <HAL_RCC_OscConfig+0x53a>
        {
          if ((HAL_GetTick() - tickstart) > PLL_TIMEOUT_VALUE)
 8001ac0:	f7fe ff9a 	bl	80009f8 <HAL_GetTick>
 8001ac4:	4602      	mov	r2, r0
 8001ac6:	693b      	ldr	r3, [r7, #16]
 8001ac8:	1ad3      	subs	r3, r2, r3
 8001aca:	2b02      	cmp	r3, #2
 8001acc:	d901      	bls.n	8001ad2 <HAL_RCC_OscConfig+0x53a>
          {
            return HAL_TIMEOUT;
 8001ace:	2303      	movs	r3, #3
 8001ad0:	e074      	b.n	8001bbc <HAL_RCC_OscConfig+0x624>
        while (READ_BIT(RCC->CR, RCC_CR_PLLRDY) == 0U)
 8001ad2:	4b0f      	ldr	r3, [pc, #60]	; (8001b10 <HAL_RCC_OscConfig+0x578>)
 8001ad4:	681b      	ldr	r3, [r3, #0]
 8001ad6:	f003 7300 	and.w	r3, r3, #33554432	; 0x2000000
 8001ada:	2b00      	cmp	r3, #0
 8001adc:	d0f0      	beq.n	8001ac0 <HAL_RCC_OscConfig+0x528>
 8001ade:	e06c      	b.n	8001bba <HAL_RCC_OscConfig+0x622>
        }
      }
      else
      {
        /* Disable the main PLL. */
        __HAL_RCC_PLL_DISABLE();
 8001ae0:	4b0b      	ldr	r3, [pc, #44]	; (8001b10 <HAL_RCC_OscConfig+0x578>)
 8001ae2:	681b      	ldr	r3, [r3, #0]
 8001ae4:	4a0a      	ldr	r2, [pc, #40]	; (8001b10 <HAL_RCC_OscConfig+0x578>)
 8001ae6:	f023 7380 	bic.w	r3, r3, #16777216	; 0x1000000
 8001aea:	6013      	str	r3, [r2, #0]

        /* Disable all PLL outputs to save power if no PLLs on */
          MODIFY_REG(RCC->PLLCFGR, RCC_PLLCFGR_PLLSRC, RCC_PLLSOURCE_NONE);
 8001aec:	4b08      	ldr	r3, [pc, #32]	; (8001b10 <HAL_RCC_OscConfig+0x578>)
 8001aee:	68db      	ldr	r3, [r3, #12]
 8001af0:	4a07      	ldr	r2, [pc, #28]	; (8001b10 <HAL_RCC_OscConfig+0x578>)
 8001af2:	f023 0303 	bic.w	r3, r3, #3
 8001af6:	60d3      	str	r3, [r2, #12]
        __HAL_RCC_PLLCLKOUT_DISABLE(RCC_PLL_SYSCLK | RCC_PLL_48M1CLK | RCC_PLL_ADCCLK);
 8001af8:	4b05      	ldr	r3, [pc, #20]	; (8001b10 <HAL_RCC_OscConfig+0x578>)
 8001afa:	68db      	ldr	r3, [r3, #12]
 8001afc:	4a04      	ldr	r2, [pc, #16]	; (8001b10 <HAL_RCC_OscConfig+0x578>)
 8001afe:	f023 7388 	bic.w	r3, r3, #17825792	; 0x1100000
 8001b02:	f423 3380 	bic.w	r3, r3, #65536	; 0x10000
 8001b06:	60d3      	str	r3, [r2, #12]

        /* Get Start Tick*/
        tickstart = HAL_GetTick();
 8001b08:	f7fe ff76 	bl	80009f8 <HAL_GetTick>
 8001b0c:	6138      	str	r0, [r7, #16]

        /* Wait till PLL is disabled */
        while (READ_BIT(RCC->CR, RCC_CR_PLLRDY) != 0U)
 8001b0e:	e00e      	b.n	8001b2e <HAL_RCC_OscConfig+0x596>
 8001b10:	40021000 	.word	0x40021000
 8001b14:	40007000 	.word	0x40007000
 8001b18:	019f800c 	.word	0x019f800c
        {
          if ((HAL_GetTick() - tickstart) > PLL_TIMEOUT_VALUE)
 8001b1c:	f7fe ff6c 	bl	80009f8 <HAL_GetTick>
 8001b20:	4602      	mov	r2, r0
 8001b22:	693b      	ldr	r3, [r7, #16]
 8001b24:	1ad3      	subs	r3, r2, r3
 8001b26:	2b02      	cmp	r3, #2
 8001b28:	d901      	bls.n	8001b2e <HAL_RCC_OscConfig+0x596>
          {
            return HAL_TIMEOUT;
 8001b2a:	2303      	movs	r3, #3
 8001b2c:	e046      	b.n	8001bbc <HAL_RCC_OscConfig+0x624>
        while (READ_BIT(RCC->CR, RCC_CR_PLLRDY) != 0U)
 8001b2e:	4b25      	ldr	r3, [pc, #148]	; (8001bc4 <HAL_RCC_OscConfig+0x62c>)
 8001b30:	681b      	ldr	r3, [r3, #0]
 8001b32:	f003 7300 	and.w	r3, r3, #33554432	; 0x2000000
 8001b36:	2b00      	cmp	r3, #0
 8001b38:	d1f0      	bne.n	8001b1c <HAL_RCC_OscConfig+0x584>
 8001b3a:	e03e      	b.n	8001bba <HAL_RCC_OscConfig+0x622>
      }
    }
    else
    {
      /* Check if there is a request to disable the PLL used as System clock source */
      if((RCC_OscInitStruct->PLL.PLLState) == RCC_PLL_OFF)
 8001b3c:	687b      	ldr	r3, [r7, #4]
 8001b3e:	69db      	ldr	r3, [r3, #28]
 8001b40:	2b01      	cmp	r3, #1
 8001b42:	d101      	bne.n	8001b48 <HAL_RCC_OscConfig+0x5b0>
      {
        return HAL_ERROR;
 8001b44:	2301      	movs	r3, #1
 8001b46:	e039      	b.n	8001bbc <HAL_RCC_OscConfig+0x624>
      }
      else
      {
      /* Do not return HAL_ERROR if request repeats the current configuration */
      temp_pllckcfg = RCC->PLLCFGR;
 8001b48:	4b1e      	ldr	r3, [pc, #120]	; (8001bc4 <HAL_RCC_OscConfig+0x62c>)
 8001b4a:	68db      	ldr	r3, [r3, #12]
 8001b4c:	617b      	str	r3, [r7, #20]
      if((READ_BIT(temp_pllckcfg, RCC_PLLCFGR_PLLSRC) != RCC_OscInitStruct->PLL.PLLSource) ||
 8001b4e:	697b      	ldr	r3, [r7, #20]
 8001b50:	f003 0203 	and.w	r2, r3, #3
 8001b54:	687b      	ldr	r3, [r7, #4]
 8001b56:	6a1b      	ldr	r3, [r3, #32]
 8001b58:	429a      	cmp	r2, r3
 8001b5a:	d12c      	bne.n	8001bb6 <HAL_RCC_OscConfig+0x61e>
         (READ_BIT(temp_pllckcfg, RCC_PLLCFGR_PLLM) != (((RCC_OscInitStruct->PLL.PLLM) - 1U) << RCC_PLLCFGR_PLLM_Pos)) ||
 8001b5c:	697b      	ldr	r3, [r7, #20]
 8001b5e:	f003 02f0 	and.w	r2, r3, #240	; 0xf0
 8001b62:	687b      	ldr	r3, [r7, #4]
 8001b64:	6a5b      	ldr	r3, [r3, #36]	; 0x24
 8001b66:	3b01      	subs	r3, #1
 8001b68:	011b      	lsls	r3, r3, #4
      if((READ_BIT(temp_pllckcfg, RCC_PLLCFGR_PLLSRC) != RCC_OscInitStruct->PLL.PLLSource) ||
 8001b6a:	429a      	cmp	r2, r3
 8001b6c:	d123      	bne.n	8001bb6 <HAL_RCC_OscConfig+0x61e>
         (READ_BIT(temp_pllckcfg, RCC_PLLCFGR_PLLN) != ((RCC_OscInitStruct->PLL.PLLN) << RCC_PLLCFGR_PLLN_Pos)) ||
 8001b6e:	697b      	ldr	r3, [r7, #20]
 8001b70:	f403 42fe 	and.w	r2, r3, #32512	; 0x7f00
 8001b74:	687b      	ldr	r3, [r7, #4]
 8001b76:	6a9b      	ldr	r3, [r3, #40]	; 0x28
 8001b78:	021b      	lsls	r3, r3, #8
         (READ_BIT(temp_pllckcfg, RCC_PLLCFGR_PLLM) != (((RCC_OscInitStruct->PLL.PLLM) - 1U) << RCC_PLLCFGR_PLLM_Pos)) ||
 8001b7a:	429a      	cmp	r2, r3
 8001b7c:	d11b      	bne.n	8001bb6 <HAL_RCC_OscConfig+0x61e>
         (READ_BIT(temp_pllckcfg, RCC_PLLCFGR_PLLPDIV) != ((RCC_OscInitStruct->PLL.PLLP) << RCC_PLLCFGR_PLLPDIV_Pos)) ||
 8001b7e:	697b      	ldr	r3, [r7, #20]
 8001b80:	f003 4278 	and.w	r2, r3, #4160749568	; 0xf8000000
 8001b84:	687b      	ldr	r3, [r7, #4]
 8001b86:	6adb      	ldr	r3, [r3, #44]	; 0x2c
 8001b88:	06db      	lsls	r3, r3, #27
         (READ_BIT(temp_pllckcfg, RCC_PLLCFGR_PLLN) != ((RCC_OscInitStruct->PLL.PLLN) << RCC_PLLCFGR_PLLN_Pos)) ||
 8001b8a:	429a      	cmp	r2, r3
 8001b8c:	d113      	bne.n	8001bb6 <HAL_RCC_OscConfig+0x61e>
         (READ_BIT(temp_pllckcfg, RCC_PLLCFGR_PLLQ) != ((((RCC_OscInitStruct->PLL.PLLQ) >> 1U) - 1U) << RCC_PLLCFGR_PLLQ_Pos)) ||
 8001b8e:	697b      	ldr	r3, [r7, #20]
 8001b90:	f403 02c0 	and.w	r2, r3, #6291456	; 0x600000
 8001b94:	687b      	ldr	r3, [r7, #4]
 8001b96:	6b1b      	ldr	r3, [r3, #48]	; 0x30
 8001b98:	085b      	lsrs	r3, r3, #1
 8001b9a:	3b01      	subs	r3, #1
 8001b9c:	055b      	lsls	r3, r3, #21
         (READ_BIT(temp_pllckcfg, RCC_PLLCFGR_PLLPDIV) != ((RCC_OscInitStruct->PLL.PLLP) << RCC_PLLCFGR_PLLPDIV_Pos)) ||
 8001b9e:	429a      	cmp	r2, r3
 8001ba0:	d109      	bne.n	8001bb6 <HAL_RCC_OscConfig+0x61e>
         (READ_BIT(temp_pllckcfg, RCC_PLLCFGR_PLLR) != ((((RCC_OscInitStruct->PLL.PLLR) >> 1U) - 1U) << RCC_PLLCFGR_PLLR_Pos)))
 8001ba2:	697b      	ldr	r3, [r7, #20]
 8001ba4:	f003 62c0 	and.w	r2, r3, #100663296	; 0x6000000
 8001ba8:	687b      	ldr	r3, [r7, #4]
 8001baa:	6b5b      	ldr	r3, [r3, #52]	; 0x34
 8001bac:	085b      	lsrs	r3, r3, #1
 8001bae:	3b01      	subs	r3, #1
 8001bb0:	065b      	lsls	r3, r3, #25
         (READ_BIT(temp_pllckcfg, RCC_PLLCFGR_PLLQ) != ((((RCC_OscInitStruct->PLL.PLLQ) >> 1U) - 1U) << RCC_PLLCFGR_PLLQ_Pos)) ||
 8001bb2:	429a      	cmp	r2, r3
 8001bb4:	d001      	beq.n	8001bba <HAL_RCC_OscConfig+0x622>
      {
        return HAL_ERROR;
 8001bb6:	2301      	movs	r3, #1
 8001bb8:	e000      	b.n	8001bbc <HAL_RCC_OscConfig+0x624>
      }
    }
  }
  }

  return HAL_OK;
 8001bba:	2300      	movs	r3, #0
}
 8001bbc:	4618      	mov	r0, r3
 8001bbe:	3720      	adds	r7, #32
 8001bc0:	46bd      	mov	sp, r7
 8001bc2:	bd80      	pop	{r7, pc}
 8001bc4:	40021000 	.word	0x40021000

08001bc8 <HAL_RCC_ClockConfig>:
  *         HPRE[3:0] bits to ensure that HCLK not exceed the maximum allowed frequency
  *         (for more details refer to section above "Initialization/de-initialization functions")
  * @retval None
  */
HAL_StatusTypeDef HAL_RCC_ClockConfig(RCC_ClkInitTypeDef  *RCC_ClkInitStruct, uint32_t FLatency)
{
 8001bc8:	b580      	push	{r7, lr}
 8001bca:	b086      	sub	sp, #24
 8001bcc:	af00      	add	r7, sp, #0
 8001bce:	6078      	str	r0, [r7, #4]
 8001bd0:	6039      	str	r1, [r7, #0]
  uint32_t tickstart;
  uint32_t pllfreq;
  uint32_t hpre = RCC_SYSCLK_DIV1;
 8001bd2:	2300      	movs	r3, #0
 8001bd4:	617b      	str	r3, [r7, #20]

  /* Check Null pointer */
  if (RCC_ClkInitStruct == NULL)
 8001bd6:	687b      	ldr	r3, [r7, #4]
 8001bd8:	2b00      	cmp	r3, #0
 8001bda:	d101      	bne.n	8001be0 <HAL_RCC_ClockConfig+0x18>
  {
    return HAL_ERROR;
 8001bdc:	2301      	movs	r3, #1
 8001bde:	e11e      	b.n	8001e1e <HAL_RCC_ClockConfig+0x256>
  /* To correctly read data from FLASH memory, the number of wait states (LATENCY)
    must be correctly programmed according to the frequency of the CPU clock
    (HCLK) and the supply voltage of the device. */

  /* Increasing the number of wait states because of higher CPU frequency */
  if (FLatency > __HAL_FLASH_GET_LATENCY())
 8001be0:	4b91      	ldr	r3, [pc, #580]	; (8001e28 <HAL_RCC_ClockConfig+0x260>)
 8001be2:	681b      	ldr	r3, [r3, #0]
 8001be4:	f003 030f 	and.w	r3, r3, #15
 8001be8:	683a      	ldr	r2, [r7, #0]
 8001bea:	429a      	cmp	r2, r3
 8001bec:	d910      	bls.n	8001c10 <HAL_RCC_ClockConfig+0x48>
  {
    /* Program the new number of wait states to the LATENCY bits in the FLASH_ACR register */
    __HAL_FLASH_SET_LATENCY(FLatency);
 8001bee:	4b8e      	ldr	r3, [pc, #568]	; (8001e28 <HAL_RCC_ClockConfig+0x260>)
 8001bf0:	681b      	ldr	r3, [r3, #0]
 8001bf2:	f023 020f 	bic.w	r2, r3, #15
 8001bf6:	498c      	ldr	r1, [pc, #560]	; (8001e28 <HAL_RCC_ClockConfig+0x260>)
 8001bf8:	683b      	ldr	r3, [r7, #0]
 8001bfa:	4313      	orrs	r3, r2
 8001bfc:	600b      	str	r3, [r1, #0]

    /* Check that the new number of wait states is taken into account to access the Flash
    memory by reading the FLASH_ACR register */
    if (__HAL_FLASH_GET_LATENCY() != FLatency)
 8001bfe:	4b8a      	ldr	r3, [pc, #552]	; (8001e28 <HAL_RCC_ClockConfig+0x260>)
 8001c00:	681b      	ldr	r3, [r3, #0]
 8001c02:	f003 030f 	and.w	r3, r3, #15
 8001c06:	683a      	ldr	r2, [r7, #0]
 8001c08:	429a      	cmp	r2, r3
 8001c0a:	d001      	beq.n	8001c10 <HAL_RCC_ClockConfig+0x48>
    {
      return HAL_ERROR;
 8001c0c:	2301      	movs	r3, #1
 8001c0e:	e106      	b.n	8001e1e <HAL_RCC_ClockConfig+0x256>
    }
  }

  /*------------------------- SYSCLK Configuration ---------------------------*/
  if(((RCC_ClkInitStruct->ClockType) & RCC_CLOCKTYPE_SYSCLK) == RCC_CLOCKTYPE_SYSCLK)
 8001c10:	687b      	ldr	r3, [r7, #4]
 8001c12:	681b      	ldr	r3, [r3, #0]
 8001c14:	f003 0301 	and.w	r3, r3, #1
 8001c18:	2b00      	cmp	r3, #0
 8001c1a:	d073      	beq.n	8001d04 <HAL_RCC_ClockConfig+0x13c>
  {
    assert_param(IS_RCC_SYSCLKSOURCE(RCC_ClkInitStruct->SYSCLKSource));

    /* PLL is selected as System Clock Source */
    if (RCC_ClkInitStruct->SYSCLKSource == RCC_SYSCLKSOURCE_PLLCLK)
 8001c1c:	687b      	ldr	r3, [r7, #4]
 8001c1e:	685b      	ldr	r3, [r3, #4]
 8001c20:	2b03      	cmp	r3, #3
 8001c22:	d129      	bne.n	8001c78 <HAL_RCC_ClockConfig+0xb0>
    {
      /* Check the PLL ready flag */
      if (READ_BIT(RCC->CR, RCC_CR_PLLRDY) == 0U)
 8001c24:	4b81      	ldr	r3, [pc, #516]	; (8001e2c <HAL_RCC_ClockConfig+0x264>)
 8001c26:	681b      	ldr	r3, [r3, #0]
 8001c28:	f003 7300 	and.w	r3, r3, #33554432	; 0x2000000
 8001c2c:	2b00      	cmp	r3, #0
 8001c2e:	d101      	bne.n	8001c34 <HAL_RCC_ClockConfig+0x6c>
      {
        return HAL_ERROR;
 8001c30:	2301      	movs	r3, #1
 8001c32:	e0f4      	b.n	8001e1e <HAL_RCC_ClockConfig+0x256>
      }
      /* Undershoot management when selection PLL as SYSCLK source and frequency above 80Mhz */
      /* Compute target PLL output frequency */
      pllfreq = RCC_GetSysClockFreqFromPLLSource();
 8001c34:	f000 f972 	bl	8001f1c <RCC_GetSysClockFreqFromPLLSource>
 8001c38:	6138      	str	r0, [r7, #16]

      /* Intermediate step with HCLK prescaler 2 necessary before to go over 80Mhz */
      if(pllfreq > 80000000U)
 8001c3a:	693b      	ldr	r3, [r7, #16]
 8001c3c:	4a7c      	ldr	r2, [pc, #496]	; (8001e30 <HAL_RCC_ClockConfig+0x268>)
 8001c3e:	4293      	cmp	r3, r2
 8001c40:	d93f      	bls.n	8001cc2 <HAL_RCC_ClockConfig+0xfa>
      {
        if (((READ_BIT(RCC->CFGR, RCC_CFGR_HPRE) == RCC_SYSCLK_DIV1)) ||
 8001c42:	4b7a      	ldr	r3, [pc, #488]	; (8001e2c <HAL_RCC_ClockConfig+0x264>)
 8001c44:	689b      	ldr	r3, [r3, #8]
 8001c46:	f003 03f0 	and.w	r3, r3, #240	; 0xf0
 8001c4a:	2b00      	cmp	r3, #0
 8001c4c:	d009      	beq.n	8001c62 <HAL_RCC_ClockConfig+0x9a>
            (((((RCC_ClkInitStruct->ClockType) & RCC_CLOCKTYPE_HCLK) == RCC_CLOCKTYPE_HCLK) &&
 8001c4e:	687b      	ldr	r3, [r7, #4]
 8001c50:	681b      	ldr	r3, [r3, #0]
 8001c52:	f003 0302 	and.w	r3, r3, #2
        if (((READ_BIT(RCC->CFGR, RCC_CFGR_HPRE) == RCC_SYSCLK_DIV1)) ||
 8001c56:	2b00      	cmp	r3, #0
 8001c58:	d033      	beq.n	8001cc2 <HAL_RCC_ClockConfig+0xfa>
              (RCC_ClkInitStruct->AHBCLKDivider == RCC_SYSCLK_DIV1))))
 8001c5a:	687b      	ldr	r3, [r7, #4]
 8001c5c:	689b      	ldr	r3, [r3, #8]
            (((((RCC_ClkInitStruct->ClockType) & RCC_CLOCKTYPE_HCLK) == RCC_CLOCKTYPE_HCLK) &&
 8001c5e:	2b00      	cmp	r3, #0
 8001c60:	d12f      	bne.n	8001cc2 <HAL_RCC_ClockConfig+0xfa>
        {
          MODIFY_REG(RCC->CFGR, RCC_CFGR_HPRE, RCC_SYSCLK_DIV2);
 8001c62:	4b72      	ldr	r3, [pc, #456]	; (8001e2c <HAL_RCC_ClockConfig+0x264>)
 8001c64:	689b      	ldr	r3, [r3, #8]
 8001c66:	f023 03f0 	bic.w	r3, r3, #240	; 0xf0
 8001c6a:	4a70      	ldr	r2, [pc, #448]	; (8001e2c <HAL_RCC_ClockConfig+0x264>)
 8001c6c:	f043 0380 	orr.w	r3, r3, #128	; 0x80
 8001c70:	6093      	str	r3, [r2, #8]
          hpre = RCC_SYSCLK_DIV2;
 8001c72:	2380      	movs	r3, #128	; 0x80
 8001c74:	617b      	str	r3, [r7, #20]
 8001c76:	e024      	b.n	8001cc2 <HAL_RCC_ClockConfig+0xfa>
      }
    }
    else
    {
      /* HSE is selected as System Clock Source */
      if (RCC_ClkInitStruct->SYSCLKSource == RCC_SYSCLKSOURCE_HSE)
 8001c78:	687b      	ldr	r3, [r7, #4]
 8001c7a:	685b      	ldr	r3, [r3, #4]
 8001c7c:	2b02      	cmp	r3, #2
 8001c7e:	d107      	bne.n	8001c90 <HAL_RCC_ClockConfig+0xc8>
      {
        /* Check the HSE ready flag */
        if(READ_BIT(RCC->CR, RCC_CR_HSERDY) == 0U)
 8001c80:	4b6a      	ldr	r3, [pc, #424]	; (8001e2c <HAL_RCC_ClockConfig+0x264>)
 8001c82:	681b      	ldr	r3, [r3, #0]
 8001c84:	f403 3300 	and.w	r3, r3, #131072	; 0x20000
 8001c88:	2b00      	cmp	r3, #0
 8001c8a:	d109      	bne.n	8001ca0 <HAL_RCC_ClockConfig+0xd8>
        {
          return HAL_ERROR;
 8001c8c:	2301      	movs	r3, #1
 8001c8e:	e0c6      	b.n	8001e1e <HAL_RCC_ClockConfig+0x256>
      }
      /* HSI is selected as System Clock Source */
      else
      {
        /* Check the HSI ready flag */
        if(READ_BIT(RCC->CR, RCC_CR_HSIRDY) == 0U)
 8001c90:	4b66      	ldr	r3, [pc, #408]	; (8001e2c <HAL_RCC_ClockConfig+0x264>)
 8001c92:	681b      	ldr	r3, [r3, #0]
 8001c94:	f403 6380 	and.w	r3, r3, #1024	; 0x400
 8001c98:	2b00      	cmp	r3, #0
 8001c9a:	d101      	bne.n	8001ca0 <HAL_RCC_ClockConfig+0xd8>
        {
          return HAL_ERROR;
 8001c9c:	2301      	movs	r3, #1
 8001c9e:	e0be      	b.n	8001e1e <HAL_RCC_ClockConfig+0x256>
        }
      }
      /* Overshoot management when going down from PLL as SYSCLK source and frequency above 80Mhz */
      pllfreq = HAL_RCC_GetSysClockFreq();
 8001ca0:	f000 f8ce 	bl	8001e40 <HAL_RCC_GetSysClockFreq>
 8001ca4:	6138      	str	r0, [r7, #16]

      /* Intermediate step with HCLK prescaler 2 necessary before to go under 80Mhz */
      if(pllfreq > 80000000U)
 8001ca6:	693b      	ldr	r3, [r7, #16]
 8001ca8:	4a61      	ldr	r2, [pc, #388]	; (8001e30 <HAL_RCC_ClockConfig+0x268>)
 8001caa:	4293      	cmp	r3, r2
 8001cac:	d909      	bls.n	8001cc2 <HAL_RCC_ClockConfig+0xfa>
      {
        MODIFY_REG(RCC->CFGR, RCC_CFGR_HPRE, RCC_SYSCLK_DIV2);
 8001cae:	4b5f      	ldr	r3, [pc, #380]	; (8001e2c <HAL_RCC_ClockConfig+0x264>)
 8001cb0:	689b      	ldr	r3, [r3, #8]
 8001cb2:	f023 03f0 	bic.w	r3, r3, #240	; 0xf0
 8001cb6:	4a5d      	ldr	r2, [pc, #372]	; (8001e2c <HAL_RCC_ClockConfig+0x264>)
 8001cb8:	f043 0380 	orr.w	r3, r3, #128	; 0x80
 8001cbc:	6093      	str	r3, [r2, #8]
        hpre = RCC_SYSCLK_DIV2;
 8001cbe:	2380      	movs	r3, #128	; 0x80
 8001cc0:	617b      	str	r3, [r7, #20]
      }

    }

    MODIFY_REG(RCC->CFGR, RCC_CFGR_SW, RCC_ClkInitStruct->SYSCLKSource);
 8001cc2:	4b5a      	ldr	r3, [pc, #360]	; (8001e2c <HAL_RCC_ClockConfig+0x264>)
 8001cc4:	689b      	ldr	r3, [r3, #8]
 8001cc6:	f023 0203 	bic.w	r2, r3, #3
 8001cca:	687b      	ldr	r3, [r7, #4]
 8001ccc:	685b      	ldr	r3, [r3, #4]
 8001cce:	4957      	ldr	r1, [pc, #348]	; (8001e2c <HAL_RCC_ClockConfig+0x264>)
 8001cd0:	4313      	orrs	r3, r2
 8001cd2:	608b      	str	r3, [r1, #8]

    /* Get Start Tick*/
    tickstart = HAL_GetTick();
 8001cd4:	f7fe fe90 	bl	80009f8 <HAL_GetTick>
 8001cd8:	60f8      	str	r0, [r7, #12]

    while (__HAL_RCC_GET_SYSCLK_SOURCE() != (RCC_ClkInitStruct->SYSCLKSource << RCC_CFGR_SWS_Pos))
 8001cda:	e00a      	b.n	8001cf2 <HAL_RCC_ClockConfig+0x12a>
    {
      if ((HAL_GetTick() - tickstart) > CLOCKSWITCH_TIMEOUT_VALUE)
 8001cdc:	f7fe fe8c 	bl	80009f8 <HAL_GetTick>
 8001ce0:	4602      	mov	r2, r0
 8001ce2:	68fb      	ldr	r3, [r7, #12]
 8001ce4:	1ad3      	subs	r3, r2, r3
 8001ce6:	f241 3288 	movw	r2, #5000	; 0x1388
 8001cea:	4293      	cmp	r3, r2
 8001cec:	d901      	bls.n	8001cf2 <HAL_RCC_ClockConfig+0x12a>
      {
        return HAL_TIMEOUT;
 8001cee:	2303      	movs	r3, #3
 8001cf0:	e095      	b.n	8001e1e <HAL_RCC_ClockConfig+0x256>
    while (__HAL_RCC_GET_SYSCLK_SOURCE() != (RCC_ClkInitStruct->SYSCLKSource << RCC_CFGR_SWS_Pos))
 8001cf2:	4b4e      	ldr	r3, [pc, #312]	; (8001e2c <HAL_RCC_ClockConfig+0x264>)
 8001cf4:	689b      	ldr	r3, [r3, #8]
 8001cf6:	f003 020c 	and.w	r2, r3, #12
 8001cfa:	687b      	ldr	r3, [r7, #4]
 8001cfc:	685b      	ldr	r3, [r3, #4]
 8001cfe:	009b      	lsls	r3, r3, #2
 8001d00:	429a      	cmp	r2, r3
 8001d02:	d1eb      	bne.n	8001cdc <HAL_RCC_ClockConfig+0x114>
      }
    }
  }

  /*-------------------------- HCLK Configuration --------------------------*/
  if (((RCC_ClkInitStruct->ClockType) & RCC_CLOCKTYPE_HCLK) == RCC_CLOCKTYPE_HCLK)
 8001d04:	687b      	ldr	r3, [r7, #4]
 8001d06:	681b      	ldr	r3, [r3, #0]
 8001d08:	f003 0302 	and.w	r3, r3, #2
 8001d0c:	2b00      	cmp	r3, #0
 8001d0e:	d023      	beq.n	8001d58 <HAL_RCC_ClockConfig+0x190>
  {
    /* Set the highest APB divider in order to ensure that we do not go through
       a non-spec phase whatever we decrease or increase HCLK. */
    if (((RCC_ClkInitStruct->ClockType) & RCC_CLOCKTYPE_PCLK1) == RCC_CLOCKTYPE_PCLK1)
 8001d10:	687b      	ldr	r3, [r7, #4]
 8001d12:	681b      	ldr	r3, [r3, #0]
 8001d14:	f003 0304 	and.w	r3, r3, #4
 8001d18:	2b00      	cmp	r3, #0
 8001d1a:	d005      	beq.n	8001d28 <HAL_RCC_ClockConfig+0x160>
    {
      MODIFY_REG(RCC->CFGR, RCC_CFGR_PPRE1, RCC_HCLK_DIV16);
 8001d1c:	4b43      	ldr	r3, [pc, #268]	; (8001e2c <HAL_RCC_ClockConfig+0x264>)
 8001d1e:	689b      	ldr	r3, [r3, #8]
 8001d20:	4a42      	ldr	r2, [pc, #264]	; (8001e2c <HAL_RCC_ClockConfig+0x264>)
 8001d22:	f443 63e0 	orr.w	r3, r3, #1792	; 0x700
 8001d26:	6093      	str	r3, [r2, #8]
    }
    if (((RCC_ClkInitStruct->ClockType) & RCC_CLOCKTYPE_PCLK2) == RCC_CLOCKTYPE_PCLK2)
 8001d28:	687b      	ldr	r3, [r7, #4]
 8001d2a:	681b      	ldr	r3, [r3, #0]
 8001d2c:	f003 0308 	and.w	r3, r3, #8
 8001d30:	2b00      	cmp	r3, #0
 8001d32:	d007      	beq.n	8001d44 <HAL_RCC_ClockConfig+0x17c>
    {
      MODIFY_REG(RCC->CFGR, RCC_CFGR_PPRE2, RCC_HCLK_DIV16);
 8001d34:	4b3d      	ldr	r3, [pc, #244]	; (8001e2c <HAL_RCC_ClockConfig+0x264>)
 8001d36:	689b      	ldr	r3, [r3, #8]
 8001d38:	f423 537c 	bic.w	r3, r3, #16128	; 0x3f00
 8001d3c:	4a3b      	ldr	r2, [pc, #236]	; (8001e2c <HAL_RCC_ClockConfig+0x264>)
 8001d3e:	f443 63e0 	orr.w	r3, r3, #1792	; 0x700
 8001d42:	6093      	str	r3, [r2, #8]
    }

    /* Set the new HCLK clock divider */
    assert_param(IS_RCC_HCLK(RCC_ClkInitStruct->AHBCLKDivider));
    MODIFY_REG(RCC->CFGR, RCC_CFGR_HPRE, RCC_ClkInitStruct->AHBCLKDivider);
 8001d44:	4b39      	ldr	r3, [pc, #228]	; (8001e2c <HAL_RCC_ClockConfig+0x264>)
 8001d46:	689b      	ldr	r3, [r3, #8]
 8001d48:	f023 02f0 	bic.w	r2, r3, #240	; 0xf0
 8001d4c:	687b      	ldr	r3, [r7, #4]
 8001d4e:	689b      	ldr	r3, [r3, #8]
 8001d50:	4936      	ldr	r1, [pc, #216]	; (8001e2c <HAL_RCC_ClockConfig+0x264>)
 8001d52:	4313      	orrs	r3, r2
 8001d54:	608b      	str	r3, [r1, #8]
 8001d56:	e008      	b.n	8001d6a <HAL_RCC_ClockConfig+0x1a2>
  }
  else
  {
    /* Is intermediate HCLK prescaler 2 applied internally, complete with HCLK prescaler 1 */
    if(hpre == RCC_SYSCLK_DIV2)
 8001d58:	697b      	ldr	r3, [r7, #20]
 8001d5a:	2b80      	cmp	r3, #128	; 0x80
 8001d5c:	d105      	bne.n	8001d6a <HAL_RCC_ClockConfig+0x1a2>
    {
      MODIFY_REG(RCC->CFGR, RCC_CFGR_HPRE, RCC_SYSCLK_DIV1);
 8001d5e:	4b33      	ldr	r3, [pc, #204]	; (8001e2c <HAL_RCC_ClockConfig+0x264>)
 8001d60:	689b      	ldr	r3, [r3, #8]
 8001d62:	4a32      	ldr	r2, [pc, #200]	; (8001e2c <HAL_RCC_ClockConfig+0x264>)
 8001d64:	f023 03f0 	bic.w	r3, r3, #240	; 0xf0
 8001d68:	6093      	str	r3, [r2, #8]
    }
  }

  /* Decreasing the number of wait states because of lower CPU frequency */
  if (FLatency < __HAL_FLASH_GET_LATENCY())
 8001d6a:	4b2f      	ldr	r3, [pc, #188]	; (8001e28 <HAL_RCC_ClockConfig+0x260>)
 8001d6c:	681b      	ldr	r3, [r3, #0]
 8001d6e:	f003 030f 	and.w	r3, r3, #15
 8001d72:	683a      	ldr	r2, [r7, #0]
 8001d74:	429a      	cmp	r2, r3
 8001d76:	d21d      	bcs.n	8001db4 <HAL_RCC_ClockConfig+0x1ec>
  {
    /* Program the new number of wait states to the LATENCY bits in the FLASH_ACR register */
    __HAL_FLASH_SET_LATENCY(FLatency);
 8001d78:	4b2b      	ldr	r3, [pc, #172]	; (8001e28 <HAL_RCC_ClockConfig+0x260>)
 8001d7a:	681b      	ldr	r3, [r3, #0]
 8001d7c:	f023 020f 	bic.w	r2, r3, #15
 8001d80:	4929      	ldr	r1, [pc, #164]	; (8001e28 <HAL_RCC_ClockConfig+0x260>)
 8001d82:	683b      	ldr	r3, [r7, #0]
 8001d84:	4313      	orrs	r3, r2
 8001d86:	600b      	str	r3, [r1, #0]

    /* Check that the new number of wait states is taken into account to access the Flash
    memory by polling the FLASH_ACR register */
    tickstart = HAL_GetTick();
 8001d88:	f7fe fe36 	bl	80009f8 <HAL_GetTick>
 8001d8c:	60f8      	str	r0, [r7, #12]

    while (__HAL_FLASH_GET_LATENCY() != FLatency)
 8001d8e:	e00a      	b.n	8001da6 <HAL_RCC_ClockConfig+0x1de>
    {
      if ((HAL_GetTick() - tickstart) > CLOCKSWITCH_TIMEOUT_VALUE)
 8001d90:	f7fe fe32 	bl	80009f8 <HAL_GetTick>
 8001d94:	4602      	mov	r2, r0
 8001d96:	68fb      	ldr	r3, [r7, #12]
 8001d98:	1ad3      	subs	r3, r2, r3
 8001d9a:	f241 3288 	movw	r2, #5000	; 0x1388
 8001d9e:	4293      	cmp	r3, r2
 8001da0:	d901      	bls.n	8001da6 <HAL_RCC_ClockConfig+0x1de>
      {
        return HAL_TIMEOUT;
 8001da2:	2303      	movs	r3, #3
 8001da4:	e03b      	b.n	8001e1e <HAL_RCC_ClockConfig+0x256>
    while (__HAL_FLASH_GET_LATENCY() != FLatency)
 8001da6:	4b20      	ldr	r3, [pc, #128]	; (8001e28 <HAL_RCC_ClockConfig+0x260>)
 8001da8:	681b      	ldr	r3, [r3, #0]
 8001daa:	f003 030f 	and.w	r3, r3, #15
 8001dae:	683a      	ldr	r2, [r7, #0]
 8001db0:	429a      	cmp	r2, r3
 8001db2:	d1ed      	bne.n	8001d90 <HAL_RCC_ClockConfig+0x1c8>
      }
    }
  }

  /*-------------------------- PCLK1 Configuration ---------------------------*/
  if (((RCC_ClkInitStruct->ClockType) & RCC_CLOCKTYPE_PCLK1) == RCC_CLOCKTYPE_PCLK1)
 8001db4:	687b      	ldr	r3, [r7, #4]
 8001db6:	681b      	ldr	r3, [r3, #0]
 8001db8:	f003 0304 	and.w	r3, r3, #4
 8001dbc:	2b00      	cmp	r3, #0
 8001dbe:	d008      	beq.n	8001dd2 <HAL_RCC_ClockConfig+0x20a>
  {
    assert_param(IS_RCC_PCLK(RCC_ClkInitStruct->APB1CLKDivider));
    MODIFY_REG(RCC->CFGR, RCC_CFGR_PPRE1, RCC_ClkInitStruct->APB1CLKDivider);
 8001dc0:	4b1a      	ldr	r3, [pc, #104]	; (8001e2c <HAL_RCC_ClockConfig+0x264>)
 8001dc2:	689b      	ldr	r3, [r3, #8]
 8001dc4:	f423 62e0 	bic.w	r2, r3, #1792	; 0x700
 8001dc8:	687b      	ldr	r3, [r7, #4]
 8001dca:	68db      	ldr	r3, [r3, #12]
 8001dcc:	4917      	ldr	r1, [pc, #92]	; (8001e2c <HAL_RCC_ClockConfig+0x264>)
 8001dce:	4313      	orrs	r3, r2
 8001dd0:	608b      	str	r3, [r1, #8]
  }

  /*-------------------------- PCLK2 Configuration ---------------------------*/
  if(((RCC_ClkInitStruct->ClockType) & RCC_CLOCKTYPE_PCLK2) == RCC_CLOCKTYPE_PCLK2)
 8001dd2:	687b      	ldr	r3, [r7, #4]
 8001dd4:	681b      	ldr	r3, [r3, #0]
 8001dd6:	f003 0308 	and.w	r3, r3, #8
 8001dda:	2b00      	cmp	r3, #0
 8001ddc:	d009      	beq.n	8001df2 <HAL_RCC_ClockConfig+0x22a>
  {
    assert_param(IS_RCC_PCLK(RCC_ClkInitStruct->APB2CLKDivider));
    MODIFY_REG(RCC->CFGR, RCC_CFGR_PPRE2, ((RCC_ClkInitStruct->APB2CLKDivider) << 3U));
 8001dde:	4b13      	ldr	r3, [pc, #76]	; (8001e2c <HAL_RCC_ClockConfig+0x264>)
 8001de0:	689b      	ldr	r3, [r3, #8]
 8001de2:	f423 5260 	bic.w	r2, r3, #14336	; 0x3800
 8001de6:	687b      	ldr	r3, [r7, #4]
 8001de8:	691b      	ldr	r3, [r3, #16]
 8001dea:	00db      	lsls	r3, r3, #3
 8001dec:	490f      	ldr	r1, [pc, #60]	; (8001e2c <HAL_RCC_ClockConfig+0x264>)
 8001dee:	4313      	orrs	r3, r2
 8001df0:	608b      	str	r3, [r1, #8]
  }

  /* Update the SystemCoreClock global variable */
  SystemCoreClock = HAL_RCC_GetSysClockFreq() >> (AHBPrescTable[READ_BIT(RCC->CFGR, RCC_CFGR_HPRE) >> RCC_CFGR_HPRE_Pos] & 0x1FU);
 8001df2:	f000 f825 	bl	8001e40 <HAL_RCC_GetSysClockFreq>
 8001df6:	4601      	mov	r1, r0
 8001df8:	4b0c      	ldr	r3, [pc, #48]	; (8001e2c <HAL_RCC_ClockConfig+0x264>)
 8001dfa:	689b      	ldr	r3, [r3, #8]
 8001dfc:	091b      	lsrs	r3, r3, #4
 8001dfe:	f003 030f 	and.w	r3, r3, #15
 8001e02:	4a0c      	ldr	r2, [pc, #48]	; (8001e34 <HAL_RCC_ClockConfig+0x26c>)
 8001e04:	5cd3      	ldrb	r3, [r2, r3]
 8001e06:	f003 031f 	and.w	r3, r3, #31
 8001e0a:	fa21 f303 	lsr.w	r3, r1, r3
 8001e0e:	4a0a      	ldr	r2, [pc, #40]	; (8001e38 <HAL_RCC_ClockConfig+0x270>)
 8001e10:	6013      	str	r3, [r2, #0]

  /* Configure the source of time base considering new system clocks settings*/
  return HAL_InitTick(uwTickPrio);
 8001e12:	4b0a      	ldr	r3, [pc, #40]	; (8001e3c <HAL_RCC_ClockConfig+0x274>)
 8001e14:	681b      	ldr	r3, [r3, #0]
 8001e16:	4618      	mov	r0, r3
 8001e18:	f7fe fda2 	bl	8000960 <HAL_InitTick>
 8001e1c:	4603      	mov	r3, r0
}
 8001e1e:	4618      	mov	r0, r3
 8001e20:	3718      	adds	r7, #24
 8001e22:	46bd      	mov	sp, r7
 8001e24:	bd80      	pop	{r7, pc}
 8001e26:	bf00      	nop
 8001e28:	40022000 	.word	0x40022000
 8001e2c:	40021000 	.word	0x40021000
 8001e30:	04c4b400 	.word	0x04c4b400
 8001e34:	08002c84 	.word	0x08002c84
 8001e38:	20000004 	.word	0x20000004
 8001e3c:	20000008 	.word	0x20000008

08001e40 <HAL_RCC_GetSysClockFreq>:
  *
  *
  * @retval SYSCLK frequency
  */
uint32_t HAL_RCC_GetSysClockFreq(void)
{
 8001e40:	b480      	push	{r7}
 8001e42:	b087      	sub	sp, #28
 8001e44:	af00      	add	r7, sp, #0
  uint32_t pllvco, pllsource, pllr, pllm;
  uint32_t sysclockfreq;

  if (__HAL_RCC_GET_SYSCLK_SOURCE() == RCC_CFGR_SWS_HSI)
 8001e46:	4b2c      	ldr	r3, [pc, #176]	; (8001ef8 <HAL_RCC_GetSysClockFreq+0xb8>)
 8001e48:	689b      	ldr	r3, [r3, #8]
 8001e4a:	f003 030c 	and.w	r3, r3, #12
 8001e4e:	2b04      	cmp	r3, #4
 8001e50:	d102      	bne.n	8001e58 <HAL_RCC_GetSysClockFreq+0x18>
  {
    /* HSI used as system clock source */
    sysclockfreq = HSI_VALUE;
 8001e52:	4b2a      	ldr	r3, [pc, #168]	; (8001efc <HAL_RCC_GetSysClockFreq+0xbc>)
 8001e54:	613b      	str	r3, [r7, #16]
 8001e56:	e047      	b.n	8001ee8 <HAL_RCC_GetSysClockFreq+0xa8>
  }
  else if (__HAL_RCC_GET_SYSCLK_SOURCE() == RCC_CFGR_SWS_HSE)
 8001e58:	4b27      	ldr	r3, [pc, #156]	; (8001ef8 <HAL_RCC_GetSysClockFreq+0xb8>)
 8001e5a:	689b      	ldr	r3, [r3, #8]
 8001e5c:	f003 030c 	and.w	r3, r3, #12
 8001e60:	2b08      	cmp	r3, #8
 8001e62:	d102      	bne.n	8001e6a <HAL_RCC_GetSysClockFreq+0x2a>
  {
    /* HSE used as system clock source */
    sysclockfreq = HSE_VALUE;
 8001e64:	4b26      	ldr	r3, [pc, #152]	; (8001f00 <HAL_RCC_GetSysClockFreq+0xc0>)
 8001e66:	613b      	str	r3, [r7, #16]
 8001e68:	e03e      	b.n	8001ee8 <HAL_RCC_GetSysClockFreq+0xa8>
  }
  else if (__HAL_RCC_GET_SYSCLK_SOURCE() == RCC_CFGR_SWS_PLL)
 8001e6a:	4b23      	ldr	r3, [pc, #140]	; (8001ef8 <HAL_RCC_GetSysClockFreq+0xb8>)
 8001e6c:	689b      	ldr	r3, [r3, #8]
 8001e6e:	f003 030c 	and.w	r3, r3, #12
 8001e72:	2b0c      	cmp	r3, #12
 8001e74:	d136      	bne.n	8001ee4 <HAL_RCC_GetSysClockFreq+0xa4>
    /* PLL used as system clock  source */

    /* PLL_VCO = ((HSE_VALUE or HSI_VALUE)/ PLLM) * PLLN
    SYSCLK = PLL_VCO / PLLR
    */
    pllsource = READ_BIT(RCC->PLLCFGR, RCC_PLLCFGR_PLLSRC);
 8001e76:	4b20      	ldr	r3, [pc, #128]	; (8001ef8 <HAL_RCC_GetSysClockFreq+0xb8>)
 8001e78:	68db      	ldr	r3, [r3, #12]
 8001e7a:	f003 0303 	and.w	r3, r3, #3
 8001e7e:	60fb      	str	r3, [r7, #12]
    pllm = (READ_BIT(RCC->PLLCFGR, RCC_PLLCFGR_PLLM) >> RCC_PLLCFGR_PLLM_Pos) + 1U ;
 8001e80:	4b1d      	ldr	r3, [pc, #116]	; (8001ef8 <HAL_RCC_GetSysClockFreq+0xb8>)
 8001e82:	68db      	ldr	r3, [r3, #12]
 8001e84:	091b      	lsrs	r3, r3, #4
 8001e86:	f003 030f 	and.w	r3, r3, #15
 8001e8a:	3301      	adds	r3, #1
 8001e8c:	60bb      	str	r3, [r7, #8]

    switch (pllsource)
 8001e8e:	68fb      	ldr	r3, [r7, #12]
 8001e90:	2b03      	cmp	r3, #3
 8001e92:	d10c      	bne.n	8001eae <HAL_RCC_GetSysClockFreq+0x6e>
    {
    case RCC_PLLSOURCE_HSE:  /* HSE used as PLL clock source */
      pllvco = (HSE_VALUE / pllm) * (READ_BIT(RCC->PLLCFGR, RCC_PLLCFGR_PLLN) >> RCC_PLLCFGR_PLLN_Pos);
 8001e94:	4a1a      	ldr	r2, [pc, #104]	; (8001f00 <HAL_RCC_GetSysClockFreq+0xc0>)
 8001e96:	68bb      	ldr	r3, [r7, #8]
 8001e98:	fbb2 f3f3 	udiv	r3, r2, r3
 8001e9c:	4a16      	ldr	r2, [pc, #88]	; (8001ef8 <HAL_RCC_GetSysClockFreq+0xb8>)
 8001e9e:	68d2      	ldr	r2, [r2, #12]
 8001ea0:	0a12      	lsrs	r2, r2, #8
 8001ea2:	f002 027f 	and.w	r2, r2, #127	; 0x7f
 8001ea6:	fb02 f303 	mul.w	r3, r2, r3
 8001eaa:	617b      	str	r3, [r7, #20]
      break;
 8001eac:	e00c      	b.n	8001ec8 <HAL_RCC_GetSysClockFreq+0x88>

    case RCC_PLLSOURCE_HSI:  /* HSI used as PLL clock source */
    default:
      pllvco = (HSI_VALUE / pllm) * (READ_BIT(RCC->PLLCFGR, RCC_PLLCFGR_PLLN) >> RCC_PLLCFGR_PLLN_Pos);
 8001eae:	4a13      	ldr	r2, [pc, #76]	; (8001efc <HAL_RCC_GetSysClockFreq+0xbc>)
 8001eb0:	68bb      	ldr	r3, [r7, #8]
 8001eb2:	fbb2 f3f3 	udiv	r3, r2, r3
 8001eb6:	4a10      	ldr	r2, [pc, #64]	; (8001ef8 <HAL_RCC_GetSysClockFreq+0xb8>)
 8001eb8:	68d2      	ldr	r2, [r2, #12]
 8001eba:	0a12      	lsrs	r2, r2, #8
 8001ebc:	f002 027f 	and.w	r2, r2, #127	; 0x7f
 8001ec0:	fb02 f303 	mul.w	r3, r2, r3
 8001ec4:	617b      	str	r3, [r7, #20]
      break;
 8001ec6:	bf00      	nop
    }
    pllr = ((READ_BIT(RCC->PLLCFGR, RCC_PLLCFGR_PLLR) >> RCC_PLLCFGR_PLLR_Pos) + 1U ) * 2U;
 8001ec8:	4b0b      	ldr	r3, [pc, #44]	; (8001ef8 <HAL_RCC_GetSysClockFreq+0xb8>)
 8001eca:	68db      	ldr	r3, [r3, #12]
 8001ecc:	0e5b      	lsrs	r3, r3, #25
 8001ece:	f003 0303 	and.w	r3, r3, #3
 8001ed2:	3301      	adds	r3, #1
 8001ed4:	005b      	lsls	r3, r3, #1
 8001ed6:	607b      	str	r3, [r7, #4]
    sysclockfreq = pllvco/pllr;
 8001ed8:	697a      	ldr	r2, [r7, #20]
 8001eda:	687b      	ldr	r3, [r7, #4]
 8001edc:	fbb2 f3f3 	udiv	r3, r2, r3
 8001ee0:	613b      	str	r3, [r7, #16]
 8001ee2:	e001      	b.n	8001ee8 <HAL_RCC_GetSysClockFreq+0xa8>
  }
  else
  {
    sysclockfreq = 0U;
 8001ee4:	2300      	movs	r3, #0
 8001ee6:	613b      	str	r3, [r7, #16]
  }

  return sysclockfreq;
 8001ee8:	693b      	ldr	r3, [r7, #16]
}
 8001eea:	4618      	mov	r0, r3
 8001eec:	371c      	adds	r7, #28
 8001eee:	46bd      	mov	sp, r7
 8001ef0:	f85d 7b04 	ldr.w	r7, [sp], #4
 8001ef4:	4770      	bx	lr
 8001ef6:	bf00      	nop
 8001ef8:	40021000 	.word	0x40021000
 8001efc:	00f42400 	.word	0x00f42400
 8001f00:	007a1200 	.word	0x007a1200

08001f04 <HAL_RCC_GetHCLKFreq>:
  *
  * @note   The SystemCoreClock CMSIS variable is used to store System Clock Frequency.
  * @retval HCLK frequency in Hz
  */
uint32_t HAL_RCC_GetHCLKFreq(void)
{
 8001f04:	b480      	push	{r7}
 8001f06:	af00      	add	r7, sp, #0
  return SystemCoreClock;
 8001f08:	4b03      	ldr	r3, [pc, #12]	; (8001f18 <HAL_RCC_GetHCLKFreq+0x14>)
 8001f0a:	681b      	ldr	r3, [r3, #0]
}
 8001f0c:	4618      	mov	r0, r3
 8001f0e:	46bd      	mov	sp, r7
 8001f10:	f85d 7b04 	ldr.w	r7, [sp], #4
 8001f14:	4770      	bx	lr
 8001f16:	bf00      	nop
 8001f18:	20000004 	.word	0x20000004

08001f1c <RCC_GetSysClockFreqFromPLLSource>:
/**
  * @brief  Compute SYSCLK frequency based on PLL SYSCLK source.
  * @retval SYSCLK frequency
  */
static uint32_t RCC_GetSysClockFreqFromPLLSource(void)
{
 8001f1c:	b480      	push	{r7}
 8001f1e:	b087      	sub	sp, #28
 8001f20:	af00      	add	r7, sp, #0
  uint32_t sysclockfreq;

  /* PLL_VCO = (HSE_VALUE or HSI_VALUE/ PLLM) * PLLN
     SYSCLK = PLL_VCO / PLLR
   */
  pllsource = READ_BIT(RCC->PLLCFGR, RCC_PLLCFGR_PLLSRC);
 8001f22:	4b1e      	ldr	r3, [pc, #120]	; (8001f9c <RCC_GetSysClockFreqFromPLLSource+0x80>)
 8001f24:	68db      	ldr	r3, [r3, #12]
 8001f26:	f003 0303 	and.w	r3, r3, #3
 8001f2a:	613b      	str	r3, [r7, #16]
  pllm = (READ_BIT(RCC->PLLCFGR, RCC_PLLCFGR_PLLM) >> RCC_PLLCFGR_PLLM_Pos) + 1U ;
 8001f2c:	4b1b      	ldr	r3, [pc, #108]	; (8001f9c <RCC_GetSysClockFreqFromPLLSource+0x80>)
 8001f2e:	68db      	ldr	r3, [r3, #12]
 8001f30:	091b      	lsrs	r3, r3, #4
 8001f32:	f003 030f 	and.w	r3, r3, #15
 8001f36:	3301      	adds	r3, #1
 8001f38:	60fb      	str	r3, [r7, #12]

  switch (pllsource)
 8001f3a:	693b      	ldr	r3, [r7, #16]
 8001f3c:	2b03      	cmp	r3, #3
 8001f3e:	d10c      	bne.n	8001f5a <RCC_GetSysClockFreqFromPLLSource+0x3e>
  {
  case RCC_PLLSOURCE_HSE:  /* HSE used as PLL clock source */
    pllvco = (HSE_VALUE / pllm) * (READ_BIT(RCC->PLLCFGR, RCC_PLLCFGR_PLLN) >> RCC_PLLCFGR_PLLN_Pos);
 8001f40:	4a17      	ldr	r2, [pc, #92]	; (8001fa0 <RCC_GetSysClockFreqFromPLLSource+0x84>)
 8001f42:	68fb      	ldr	r3, [r7, #12]
 8001f44:	fbb2 f3f3 	udiv	r3, r2, r3
 8001f48:	4a14      	ldr	r2, [pc, #80]	; (8001f9c <RCC_GetSysClockFreqFromPLLSource+0x80>)
 8001f4a:	68d2      	ldr	r2, [r2, #12]
 8001f4c:	0a12      	lsrs	r2, r2, #8
 8001f4e:	f002 027f 	and.w	r2, r2, #127	; 0x7f
 8001f52:	fb02 f303 	mul.w	r3, r2, r3
 8001f56:	617b      	str	r3, [r7, #20]
    break;
 8001f58:	e00c      	b.n	8001f74 <RCC_GetSysClockFreqFromPLLSource+0x58>

  case RCC_PLLSOURCE_HSI:  /* HSI used as PLL clock source */
  default:
    pllvco = (HSI_VALUE / pllm) * (READ_BIT(RCC->PLLCFGR, RCC_PLLCFGR_PLLN) >> RCC_PLLCFGR_PLLN_Pos);
 8001f5a:	4a12      	ldr	r2, [pc, #72]	; (8001fa4 <RCC_GetSysClockFreqFromPLLSource+0x88>)
 8001f5c:	68fb      	ldr	r3, [r7, #12]
 8001f5e:	fbb2 f3f3 	udiv	r3, r2, r3
 8001f62:	4a0e      	ldr	r2, [pc, #56]	; (8001f9c <RCC_GetSysClockFreqFromPLLSource+0x80>)
 8001f64:	68d2      	ldr	r2, [r2, #12]
 8001f66:	0a12      	lsrs	r2, r2, #8
 8001f68:	f002 027f 	and.w	r2, r2, #127	; 0x7f
 8001f6c:	fb02 f303 	mul.w	r3, r2, r3
 8001f70:	617b      	str	r3, [r7, #20]
    break;
 8001f72:	bf00      	nop
  }

  pllr = ((READ_BIT(RCC->PLLCFGR, RCC_PLLCFGR_PLLR) >> RCC_PLLCFGR_PLLR_Pos) + 1U ) * 2U;
 8001f74:	4b09      	ldr	r3, [pc, #36]	; (8001f9c <RCC_GetSysClockFreqFromPLLSource+0x80>)
 8001f76:	68db      	ldr	r3, [r3, #12]
 8001f78:	0e5b      	lsrs	r3, r3, #25
 8001f7a:	f003 0303 	and.w	r3, r3, #3
 8001f7e:	3301      	adds	r3, #1
 8001f80:	005b      	lsls	r3, r3, #1
 8001f82:	60bb      	str	r3, [r7, #8]
  sysclockfreq = pllvco/pllr;
 8001f84:	697a      	ldr	r2, [r7, #20]
 8001f86:	68bb      	ldr	r3, [r7, #8]
 8001f88:	fbb2 f3f3 	udiv	r3, r2, r3
 8001f8c:	607b      	str	r3, [r7, #4]

  return sysclockfreq;
 8001f8e:	687b      	ldr	r3, [r7, #4]
}
 8001f90:	4618      	mov	r0, r3
 8001f92:	371c      	adds	r7, #28
 8001f94:	46bd      	mov	sp, r7
 8001f96:	f85d 7b04 	ldr.w	r7, [sp], #4
 8001f9a:	4770      	bx	lr
 8001f9c:	40021000 	.word	0x40021000
 8001fa0:	007a1200 	.word	0x007a1200
 8001fa4:	00f42400 	.word	0x00f42400

08001fa8 <HAL_TIM_Base_Init>:
  *         Ex: call @ref HAL_TIM_Base_DeInit() before HAL_TIM_Base_Init()
  * @param  htim TIM Base handle
  * @retval HAL status
  */
HAL_StatusTypeDef HAL_TIM_Base_Init(TIM_HandleTypeDef *htim)
{
 8001fa8:	b580      	push	{r7, lr}
 8001faa:	b082      	sub	sp, #8
 8001fac:	af00      	add	r7, sp, #0
 8001fae:	6078      	str	r0, [r7, #4]
  /* Check the TIM handle allocation */
  if (htim == NULL)
 8001fb0:	687b      	ldr	r3, [r7, #4]
 8001fb2:	2b00      	cmp	r3, #0
 8001fb4:	d101      	bne.n	8001fba <HAL_TIM_Base_Init+0x12>
  {
    return HAL_ERROR;
 8001fb6:	2301      	movs	r3, #1
 8001fb8:	e049      	b.n	800204e <HAL_TIM_Base_Init+0xa6>
  assert_param(IS_TIM_INSTANCE(htim->Instance));
  assert_param(IS_TIM_COUNTER_MODE(htim->Init.CounterMode));
  assert_param(IS_TIM_CLOCKDIVISION_DIV(htim->Init.ClockDivision));
  assert_param(IS_TIM_AUTORELOAD_PRELOAD(htim->Init.AutoReloadPreload));

  if (htim->State == HAL_TIM_STATE_RESET)
 8001fba:	687b      	ldr	r3, [r7, #4]
 8001fbc:	f893 303d 	ldrb.w	r3, [r3, #61]	; 0x3d
 8001fc0:	b2db      	uxtb	r3, r3
 8001fc2:	2b00      	cmp	r3, #0
 8001fc4:	d106      	bne.n	8001fd4 <HAL_TIM_Base_Init+0x2c>
  {
    /* Allocate lock resource and initialize it */
    htim->Lock = HAL_UNLOCKED;
 8001fc6:	687b      	ldr	r3, [r7, #4]
 8001fc8:	2200      	movs	r2, #0
 8001fca:	f883 203c 	strb.w	r2, [r3, #60]	; 0x3c
    }
    /* Init the low level hardware : GPIO, CLOCK, NVIC */
    htim->Base_MspInitCallback(htim);
#else
    /* Init the low level hardware : GPIO, CLOCK, NVIC */
    HAL_TIM_Base_MspInit(htim);
 8001fce:	6878      	ldr	r0, [r7, #4]
 8001fd0:	f7fe fc64 	bl	800089c <HAL_TIM_Base_MspInit>
#endif /* USE_HAL_TIM_REGISTER_CALLBACKS */
  }

  /* Set the TIM state */
  htim->State = HAL_TIM_STATE_BUSY;
 8001fd4:	687b      	ldr	r3, [r7, #4]
 8001fd6:	2202      	movs	r2, #2
 8001fd8:	f883 203d 	strb.w	r2, [r3, #61]	; 0x3d

  /* Set the Time Base configuration */
  TIM_Base_SetConfig(htim->Instance, &htim->Init);
 8001fdc:	687b      	ldr	r3, [r7, #4]
 8001fde:	681a      	ldr	r2, [r3, #0]
 8001fe0:	687b      	ldr	r3, [r7, #4]
 8001fe2:	3304      	adds	r3, #4
 8001fe4:	4619      	mov	r1, r3
 8001fe6:	4610      	mov	r0, r2
 8001fe8:	f000 f864 	bl	80020b4 <TIM_Base_SetConfig>

  /* Initialize the DMA burst operation state */
  htim->DMABurstState = HAL_DMA_BURST_STATE_READY;
 8001fec:	687b      	ldr	r3, [r7, #4]
 8001fee:	2201      	movs	r2, #1
 8001ff0:	f883 2048 	strb.w	r2, [r3, #72]	; 0x48

  /* Initialize the TIM channels state */
  TIM_CHANNEL_STATE_SET_ALL(htim, HAL_TIM_CHANNEL_STATE_READY);
 8001ff4:	687b      	ldr	r3, [r7, #4]
 8001ff6:	2201      	movs	r2, #1
 8001ff8:	f883 203e 	strb.w	r2, [r3, #62]	; 0x3e
 8001ffc:	687b      	ldr	r3, [r7, #4]
 8001ffe:	2201      	movs	r2, #1
 8002000:	f883 203f 	strb.w	r2, [r3, #63]	; 0x3f
 8002004:	687b      	ldr	r3, [r7, #4]
 8002006:	2201      	movs	r2, #1
 8002008:	f883 2040 	strb.w	r2, [r3, #64]	; 0x40
 800200c:	687b      	ldr	r3, [r7, #4]
 800200e:	2201      	movs	r2, #1
 8002010:	f883 2041 	strb.w	r2, [r3, #65]	; 0x41
 8002014:	687b      	ldr	r3, [r7, #4]
 8002016:	2201      	movs	r2, #1
 8002018:	f883 2042 	strb.w	r2, [r3, #66]	; 0x42
 800201c:	687b      	ldr	r3, [r7, #4]
 800201e:	2201      	movs	r2, #1
 8002020:	f883 2043 	strb.w	r2, [r3, #67]	; 0x43
  TIM_CHANNEL_N_STATE_SET_ALL(htim, HAL_TIM_CHANNEL_STATE_READY);
 8002024:	687b      	ldr	r3, [r7, #4]
 8002026:	2201      	movs	r2, #1
 8002028:	f883 2044 	strb.w	r2, [r3, #68]	; 0x44
 800202c:	687b      	ldr	r3, [r7, #4]
 800202e:	2201      	movs	r2, #1
 8002030:	f883 2045 	strb.w	r2, [r3, #69]	; 0x45
 8002034:	687b      	ldr	r3, [r7, #4]
 8002036:	2201      	movs	r2, #1
 8002038:	f883 2046 	strb.w	r2, [r3, #70]	; 0x46
 800203c:	687b      	ldr	r3, [r7, #4]
 800203e:	2201      	movs	r2, #1
 8002040:	f883 2047 	strb.w	r2, [r3, #71]	; 0x47

  /* Initialize the TIM state*/
  htim->State = HAL_TIM_STATE_READY;
 8002044:	687b      	ldr	r3, [r7, #4]
 8002046:	2201      	movs	r2, #1
 8002048:	f883 203d 	strb.w	r2, [r3, #61]	; 0x3d

  return HAL_OK;
 800204c:	2300      	movs	r3, #0
}
 800204e:	4618      	mov	r0, r3
 8002050:	3708      	adds	r7, #8
 8002052:	46bd      	mov	sp, r7
 8002054:	bd80      	pop	{r7, pc}
	...

08002058 <HAL_TIM_Base_Start>:
  * @brief  Starts the TIM Base generation.
  * @param  htim TIM Base handle
  * @retval HAL status
  */
HAL_StatusTypeDef HAL_TIM_Base_Start(TIM_HandleTypeDef *htim)
{
 8002058:	b480      	push	{r7}
 800205a:	b085      	sub	sp, #20
 800205c:	af00      	add	r7, sp, #0
 800205e:	6078      	str	r0, [r7, #4]

  /* Check the parameters */
  assert_param(IS_TIM_INSTANCE(htim->Instance));

  /* Check the TIM state */
  if (htim->State != HAL_TIM_STATE_READY)
 8002060:	687b      	ldr	r3, [r7, #4]
 8002062:	f893 303d 	ldrb.w	r3, [r3, #61]	; 0x3d
 8002066:	b2db      	uxtb	r3, r3
 8002068:	2b01      	cmp	r3, #1
 800206a:	d001      	beq.n	8002070 <HAL_TIM_Base_Start+0x18>
  {
    return HAL_ERROR;
 800206c:	2301      	movs	r3, #1
 800206e:	e019      	b.n	80020a4 <HAL_TIM_Base_Start+0x4c>
  }

  /* Set the TIM state */
  htim->State = HAL_TIM_STATE_BUSY;
 8002070:	687b      	ldr	r3, [r7, #4]
 8002072:	2202      	movs	r2, #2
 8002074:	f883 203d 	strb.w	r2, [r3, #61]	; 0x3d

  /* Enable the Peripheral, except in trigger mode where enable is automatically done with trigger */
  tmpsmcr = htim->Instance->SMCR & TIM_SMCR_SMS;
 8002078:	687b      	ldr	r3, [r7, #4]
 800207a:	681b      	ldr	r3, [r3, #0]
 800207c:	689a      	ldr	r2, [r3, #8]
 800207e:	4b0c      	ldr	r3, [pc, #48]	; (80020b0 <HAL_TIM_Base_Start+0x58>)
 8002080:	4013      	ands	r3, r2
 8002082:	60fb      	str	r3, [r7, #12]
  if (!IS_TIM_SLAVEMODE_TRIGGER_ENABLED(tmpsmcr))
 8002084:	68fb      	ldr	r3, [r7, #12]
 8002086:	2b06      	cmp	r3, #6
 8002088:	d00b      	beq.n	80020a2 <HAL_TIM_Base_Start+0x4a>
 800208a:	68fb      	ldr	r3, [r7, #12]
 800208c:	f5b3 3f80 	cmp.w	r3, #65536	; 0x10000
 8002090:	d007      	beq.n	80020a2 <HAL_TIM_Base_Start+0x4a>
  {
    __HAL_TIM_ENABLE(htim);
 8002092:	687b      	ldr	r3, [r7, #4]
 8002094:	681b      	ldr	r3, [r3, #0]
 8002096:	681a      	ldr	r2, [r3, #0]
 8002098:	687b      	ldr	r3, [r7, #4]
 800209a:	681b      	ldr	r3, [r3, #0]
 800209c:	f042 0201 	orr.w	r2, r2, #1
 80020a0:	601a      	str	r2, [r3, #0]
  }

  /* Return function status */
  return HAL_OK;
 80020a2:	2300      	movs	r3, #0
}
 80020a4:	4618      	mov	r0, r3
 80020a6:	3714      	adds	r7, #20
 80020a8:	46bd      	mov	sp, r7
 80020aa:	f85d 7b04 	ldr.w	r7, [sp], #4
 80020ae:	4770      	bx	lr
 80020b0:	00010007 	.word	0x00010007

080020b4 <TIM_Base_SetConfig>:
  * @param  TIMx TIM peripheral
  * @param  Structure TIM Base configuration structure
  * @retval None
  */
void TIM_Base_SetConfig(TIM_TypeDef *TIMx, TIM_Base_InitTypeDef *Structure)
{
 80020b4:	b480      	push	{r7}
 80020b6:	b085      	sub	sp, #20
 80020b8:	af00      	add	r7, sp, #0
 80020ba:	6078      	str	r0, [r7, #4]
 80020bc:	6039      	str	r1, [r7, #0]
  uint32_t tmpcr1;
  tmpcr1 = TIMx->CR1;
 80020be:	687b      	ldr	r3, [r7, #4]
 80020c0:	681b      	ldr	r3, [r3, #0]
 80020c2:	60fb      	str	r3, [r7, #12]

  /* Set TIM Time Base Unit parameters ---------------------------------------*/
  if (IS_TIM_COUNTER_MODE_SELECT_INSTANCE(TIMx))
 80020c4:	687b      	ldr	r3, [r7, #4]
 80020c6:	4a46      	ldr	r2, [pc, #280]	; (80021e0 <TIM_Base_SetConfig+0x12c>)
 80020c8:	4293      	cmp	r3, r2
 80020ca:	d017      	beq.n	80020fc <TIM_Base_SetConfig+0x48>
 80020cc:	687b      	ldr	r3, [r7, #4]
 80020ce:	f1b3 4f80 	cmp.w	r3, #1073741824	; 0x40000000
 80020d2:	d013      	beq.n	80020fc <TIM_Base_SetConfig+0x48>
 80020d4:	687b      	ldr	r3, [r7, #4]
 80020d6:	4a43      	ldr	r2, [pc, #268]	; (80021e4 <TIM_Base_SetConfig+0x130>)
 80020d8:	4293      	cmp	r3, r2
 80020da:	d00f      	beq.n	80020fc <TIM_Base_SetConfig+0x48>
 80020dc:	687b      	ldr	r3, [r7, #4]
 80020de:	4a42      	ldr	r2, [pc, #264]	; (80021e8 <TIM_Base_SetConfig+0x134>)
 80020e0:	4293      	cmp	r3, r2
 80020e2:	d00b      	beq.n	80020fc <TIM_Base_SetConfig+0x48>
 80020e4:	687b      	ldr	r3, [r7, #4]
 80020e6:	4a41      	ldr	r2, [pc, #260]	; (80021ec <TIM_Base_SetConfig+0x138>)
 80020e8:	4293      	cmp	r3, r2
 80020ea:	d007      	beq.n	80020fc <TIM_Base_SetConfig+0x48>
 80020ec:	687b      	ldr	r3, [r7, #4]
 80020ee:	4a40      	ldr	r2, [pc, #256]	; (80021f0 <TIM_Base_SetConfig+0x13c>)
 80020f0:	4293      	cmp	r3, r2
 80020f2:	d003      	beq.n	80020fc <TIM_Base_SetConfig+0x48>
 80020f4:	687b      	ldr	r3, [r7, #4]
 80020f6:	4a3f      	ldr	r2, [pc, #252]	; (80021f4 <TIM_Base_SetConfig+0x140>)
 80020f8:	4293      	cmp	r3, r2
 80020fa:	d108      	bne.n	800210e <TIM_Base_SetConfig+0x5a>
  {
    /* Select the Counter Mode */
    tmpcr1 &= ~(TIM_CR1_DIR | TIM_CR1_CMS);
 80020fc:	68fb      	ldr	r3, [r7, #12]
 80020fe:	f023 0370 	bic.w	r3, r3, #112	; 0x70
 8002102:	60fb      	str	r3, [r7, #12]
    tmpcr1 |= Structure->CounterMode;
 8002104:	683b      	ldr	r3, [r7, #0]
 8002106:	685b      	ldr	r3, [r3, #4]
 8002108:	68fa      	ldr	r2, [r7, #12]
 800210a:	4313      	orrs	r3, r2
 800210c:	60fb      	str	r3, [r7, #12]
  }

  if (IS_TIM_CLOCK_DIVISION_INSTANCE(TIMx))
 800210e:	687b      	ldr	r3, [r7, #4]
 8002110:	4a33      	ldr	r2, [pc, #204]	; (80021e0 <TIM_Base_SetConfig+0x12c>)
 8002112:	4293      	cmp	r3, r2
 8002114:	d023      	beq.n	800215e <TIM_Base_SetConfig+0xaa>
 8002116:	687b      	ldr	r3, [r7, #4]
 8002118:	f1b3 4f80 	cmp.w	r3, #1073741824	; 0x40000000
 800211c:	d01f      	beq.n	800215e <TIM_Base_SetConfig+0xaa>
 800211e:	687b      	ldr	r3, [r7, #4]
 8002120:	4a30      	ldr	r2, [pc, #192]	; (80021e4 <TIM_Base_SetConfig+0x130>)
 8002122:	4293      	cmp	r3, r2
 8002124:	d01b      	beq.n	800215e <TIM_Base_SetConfig+0xaa>
 8002126:	687b      	ldr	r3, [r7, #4]
 8002128:	4a2f      	ldr	r2, [pc, #188]	; (80021e8 <TIM_Base_SetConfig+0x134>)
 800212a:	4293      	cmp	r3, r2
 800212c:	d017      	beq.n	800215e <TIM_Base_SetConfig+0xaa>
 800212e:	687b      	ldr	r3, [r7, #4]
 8002130:	4a2e      	ldr	r2, [pc, #184]	; (80021ec <TIM_Base_SetConfig+0x138>)
 8002132:	4293      	cmp	r3, r2
 8002134:	d013      	beq.n	800215e <TIM_Base_SetConfig+0xaa>
 8002136:	687b      	ldr	r3, [r7, #4]
 8002138:	4a2d      	ldr	r2, [pc, #180]	; (80021f0 <TIM_Base_SetConfig+0x13c>)
 800213a:	4293      	cmp	r3, r2
 800213c:	d00f      	beq.n	800215e <TIM_Base_SetConfig+0xaa>
 800213e:	687b      	ldr	r3, [r7, #4]
 8002140:	4a2d      	ldr	r2, [pc, #180]	; (80021f8 <TIM_Base_SetConfig+0x144>)
 8002142:	4293      	cmp	r3, r2
 8002144:	d00b      	beq.n	800215e <TIM_Base_SetConfig+0xaa>
 8002146:	687b      	ldr	r3, [r7, #4]
 8002148:	4a2c      	ldr	r2, [pc, #176]	; (80021fc <TIM_Base_SetConfig+0x148>)
 800214a:	4293      	cmp	r3, r2
 800214c:	d007      	beq.n	800215e <TIM_Base_SetConfig+0xaa>
 800214e:	687b      	ldr	r3, [r7, #4]
 8002150:	4a2b      	ldr	r2, [pc, #172]	; (8002200 <TIM_Base_SetConfig+0x14c>)
 8002152:	4293      	cmp	r3, r2
 8002154:	d003      	beq.n	800215e <TIM_Base_SetConfig+0xaa>
 8002156:	687b      	ldr	r3, [r7, #4]
 8002158:	4a26      	ldr	r2, [pc, #152]	; (80021f4 <TIM_Base_SetConfig+0x140>)
 800215a:	4293      	cmp	r3, r2
 800215c:	d108      	bne.n	8002170 <TIM_Base_SetConfig+0xbc>
  {
    /* Set the clock division */
    tmpcr1 &= ~TIM_CR1_CKD;
 800215e:	68fb      	ldr	r3, [r7, #12]
 8002160:	f423 7340 	bic.w	r3, r3, #768	; 0x300
 8002164:	60fb      	str	r3, [r7, #12]
    tmpcr1 |= (uint32_t)Structure->ClockDivision;
 8002166:	683b      	ldr	r3, [r7, #0]
 8002168:	68db      	ldr	r3, [r3, #12]
 800216a:	68fa      	ldr	r2, [r7, #12]
 800216c:	4313      	orrs	r3, r2
 800216e:	60fb      	str	r3, [r7, #12]
  }

  /* Set the auto-reload preload */
  MODIFY_REG(tmpcr1, TIM_CR1_ARPE, Structure->AutoReloadPreload);
 8002170:	68fb      	ldr	r3, [r7, #12]
 8002172:	f023 0280 	bic.w	r2, r3, #128	; 0x80
 8002176:	683b      	ldr	r3, [r7, #0]
 8002178:	695b      	ldr	r3, [r3, #20]
 800217a:	4313      	orrs	r3, r2
 800217c:	60fb      	str	r3, [r7, #12]

  TIMx->CR1 = tmpcr1;
 800217e:	687b      	ldr	r3, [r7, #4]
 8002180:	68fa      	ldr	r2, [r7, #12]
 8002182:	601a      	str	r2, [r3, #0]

  /* Set the Autoreload value */
  TIMx->ARR = (uint32_t)Structure->Period ;
 8002184:	683b      	ldr	r3, [r7, #0]
 8002186:	689a      	ldr	r2, [r3, #8]
 8002188:	687b      	ldr	r3, [r7, #4]
 800218a:	62da      	str	r2, [r3, #44]	; 0x2c

  /* Set the Prescaler value */
  TIMx->PSC = Structure->Prescaler;
 800218c:	683b      	ldr	r3, [r7, #0]
 800218e:	681a      	ldr	r2, [r3, #0]
 8002190:	687b      	ldr	r3, [r7, #4]
 8002192:	629a      	str	r2, [r3, #40]	; 0x28

  if (IS_TIM_REPETITION_COUNTER_INSTANCE(TIMx))
 8002194:	687b      	ldr	r3, [r7, #4]
 8002196:	4a12      	ldr	r2, [pc, #72]	; (80021e0 <TIM_Base_SetConfig+0x12c>)
 8002198:	4293      	cmp	r3, r2
 800219a:	d013      	beq.n	80021c4 <TIM_Base_SetConfig+0x110>
 800219c:	687b      	ldr	r3, [r7, #4]
 800219e:	4a14      	ldr	r2, [pc, #80]	; (80021f0 <TIM_Base_SetConfig+0x13c>)
 80021a0:	4293      	cmp	r3, r2
 80021a2:	d00f      	beq.n	80021c4 <TIM_Base_SetConfig+0x110>
 80021a4:	687b      	ldr	r3, [r7, #4]
 80021a6:	4a14      	ldr	r2, [pc, #80]	; (80021f8 <TIM_Base_SetConfig+0x144>)
 80021a8:	4293      	cmp	r3, r2
 80021aa:	d00b      	beq.n	80021c4 <TIM_Base_SetConfig+0x110>
 80021ac:	687b      	ldr	r3, [r7, #4]
 80021ae:	4a13      	ldr	r2, [pc, #76]	; (80021fc <TIM_Base_SetConfig+0x148>)
 80021b0:	4293      	cmp	r3, r2
 80021b2:	d007      	beq.n	80021c4 <TIM_Base_SetConfig+0x110>
 80021b4:	687b      	ldr	r3, [r7, #4]
 80021b6:	4a12      	ldr	r2, [pc, #72]	; (8002200 <TIM_Base_SetConfig+0x14c>)
 80021b8:	4293      	cmp	r3, r2
 80021ba:	d003      	beq.n	80021c4 <TIM_Base_SetConfig+0x110>
 80021bc:	687b      	ldr	r3, [r7, #4]
 80021be:	4a0d      	ldr	r2, [pc, #52]	; (80021f4 <TIM_Base_SetConfig+0x140>)
 80021c0:	4293      	cmp	r3, r2
 80021c2:	d103      	bne.n	80021cc <TIM_Base_SetConfig+0x118>
  {
    /* Set the Repetition Counter value */
    TIMx->RCR = Structure->RepetitionCounter;
 80021c4:	683b      	ldr	r3, [r7, #0]
 80021c6:	691a      	ldr	r2, [r3, #16]
 80021c8:	687b      	ldr	r3, [r7, #4]
 80021ca:	631a      	str	r2, [r3, #48]	; 0x30
  }

  /* Generate an update event to reload the Prescaler
     and the repetition counter (only for advanced timer) value immediately */
  TIMx->EGR = TIM_EGR_UG;
 80021cc:	687b      	ldr	r3, [r7, #4]
 80021ce:	2201      	movs	r2, #1
 80021d0:	615a      	str	r2, [r3, #20]
}
 80021d2:	bf00      	nop
 80021d4:	3714      	adds	r7, #20
 80021d6:	46bd      	mov	sp, r7
 80021d8:	f85d 7b04 	ldr.w	r7, [sp], #4
 80021dc:	4770      	bx	lr
 80021de:	bf00      	nop
 80021e0:	40012c00 	.word	0x40012c00
 80021e4:	40000400 	.word	0x40000400
 80021e8:	40000800 	.word	0x40000800
 80021ec:	40000c00 	.word	0x40000c00
 80021f0:	40013400 	.word	0x40013400
 80021f4:	40015000 	.word	0x40015000
 80021f8:	40014000 	.word	0x40014000
 80021fc:	40014400 	.word	0x40014400
 8002200:	40014800 	.word	0x40014800

08002204 <HAL_TIMEx_MasterConfigSynchronization>:
  *         mode.
  * @retval HAL status
  */
HAL_StatusTypeDef HAL_TIMEx_MasterConfigSynchronization(TIM_HandleTypeDef *htim,
                                                        TIM_MasterConfigTypeDef *sMasterConfig)
{
 8002204:	b480      	push	{r7}
 8002206:	b085      	sub	sp, #20
 8002208:	af00      	add	r7, sp, #0
 800220a:	6078      	str	r0, [r7, #4]
 800220c:	6039      	str	r1, [r7, #0]
  assert_param(IS_TIM_MASTER_INSTANCE(htim->Instance));
  assert_param(IS_TIM_TRGO_SOURCE(sMasterConfig->MasterOutputTrigger));
  assert_param(IS_TIM_MSM_STATE(sMasterConfig->MasterSlaveMode));

  /* Check input state */
  __HAL_LOCK(htim);
 800220e:	687b      	ldr	r3, [r7, #4]
 8002210:	f893 303c 	ldrb.w	r3, [r3, #60]	; 0x3c
 8002214:	2b01      	cmp	r3, #1
 8002216:	d101      	bne.n	800221c <HAL_TIMEx_MasterConfigSynchronization+0x18>
 8002218:	2302      	movs	r3, #2
 800221a:	e074      	b.n	8002306 <HAL_TIMEx_MasterConfigSynchronization+0x102>
 800221c:	687b      	ldr	r3, [r7, #4]
 800221e:	2201      	movs	r2, #1
 8002220:	f883 203c 	strb.w	r2, [r3, #60]	; 0x3c

  /* Change the handler state */
  htim->State = HAL_TIM_STATE_BUSY;
 8002224:	687b      	ldr	r3, [r7, #4]
 8002226:	2202      	movs	r2, #2
 8002228:	f883 203d 	strb.w	r2, [r3, #61]	; 0x3d

  /* Get the TIMx CR2 register value */
  tmpcr2 = htim->Instance->CR2;
 800222c:	687b      	ldr	r3, [r7, #4]
 800222e:	681b      	ldr	r3, [r3, #0]
 8002230:	685b      	ldr	r3, [r3, #4]
 8002232:	60fb      	str	r3, [r7, #12]

  /* Get the TIMx SMCR register value */
  tmpsmcr = htim->Instance->SMCR;
 8002234:	687b      	ldr	r3, [r7, #4]
 8002236:	681b      	ldr	r3, [r3, #0]
 8002238:	689b      	ldr	r3, [r3, #8]
 800223a:	60bb      	str	r3, [r7, #8]

  /* If the timer supports ADC synchronization through TRGO2, set the master mode selection 2 */
  if (IS_TIM_TRGO2_INSTANCE(htim->Instance))
 800223c:	687b      	ldr	r3, [r7, #4]
 800223e:	681b      	ldr	r3, [r3, #0]
 8002240:	4a34      	ldr	r2, [pc, #208]	; (8002314 <HAL_TIMEx_MasterConfigSynchronization+0x110>)
 8002242:	4293      	cmp	r3, r2
 8002244:	d009      	beq.n	800225a <HAL_TIMEx_MasterConfigSynchronization+0x56>
 8002246:	687b      	ldr	r3, [r7, #4]
 8002248:	681b      	ldr	r3, [r3, #0]
 800224a:	4a33      	ldr	r2, [pc, #204]	; (8002318 <HAL_TIMEx_MasterConfigSynchronization+0x114>)
 800224c:	4293      	cmp	r3, r2
 800224e:	d004      	beq.n	800225a <HAL_TIMEx_MasterConfigSynchronization+0x56>
 8002250:	687b      	ldr	r3, [r7, #4]
 8002252:	681b      	ldr	r3, [r3, #0]
 8002254:	4a31      	ldr	r2, [pc, #196]	; (800231c <HAL_TIMEx_MasterConfigSynchronization+0x118>)
 8002256:	4293      	cmp	r3, r2
 8002258:	d108      	bne.n	800226c <HAL_TIMEx_MasterConfigSynchronization+0x68>
  {
    /* Check the parameters */
    assert_param(IS_TIM_TRGO2_SOURCE(sMasterConfig->MasterOutputTrigger2));

    /* Clear the MMS2 bits */
    tmpcr2 &= ~TIM_CR2_MMS2;
 800225a:	68fb      	ldr	r3, [r7, #12]
 800225c:	f423 0370 	bic.w	r3, r3, #15728640	; 0xf00000
 8002260:	60fb      	str	r3, [r7, #12]
    /* Select the TRGO2 source*/
    tmpcr2 |= sMasterConfig->MasterOutputTrigger2;
 8002262:	683b      	ldr	r3, [r7, #0]
 8002264:	685b      	ldr	r3, [r3, #4]
 8002266:	68fa      	ldr	r2, [r7, #12]
 8002268:	4313      	orrs	r3, r2
 800226a:	60fb      	str	r3, [r7, #12]
  }

  /* Reset the MMS Bits */
  tmpcr2 &= ~TIM_CR2_MMS;
 800226c:	68fb      	ldr	r3, [r7, #12]
 800226e:	f023 7300 	bic.w	r3, r3, #33554432	; 0x2000000
 8002272:	f023 0370 	bic.w	r3, r3, #112	; 0x70
 8002276:	60fb      	str	r3, [r7, #12]
  /* Select the TRGO source */
  tmpcr2 |=  sMasterConfig->MasterOutputTrigger;
 8002278:	683b      	ldr	r3, [r7, #0]
 800227a:	681b      	ldr	r3, [r3, #0]
 800227c:	68fa      	ldr	r2, [r7, #12]
 800227e:	4313      	orrs	r3, r2
 8002280:	60fb      	str	r3, [r7, #12]

  /* Update TIMx CR2 */
  htim->Instance->CR2 = tmpcr2;
 8002282:	687b      	ldr	r3, [r7, #4]
 8002284:	681b      	ldr	r3, [r3, #0]
 8002286:	68fa      	ldr	r2, [r7, #12]
 8002288:	605a      	str	r2, [r3, #4]

  if (IS_TIM_SLAVE_INSTANCE(htim->Instance))
 800228a:	687b      	ldr	r3, [r7, #4]
 800228c:	681b      	ldr	r3, [r3, #0]
 800228e:	4a21      	ldr	r2, [pc, #132]	; (8002314 <HAL_TIMEx_MasterConfigSynchronization+0x110>)
 8002290:	4293      	cmp	r3, r2
 8002292:	d022      	beq.n	80022da <HAL_TIMEx_MasterConfigSynchronization+0xd6>
 8002294:	687b      	ldr	r3, [r7, #4]
 8002296:	681b      	ldr	r3, [r3, #0]
 8002298:	f1b3 4f80 	cmp.w	r3, #1073741824	; 0x40000000
 800229c:	d01d      	beq.n	80022da <HAL_TIMEx_MasterConfigSynchronization+0xd6>
 800229e:	687b      	ldr	r3, [r7, #4]
 80022a0:	681b      	ldr	r3, [r3, #0]
 80022a2:	4a1f      	ldr	r2, [pc, #124]	; (8002320 <HAL_TIMEx_MasterConfigSynchronization+0x11c>)
 80022a4:	4293      	cmp	r3, r2
 80022a6:	d018      	beq.n	80022da <HAL_TIMEx_MasterConfigSynchronization+0xd6>
 80022a8:	687b      	ldr	r3, [r7, #4]
 80022aa:	681b      	ldr	r3, [r3, #0]
 80022ac:	4a1d      	ldr	r2, [pc, #116]	; (8002324 <HAL_TIMEx_MasterConfigSynchronization+0x120>)
 80022ae:	4293      	cmp	r3, r2
 80022b0:	d013      	beq.n	80022da <HAL_TIMEx_MasterConfigSynchronization+0xd6>
 80022b2:	687b      	ldr	r3, [r7, #4]
 80022b4:	681b      	ldr	r3, [r3, #0]
 80022b6:	4a1c      	ldr	r2, [pc, #112]	; (8002328 <HAL_TIMEx_MasterConfigSynchronization+0x124>)
 80022b8:	4293      	cmp	r3, r2
 80022ba:	d00e      	beq.n	80022da <HAL_TIMEx_MasterConfigSynchronization+0xd6>
 80022bc:	687b      	ldr	r3, [r7, #4]
 80022be:	681b      	ldr	r3, [r3, #0]
 80022c0:	4a15      	ldr	r2, [pc, #84]	; (8002318 <HAL_TIMEx_MasterConfigSynchronization+0x114>)
 80022c2:	4293      	cmp	r3, r2
 80022c4:	d009      	beq.n	80022da <HAL_TIMEx_MasterConfigSynchronization+0xd6>
 80022c6:	687b      	ldr	r3, [r7, #4]
 80022c8:	681b      	ldr	r3, [r3, #0]
 80022ca:	4a18      	ldr	r2, [pc, #96]	; (800232c <HAL_TIMEx_MasterConfigSynchronization+0x128>)
 80022cc:	4293      	cmp	r3, r2
 80022ce:	d004      	beq.n	80022da <HAL_TIMEx_MasterConfigSynchronization+0xd6>
 80022d0:	687b      	ldr	r3, [r7, #4]
 80022d2:	681b      	ldr	r3, [r3, #0]
 80022d4:	4a11      	ldr	r2, [pc, #68]	; (800231c <HAL_TIMEx_MasterConfigSynchronization+0x118>)
 80022d6:	4293      	cmp	r3, r2
 80022d8:	d10c      	bne.n	80022f4 <HAL_TIMEx_MasterConfigSynchronization+0xf0>
  {
    /* Reset the MSM Bit */
    tmpsmcr &= ~TIM_SMCR_MSM;
 80022da:	68bb      	ldr	r3, [r7, #8]
 80022dc:	f023 0380 	bic.w	r3, r3, #128	; 0x80
 80022e0:	60bb      	str	r3, [r7, #8]
    /* Set master mode */
    tmpsmcr |= sMasterConfig->MasterSlaveMode;
 80022e2:	683b      	ldr	r3, [r7, #0]
 80022e4:	689b      	ldr	r3, [r3, #8]
 80022e6:	68ba      	ldr	r2, [r7, #8]
 80022e8:	4313      	orrs	r3, r2
 80022ea:	60bb      	str	r3, [r7, #8]

    /* Update TIMx SMCR */
    htim->Instance->SMCR = tmpsmcr;
 80022ec:	687b      	ldr	r3, [r7, #4]
 80022ee:	681b      	ldr	r3, [r3, #0]
 80022f0:	68ba      	ldr	r2, [r7, #8]
 80022f2:	609a      	str	r2, [r3, #8]
  }

  /* Change the htim state */
  htim->State = HAL_TIM_STATE_READY;
 80022f4:	687b      	ldr	r3, [r7, #4]
 80022f6:	2201      	movs	r2, #1
 80022f8:	f883 203d 	strb.w	r2, [r3, #61]	; 0x3d

  __HAL_UNLOCK(htim);
 80022fc:	687b      	ldr	r3, [r7, #4]
 80022fe:	2200      	movs	r2, #0
 8002300:	f883 203c 	strb.w	r2, [r3, #60]	; 0x3c

  return HAL_OK;
 8002304:	2300      	movs	r3, #0
}
 8002306:	4618      	mov	r0, r3
 8002308:	3714      	adds	r7, #20
 800230a:	46bd      	mov	sp, r7
 800230c:	f85d 7b04 	ldr.w	r7, [sp], #4
 8002310:	4770      	bx	lr
 8002312:	bf00      	nop
 8002314:	40012c00 	.word	0x40012c00
 8002318:	40013400 	.word	0x40013400
 800231c:	40015000 	.word	0x40015000
 8002320:	40000400 	.word	0x40000400
 8002324:	40000800 	.word	0x40000800
 8002328:	40000c00 	.word	0x40000c00
 800232c:	40014000 	.word	0x40014000

08002330 <__errno>:
 8002330:	4b01      	ldr	r3, [pc, #4]	; (8002338 <__errno+0x8>)
 8002332:	6818      	ldr	r0, [r3, #0]
 8002334:	4770      	bx	lr
 8002336:	bf00      	nop
 8002338:	20000010 	.word	0x20000010

0800233c <__libc_init_array>:
 800233c:	b570      	push	{r4, r5, r6, lr}
 800233e:	4e0d      	ldr	r6, [pc, #52]	; (8002374 <__libc_init_array+0x38>)
 8002340:	4c0d      	ldr	r4, [pc, #52]	; (8002378 <__libc_init_array+0x3c>)
 8002342:	1ba4      	subs	r4, r4, r6
 8002344:	10a4      	asrs	r4, r4, #2
 8002346:	2500      	movs	r5, #0
 8002348:	42a5      	cmp	r5, r4
 800234a:	d109      	bne.n	8002360 <__libc_init_array+0x24>
 800234c:	4e0b      	ldr	r6, [pc, #44]	; (800237c <__libc_init_array+0x40>)
 800234e:	4c0c      	ldr	r4, [pc, #48]	; (8002380 <__libc_init_array+0x44>)
 8002350:	f000 fc88 	bl	8002c64 <_init>
 8002354:	1ba4      	subs	r4, r4, r6
 8002356:	10a4      	asrs	r4, r4, #2
 8002358:	2500      	movs	r5, #0
 800235a:	42a5      	cmp	r5, r4
 800235c:	d105      	bne.n	800236a <__libc_init_array+0x2e>
 800235e:	bd70      	pop	{r4, r5, r6, pc}
 8002360:	f856 3025 	ldr.w	r3, [r6, r5, lsl #2]
 8002364:	4798      	blx	r3
 8002366:	3501      	adds	r5, #1
 8002368:	e7ee      	b.n	8002348 <__libc_init_array+0xc>
 800236a:	f856 3025 	ldr.w	r3, [r6, r5, lsl #2]
 800236e:	4798      	blx	r3
 8002370:	3501      	adds	r5, #1
 8002372:	e7f2      	b.n	800235a <__libc_init_array+0x1e>
 8002374:	08002cf8 	.word	0x08002cf8
 8002378:	08002cf8 	.word	0x08002cf8
 800237c:	08002cf8 	.word	0x08002cf8
 8002380:	08002cfc 	.word	0x08002cfc

08002384 <memset>:
 8002384:	4402      	add	r2, r0
 8002386:	4603      	mov	r3, r0
 8002388:	4293      	cmp	r3, r2
 800238a:	d100      	bne.n	800238e <memset+0xa>
 800238c:	4770      	bx	lr
 800238e:	f803 1b01 	strb.w	r1, [r3], #1
 8002392:	e7f9      	b.n	8002388 <memset+0x4>

08002394 <_puts_r>:
 8002394:	b570      	push	{r4, r5, r6, lr}
 8002396:	460e      	mov	r6, r1
 8002398:	4605      	mov	r5, r0
 800239a:	b118      	cbz	r0, 80023a4 <_puts_r+0x10>
 800239c:	6983      	ldr	r3, [r0, #24]
 800239e:	b90b      	cbnz	r3, 80023a4 <_puts_r+0x10>
 80023a0:	f000 fa0c 	bl	80027bc <__sinit>
 80023a4:	69ab      	ldr	r3, [r5, #24]
 80023a6:	68ac      	ldr	r4, [r5, #8]
 80023a8:	b913      	cbnz	r3, 80023b0 <_puts_r+0x1c>
 80023aa:	4628      	mov	r0, r5
 80023ac:	f000 fa06 	bl	80027bc <__sinit>
 80023b0:	4b23      	ldr	r3, [pc, #140]	; (8002440 <_puts_r+0xac>)
 80023b2:	429c      	cmp	r4, r3
 80023b4:	d117      	bne.n	80023e6 <_puts_r+0x52>
 80023b6:	686c      	ldr	r4, [r5, #4]
 80023b8:	89a3      	ldrh	r3, [r4, #12]
 80023ba:	071b      	lsls	r3, r3, #28
 80023bc:	d51d      	bpl.n	80023fa <_puts_r+0x66>
 80023be:	6923      	ldr	r3, [r4, #16]
 80023c0:	b1db      	cbz	r3, 80023fa <_puts_r+0x66>
 80023c2:	3e01      	subs	r6, #1
 80023c4:	68a3      	ldr	r3, [r4, #8]
 80023c6:	f816 1f01 	ldrb.w	r1, [r6, #1]!
 80023ca:	3b01      	subs	r3, #1
 80023cc:	60a3      	str	r3, [r4, #8]
 80023ce:	b9e9      	cbnz	r1, 800240c <_puts_r+0x78>
 80023d0:	2b00      	cmp	r3, #0
 80023d2:	da2e      	bge.n	8002432 <_puts_r+0x9e>
 80023d4:	4622      	mov	r2, r4
 80023d6:	210a      	movs	r1, #10
 80023d8:	4628      	mov	r0, r5
 80023da:	f000 f83f 	bl	800245c <__swbuf_r>
 80023de:	3001      	adds	r0, #1
 80023e0:	d011      	beq.n	8002406 <_puts_r+0x72>
 80023e2:	200a      	movs	r0, #10
 80023e4:	e011      	b.n	800240a <_puts_r+0x76>
 80023e6:	4b17      	ldr	r3, [pc, #92]	; (8002444 <_puts_r+0xb0>)
 80023e8:	429c      	cmp	r4, r3
 80023ea:	d101      	bne.n	80023f0 <_puts_r+0x5c>
 80023ec:	68ac      	ldr	r4, [r5, #8]
 80023ee:	e7e3      	b.n	80023b8 <_puts_r+0x24>
 80023f0:	4b15      	ldr	r3, [pc, #84]	; (8002448 <_puts_r+0xb4>)
 80023f2:	429c      	cmp	r4, r3
 80023f4:	bf08      	it	eq
 80023f6:	68ec      	ldreq	r4, [r5, #12]
 80023f8:	e7de      	b.n	80023b8 <_puts_r+0x24>
 80023fa:	4621      	mov	r1, r4
 80023fc:	4628      	mov	r0, r5
 80023fe:	f000 f87f 	bl	8002500 <__swsetup_r>
 8002402:	2800      	cmp	r0, #0
 8002404:	d0dd      	beq.n	80023c2 <_puts_r+0x2e>
 8002406:	f04f 30ff 	mov.w	r0, #4294967295	; 0xffffffff
 800240a:	bd70      	pop	{r4, r5, r6, pc}
 800240c:	2b00      	cmp	r3, #0
 800240e:	da04      	bge.n	800241a <_puts_r+0x86>
 8002410:	69a2      	ldr	r2, [r4, #24]
 8002412:	429a      	cmp	r2, r3
 8002414:	dc06      	bgt.n	8002424 <_puts_r+0x90>
 8002416:	290a      	cmp	r1, #10
 8002418:	d004      	beq.n	8002424 <_puts_r+0x90>
 800241a:	6823      	ldr	r3, [r4, #0]
 800241c:	1c5a      	adds	r2, r3, #1
 800241e:	6022      	str	r2, [r4, #0]
 8002420:	7019      	strb	r1, [r3, #0]
 8002422:	e7cf      	b.n	80023c4 <_puts_r+0x30>
 8002424:	4622      	mov	r2, r4
 8002426:	4628      	mov	r0, r5
 8002428:	f000 f818 	bl	800245c <__swbuf_r>
 800242c:	3001      	adds	r0, #1
 800242e:	d1c9      	bne.n	80023c4 <_puts_r+0x30>
 8002430:	e7e9      	b.n	8002406 <_puts_r+0x72>
 8002432:	6823      	ldr	r3, [r4, #0]
 8002434:	200a      	movs	r0, #10
 8002436:	1c5a      	adds	r2, r3, #1
 8002438:	6022      	str	r2, [r4, #0]
 800243a:	7018      	strb	r0, [r3, #0]
 800243c:	e7e5      	b.n	800240a <_puts_r+0x76>
 800243e:	bf00      	nop
 8002440:	08002cb8 	.word	0x08002cb8
 8002444:	08002cd8 	.word	0x08002cd8
 8002448:	08002c98 	.word	0x08002c98

0800244c <puts>:
 800244c:	4b02      	ldr	r3, [pc, #8]	; (8002458 <puts+0xc>)
 800244e:	4601      	mov	r1, r0
 8002450:	6818      	ldr	r0, [r3, #0]
 8002452:	f7ff bf9f 	b.w	8002394 <_puts_r>
 8002456:	bf00      	nop
 8002458:	20000010 	.word	0x20000010

0800245c <__swbuf_r>:
 800245c:	b5f8      	push	{r3, r4, r5, r6, r7, lr}
 800245e:	460e      	mov	r6, r1
 8002460:	4614      	mov	r4, r2
 8002462:	4605      	mov	r5, r0
 8002464:	b118      	cbz	r0, 800246e <__swbuf_r+0x12>
 8002466:	6983      	ldr	r3, [r0, #24]
 8002468:	b90b      	cbnz	r3, 800246e <__swbuf_r+0x12>
 800246a:	f000 f9a7 	bl	80027bc <__sinit>
 800246e:	4b21      	ldr	r3, [pc, #132]	; (80024f4 <__swbuf_r+0x98>)
 8002470:	429c      	cmp	r4, r3
 8002472:	d12a      	bne.n	80024ca <__swbuf_r+0x6e>
 8002474:	686c      	ldr	r4, [r5, #4]
 8002476:	69a3      	ldr	r3, [r4, #24]
 8002478:	60a3      	str	r3, [r4, #8]
 800247a:	89a3      	ldrh	r3, [r4, #12]
 800247c:	071a      	lsls	r2, r3, #28
 800247e:	d52e      	bpl.n	80024de <__swbuf_r+0x82>
 8002480:	6923      	ldr	r3, [r4, #16]
 8002482:	b363      	cbz	r3, 80024de <__swbuf_r+0x82>
 8002484:	6923      	ldr	r3, [r4, #16]
 8002486:	6820      	ldr	r0, [r4, #0]
 8002488:	1ac0      	subs	r0, r0, r3
 800248a:	6963      	ldr	r3, [r4, #20]
 800248c:	b2f6      	uxtb	r6, r6
 800248e:	4283      	cmp	r3, r0
 8002490:	4637      	mov	r7, r6
 8002492:	dc04      	bgt.n	800249e <__swbuf_r+0x42>
 8002494:	4621      	mov	r1, r4
 8002496:	4628      	mov	r0, r5
 8002498:	f000 f926 	bl	80026e8 <_fflush_r>
 800249c:	bb28      	cbnz	r0, 80024ea <__swbuf_r+0x8e>
 800249e:	68a3      	ldr	r3, [r4, #8]
 80024a0:	3b01      	subs	r3, #1
 80024a2:	60a3      	str	r3, [r4, #8]
 80024a4:	6823      	ldr	r3, [r4, #0]
 80024a6:	1c5a      	adds	r2, r3, #1
 80024a8:	6022      	str	r2, [r4, #0]
 80024aa:	701e      	strb	r6, [r3, #0]
 80024ac:	6963      	ldr	r3, [r4, #20]
 80024ae:	3001      	adds	r0, #1
 80024b0:	4283      	cmp	r3, r0
 80024b2:	d004      	beq.n	80024be <__swbuf_r+0x62>
 80024b4:	89a3      	ldrh	r3, [r4, #12]
 80024b6:	07db      	lsls	r3, r3, #31
 80024b8:	d519      	bpl.n	80024ee <__swbuf_r+0x92>
 80024ba:	2e0a      	cmp	r6, #10
 80024bc:	d117      	bne.n	80024ee <__swbuf_r+0x92>
 80024be:	4621      	mov	r1, r4
 80024c0:	4628      	mov	r0, r5
 80024c2:	f000 f911 	bl	80026e8 <_fflush_r>
 80024c6:	b190      	cbz	r0, 80024ee <__swbuf_r+0x92>
 80024c8:	e00f      	b.n	80024ea <__swbuf_r+0x8e>
 80024ca:	4b0b      	ldr	r3, [pc, #44]	; (80024f8 <__swbuf_r+0x9c>)
 80024cc:	429c      	cmp	r4, r3
 80024ce:	d101      	bne.n	80024d4 <__swbuf_r+0x78>
 80024d0:	68ac      	ldr	r4, [r5, #8]
 80024d2:	e7d0      	b.n	8002476 <__swbuf_r+0x1a>
 80024d4:	4b09      	ldr	r3, [pc, #36]	; (80024fc <__swbuf_r+0xa0>)
 80024d6:	429c      	cmp	r4, r3
 80024d8:	bf08      	it	eq
 80024da:	68ec      	ldreq	r4, [r5, #12]
 80024dc:	e7cb      	b.n	8002476 <__swbuf_r+0x1a>
 80024de:	4621      	mov	r1, r4
 80024e0:	4628      	mov	r0, r5
 80024e2:	f000 f80d 	bl	8002500 <__swsetup_r>
 80024e6:	2800      	cmp	r0, #0
 80024e8:	d0cc      	beq.n	8002484 <__swbuf_r+0x28>
 80024ea:	f04f 37ff 	mov.w	r7, #4294967295	; 0xffffffff
 80024ee:	4638      	mov	r0, r7
 80024f0:	bdf8      	pop	{r3, r4, r5, r6, r7, pc}
 80024f2:	bf00      	nop
 80024f4:	08002cb8 	.word	0x08002cb8
 80024f8:	08002cd8 	.word	0x08002cd8
 80024fc:	08002c98 	.word	0x08002c98

08002500 <__swsetup_r>:
 8002500:	4b32      	ldr	r3, [pc, #200]	; (80025cc <__swsetup_r+0xcc>)
 8002502:	b570      	push	{r4, r5, r6, lr}
 8002504:	681d      	ldr	r5, [r3, #0]
 8002506:	4606      	mov	r6, r0
 8002508:	460c      	mov	r4, r1
 800250a:	b125      	cbz	r5, 8002516 <__swsetup_r+0x16>
 800250c:	69ab      	ldr	r3, [r5, #24]
 800250e:	b913      	cbnz	r3, 8002516 <__swsetup_r+0x16>
 8002510:	4628      	mov	r0, r5
 8002512:	f000 f953 	bl	80027bc <__sinit>
 8002516:	4b2e      	ldr	r3, [pc, #184]	; (80025d0 <__swsetup_r+0xd0>)
 8002518:	429c      	cmp	r4, r3
 800251a:	d10f      	bne.n	800253c <__swsetup_r+0x3c>
 800251c:	686c      	ldr	r4, [r5, #4]
 800251e:	f9b4 300c 	ldrsh.w	r3, [r4, #12]
 8002522:	b29a      	uxth	r2, r3
 8002524:	0715      	lsls	r5, r2, #28
 8002526:	d42c      	bmi.n	8002582 <__swsetup_r+0x82>
 8002528:	06d0      	lsls	r0, r2, #27
 800252a:	d411      	bmi.n	8002550 <__swsetup_r+0x50>
 800252c:	2209      	movs	r2, #9
 800252e:	6032      	str	r2, [r6, #0]
 8002530:	f043 0340 	orr.w	r3, r3, #64	; 0x40
 8002534:	81a3      	strh	r3, [r4, #12]
 8002536:	f04f 30ff 	mov.w	r0, #4294967295	; 0xffffffff
 800253a:	e03e      	b.n	80025ba <__swsetup_r+0xba>
 800253c:	4b25      	ldr	r3, [pc, #148]	; (80025d4 <__swsetup_r+0xd4>)
 800253e:	429c      	cmp	r4, r3
 8002540:	d101      	bne.n	8002546 <__swsetup_r+0x46>
 8002542:	68ac      	ldr	r4, [r5, #8]
 8002544:	e7eb      	b.n	800251e <__swsetup_r+0x1e>
 8002546:	4b24      	ldr	r3, [pc, #144]	; (80025d8 <__swsetup_r+0xd8>)
 8002548:	429c      	cmp	r4, r3
 800254a:	bf08      	it	eq
 800254c:	68ec      	ldreq	r4, [r5, #12]
 800254e:	e7e6      	b.n	800251e <__swsetup_r+0x1e>
 8002550:	0751      	lsls	r1, r2, #29
 8002552:	d512      	bpl.n	800257a <__swsetup_r+0x7a>
 8002554:	6b61      	ldr	r1, [r4, #52]	; 0x34
 8002556:	b141      	cbz	r1, 800256a <__swsetup_r+0x6a>
 8002558:	f104 0344 	add.w	r3, r4, #68	; 0x44
 800255c:	4299      	cmp	r1, r3
 800255e:	d002      	beq.n	8002566 <__swsetup_r+0x66>
 8002560:	4630      	mov	r0, r6
 8002562:	f000 fa19 	bl	8002998 <_free_r>
 8002566:	2300      	movs	r3, #0
 8002568:	6363      	str	r3, [r4, #52]	; 0x34
 800256a:	89a3      	ldrh	r3, [r4, #12]
 800256c:	f023 0324 	bic.w	r3, r3, #36	; 0x24
 8002570:	81a3      	strh	r3, [r4, #12]
 8002572:	2300      	movs	r3, #0
 8002574:	6063      	str	r3, [r4, #4]
 8002576:	6923      	ldr	r3, [r4, #16]
 8002578:	6023      	str	r3, [r4, #0]
 800257a:	89a3      	ldrh	r3, [r4, #12]
 800257c:	f043 0308 	orr.w	r3, r3, #8
 8002580:	81a3      	strh	r3, [r4, #12]
 8002582:	6923      	ldr	r3, [r4, #16]
 8002584:	b94b      	cbnz	r3, 800259a <__swsetup_r+0x9a>
 8002586:	89a3      	ldrh	r3, [r4, #12]
 8002588:	f403 7320 	and.w	r3, r3, #640	; 0x280
 800258c:	f5b3 7f00 	cmp.w	r3, #512	; 0x200
 8002590:	d003      	beq.n	800259a <__swsetup_r+0x9a>
 8002592:	4621      	mov	r1, r4
 8002594:	4630      	mov	r0, r6
 8002596:	f000 f9bf 	bl	8002918 <__smakebuf_r>
 800259a:	89a2      	ldrh	r2, [r4, #12]
 800259c:	f012 0301 	ands.w	r3, r2, #1
 80025a0:	d00c      	beq.n	80025bc <__swsetup_r+0xbc>
 80025a2:	2300      	movs	r3, #0
 80025a4:	60a3      	str	r3, [r4, #8]
 80025a6:	6963      	ldr	r3, [r4, #20]
 80025a8:	425b      	negs	r3, r3
 80025aa:	61a3      	str	r3, [r4, #24]
 80025ac:	6923      	ldr	r3, [r4, #16]
 80025ae:	b953      	cbnz	r3, 80025c6 <__swsetup_r+0xc6>
 80025b0:	f9b4 300c 	ldrsh.w	r3, [r4, #12]
 80025b4:	f013 0080 	ands.w	r0, r3, #128	; 0x80
 80025b8:	d1ba      	bne.n	8002530 <__swsetup_r+0x30>
 80025ba:	bd70      	pop	{r4, r5, r6, pc}
 80025bc:	0792      	lsls	r2, r2, #30
 80025be:	bf58      	it	pl
 80025c0:	6963      	ldrpl	r3, [r4, #20]
 80025c2:	60a3      	str	r3, [r4, #8]
 80025c4:	e7f2      	b.n	80025ac <__swsetup_r+0xac>
 80025c6:	2000      	movs	r0, #0
 80025c8:	e7f7      	b.n	80025ba <__swsetup_r+0xba>
 80025ca:	bf00      	nop
 80025cc:	20000010 	.word	0x20000010
 80025d0:	08002cb8 	.word	0x08002cb8
 80025d4:	08002cd8 	.word	0x08002cd8
 80025d8:	08002c98 	.word	0x08002c98

080025dc <__sflush_r>:
 80025dc:	898a      	ldrh	r2, [r1, #12]
 80025de:	e92d 41f0 	stmdb	sp!, {r4, r5, r6, r7, r8, lr}
 80025e2:	4605      	mov	r5, r0
 80025e4:	0710      	lsls	r0, r2, #28
 80025e6:	460c      	mov	r4, r1
 80025e8:	d458      	bmi.n	800269c <__sflush_r+0xc0>
 80025ea:	684b      	ldr	r3, [r1, #4]
 80025ec:	2b00      	cmp	r3, #0
 80025ee:	dc05      	bgt.n	80025fc <__sflush_r+0x20>
 80025f0:	6c0b      	ldr	r3, [r1, #64]	; 0x40
 80025f2:	2b00      	cmp	r3, #0
 80025f4:	dc02      	bgt.n	80025fc <__sflush_r+0x20>
 80025f6:	2000      	movs	r0, #0
 80025f8:	e8bd 81f0 	ldmia.w	sp!, {r4, r5, r6, r7, r8, pc}
 80025fc:	6ae6      	ldr	r6, [r4, #44]	; 0x2c
 80025fe:	2e00      	cmp	r6, #0
 8002600:	d0f9      	beq.n	80025f6 <__sflush_r+0x1a>
 8002602:	2300      	movs	r3, #0
 8002604:	f412 5280 	ands.w	r2, r2, #4096	; 0x1000
 8002608:	682f      	ldr	r7, [r5, #0]
 800260a:	6a21      	ldr	r1, [r4, #32]
 800260c:	602b      	str	r3, [r5, #0]
 800260e:	d032      	beq.n	8002676 <__sflush_r+0x9a>
 8002610:	6d60      	ldr	r0, [r4, #84]	; 0x54
 8002612:	89a3      	ldrh	r3, [r4, #12]
 8002614:	075a      	lsls	r2, r3, #29
 8002616:	d505      	bpl.n	8002624 <__sflush_r+0x48>
 8002618:	6863      	ldr	r3, [r4, #4]
 800261a:	1ac0      	subs	r0, r0, r3
 800261c:	6b63      	ldr	r3, [r4, #52]	; 0x34
 800261e:	b10b      	cbz	r3, 8002624 <__sflush_r+0x48>
 8002620:	6c23      	ldr	r3, [r4, #64]	; 0x40
 8002622:	1ac0      	subs	r0, r0, r3
 8002624:	2300      	movs	r3, #0
 8002626:	4602      	mov	r2, r0
 8002628:	6ae6      	ldr	r6, [r4, #44]	; 0x2c
 800262a:	6a21      	ldr	r1, [r4, #32]
 800262c:	4628      	mov	r0, r5
 800262e:	47b0      	blx	r6
 8002630:	1c43      	adds	r3, r0, #1
 8002632:	89a3      	ldrh	r3, [r4, #12]
 8002634:	d106      	bne.n	8002644 <__sflush_r+0x68>
 8002636:	6829      	ldr	r1, [r5, #0]
 8002638:	291d      	cmp	r1, #29
 800263a:	d848      	bhi.n	80026ce <__sflush_r+0xf2>
 800263c:	4a29      	ldr	r2, [pc, #164]	; (80026e4 <__sflush_r+0x108>)
 800263e:	40ca      	lsrs	r2, r1
 8002640:	07d6      	lsls	r6, r2, #31
 8002642:	d544      	bpl.n	80026ce <__sflush_r+0xf2>
 8002644:	2200      	movs	r2, #0
 8002646:	6062      	str	r2, [r4, #4]
 8002648:	04d9      	lsls	r1, r3, #19
 800264a:	6922      	ldr	r2, [r4, #16]
 800264c:	6022      	str	r2, [r4, #0]
 800264e:	d504      	bpl.n	800265a <__sflush_r+0x7e>
 8002650:	1c42      	adds	r2, r0, #1
 8002652:	d101      	bne.n	8002658 <__sflush_r+0x7c>
 8002654:	682b      	ldr	r3, [r5, #0]
 8002656:	b903      	cbnz	r3, 800265a <__sflush_r+0x7e>
 8002658:	6560      	str	r0, [r4, #84]	; 0x54
 800265a:	6b61      	ldr	r1, [r4, #52]	; 0x34
 800265c:	602f      	str	r7, [r5, #0]
 800265e:	2900      	cmp	r1, #0
 8002660:	d0c9      	beq.n	80025f6 <__sflush_r+0x1a>
 8002662:	f104 0344 	add.w	r3, r4, #68	; 0x44
 8002666:	4299      	cmp	r1, r3
 8002668:	d002      	beq.n	8002670 <__sflush_r+0x94>
 800266a:	4628      	mov	r0, r5
 800266c:	f000 f994 	bl	8002998 <_free_r>
 8002670:	2000      	movs	r0, #0
 8002672:	6360      	str	r0, [r4, #52]	; 0x34
 8002674:	e7c0      	b.n	80025f8 <__sflush_r+0x1c>
 8002676:	2301      	movs	r3, #1
 8002678:	4628      	mov	r0, r5
 800267a:	47b0      	blx	r6
 800267c:	1c41      	adds	r1, r0, #1
 800267e:	d1c8      	bne.n	8002612 <__sflush_r+0x36>
 8002680:	682b      	ldr	r3, [r5, #0]
 8002682:	2b00      	cmp	r3, #0
 8002684:	d0c5      	beq.n	8002612 <__sflush_r+0x36>
 8002686:	2b1d      	cmp	r3, #29
 8002688:	d001      	beq.n	800268e <__sflush_r+0xb2>
 800268a:	2b16      	cmp	r3, #22
 800268c:	d101      	bne.n	8002692 <__sflush_r+0xb6>
 800268e:	602f      	str	r7, [r5, #0]
 8002690:	e7b1      	b.n	80025f6 <__sflush_r+0x1a>
 8002692:	89a3      	ldrh	r3, [r4, #12]
 8002694:	f043 0340 	orr.w	r3, r3, #64	; 0x40
 8002698:	81a3      	strh	r3, [r4, #12]
 800269a:	e7ad      	b.n	80025f8 <__sflush_r+0x1c>
 800269c:	690f      	ldr	r7, [r1, #16]
 800269e:	2f00      	cmp	r7, #0
 80026a0:	d0a9      	beq.n	80025f6 <__sflush_r+0x1a>
 80026a2:	0793      	lsls	r3, r2, #30
 80026a4:	680e      	ldr	r6, [r1, #0]
 80026a6:	bf08      	it	eq
 80026a8:	694b      	ldreq	r3, [r1, #20]
 80026aa:	600f      	str	r7, [r1, #0]
 80026ac:	bf18      	it	ne
 80026ae:	2300      	movne	r3, #0
 80026b0:	eba6 0807 	sub.w	r8, r6, r7
 80026b4:	608b      	str	r3, [r1, #8]
 80026b6:	f1b8 0f00 	cmp.w	r8, #0
 80026ba:	dd9c      	ble.n	80025f6 <__sflush_r+0x1a>
 80026bc:	4643      	mov	r3, r8
 80026be:	463a      	mov	r2, r7
 80026c0:	6a21      	ldr	r1, [r4, #32]
 80026c2:	6aa6      	ldr	r6, [r4, #40]	; 0x28
 80026c4:	4628      	mov	r0, r5
 80026c6:	47b0      	blx	r6
 80026c8:	2800      	cmp	r0, #0
 80026ca:	dc06      	bgt.n	80026da <__sflush_r+0xfe>
 80026cc:	89a3      	ldrh	r3, [r4, #12]
 80026ce:	f043 0340 	orr.w	r3, r3, #64	; 0x40
 80026d2:	81a3      	strh	r3, [r4, #12]
 80026d4:	f04f 30ff 	mov.w	r0, #4294967295	; 0xffffffff
 80026d8:	e78e      	b.n	80025f8 <__sflush_r+0x1c>
 80026da:	4407      	add	r7, r0
 80026dc:	eba8 0800 	sub.w	r8, r8, r0
 80026e0:	e7e9      	b.n	80026b6 <__sflush_r+0xda>
 80026e2:	bf00      	nop
 80026e4:	20400001 	.word	0x20400001

080026e8 <_fflush_r>:
 80026e8:	b538      	push	{r3, r4, r5, lr}
 80026ea:	690b      	ldr	r3, [r1, #16]
 80026ec:	4605      	mov	r5, r0
 80026ee:	460c      	mov	r4, r1
 80026f0:	b1db      	cbz	r3, 800272a <_fflush_r+0x42>
 80026f2:	b118      	cbz	r0, 80026fc <_fflush_r+0x14>
 80026f4:	6983      	ldr	r3, [r0, #24]
 80026f6:	b90b      	cbnz	r3, 80026fc <_fflush_r+0x14>
 80026f8:	f000 f860 	bl	80027bc <__sinit>
 80026fc:	4b0c      	ldr	r3, [pc, #48]	; (8002730 <_fflush_r+0x48>)
 80026fe:	429c      	cmp	r4, r3
 8002700:	d109      	bne.n	8002716 <_fflush_r+0x2e>
 8002702:	686c      	ldr	r4, [r5, #4]
 8002704:	f9b4 300c 	ldrsh.w	r3, [r4, #12]
 8002708:	b17b      	cbz	r3, 800272a <_fflush_r+0x42>
 800270a:	4621      	mov	r1, r4
 800270c:	4628      	mov	r0, r5
 800270e:	e8bd 4038 	ldmia.w	sp!, {r3, r4, r5, lr}
 8002712:	f7ff bf63 	b.w	80025dc <__sflush_r>
 8002716:	4b07      	ldr	r3, [pc, #28]	; (8002734 <_fflush_r+0x4c>)
 8002718:	429c      	cmp	r4, r3
 800271a:	d101      	bne.n	8002720 <_fflush_r+0x38>
 800271c:	68ac      	ldr	r4, [r5, #8]
 800271e:	e7f1      	b.n	8002704 <_fflush_r+0x1c>
 8002720:	4b05      	ldr	r3, [pc, #20]	; (8002738 <_fflush_r+0x50>)
 8002722:	429c      	cmp	r4, r3
 8002724:	bf08      	it	eq
 8002726:	68ec      	ldreq	r4, [r5, #12]
 8002728:	e7ec      	b.n	8002704 <_fflush_r+0x1c>
 800272a:	2000      	movs	r0, #0
 800272c:	bd38      	pop	{r3, r4, r5, pc}
 800272e:	bf00      	nop
 8002730:	08002cb8 	.word	0x08002cb8
 8002734:	08002cd8 	.word	0x08002cd8
 8002738:	08002c98 	.word	0x08002c98

0800273c <std>:
 800273c:	2300      	movs	r3, #0
 800273e:	b510      	push	{r4, lr}
 8002740:	4604      	mov	r4, r0
 8002742:	e9c0 3300 	strd	r3, r3, [r0]
 8002746:	6083      	str	r3, [r0, #8]
 8002748:	8181      	strh	r1, [r0, #12]
 800274a:	6643      	str	r3, [r0, #100]	; 0x64
 800274c:	81c2      	strh	r2, [r0, #14]
 800274e:	e9c0 3304 	strd	r3, r3, [r0, #16]
 8002752:	6183      	str	r3, [r0, #24]
 8002754:	4619      	mov	r1, r3
 8002756:	2208      	movs	r2, #8
 8002758:	305c      	adds	r0, #92	; 0x5c
 800275a:	f7ff fe13 	bl	8002384 <memset>
 800275e:	4b05      	ldr	r3, [pc, #20]	; (8002774 <std+0x38>)
 8002760:	6263      	str	r3, [r4, #36]	; 0x24
 8002762:	4b05      	ldr	r3, [pc, #20]	; (8002778 <std+0x3c>)
 8002764:	62a3      	str	r3, [r4, #40]	; 0x28
 8002766:	4b05      	ldr	r3, [pc, #20]	; (800277c <std+0x40>)
 8002768:	62e3      	str	r3, [r4, #44]	; 0x2c
 800276a:	4b05      	ldr	r3, [pc, #20]	; (8002780 <std+0x44>)
 800276c:	6224      	str	r4, [r4, #32]
 800276e:	6323      	str	r3, [r4, #48]	; 0x30
 8002770:	bd10      	pop	{r4, pc}
 8002772:	bf00      	nop
 8002774:	08002b09 	.word	0x08002b09
 8002778:	08002b2b 	.word	0x08002b2b
 800277c:	08002b63 	.word	0x08002b63
 8002780:	08002b87 	.word	0x08002b87

08002784 <_cleanup_r>:
 8002784:	4901      	ldr	r1, [pc, #4]	; (800278c <_cleanup_r+0x8>)
 8002786:	f000 b885 	b.w	8002894 <_fwalk_reent>
 800278a:	bf00      	nop
 800278c:	080026e9 	.word	0x080026e9

08002790 <__sfmoreglue>:
 8002790:	b570      	push	{r4, r5, r6, lr}
 8002792:	1e4a      	subs	r2, r1, #1
 8002794:	2568      	movs	r5, #104	; 0x68
 8002796:	4355      	muls	r5, r2
 8002798:	460e      	mov	r6, r1
 800279a:	f105 0174 	add.w	r1, r5, #116	; 0x74
 800279e:	f000 f949 	bl	8002a34 <_malloc_r>
 80027a2:	4604      	mov	r4, r0
 80027a4:	b140      	cbz	r0, 80027b8 <__sfmoreglue+0x28>
 80027a6:	2100      	movs	r1, #0
 80027a8:	e9c0 1600 	strd	r1, r6, [r0]
 80027ac:	300c      	adds	r0, #12
 80027ae:	60a0      	str	r0, [r4, #8]
 80027b0:	f105 0268 	add.w	r2, r5, #104	; 0x68
 80027b4:	f7ff fde6 	bl	8002384 <memset>
 80027b8:	4620      	mov	r0, r4
 80027ba:	bd70      	pop	{r4, r5, r6, pc}

080027bc <__sinit>:
 80027bc:	6983      	ldr	r3, [r0, #24]
 80027be:	b510      	push	{r4, lr}
 80027c0:	4604      	mov	r4, r0
 80027c2:	bb33      	cbnz	r3, 8002812 <__sinit+0x56>
 80027c4:	e9c0 3312 	strd	r3, r3, [r0, #72]	; 0x48
 80027c8:	6503      	str	r3, [r0, #80]	; 0x50
 80027ca:	4b12      	ldr	r3, [pc, #72]	; (8002814 <__sinit+0x58>)
 80027cc:	4a12      	ldr	r2, [pc, #72]	; (8002818 <__sinit+0x5c>)
 80027ce:	681b      	ldr	r3, [r3, #0]
 80027d0:	6282      	str	r2, [r0, #40]	; 0x28
 80027d2:	4298      	cmp	r0, r3
 80027d4:	bf04      	itt	eq
 80027d6:	2301      	moveq	r3, #1
 80027d8:	6183      	streq	r3, [r0, #24]
 80027da:	f000 f81f 	bl	800281c <__sfp>
 80027de:	6060      	str	r0, [r4, #4]
 80027e0:	4620      	mov	r0, r4
 80027e2:	f000 f81b 	bl	800281c <__sfp>
 80027e6:	60a0      	str	r0, [r4, #8]
 80027e8:	4620      	mov	r0, r4
 80027ea:	f000 f817 	bl	800281c <__sfp>
 80027ee:	2200      	movs	r2, #0
 80027f0:	60e0      	str	r0, [r4, #12]
 80027f2:	2104      	movs	r1, #4
 80027f4:	6860      	ldr	r0, [r4, #4]
 80027f6:	f7ff ffa1 	bl	800273c <std>
 80027fa:	2201      	movs	r2, #1
 80027fc:	2109      	movs	r1, #9
 80027fe:	68a0      	ldr	r0, [r4, #8]
 8002800:	f7ff ff9c 	bl	800273c <std>
 8002804:	2202      	movs	r2, #2
 8002806:	2112      	movs	r1, #18
 8002808:	68e0      	ldr	r0, [r4, #12]
 800280a:	f7ff ff97 	bl	800273c <std>
 800280e:	2301      	movs	r3, #1
 8002810:	61a3      	str	r3, [r4, #24]
 8002812:	bd10      	pop	{r4, pc}
 8002814:	08002c94 	.word	0x08002c94
 8002818:	08002785 	.word	0x08002785

0800281c <__sfp>:
 800281c:	b5f8      	push	{r3, r4, r5, r6, r7, lr}
 800281e:	4b1b      	ldr	r3, [pc, #108]	; (800288c <__sfp+0x70>)
 8002820:	681e      	ldr	r6, [r3, #0]
 8002822:	69b3      	ldr	r3, [r6, #24]
 8002824:	4607      	mov	r7, r0
 8002826:	b913      	cbnz	r3, 800282e <__sfp+0x12>
 8002828:	4630      	mov	r0, r6
 800282a:	f7ff ffc7 	bl	80027bc <__sinit>
 800282e:	3648      	adds	r6, #72	; 0x48
 8002830:	e9d6 3401 	ldrd	r3, r4, [r6, #4]
 8002834:	3b01      	subs	r3, #1
 8002836:	d503      	bpl.n	8002840 <__sfp+0x24>
 8002838:	6833      	ldr	r3, [r6, #0]
 800283a:	b133      	cbz	r3, 800284a <__sfp+0x2e>
 800283c:	6836      	ldr	r6, [r6, #0]
 800283e:	e7f7      	b.n	8002830 <__sfp+0x14>
 8002840:	f9b4 500c 	ldrsh.w	r5, [r4, #12]
 8002844:	b16d      	cbz	r5, 8002862 <__sfp+0x46>
 8002846:	3468      	adds	r4, #104	; 0x68
 8002848:	e7f4      	b.n	8002834 <__sfp+0x18>
 800284a:	2104      	movs	r1, #4
 800284c:	4638      	mov	r0, r7
 800284e:	f7ff ff9f 	bl	8002790 <__sfmoreglue>
 8002852:	6030      	str	r0, [r6, #0]
 8002854:	2800      	cmp	r0, #0
 8002856:	d1f1      	bne.n	800283c <__sfp+0x20>
 8002858:	230c      	movs	r3, #12
 800285a:	603b      	str	r3, [r7, #0]
 800285c:	4604      	mov	r4, r0
 800285e:	4620      	mov	r0, r4
 8002860:	bdf8      	pop	{r3, r4, r5, r6, r7, pc}
 8002862:	4b0b      	ldr	r3, [pc, #44]	; (8002890 <__sfp+0x74>)
 8002864:	6665      	str	r5, [r4, #100]	; 0x64
 8002866:	e9c4 5500 	strd	r5, r5, [r4]
 800286a:	60a5      	str	r5, [r4, #8]
 800286c:	e9c4 3503 	strd	r3, r5, [r4, #12]
 8002870:	e9c4 5505 	strd	r5, r5, [r4, #20]
 8002874:	2208      	movs	r2, #8
 8002876:	4629      	mov	r1, r5
 8002878:	f104 005c 	add.w	r0, r4, #92	; 0x5c
 800287c:	f7ff fd82 	bl	8002384 <memset>
 8002880:	e9c4 550d 	strd	r5, r5, [r4, #52]	; 0x34
 8002884:	e9c4 5512 	strd	r5, r5, [r4, #72]	; 0x48
 8002888:	e7e9      	b.n	800285e <__sfp+0x42>
 800288a:	bf00      	nop
 800288c:	08002c94 	.word	0x08002c94
 8002890:	ffff0001 	.word	0xffff0001

08002894 <_fwalk_reent>:
 8002894:	e92d 43f8 	stmdb	sp!, {r3, r4, r5, r6, r7, r8, r9, lr}
 8002898:	4680      	mov	r8, r0
 800289a:	4689      	mov	r9, r1
 800289c:	f100 0448 	add.w	r4, r0, #72	; 0x48
 80028a0:	2600      	movs	r6, #0
 80028a2:	b914      	cbnz	r4, 80028aa <_fwalk_reent+0x16>
 80028a4:	4630      	mov	r0, r6
 80028a6:	e8bd 83f8 	ldmia.w	sp!, {r3, r4, r5, r6, r7, r8, r9, pc}
 80028aa:	e9d4 7501 	ldrd	r7, r5, [r4, #4]
 80028ae:	3f01      	subs	r7, #1
 80028b0:	d501      	bpl.n	80028b6 <_fwalk_reent+0x22>
 80028b2:	6824      	ldr	r4, [r4, #0]
 80028b4:	e7f5      	b.n	80028a2 <_fwalk_reent+0xe>
 80028b6:	89ab      	ldrh	r3, [r5, #12]
 80028b8:	2b01      	cmp	r3, #1
 80028ba:	d907      	bls.n	80028cc <_fwalk_reent+0x38>
 80028bc:	f9b5 300e 	ldrsh.w	r3, [r5, #14]
 80028c0:	3301      	adds	r3, #1
 80028c2:	d003      	beq.n	80028cc <_fwalk_reent+0x38>
 80028c4:	4629      	mov	r1, r5
 80028c6:	4640      	mov	r0, r8
 80028c8:	47c8      	blx	r9
 80028ca:	4306      	orrs	r6, r0
 80028cc:	3568      	adds	r5, #104	; 0x68
 80028ce:	e7ee      	b.n	80028ae <_fwalk_reent+0x1a>

080028d0 <__swhatbuf_r>:
 80028d0:	b570      	push	{r4, r5, r6, lr}
 80028d2:	460e      	mov	r6, r1
 80028d4:	f9b1 100e 	ldrsh.w	r1, [r1, #14]
 80028d8:	2900      	cmp	r1, #0
 80028da:	b096      	sub	sp, #88	; 0x58
 80028dc:	4614      	mov	r4, r2
 80028de:	461d      	mov	r5, r3
 80028e0:	da07      	bge.n	80028f2 <__swhatbuf_r+0x22>
 80028e2:	2300      	movs	r3, #0
 80028e4:	602b      	str	r3, [r5, #0]
 80028e6:	89b3      	ldrh	r3, [r6, #12]
 80028e8:	061a      	lsls	r2, r3, #24
 80028ea:	d410      	bmi.n	800290e <__swhatbuf_r+0x3e>
 80028ec:	f44f 6380 	mov.w	r3, #1024	; 0x400
 80028f0:	e00e      	b.n	8002910 <__swhatbuf_r+0x40>
 80028f2:	466a      	mov	r2, sp
 80028f4:	f000 f96e 	bl	8002bd4 <_fstat_r>
 80028f8:	2800      	cmp	r0, #0
 80028fa:	dbf2      	blt.n	80028e2 <__swhatbuf_r+0x12>
 80028fc:	9a01      	ldr	r2, [sp, #4]
 80028fe:	f402 4270 	and.w	r2, r2, #61440	; 0xf000
 8002902:	f5a2 5300 	sub.w	r3, r2, #8192	; 0x2000
 8002906:	425a      	negs	r2, r3
 8002908:	415a      	adcs	r2, r3
 800290a:	602a      	str	r2, [r5, #0]
 800290c:	e7ee      	b.n	80028ec <__swhatbuf_r+0x1c>
 800290e:	2340      	movs	r3, #64	; 0x40
 8002910:	2000      	movs	r0, #0
 8002912:	6023      	str	r3, [r4, #0]
 8002914:	b016      	add	sp, #88	; 0x58
 8002916:	bd70      	pop	{r4, r5, r6, pc}

08002918 <__smakebuf_r>:
 8002918:	898b      	ldrh	r3, [r1, #12]
 800291a:	b573      	push	{r0, r1, r4, r5, r6, lr}
 800291c:	079d      	lsls	r5, r3, #30
 800291e:	4606      	mov	r6, r0
 8002920:	460c      	mov	r4, r1
 8002922:	d507      	bpl.n	8002934 <__smakebuf_r+0x1c>
 8002924:	f104 0347 	add.w	r3, r4, #71	; 0x47
 8002928:	6023      	str	r3, [r4, #0]
 800292a:	6123      	str	r3, [r4, #16]
 800292c:	2301      	movs	r3, #1
 800292e:	6163      	str	r3, [r4, #20]
 8002930:	b002      	add	sp, #8
 8002932:	bd70      	pop	{r4, r5, r6, pc}
 8002934:	ab01      	add	r3, sp, #4
 8002936:	466a      	mov	r2, sp
 8002938:	f7ff ffca 	bl	80028d0 <__swhatbuf_r>
 800293c:	9900      	ldr	r1, [sp, #0]
 800293e:	4605      	mov	r5, r0
 8002940:	4630      	mov	r0, r6
 8002942:	f000 f877 	bl	8002a34 <_malloc_r>
 8002946:	b948      	cbnz	r0, 800295c <__smakebuf_r+0x44>
 8002948:	f9b4 300c 	ldrsh.w	r3, [r4, #12]
 800294c:	059a      	lsls	r2, r3, #22
 800294e:	d4ef      	bmi.n	8002930 <__smakebuf_r+0x18>
 8002950:	f023 0303 	bic.w	r3, r3, #3
 8002954:	f043 0302 	orr.w	r3, r3, #2
 8002958:	81a3      	strh	r3, [r4, #12]
 800295a:	e7e3      	b.n	8002924 <__smakebuf_r+0xc>
 800295c:	4b0d      	ldr	r3, [pc, #52]	; (8002994 <__smakebuf_r+0x7c>)
 800295e:	62b3      	str	r3, [r6, #40]	; 0x28
 8002960:	89a3      	ldrh	r3, [r4, #12]
 8002962:	6020      	str	r0, [r4, #0]
 8002964:	f043 0380 	orr.w	r3, r3, #128	; 0x80
 8002968:	81a3      	strh	r3, [r4, #12]
 800296a:	9b00      	ldr	r3, [sp, #0]
 800296c:	6163      	str	r3, [r4, #20]
 800296e:	9b01      	ldr	r3, [sp, #4]
 8002970:	6120      	str	r0, [r4, #16]
 8002972:	b15b      	cbz	r3, 800298c <__smakebuf_r+0x74>
 8002974:	f9b4 100e 	ldrsh.w	r1, [r4, #14]
 8002978:	4630      	mov	r0, r6
 800297a:	f000 f93d 	bl	8002bf8 <_isatty_r>
 800297e:	b128      	cbz	r0, 800298c <__smakebuf_r+0x74>
 8002980:	89a3      	ldrh	r3, [r4, #12]
 8002982:	f023 0303 	bic.w	r3, r3, #3
 8002986:	f043 0301 	orr.w	r3, r3, #1
 800298a:	81a3      	strh	r3, [r4, #12]
 800298c:	89a3      	ldrh	r3, [r4, #12]
 800298e:	431d      	orrs	r5, r3
 8002990:	81a5      	strh	r5, [r4, #12]
 8002992:	e7cd      	b.n	8002930 <__smakebuf_r+0x18>
 8002994:	08002785 	.word	0x08002785

08002998 <_free_r>:
 8002998:	b538      	push	{r3, r4, r5, lr}
 800299a:	4605      	mov	r5, r0
 800299c:	2900      	cmp	r1, #0
 800299e:	d045      	beq.n	8002a2c <_free_r+0x94>
 80029a0:	f851 3c04 	ldr.w	r3, [r1, #-4]
 80029a4:	1f0c      	subs	r4, r1, #4
 80029a6:	2b00      	cmp	r3, #0
 80029a8:	bfb8      	it	lt
 80029aa:	18e4      	addlt	r4, r4, r3
 80029ac:	f000 f946 	bl	8002c3c <__malloc_lock>
 80029b0:	4a1f      	ldr	r2, [pc, #124]	; (8002a30 <_free_r+0x98>)
 80029b2:	6813      	ldr	r3, [r2, #0]
 80029b4:	4610      	mov	r0, r2
 80029b6:	b933      	cbnz	r3, 80029c6 <_free_r+0x2e>
 80029b8:	6063      	str	r3, [r4, #4]
 80029ba:	6014      	str	r4, [r2, #0]
 80029bc:	4628      	mov	r0, r5
 80029be:	e8bd 4038 	ldmia.w	sp!, {r3, r4, r5, lr}
 80029c2:	f000 b93c 	b.w	8002c3e <__malloc_unlock>
 80029c6:	42a3      	cmp	r3, r4
 80029c8:	d90c      	bls.n	80029e4 <_free_r+0x4c>
 80029ca:	6821      	ldr	r1, [r4, #0]
 80029cc:	1862      	adds	r2, r4, r1
 80029ce:	4293      	cmp	r3, r2
 80029d0:	bf04      	itt	eq
 80029d2:	681a      	ldreq	r2, [r3, #0]
 80029d4:	685b      	ldreq	r3, [r3, #4]
 80029d6:	6063      	str	r3, [r4, #4]
 80029d8:	bf04      	itt	eq
 80029da:	1852      	addeq	r2, r2, r1
 80029dc:	6022      	streq	r2, [r4, #0]
 80029de:	6004      	str	r4, [r0, #0]
 80029e0:	e7ec      	b.n	80029bc <_free_r+0x24>
 80029e2:	4613      	mov	r3, r2
 80029e4:	685a      	ldr	r2, [r3, #4]
 80029e6:	b10a      	cbz	r2, 80029ec <_free_r+0x54>
 80029e8:	42a2      	cmp	r2, r4
 80029ea:	d9fa      	bls.n	80029e2 <_free_r+0x4a>
 80029ec:	6819      	ldr	r1, [r3, #0]
 80029ee:	1858      	adds	r0, r3, r1
 80029f0:	42a0      	cmp	r0, r4
 80029f2:	d10b      	bne.n	8002a0c <_free_r+0x74>
 80029f4:	6820      	ldr	r0, [r4, #0]
 80029f6:	4401      	add	r1, r0
 80029f8:	1858      	adds	r0, r3, r1
 80029fa:	4282      	cmp	r2, r0
 80029fc:	6019      	str	r1, [r3, #0]
 80029fe:	d1dd      	bne.n	80029bc <_free_r+0x24>
 8002a00:	6810      	ldr	r0, [r2, #0]
 8002a02:	6852      	ldr	r2, [r2, #4]
 8002a04:	605a      	str	r2, [r3, #4]
 8002a06:	4401      	add	r1, r0
 8002a08:	6019      	str	r1, [r3, #0]
 8002a0a:	e7d7      	b.n	80029bc <_free_r+0x24>
 8002a0c:	d902      	bls.n	8002a14 <_free_r+0x7c>
 8002a0e:	230c      	movs	r3, #12
 8002a10:	602b      	str	r3, [r5, #0]
 8002a12:	e7d3      	b.n	80029bc <_free_r+0x24>
 8002a14:	6820      	ldr	r0, [r4, #0]
 8002a16:	1821      	adds	r1, r4, r0
 8002a18:	428a      	cmp	r2, r1
 8002a1a:	bf04      	itt	eq
 8002a1c:	6811      	ldreq	r1, [r2, #0]
 8002a1e:	6852      	ldreq	r2, [r2, #4]
 8002a20:	6062      	str	r2, [r4, #4]
 8002a22:	bf04      	itt	eq
 8002a24:	1809      	addeq	r1, r1, r0
 8002a26:	6021      	streq	r1, [r4, #0]
 8002a28:	605c      	str	r4, [r3, #4]
 8002a2a:	e7c7      	b.n	80029bc <_free_r+0x24>
 8002a2c:	bd38      	pop	{r3, r4, r5, pc}
 8002a2e:	bf00      	nop
 8002a30:	2000009c 	.word	0x2000009c

08002a34 <_malloc_r>:
 8002a34:	b570      	push	{r4, r5, r6, lr}
 8002a36:	1ccd      	adds	r5, r1, #3
 8002a38:	f025 0503 	bic.w	r5, r5, #3
 8002a3c:	3508      	adds	r5, #8
 8002a3e:	2d0c      	cmp	r5, #12
 8002a40:	bf38      	it	cc
 8002a42:	250c      	movcc	r5, #12
 8002a44:	2d00      	cmp	r5, #0
 8002a46:	4606      	mov	r6, r0
 8002a48:	db01      	blt.n	8002a4e <_malloc_r+0x1a>
 8002a4a:	42a9      	cmp	r1, r5
 8002a4c:	d903      	bls.n	8002a56 <_malloc_r+0x22>
 8002a4e:	230c      	movs	r3, #12
 8002a50:	6033      	str	r3, [r6, #0]
 8002a52:	2000      	movs	r0, #0
 8002a54:	bd70      	pop	{r4, r5, r6, pc}
 8002a56:	f000 f8f1 	bl	8002c3c <__malloc_lock>
 8002a5a:	4a21      	ldr	r2, [pc, #132]	; (8002ae0 <_malloc_r+0xac>)
 8002a5c:	6814      	ldr	r4, [r2, #0]
 8002a5e:	4621      	mov	r1, r4
 8002a60:	b991      	cbnz	r1, 8002a88 <_malloc_r+0x54>
 8002a62:	4c20      	ldr	r4, [pc, #128]	; (8002ae4 <_malloc_r+0xb0>)
 8002a64:	6823      	ldr	r3, [r4, #0]
 8002a66:	b91b      	cbnz	r3, 8002a70 <_malloc_r+0x3c>
 8002a68:	4630      	mov	r0, r6
 8002a6a:	f000 f83d 	bl	8002ae8 <_sbrk_r>
 8002a6e:	6020      	str	r0, [r4, #0]
 8002a70:	4629      	mov	r1, r5
 8002a72:	4630      	mov	r0, r6
 8002a74:	f000 f838 	bl	8002ae8 <_sbrk_r>
 8002a78:	1c43      	adds	r3, r0, #1
 8002a7a:	d124      	bne.n	8002ac6 <_malloc_r+0x92>
 8002a7c:	230c      	movs	r3, #12
 8002a7e:	6033      	str	r3, [r6, #0]
 8002a80:	4630      	mov	r0, r6
 8002a82:	f000 f8dc 	bl	8002c3e <__malloc_unlock>
 8002a86:	e7e4      	b.n	8002a52 <_malloc_r+0x1e>
 8002a88:	680b      	ldr	r3, [r1, #0]
 8002a8a:	1b5b      	subs	r3, r3, r5
 8002a8c:	d418      	bmi.n	8002ac0 <_malloc_r+0x8c>
 8002a8e:	2b0b      	cmp	r3, #11
 8002a90:	d90f      	bls.n	8002ab2 <_malloc_r+0x7e>
 8002a92:	600b      	str	r3, [r1, #0]
 8002a94:	50cd      	str	r5, [r1, r3]
 8002a96:	18cc      	adds	r4, r1, r3
 8002a98:	4630      	mov	r0, r6
 8002a9a:	f000 f8d0 	bl	8002c3e <__malloc_unlock>
 8002a9e:	f104 000b 	add.w	r0, r4, #11
 8002aa2:	1d23      	adds	r3, r4, #4
 8002aa4:	f020 0007 	bic.w	r0, r0, #7
 8002aa8:	1ac3      	subs	r3, r0, r3
 8002aaa:	d0d3      	beq.n	8002a54 <_malloc_r+0x20>
 8002aac:	425a      	negs	r2, r3
 8002aae:	50e2      	str	r2, [r4, r3]
 8002ab0:	e7d0      	b.n	8002a54 <_malloc_r+0x20>
 8002ab2:	428c      	cmp	r4, r1
 8002ab4:	684b      	ldr	r3, [r1, #4]
 8002ab6:	bf16      	itet	ne
 8002ab8:	6063      	strne	r3, [r4, #4]
 8002aba:	6013      	streq	r3, [r2, #0]
 8002abc:	460c      	movne	r4, r1
 8002abe:	e7eb      	b.n	8002a98 <_malloc_r+0x64>
 8002ac0:	460c      	mov	r4, r1
 8002ac2:	6849      	ldr	r1, [r1, #4]
 8002ac4:	e7cc      	b.n	8002a60 <_malloc_r+0x2c>
 8002ac6:	1cc4      	adds	r4, r0, #3
 8002ac8:	f024 0403 	bic.w	r4, r4, #3
 8002acc:	42a0      	cmp	r0, r4
 8002ace:	d005      	beq.n	8002adc <_malloc_r+0xa8>
 8002ad0:	1a21      	subs	r1, r4, r0
 8002ad2:	4630      	mov	r0, r6
 8002ad4:	f000 f808 	bl	8002ae8 <_sbrk_r>
 8002ad8:	3001      	adds	r0, #1
 8002ada:	d0cf      	beq.n	8002a7c <_malloc_r+0x48>
 8002adc:	6025      	str	r5, [r4, #0]
 8002ade:	e7db      	b.n	8002a98 <_malloc_r+0x64>
 8002ae0:	2000009c 	.word	0x2000009c
 8002ae4:	200000a0 	.word	0x200000a0

08002ae8 <_sbrk_r>:
 8002ae8:	b538      	push	{r3, r4, r5, lr}
 8002aea:	4c06      	ldr	r4, [pc, #24]	; (8002b04 <_sbrk_r+0x1c>)
 8002aec:	2300      	movs	r3, #0
 8002aee:	4605      	mov	r5, r0
 8002af0:	4608      	mov	r0, r1
 8002af2:	6023      	str	r3, [r4, #0]
 8002af4:	f7fd fe5a 	bl	80007ac <_sbrk>
 8002af8:	1c43      	adds	r3, r0, #1
 8002afa:	d102      	bne.n	8002b02 <_sbrk_r+0x1a>
 8002afc:	6823      	ldr	r3, [r4, #0]
 8002afe:	b103      	cbz	r3, 8002b02 <_sbrk_r+0x1a>
 8002b00:	602b      	str	r3, [r5, #0]
 8002b02:	bd38      	pop	{r3, r4, r5, pc}
 8002b04:	20000108 	.word	0x20000108

08002b08 <__sread>:
 8002b08:	b510      	push	{r4, lr}
 8002b0a:	460c      	mov	r4, r1
 8002b0c:	f9b1 100e 	ldrsh.w	r1, [r1, #14]
 8002b10:	f000 f896 	bl	8002c40 <_read_r>
 8002b14:	2800      	cmp	r0, #0
 8002b16:	bfab      	itete	ge
 8002b18:	6d63      	ldrge	r3, [r4, #84]	; 0x54
 8002b1a:	89a3      	ldrhlt	r3, [r4, #12]
 8002b1c:	181b      	addge	r3, r3, r0
 8002b1e:	f423 5380 	biclt.w	r3, r3, #4096	; 0x1000
 8002b22:	bfac      	ite	ge
 8002b24:	6563      	strge	r3, [r4, #84]	; 0x54
 8002b26:	81a3      	strhlt	r3, [r4, #12]
 8002b28:	bd10      	pop	{r4, pc}

08002b2a <__swrite>:
 8002b2a:	e92d 41f0 	stmdb	sp!, {r4, r5, r6, r7, r8, lr}
 8002b2e:	461f      	mov	r7, r3
 8002b30:	898b      	ldrh	r3, [r1, #12]
 8002b32:	05db      	lsls	r3, r3, #23
 8002b34:	4605      	mov	r5, r0
 8002b36:	460c      	mov	r4, r1
 8002b38:	4616      	mov	r6, r2
 8002b3a:	d505      	bpl.n	8002b48 <__swrite+0x1e>
 8002b3c:	2302      	movs	r3, #2
 8002b3e:	2200      	movs	r2, #0
 8002b40:	f9b1 100e 	ldrsh.w	r1, [r1, #14]
 8002b44:	f000 f868 	bl	8002c18 <_lseek_r>
 8002b48:	89a3      	ldrh	r3, [r4, #12]
 8002b4a:	f9b4 100e 	ldrsh.w	r1, [r4, #14]
 8002b4e:	f423 5380 	bic.w	r3, r3, #4096	; 0x1000
 8002b52:	81a3      	strh	r3, [r4, #12]
 8002b54:	4632      	mov	r2, r6
 8002b56:	463b      	mov	r3, r7
 8002b58:	4628      	mov	r0, r5
 8002b5a:	e8bd 41f0 	ldmia.w	sp!, {r4, r5, r6, r7, r8, lr}
 8002b5e:	f000 b817 	b.w	8002b90 <_write_r>

08002b62 <__sseek>:
 8002b62:	b510      	push	{r4, lr}
 8002b64:	460c      	mov	r4, r1
 8002b66:	f9b1 100e 	ldrsh.w	r1, [r1, #14]
 8002b6a:	f000 f855 	bl	8002c18 <_lseek_r>
 8002b6e:	1c43      	adds	r3, r0, #1
 8002b70:	89a3      	ldrh	r3, [r4, #12]
 8002b72:	bf15      	itete	ne
 8002b74:	6560      	strne	r0, [r4, #84]	; 0x54
 8002b76:	f423 5380 	biceq.w	r3, r3, #4096	; 0x1000
 8002b7a:	f443 5380 	orrne.w	r3, r3, #4096	; 0x1000
 8002b7e:	81a3      	strheq	r3, [r4, #12]
 8002b80:	bf18      	it	ne
 8002b82:	81a3      	strhne	r3, [r4, #12]
 8002b84:	bd10      	pop	{r4, pc}

08002b86 <__sclose>:
 8002b86:	f9b1 100e 	ldrsh.w	r1, [r1, #14]
 8002b8a:	f000 b813 	b.w	8002bb4 <_close_r>
	...

08002b90 <_write_r>:
 8002b90:	b538      	push	{r3, r4, r5, lr}
 8002b92:	4c07      	ldr	r4, [pc, #28]	; (8002bb0 <_write_r+0x20>)
 8002b94:	4605      	mov	r5, r0
 8002b96:	4608      	mov	r0, r1
 8002b98:	4611      	mov	r1, r2
 8002b9a:	2200      	movs	r2, #0
 8002b9c:	6022      	str	r2, [r4, #0]
 8002b9e:	461a      	mov	r2, r3
 8002ba0:	f7fd fc67 	bl	8000472 <_write>
 8002ba4:	1c43      	adds	r3, r0, #1
 8002ba6:	d102      	bne.n	8002bae <_write_r+0x1e>
 8002ba8:	6823      	ldr	r3, [r4, #0]
 8002baa:	b103      	cbz	r3, 8002bae <_write_r+0x1e>
 8002bac:	602b      	str	r3, [r5, #0]
 8002bae:	bd38      	pop	{r3, r4, r5, pc}
 8002bb0:	20000108 	.word	0x20000108

08002bb4 <_close_r>:
 8002bb4:	b538      	push	{r3, r4, r5, lr}
 8002bb6:	4c06      	ldr	r4, [pc, #24]	; (8002bd0 <_close_r+0x1c>)
 8002bb8:	2300      	movs	r3, #0
 8002bba:	4605      	mov	r5, r0
 8002bbc:	4608      	mov	r0, r1
 8002bbe:	6023      	str	r3, [r4, #0]
 8002bc0:	f7fd fdbf 	bl	8000742 <_close>
 8002bc4:	1c43      	adds	r3, r0, #1
 8002bc6:	d102      	bne.n	8002bce <_close_r+0x1a>
 8002bc8:	6823      	ldr	r3, [r4, #0]
 8002bca:	b103      	cbz	r3, 8002bce <_close_r+0x1a>
 8002bcc:	602b      	str	r3, [r5, #0]
 8002bce:	bd38      	pop	{r3, r4, r5, pc}
 8002bd0:	20000108 	.word	0x20000108

08002bd4 <_fstat_r>:
 8002bd4:	b538      	push	{r3, r4, r5, lr}
 8002bd6:	4c07      	ldr	r4, [pc, #28]	; (8002bf4 <_fstat_r+0x20>)
 8002bd8:	2300      	movs	r3, #0
 8002bda:	4605      	mov	r5, r0
 8002bdc:	4608      	mov	r0, r1
 8002bde:	4611      	mov	r1, r2
 8002be0:	6023      	str	r3, [r4, #0]
 8002be2:	f7fd fdba 	bl	800075a <_fstat>
 8002be6:	1c43      	adds	r3, r0, #1
 8002be8:	d102      	bne.n	8002bf0 <_fstat_r+0x1c>
 8002bea:	6823      	ldr	r3, [r4, #0]
 8002bec:	b103      	cbz	r3, 8002bf0 <_fstat_r+0x1c>
 8002bee:	602b      	str	r3, [r5, #0]
 8002bf0:	bd38      	pop	{r3, r4, r5, pc}
 8002bf2:	bf00      	nop
 8002bf4:	20000108 	.word	0x20000108

08002bf8 <_isatty_r>:
 8002bf8:	b538      	push	{r3, r4, r5, lr}
 8002bfa:	4c06      	ldr	r4, [pc, #24]	; (8002c14 <_isatty_r+0x1c>)
 8002bfc:	2300      	movs	r3, #0
 8002bfe:	4605      	mov	r5, r0
 8002c00:	4608      	mov	r0, r1
 8002c02:	6023      	str	r3, [r4, #0]
 8002c04:	f7fd fdb9 	bl	800077a <_isatty>
 8002c08:	1c43      	adds	r3, r0, #1
 8002c0a:	d102      	bne.n	8002c12 <_isatty_r+0x1a>
 8002c0c:	6823      	ldr	r3, [r4, #0]
 8002c0e:	b103      	cbz	r3, 8002c12 <_isatty_r+0x1a>
 8002c10:	602b      	str	r3, [r5, #0]
 8002c12:	bd38      	pop	{r3, r4, r5, pc}
 8002c14:	20000108 	.word	0x20000108

08002c18 <_lseek_r>:
 8002c18:	b538      	push	{r3, r4, r5, lr}
 8002c1a:	4c07      	ldr	r4, [pc, #28]	; (8002c38 <_lseek_r+0x20>)
 8002c1c:	4605      	mov	r5, r0
 8002c1e:	4608      	mov	r0, r1
 8002c20:	4611      	mov	r1, r2
 8002c22:	2200      	movs	r2, #0
 8002c24:	6022      	str	r2, [r4, #0]
 8002c26:	461a      	mov	r2, r3
 8002c28:	f7fd fdb2 	bl	8000790 <_lseek>
 8002c2c:	1c43      	adds	r3, r0, #1
 8002c2e:	d102      	bne.n	8002c36 <_lseek_r+0x1e>
 8002c30:	6823      	ldr	r3, [r4, #0]
 8002c32:	b103      	cbz	r3, 8002c36 <_lseek_r+0x1e>
 8002c34:	602b      	str	r3, [r5, #0]
 8002c36:	bd38      	pop	{r3, r4, r5, pc}
 8002c38:	20000108 	.word	0x20000108

08002c3c <__malloc_lock>:
 8002c3c:	4770      	bx	lr

08002c3e <__malloc_unlock>:
 8002c3e:	4770      	bx	lr

08002c40 <_read_r>:
 8002c40:	b538      	push	{r3, r4, r5, lr}
 8002c42:	4c07      	ldr	r4, [pc, #28]	; (8002c60 <_read_r+0x20>)
 8002c44:	4605      	mov	r5, r0
 8002c46:	4608      	mov	r0, r1
 8002c48:	4611      	mov	r1, r2
 8002c4a:	2200      	movs	r2, #0
 8002c4c:	6022      	str	r2, [r4, #0]
 8002c4e:	461a      	mov	r2, r3
 8002c50:	f7fd fd5a 	bl	8000708 <_read>
 8002c54:	1c43      	adds	r3, r0, #1
 8002c56:	d102      	bne.n	8002c5e <_read_r+0x1e>
 8002c58:	6823      	ldr	r3, [r4, #0]
 8002c5a:	b103      	cbz	r3, 8002c5e <_read_r+0x1e>
 8002c5c:	602b      	str	r3, [r5, #0]
 8002c5e:	bd38      	pop	{r3, r4, r5, pc}
 8002c60:	20000108 	.word	0x20000108

08002c64 <_init>:
 8002c64:	b5f8      	push	{r3, r4, r5, r6, r7, lr}
 8002c66:	bf00      	nop
 8002c68:	bcf8      	pop	{r3, r4, r5, r6, r7}
 8002c6a:	bc08      	pop	{r3}
 8002c6c:	469e      	mov	lr, r3
 8002c6e:	4770      	bx	lr

08002c70 <_fini>:
 8002c70:	b5f8      	push	{r3, r4, r5, r6, r7, lr}
 8002c72:	bf00      	nop
 8002c74:	bcf8      	pop	{r3, r4, r5, r6, r7}
 8002c76:	bc08      	pop	{r3}
 8002c78:	469e      	mov	lr, r3
 8002c7a:	4770      	bx	lr
