
FunctionGeneratorCortexM4_SW_V1.elf:     file format elf32-littlearm

Sections:
Idx Name          Size      VMA       LMA       File off  Algn
  0 .isr_vector   000001d8  08000000  08000000  00010000  2**0
                  CONTENTS, ALLOC, LOAD, READONLY, DATA
  1 .text         000091ec  080001e0  080001e0  000101e0  2**4
                  CONTENTS, ALLOC, LOAD, READONLY, CODE
  2 .rodata       00000378  080093cc  080093cc  000193cc  2**2
                  CONTENTS, ALLOC, LOAD, READONLY, DATA
  3 .ARM.extab    00000000  08009744  08009744  00020440  2**0
                  CONTENTS
  4 .ARM          00000000  08009744  08009744  00020440  2**0
                  CONTENTS
  5 .preinit_array 00000000  08009744  08009744  00020440  2**0
                  CONTENTS, ALLOC, LOAD, DATA
  6 .init_array   00000004  08009744  08009744  00019744  2**2
                  CONTENTS, ALLOC, LOAD, DATA
  7 .fini_array   00000004  08009748  08009748  00019748  2**2
                  CONTENTS, ALLOC, LOAD, DATA
  8 .data         00000440  20000000  0800974c  00020000  2**2
                  CONTENTS, ALLOC, LOAD, DATA
  9 .bss          000004ac  20000440  08009b8c  00020440  2**2
                  ALLOC
 10 ._user_heap_stack 00000604  200008ec  08009b8c  000208ec  2**0
                  ALLOC
 11 .ARM.attributes 00000030  00000000  00000000  00020440  2**0
                  CONTENTS, READONLY
 12 .debug_info   00021815  00000000  00000000  00020470  2**0
                  CONTENTS, READONLY, DEBUGGING
 13 .debug_abbrev 00004585  00000000  00000000  00041c85  2**0
                  CONTENTS, READONLY, DEBUGGING
 14 .debug_aranges 00001af0  00000000  00000000  00046210  2**3
                  CONTENTS, READONLY, DEBUGGING
 15 .debug_ranges 000018b8  00000000  00000000  00047d00  2**3
                  CONTENTS, READONLY, DEBUGGING
 16 .debug_macro  0002e8f5  00000000  00000000  000495b8  2**0
                  CONTENTS, READONLY, DEBUGGING
 17 .debug_line   0001a33f  00000000  00000000  00077ead  2**0
                  CONTENTS, READONLY, DEBUGGING
 18 .debug_str    00122e47  00000000  00000000  000921ec  2**0
                  CONTENTS, READONLY, DEBUGGING
 19 .comment      0000007b  00000000  00000000  001b5033  2**0
                  CONTENTS, READONLY
 20 .debug_frame  00007744  00000000  00000000  001b50b0  2**2
                  CONTENTS, READONLY, DEBUGGING

Disassembly of section .text:

080001e0 <__do_global_dtors_aux>:
 80001e0:	b510      	push	{r4, lr}
 80001e2:	4c05      	ldr	r4, [pc, #20]	; (80001f8 <__do_global_dtors_aux+0x18>)
 80001e4:	7823      	ldrb	r3, [r4, #0]
 80001e6:	b933      	cbnz	r3, 80001f6 <__do_global_dtors_aux+0x16>
 80001e8:	4b04      	ldr	r3, [pc, #16]	; (80001fc <__do_global_dtors_aux+0x1c>)
 80001ea:	b113      	cbz	r3, 80001f2 <__do_global_dtors_aux+0x12>
 80001ec:	4804      	ldr	r0, [pc, #16]	; (8000200 <__do_global_dtors_aux+0x20>)
 80001ee:	f3af 8000 	nop.w
 80001f2:	2301      	movs	r3, #1
 80001f4:	7023      	strb	r3, [r4, #0]
 80001f6:	bd10      	pop	{r4, pc}
 80001f8:	20000440 	.word	0x20000440
 80001fc:	00000000 	.word	0x00000000
 8000200:	080093b4 	.word	0x080093b4

08000204 <frame_dummy>:
 8000204:	b508      	push	{r3, lr}
 8000206:	4b03      	ldr	r3, [pc, #12]	; (8000214 <frame_dummy+0x10>)
 8000208:	b11b      	cbz	r3, 8000212 <frame_dummy+0xe>
 800020a:	4903      	ldr	r1, [pc, #12]	; (8000218 <frame_dummy+0x14>)
 800020c:	4803      	ldr	r0, [pc, #12]	; (800021c <frame_dummy+0x18>)
 800020e:	f3af 8000 	nop.w
 8000212:	bd08      	pop	{r3, pc}
 8000214:	00000000 	.word	0x00000000
 8000218:	20000444 	.word	0x20000444
 800021c:	080093b4 	.word	0x080093b4

08000220 <memchr>:
 8000220:	f001 01ff 	and.w	r1, r1, #255	; 0xff
 8000224:	2a10      	cmp	r2, #16
 8000226:	db2b      	blt.n	8000280 <memchr+0x60>
 8000228:	f010 0f07 	tst.w	r0, #7
 800022c:	d008      	beq.n	8000240 <memchr+0x20>
 800022e:	f810 3b01 	ldrb.w	r3, [r0], #1
 8000232:	3a01      	subs	r2, #1
 8000234:	428b      	cmp	r3, r1
 8000236:	d02d      	beq.n	8000294 <memchr+0x74>
 8000238:	f010 0f07 	tst.w	r0, #7
 800023c:	b342      	cbz	r2, 8000290 <memchr+0x70>
 800023e:	d1f6      	bne.n	800022e <memchr+0xe>
 8000240:	b4f0      	push	{r4, r5, r6, r7}
 8000242:	ea41 2101 	orr.w	r1, r1, r1, lsl #8
 8000246:	ea41 4101 	orr.w	r1, r1, r1, lsl #16
 800024a:	f022 0407 	bic.w	r4, r2, #7
 800024e:	f07f 0700 	mvns.w	r7, #0
 8000252:	2300      	movs	r3, #0
 8000254:	e8f0 5602 	ldrd	r5, r6, [r0], #8
 8000258:	3c08      	subs	r4, #8
 800025a:	ea85 0501 	eor.w	r5, r5, r1
 800025e:	ea86 0601 	eor.w	r6, r6, r1
 8000262:	fa85 f547 	uadd8	r5, r5, r7
 8000266:	faa3 f587 	sel	r5, r3, r7
 800026a:	fa86 f647 	uadd8	r6, r6, r7
 800026e:	faa5 f687 	sel	r6, r5, r7
 8000272:	b98e      	cbnz	r6, 8000298 <memchr+0x78>
 8000274:	d1ee      	bne.n	8000254 <memchr+0x34>
 8000276:	bcf0      	pop	{r4, r5, r6, r7}
 8000278:	f001 01ff 	and.w	r1, r1, #255	; 0xff
 800027c:	f002 0207 	and.w	r2, r2, #7
 8000280:	b132      	cbz	r2, 8000290 <memchr+0x70>
 8000282:	f810 3b01 	ldrb.w	r3, [r0], #1
 8000286:	3a01      	subs	r2, #1
 8000288:	ea83 0301 	eor.w	r3, r3, r1
 800028c:	b113      	cbz	r3, 8000294 <memchr+0x74>
 800028e:	d1f8      	bne.n	8000282 <memchr+0x62>
 8000290:	2000      	movs	r0, #0
 8000292:	4770      	bx	lr
 8000294:	3801      	subs	r0, #1
 8000296:	4770      	bx	lr
 8000298:	2d00      	cmp	r5, #0
 800029a:	bf06      	itte	eq
 800029c:	4635      	moveq	r5, r6
 800029e:	3803      	subeq	r0, #3
 80002a0:	3807      	subne	r0, #7
 80002a2:	f015 0f01 	tst.w	r5, #1
 80002a6:	d107      	bne.n	80002b8 <memchr+0x98>
 80002a8:	3001      	adds	r0, #1
 80002aa:	f415 7f80 	tst.w	r5, #256	; 0x100
 80002ae:	bf02      	ittt	eq
 80002b0:	3001      	addeq	r0, #1
 80002b2:	f415 3fc0 	tsteq.w	r5, #98304	; 0x18000
 80002b6:	3001      	addeq	r0, #1
 80002b8:	bcf0      	pop	{r4, r5, r6, r7}
 80002ba:	3801      	subs	r0, #1
 80002bc:	4770      	bx	lr
 80002be:	bf00      	nop

080002c0 <dm_update_display>:
//#define BUTTON_Y_POSITION 50
//uint16_t button_x_positions[1] = { (BUTTON_WIDTH) };


void dm_update_display()
{
 80002c0:	b580      	push	{r7, lr}
 80002c2:	b084      	sub	sp, #16
 80002c4:	af04      	add	r7, sp, #16

	ILI9341_Draw_Text("TEST", BUTTON_TEXT_X_POS, 100, BLACK, 2, DARKCYAN);
 80002c6:	f240 33ef 	movw	r3, #1007	; 0x3ef
 80002ca:	9301      	str	r3, [sp, #4]
 80002cc:	2302      	movs	r3, #2
 80002ce:	9300      	str	r3, [sp, #0]
 80002d0:	2300      	movs	r3, #0
 80002d2:	2264      	movs	r2, #100	; 0x64
 80002d4:	2128      	movs	r1, #40	; 0x28
 80002d6:	481f      	ldr	r0, [pc, #124]	; (8000354 <dm_update_display+0x94>)
 80002d8:	f007 fc06 	bl	8007ae8 <ILI9341_Draw_Text>

	ILI9341_Draw_Bordered_Filled_Rectangle_Coord(	button_x_positions[0],
 80002dc:	4b1e      	ldr	r3, [pc, #120]	; (8000358 <dm_update_display+0x98>)
 80002de:	8818      	ldrh	r0, [r3, #0]
 80002e0:	2300      	movs	r3, #0
 80002e2:	9302      	str	r3, [sp, #8]
 80002e4:	2303      	movs	r3, #3
 80002e6:	9301      	str	r3, [sp, #4]
 80002e8:	f240 33ef 	movw	r3, #1007	; 0x3ef
 80002ec:	9300      	str	r3, [sp, #0]
 80002ee:	2332      	movs	r3, #50	; 0x32
 80002f0:	2250      	movs	r2, #80	; 0x50
 80002f2:	21be      	movs	r1, #190	; 0xbe
 80002f4:	f007 faaa 	bl	800784c <ILI9341_Draw_Bordered_Filled_Rectangle_Coord>
													50,
													DARKCYAN,
													3,
													BLACK);

	ILI9341_Draw_Bordered_Filled_Rectangle_Coord(	button_x_positions[1],
 80002f8:	4b17      	ldr	r3, [pc, #92]	; (8000358 <dm_update_display+0x98>)
 80002fa:	8858      	ldrh	r0, [r3, #2]
 80002fc:	2300      	movs	r3, #0
 80002fe:	9302      	str	r3, [sp, #8]
 8000300:	2303      	movs	r3, #3
 8000302:	9301      	str	r3, [sp, #4]
 8000304:	f44f 7378 	mov.w	r3, #992	; 0x3e0
 8000308:	9300      	str	r3, [sp, #0]
 800030a:	2332      	movs	r3, #50	; 0x32
 800030c:	2250      	movs	r2, #80	; 0x50
 800030e:	21be      	movs	r1, #190	; 0xbe
 8000310:	f007 fa9c 	bl	800784c <ILI9341_Draw_Bordered_Filled_Rectangle_Coord>
													50,
													DARKGREEN,
													3,
													BLACK);

	ILI9341_Draw_Bordered_Filled_Rectangle_Coord(	button_x_positions[2],
 8000314:	4b10      	ldr	r3, [pc, #64]	; (8000358 <dm_update_display+0x98>)
 8000316:	8898      	ldrh	r0, [r3, #4]
 8000318:	2300      	movs	r3, #0
 800031a:	9302      	str	r3, [sp, #8]
 800031c:	2303      	movs	r3, #3
 800031e:	9301      	str	r3, [sp, #4]
 8000320:	f64f 73e0 	movw	r3, #65504	; 0xffe0
 8000324:	9300      	str	r3, [sp, #0]
 8000326:	2332      	movs	r3, #50	; 0x32
 8000328:	2250      	movs	r2, #80	; 0x50
 800032a:	21be      	movs	r1, #190	; 0xbe
 800032c:	f007 fa8e 	bl	800784c <ILI9341_Draw_Bordered_Filled_Rectangle_Coord>
													50,
													YELLOW,
													3,
													BLACK);

	ILI9341_Draw_Bordered_Filled_Rectangle_Coord(	button_x_positions[3],
 8000330:	4b09      	ldr	r3, [pc, #36]	; (8000358 <dm_update_display+0x98>)
 8000332:	88d8      	ldrh	r0, [r3, #6]
 8000334:	2300      	movs	r3, #0
 8000336:	9302      	str	r3, [sp, #8]
 8000338:	2303      	movs	r3, #3
 800033a:	9301      	str	r3, [sp, #4]
 800033c:	f44f 4378 	mov.w	r3, #63488	; 0xf800
 8000340:	9300      	str	r3, [sp, #0]
 8000342:	2332      	movs	r3, #50	; 0x32
 8000344:	2250      	movs	r2, #80	; 0x50
 8000346:	21be      	movs	r1, #190	; 0xbe
 8000348:	f007 fa80 	bl	800784c <ILI9341_Draw_Bordered_Filled_Rectangle_Coord>
													BLACK);



	//dm_test_screen();
}
 800034c:	bf00      	nop
 800034e:	46bd      	mov	sp, r7
 8000350:	bd80      	pop	{r7, pc}
 8000352:	bf00      	nop
 8000354:	080093cc 	.word	0x080093cc
 8000358:	20000000 	.word	0x20000000

0800035c <MX_ADC1_Init>:
ADC_HandleTypeDef hadc1;
DMA_HandleTypeDef hdma_adc1;

/* ADC1 init function */
void MX_ADC1_Init(void)
{
 800035c:	b580      	push	{r7, lr}
 800035e:	b08c      	sub	sp, #48	; 0x30
 8000360:	af00      	add	r7, sp, #0
  ADC_MultiModeTypeDef multimode = {0};
 8000362:	f107 0324 	add.w	r3, r7, #36	; 0x24
 8000366:	2200      	movs	r2, #0
 8000368:	601a      	str	r2, [r3, #0]
 800036a:	605a      	str	r2, [r3, #4]
 800036c:	609a      	str	r2, [r3, #8]
  ADC_ChannelConfTypeDef sConfig = {0};
 800036e:	1d3b      	adds	r3, r7, #4
 8000370:	2220      	movs	r2, #32
 8000372:	2100      	movs	r1, #0
 8000374:	4618      	mov	r0, r3
 8000376:	f008 f8cd 	bl	8008514 <memset>

  /** Common config 
  */
  hadc1.Instance = ADC1;
 800037a:	4b32      	ldr	r3, [pc, #200]	; (8000444 <MX_ADC1_Init+0xe8>)
 800037c:	f04f 42a0 	mov.w	r2, #1342177280	; 0x50000000
 8000380:	601a      	str	r2, [r3, #0]
  hadc1.Init.ClockPrescaler = ADC_CLOCK_ASYNC_DIV1;
 8000382:	4b30      	ldr	r3, [pc, #192]	; (8000444 <MX_ADC1_Init+0xe8>)
 8000384:	2200      	movs	r2, #0
 8000386:	605a      	str	r2, [r3, #4]
  hadc1.Init.Resolution = ADC_RESOLUTION_12B;
 8000388:	4b2e      	ldr	r3, [pc, #184]	; (8000444 <MX_ADC1_Init+0xe8>)
 800038a:	2200      	movs	r2, #0
 800038c:	609a      	str	r2, [r3, #8]
  hadc1.Init.DataAlign = ADC_DATAALIGN_RIGHT;
 800038e:	4b2d      	ldr	r3, [pc, #180]	; (8000444 <MX_ADC1_Init+0xe8>)
 8000390:	2200      	movs	r2, #0
 8000392:	60da      	str	r2, [r3, #12]
  hadc1.Init.GainCompensation = 0;
 8000394:	4b2b      	ldr	r3, [pc, #172]	; (8000444 <MX_ADC1_Init+0xe8>)
 8000396:	2200      	movs	r2, #0
 8000398:	611a      	str	r2, [r3, #16]
  hadc1.Init.ScanConvMode = ADC_SCAN_DISABLE;
 800039a:	4b2a      	ldr	r3, [pc, #168]	; (8000444 <MX_ADC1_Init+0xe8>)
 800039c:	2200      	movs	r2, #0
 800039e:	615a      	str	r2, [r3, #20]
  hadc1.Init.EOCSelection = ADC_EOC_SINGLE_CONV;
 80003a0:	4b28      	ldr	r3, [pc, #160]	; (8000444 <MX_ADC1_Init+0xe8>)
 80003a2:	2204      	movs	r2, #4
 80003a4:	619a      	str	r2, [r3, #24]
  hadc1.Init.LowPowerAutoWait = DISABLE;
 80003a6:	4b27      	ldr	r3, [pc, #156]	; (8000444 <MX_ADC1_Init+0xe8>)
 80003a8:	2200      	movs	r2, #0
 80003aa:	771a      	strb	r2, [r3, #28]
  hadc1.Init.ContinuousConvMode = ENABLE;
 80003ac:	4b25      	ldr	r3, [pc, #148]	; (8000444 <MX_ADC1_Init+0xe8>)
 80003ae:	2201      	movs	r2, #1
 80003b0:	775a      	strb	r2, [r3, #29]
  hadc1.Init.NbrOfConversion = 1;
 80003b2:	4b24      	ldr	r3, [pc, #144]	; (8000444 <MX_ADC1_Init+0xe8>)
 80003b4:	2201      	movs	r2, #1
 80003b6:	621a      	str	r2, [r3, #32]
  hadc1.Init.DiscontinuousConvMode = DISABLE;
 80003b8:	4b22      	ldr	r3, [pc, #136]	; (8000444 <MX_ADC1_Init+0xe8>)
 80003ba:	2200      	movs	r2, #0
 80003bc:	f883 2024 	strb.w	r2, [r3, #36]	; 0x24
  hadc1.Init.ExternalTrigConv = ADC_SOFTWARE_START;
 80003c0:	4b20      	ldr	r3, [pc, #128]	; (8000444 <MX_ADC1_Init+0xe8>)
 80003c2:	2200      	movs	r2, #0
 80003c4:	62da      	str	r2, [r3, #44]	; 0x2c
  hadc1.Init.ExternalTrigConvEdge = ADC_EXTERNALTRIGCONVEDGE_NONE;
 80003c6:	4b1f      	ldr	r3, [pc, #124]	; (8000444 <MX_ADC1_Init+0xe8>)
 80003c8:	2200      	movs	r2, #0
 80003ca:	631a      	str	r2, [r3, #48]	; 0x30
  hadc1.Init.DMAContinuousRequests = ENABLE;
 80003cc:	4b1d      	ldr	r3, [pc, #116]	; (8000444 <MX_ADC1_Init+0xe8>)
 80003ce:	2201      	movs	r2, #1
 80003d0:	f883 2038 	strb.w	r2, [r3, #56]	; 0x38
  hadc1.Init.Overrun = ADC_OVR_DATA_OVERWRITTEN;
 80003d4:	4b1b      	ldr	r3, [pc, #108]	; (8000444 <MX_ADC1_Init+0xe8>)
 80003d6:	f44f 5280 	mov.w	r2, #4096	; 0x1000
 80003da:	63da      	str	r2, [r3, #60]	; 0x3c
  hadc1.Init.OversamplingMode = DISABLE;
 80003dc:	4b19      	ldr	r3, [pc, #100]	; (8000444 <MX_ADC1_Init+0xe8>)
 80003de:	2200      	movs	r2, #0
 80003e0:	f883 2040 	strb.w	r2, [r3, #64]	; 0x40
  if (HAL_ADC_Init(&hadc1) != HAL_OK)
 80003e4:	4817      	ldr	r0, [pc, #92]	; (8000444 <MX_ADC1_Init+0xe8>)
 80003e6:	f001 ffcf 	bl	8002388 <HAL_ADC_Init>
 80003ea:	4603      	mov	r3, r0
 80003ec:	2b00      	cmp	r3, #0
 80003ee:	d001      	beq.n	80003f4 <MX_ADC1_Init+0x98>
  {
    Error_Handler();
 80003f0:	f000 ff2e 	bl	8001250 <Error_Handler>
  }
  /** Configure the ADC multi-mode 
  */
  multimode.Mode = ADC_MODE_INDEPENDENT;
 80003f4:	2300      	movs	r3, #0
 80003f6:	627b      	str	r3, [r7, #36]	; 0x24
  if (HAL_ADCEx_MultiModeConfigChannel(&hadc1, &multimode) != HAL_OK)
 80003f8:	f107 0324 	add.w	r3, r7, #36	; 0x24
 80003fc:	4619      	mov	r1, r3
 80003fe:	4811      	ldr	r0, [pc, #68]	; (8000444 <MX_ADC1_Init+0xe8>)
 8000400:	f002 fd58 	bl	8002eb4 <HAL_ADCEx_MultiModeConfigChannel>
 8000404:	4603      	mov	r3, r0
 8000406:	2b00      	cmp	r3, #0
 8000408:	d001      	beq.n	800040e <MX_ADC1_Init+0xb2>
  {
    Error_Handler();
 800040a:	f000 ff21 	bl	8001250 <Error_Handler>
  }
  /** Configure Regular Channel 
  */
  sConfig.Channel = ADC_CHANNEL_3;
 800040e:	4b0e      	ldr	r3, [pc, #56]	; (8000448 <MX_ADC1_Init+0xec>)
 8000410:	607b      	str	r3, [r7, #4]
  sConfig.Rank = ADC_REGULAR_RANK_1;
 8000412:	2306      	movs	r3, #6
 8000414:	60bb      	str	r3, [r7, #8]
  sConfig.SamplingTime = ADC_SAMPLETIME_2CYCLES_5;
 8000416:	2300      	movs	r3, #0
 8000418:	60fb      	str	r3, [r7, #12]
  sConfig.SingleDiff = ADC_SINGLE_ENDED;
 800041a:	237f      	movs	r3, #127	; 0x7f
 800041c:	613b      	str	r3, [r7, #16]
  sConfig.OffsetNumber = ADC_OFFSET_NONE;
 800041e:	2304      	movs	r3, #4
 8000420:	617b      	str	r3, [r7, #20]
  sConfig.Offset = 0;
 8000422:	2300      	movs	r3, #0
 8000424:	61bb      	str	r3, [r7, #24]
  if (HAL_ADC_ConfigChannel(&hadc1, &sConfig) != HAL_OK)
 8000426:	1d3b      	adds	r3, r7, #4
 8000428:	4619      	mov	r1, r3
 800042a:	4806      	ldr	r0, [pc, #24]	; (8000444 <MX_ADC1_Init+0xe8>)
 800042c:	f002 f96c 	bl	8002708 <HAL_ADC_ConfigChannel>
 8000430:	4603      	mov	r3, r0
 8000432:	2b00      	cmp	r3, #0
 8000434:	d001      	beq.n	800043a <MX_ADC1_Init+0xde>
  {
    Error_Handler();
 8000436:	f000 ff0b 	bl	8001250 <Error_Handler>
  }

}
 800043a:	bf00      	nop
 800043c:	3730      	adds	r7, #48	; 0x30
 800043e:	46bd      	mov	sp, r7
 8000440:	bd80      	pop	{r7, pc}
 8000442:	bf00      	nop
 8000444:	20000480 	.word	0x20000480
 8000448:	0c900008 	.word	0x0c900008

0800044c <HAL_ADC_MspInit>:

void HAL_ADC_MspInit(ADC_HandleTypeDef* adcHandle)
{
 800044c:	b580      	push	{r7, lr}
 800044e:	b08a      	sub	sp, #40	; 0x28
 8000450:	af00      	add	r7, sp, #0
 8000452:	6078      	str	r0, [r7, #4]

  GPIO_InitTypeDef GPIO_InitStruct = {0};
 8000454:	f107 0314 	add.w	r3, r7, #20
 8000458:	2200      	movs	r2, #0
 800045a:	601a      	str	r2, [r3, #0]
 800045c:	605a      	str	r2, [r3, #4]
 800045e:	609a      	str	r2, [r3, #8]
 8000460:	60da      	str	r2, [r3, #12]
 8000462:	611a      	str	r2, [r3, #16]
  if(adcHandle->Instance==ADC1)
 8000464:	687b      	ldr	r3, [r7, #4]
 8000466:	681b      	ldr	r3, [r3, #0]
 8000468:	f1b3 4fa0 	cmp.w	r3, #1342177280	; 0x50000000
 800046c:	d14f      	bne.n	800050e <HAL_ADC_MspInit+0xc2>
  {
  /* USER CODE BEGIN ADC1_MspInit 0 */

  /* USER CODE END ADC1_MspInit 0 */
    /* ADC1 clock enable */
    __HAL_RCC_ADC12_CLK_ENABLE();
 800046e:	4b2a      	ldr	r3, [pc, #168]	; (8000518 <HAL_ADC_MspInit+0xcc>)
 8000470:	6cdb      	ldr	r3, [r3, #76]	; 0x4c
 8000472:	4a29      	ldr	r2, [pc, #164]	; (8000518 <HAL_ADC_MspInit+0xcc>)
 8000474:	f443 5300 	orr.w	r3, r3, #8192	; 0x2000
 8000478:	64d3      	str	r3, [r2, #76]	; 0x4c
 800047a:	4b27      	ldr	r3, [pc, #156]	; (8000518 <HAL_ADC_MspInit+0xcc>)
 800047c:	6cdb      	ldr	r3, [r3, #76]	; 0x4c
 800047e:	f403 5300 	and.w	r3, r3, #8192	; 0x2000
 8000482:	613b      	str	r3, [r7, #16]
 8000484:	693b      	ldr	r3, [r7, #16]
  
    __HAL_RCC_GPIOA_CLK_ENABLE();
 8000486:	4b24      	ldr	r3, [pc, #144]	; (8000518 <HAL_ADC_MspInit+0xcc>)
 8000488:	6cdb      	ldr	r3, [r3, #76]	; 0x4c
 800048a:	4a23      	ldr	r2, [pc, #140]	; (8000518 <HAL_ADC_MspInit+0xcc>)
 800048c:	f043 0301 	orr.w	r3, r3, #1
 8000490:	64d3      	str	r3, [r2, #76]	; 0x4c
 8000492:	4b21      	ldr	r3, [pc, #132]	; (8000518 <HAL_ADC_MspInit+0xcc>)
 8000494:	6cdb      	ldr	r3, [r3, #76]	; 0x4c
 8000496:	f003 0301 	and.w	r3, r3, #1
 800049a:	60fb      	str	r3, [r7, #12]
 800049c:	68fb      	ldr	r3, [r7, #12]
    /**ADC1 GPIO Configuration    
    PA2     ------> ADC1_IN3 
    */
    GPIO_InitStruct.Pin = GPIO_PIN_2;
 800049e:	2304      	movs	r3, #4
 80004a0:	617b      	str	r3, [r7, #20]
    GPIO_InitStruct.Mode = GPIO_MODE_ANALOG;
 80004a2:	2303      	movs	r3, #3
 80004a4:	61bb      	str	r3, [r7, #24]
    GPIO_InitStruct.Pull = GPIO_NOPULL;
 80004a6:	2300      	movs	r3, #0
 80004a8:	61fb      	str	r3, [r7, #28]
    HAL_GPIO_Init(GPIOA, &GPIO_InitStruct);
 80004aa:	f107 0314 	add.w	r3, r7, #20
 80004ae:	4619      	mov	r1, r3
 80004b0:	f04f 4090 	mov.w	r0, #1207959552	; 0x48000000
 80004b4:	f004 f81a 	bl	80044ec <HAL_GPIO_Init>

    /* ADC1 DMA Init */
    /* ADC1 Init */
    hdma_adc1.Instance = DMA1_Channel1;
 80004b8:	4b18      	ldr	r3, [pc, #96]	; (800051c <HAL_ADC_MspInit+0xd0>)
 80004ba:	4a19      	ldr	r2, [pc, #100]	; (8000520 <HAL_ADC_MspInit+0xd4>)
 80004bc:	601a      	str	r2, [r3, #0]
    hdma_adc1.Init.Request = DMA_REQUEST_ADC1;
 80004be:	4b17      	ldr	r3, [pc, #92]	; (800051c <HAL_ADC_MspInit+0xd0>)
 80004c0:	2205      	movs	r2, #5
 80004c2:	605a      	str	r2, [r3, #4]
    hdma_adc1.Init.Direction = DMA_PERIPH_TO_MEMORY;
 80004c4:	4b15      	ldr	r3, [pc, #84]	; (800051c <HAL_ADC_MspInit+0xd0>)
 80004c6:	2200      	movs	r2, #0
 80004c8:	609a      	str	r2, [r3, #8]
    hdma_adc1.Init.PeriphInc = DMA_PINC_DISABLE;
 80004ca:	4b14      	ldr	r3, [pc, #80]	; (800051c <HAL_ADC_MspInit+0xd0>)
 80004cc:	2200      	movs	r2, #0
 80004ce:	60da      	str	r2, [r3, #12]
    hdma_adc1.Init.MemInc = DMA_MINC_ENABLE;
 80004d0:	4b12      	ldr	r3, [pc, #72]	; (800051c <HAL_ADC_MspInit+0xd0>)
 80004d2:	2280      	movs	r2, #128	; 0x80
 80004d4:	611a      	str	r2, [r3, #16]
    hdma_adc1.Init.PeriphDataAlignment = DMA_PDATAALIGN_WORD;
 80004d6:	4b11      	ldr	r3, [pc, #68]	; (800051c <HAL_ADC_MspInit+0xd0>)
 80004d8:	f44f 7200 	mov.w	r2, #512	; 0x200
 80004dc:	615a      	str	r2, [r3, #20]
    hdma_adc1.Init.MemDataAlignment = DMA_MDATAALIGN_WORD;
 80004de:	4b0f      	ldr	r3, [pc, #60]	; (800051c <HAL_ADC_MspInit+0xd0>)
 80004e0:	f44f 6200 	mov.w	r2, #2048	; 0x800
 80004e4:	619a      	str	r2, [r3, #24]
    hdma_adc1.Init.Mode = DMA_CIRCULAR;
 80004e6:	4b0d      	ldr	r3, [pc, #52]	; (800051c <HAL_ADC_MspInit+0xd0>)
 80004e8:	2220      	movs	r2, #32
 80004ea:	61da      	str	r2, [r3, #28]
    hdma_adc1.Init.Priority = DMA_PRIORITY_LOW;
 80004ec:	4b0b      	ldr	r3, [pc, #44]	; (800051c <HAL_ADC_MspInit+0xd0>)
 80004ee:	2200      	movs	r2, #0
 80004f0:	621a      	str	r2, [r3, #32]
    if (HAL_DMA_Init(&hdma_adc1) != HAL_OK)
 80004f2:	480a      	ldr	r0, [pc, #40]	; (800051c <HAL_ADC_MspInit+0xd0>)
 80004f4:	f003 fd88 	bl	8004008 <HAL_DMA_Init>
 80004f8:	4603      	mov	r3, r0
 80004fa:	2b00      	cmp	r3, #0
 80004fc:	d001      	beq.n	8000502 <HAL_ADC_MspInit+0xb6>
    {
      Error_Handler();
 80004fe:	f000 fea7 	bl	8001250 <Error_Handler>
    }

    __HAL_LINKDMA(adcHandle,DMA_Handle,hdma_adc1);
 8000502:	687b      	ldr	r3, [r7, #4]
 8000504:	4a05      	ldr	r2, [pc, #20]	; (800051c <HAL_ADC_MspInit+0xd0>)
 8000506:	655a      	str	r2, [r3, #84]	; 0x54
 8000508:	4a04      	ldr	r2, [pc, #16]	; (800051c <HAL_ADC_MspInit+0xd0>)
 800050a:	687b      	ldr	r3, [r7, #4]
 800050c:	6293      	str	r3, [r2, #40]	; 0x28

  /* USER CODE BEGIN ADC1_MspInit 1 */

  /* USER CODE END ADC1_MspInit 1 */
  }
}
 800050e:	bf00      	nop
 8000510:	3728      	adds	r7, #40	; 0x28
 8000512:	46bd      	mov	sp, r7
 8000514:	bd80      	pop	{r7, pc}
 8000516:	bf00      	nop
 8000518:	40021000 	.word	0x40021000
 800051c:	200004ec 	.word	0x200004ec
 8000520:	40020008 	.word	0x40020008

08000524 <MX_COMP1_Init>:

COMP_HandleTypeDef hcomp1;

/* COMP1 init function */
void MX_COMP1_Init(void)
{
 8000524:	b580      	push	{r7, lr}
 8000526:	af00      	add	r7, sp, #0

  hcomp1.Instance = COMP1;
 8000528:	4b0f      	ldr	r3, [pc, #60]	; (8000568 <MX_COMP1_Init+0x44>)
 800052a:	4a10      	ldr	r2, [pc, #64]	; (800056c <MX_COMP1_Init+0x48>)
 800052c:	601a      	str	r2, [r3, #0]
  hcomp1.Init.InputPlus = COMP_INPUT_PLUS_IO1;
 800052e:	4b0e      	ldr	r3, [pc, #56]	; (8000568 <MX_COMP1_Init+0x44>)
 8000530:	2200      	movs	r2, #0
 8000532:	605a      	str	r2, [r3, #4]
  hcomp1.Init.InputMinus = COMP_INPUT_MINUS_VREFINT;
 8000534:	4b0c      	ldr	r3, [pc, #48]	; (8000568 <MX_COMP1_Init+0x44>)
 8000536:	4a0e      	ldr	r2, [pc, #56]	; (8000570 <MX_COMP1_Init+0x4c>)
 8000538:	609a      	str	r2, [r3, #8]
  hcomp1.Init.OutputPol = COMP_OUTPUTPOL_NONINVERTED;
 800053a:	4b0b      	ldr	r3, [pc, #44]	; (8000568 <MX_COMP1_Init+0x44>)
 800053c:	2200      	movs	r2, #0
 800053e:	611a      	str	r2, [r3, #16]
  hcomp1.Init.Hysteresis = COMP_HYSTERESIS_NONE;
 8000540:	4b09      	ldr	r3, [pc, #36]	; (8000568 <MX_COMP1_Init+0x44>)
 8000542:	2200      	movs	r2, #0
 8000544:	60da      	str	r2, [r3, #12]
  hcomp1.Init.BlankingSrce = COMP_BLANKINGSRC_NONE;
 8000546:	4b08      	ldr	r3, [pc, #32]	; (8000568 <MX_COMP1_Init+0x44>)
 8000548:	2200      	movs	r2, #0
 800054a:	615a      	str	r2, [r3, #20]
  hcomp1.Init.TriggerMode = COMP_TRIGGERMODE_NONE;
 800054c:	4b06      	ldr	r3, [pc, #24]	; (8000568 <MX_COMP1_Init+0x44>)
 800054e:	2200      	movs	r2, #0
 8000550:	619a      	str	r2, [r3, #24]
  if (HAL_COMP_Init(&hcomp1) != HAL_OK)
 8000552:	4805      	ldr	r0, [pc, #20]	; (8000568 <MX_COMP1_Init+0x44>)
 8000554:	f002 ff02 	bl	800335c <HAL_COMP_Init>
 8000558:	4603      	mov	r3, r0
 800055a:	2b00      	cmp	r3, #0
 800055c:	d001      	beq.n	8000562 <MX_COMP1_Init+0x3e>
  {
    Error_Handler();
 800055e:	f000 fe77 	bl	8001250 <Error_Handler>
  }

}
 8000562:	bf00      	nop
 8000564:	bd80      	pop	{r7, pc}
 8000566:	bf00      	nop
 8000568:	2000054c 	.word	0x2000054c
 800056c:	40010200 	.word	0x40010200
 8000570:	00800030 	.word	0x00800030

08000574 <HAL_COMP_MspInit>:

void HAL_COMP_MspInit(COMP_HandleTypeDef* compHandle)
{
 8000574:	b580      	push	{r7, lr}
 8000576:	b088      	sub	sp, #32
 8000578:	af00      	add	r7, sp, #0
 800057a:	6078      	str	r0, [r7, #4]

  GPIO_InitTypeDef GPIO_InitStruct = {0};
 800057c:	f107 030c 	add.w	r3, r7, #12
 8000580:	2200      	movs	r2, #0
 8000582:	601a      	str	r2, [r3, #0]
 8000584:	605a      	str	r2, [r3, #4]
 8000586:	609a      	str	r2, [r3, #8]
 8000588:	60da      	str	r2, [r3, #12]
 800058a:	611a      	str	r2, [r3, #16]
  if(compHandle->Instance==COMP1)
 800058c:	687b      	ldr	r3, [r7, #4]
 800058e:	681b      	ldr	r3, [r3, #0]
 8000590:	4a0f      	ldr	r2, [pc, #60]	; (80005d0 <HAL_COMP_MspInit+0x5c>)
 8000592:	4293      	cmp	r3, r2
 8000594:	d118      	bne.n	80005c8 <HAL_COMP_MspInit+0x54>
  {
  /* USER CODE BEGIN COMP1_MspInit 0 */

  /* USER CODE END COMP1_MspInit 0 */
  
    __HAL_RCC_GPIOA_CLK_ENABLE();
 8000596:	4b0f      	ldr	r3, [pc, #60]	; (80005d4 <HAL_COMP_MspInit+0x60>)
 8000598:	6cdb      	ldr	r3, [r3, #76]	; 0x4c
 800059a:	4a0e      	ldr	r2, [pc, #56]	; (80005d4 <HAL_COMP_MspInit+0x60>)
 800059c:	f043 0301 	orr.w	r3, r3, #1
 80005a0:	64d3      	str	r3, [r2, #76]	; 0x4c
 80005a2:	4b0c      	ldr	r3, [pc, #48]	; (80005d4 <HAL_COMP_MspInit+0x60>)
 80005a4:	6cdb      	ldr	r3, [r3, #76]	; 0x4c
 80005a6:	f003 0301 	and.w	r3, r3, #1
 80005aa:	60bb      	str	r3, [r7, #8]
 80005ac:	68bb      	ldr	r3, [r7, #8]
    /**COMP1 GPIO Configuration    
    PA1     ------> COMP1_INP 
    */
    GPIO_InitStruct.Pin = GPIO_PIN_1;
 80005ae:	2302      	movs	r3, #2
 80005b0:	60fb      	str	r3, [r7, #12]
    GPIO_InitStruct.Mode = GPIO_MODE_ANALOG;
 80005b2:	2303      	movs	r3, #3
 80005b4:	613b      	str	r3, [r7, #16]
    GPIO_InitStruct.Pull = GPIO_NOPULL;
 80005b6:	2300      	movs	r3, #0
 80005b8:	617b      	str	r3, [r7, #20]
    HAL_GPIO_Init(GPIOA, &GPIO_InitStruct);
 80005ba:	f107 030c 	add.w	r3, r7, #12
 80005be:	4619      	mov	r1, r3
 80005c0:	f04f 4090 	mov.w	r0, #1207959552	; 0x48000000
 80005c4:	f003 ff92 	bl	80044ec <HAL_GPIO_Init>

  /* USER CODE BEGIN COMP1_MspInit 1 */

  /* USER CODE END COMP1_MspInit 1 */
  }
}
 80005c8:	bf00      	nop
 80005ca:	3720      	adds	r7, #32
 80005cc:	46bd      	mov	sp, r7
 80005ce:	bd80      	pop	{r7, pc}
 80005d0:	40010200 	.word	0x40010200
 80005d4:	40021000 	.word	0x40021000

080005d8 <MX_DAC1_Init>:
DMA_HandleTypeDef hdma_dac1_ch1;
DMA_HandleTypeDef hdma_dac2_ch1;

/* DAC1 init function */
void MX_DAC1_Init(void)
{
 80005d8:	b580      	push	{r7, lr}
 80005da:	b08c      	sub	sp, #48	; 0x30
 80005dc:	af00      	add	r7, sp, #0
  DAC_ChannelConfTypeDef sConfig = {0};
 80005de:	463b      	mov	r3, r7
 80005e0:	2230      	movs	r2, #48	; 0x30
 80005e2:	2100      	movs	r1, #0
 80005e4:	4618      	mov	r0, r3
 80005e6:	f007 ff95 	bl	8008514 <memset>

  /** DAC Initialization 
  */
  hdac1.Instance = DAC1;
 80005ea:	4b1e      	ldr	r3, [pc, #120]	; (8000664 <MX_DAC1_Init+0x8c>)
 80005ec:	4a1e      	ldr	r2, [pc, #120]	; (8000668 <MX_DAC1_Init+0x90>)
 80005ee:	601a      	str	r2, [r3, #0]
  if (HAL_DAC_Init(&hdac1) != HAL_OK)
 80005f0:	481c      	ldr	r0, [pc, #112]	; (8000664 <MX_DAC1_Init+0x8c>)
 80005f2:	f003 f956 	bl	80038a2 <HAL_DAC_Init>
 80005f6:	4603      	mov	r3, r0
 80005f8:	2b00      	cmp	r3, #0
 80005fa:	d001      	beq.n	8000600 <MX_DAC1_Init+0x28>
  {
    Error_Handler();
 80005fc:	f000 fe28 	bl	8001250 <Error_Handler>
  }
  /** DAC channel OUT1 config 
  */
  sConfig.DAC_HighFrequency = DAC_HIGH_FREQUENCY_INTERFACE_MODE_ABOVE_80MHZ;
 8000600:	f44f 4380 	mov.w	r3, #16384	; 0x4000
 8000604:	603b      	str	r3, [r7, #0]
  sConfig.DAC_DMADoubleDataMode = DISABLE;
 8000606:	2300      	movs	r3, #0
 8000608:	713b      	strb	r3, [r7, #4]
  sConfig.DAC_SignedFormat = DISABLE;
 800060a:	2300      	movs	r3, #0
 800060c:	717b      	strb	r3, [r7, #5]
  sConfig.DAC_SampleAndHold = DAC_SAMPLEANDHOLD_DISABLE;
 800060e:	2300      	movs	r3, #0
 8000610:	60bb      	str	r3, [r7, #8]
  sConfig.DAC_Trigger = DAC_TRIGGER_T8_TRGO;
 8000612:	2306      	movs	r3, #6
 8000614:	60fb      	str	r3, [r7, #12]
  sConfig.DAC_Trigger2 = DAC_TRIGGER_NONE;
 8000616:	2300      	movs	r3, #0
 8000618:	613b      	str	r3, [r7, #16]
  sConfig.DAC_OutputBuffer = DAC_OUTPUTBUFFER_ENABLE;
 800061a:	2300      	movs	r3, #0
 800061c:	617b      	str	r3, [r7, #20]
  sConfig.DAC_ConnectOnChipPeripheral = DAC_CHIPCONNECT_DISABLE;
 800061e:	2301      	movs	r3, #1
 8000620:	61bb      	str	r3, [r7, #24]
  sConfig.DAC_UserTrimming = DAC_TRIMMING_FACTORY;
 8000622:	2300      	movs	r3, #0
 8000624:	61fb      	str	r3, [r7, #28]
  if (HAL_DAC_ConfigChannel(&hdac1, &sConfig, DAC_CHANNEL_1) != HAL_OK)
 8000626:	463b      	mov	r3, r7
 8000628:	2200      	movs	r2, #0
 800062a:	4619      	mov	r1, r3
 800062c:	480d      	ldr	r0, [pc, #52]	; (8000664 <MX_DAC1_Init+0x8c>)
 800062e:	f003 fab5 	bl	8003b9c <HAL_DAC_ConfigChannel>
 8000632:	4603      	mov	r3, r0
 8000634:	2b00      	cmp	r3, #0
 8000636:	d001      	beq.n	800063c <MX_DAC1_Init+0x64>
  {
    Error_Handler();
 8000638:	f000 fe0a 	bl	8001250 <Error_Handler>
  }
  /** DAC channel OUT2 config 
  */
  sConfig.DAC_Trigger = DAC_TRIGGER_NONE;
 800063c:	2300      	movs	r3, #0
 800063e:	60fb      	str	r3, [r7, #12]
  sConfig.DAC_ConnectOnChipPeripheral = DAC_CHIPCONNECT_DISABLE;
 8000640:	2301      	movs	r3, #1
 8000642:	61bb      	str	r3, [r7, #24]
  if (HAL_DAC_ConfigChannel(&hdac1, &sConfig, DAC_CHANNEL_2) != HAL_OK)
 8000644:	463b      	mov	r3, r7
 8000646:	2210      	movs	r2, #16
 8000648:	4619      	mov	r1, r3
 800064a:	4806      	ldr	r0, [pc, #24]	; (8000664 <MX_DAC1_Init+0x8c>)
 800064c:	f003 faa6 	bl	8003b9c <HAL_DAC_ConfigChannel>
 8000650:	4603      	mov	r3, r0
 8000652:	2b00      	cmp	r3, #0
 8000654:	d001      	beq.n	800065a <MX_DAC1_Init+0x82>
  {
    Error_Handler();
 8000656:	f000 fdfb 	bl	8001250 <Error_Handler>
  }

}
 800065a:	bf00      	nop
 800065c:	3730      	adds	r7, #48	; 0x30
 800065e:	46bd      	mov	sp, r7
 8000660:	bd80      	pop	{r7, pc}
 8000662:	bf00      	nop
 8000664:	20000584 	.word	0x20000584
 8000668:	50000800 	.word	0x50000800

0800066c <MX_DAC2_Init>:
/* DAC2 init function */
void MX_DAC2_Init(void)
{
 800066c:	b580      	push	{r7, lr}
 800066e:	b08c      	sub	sp, #48	; 0x30
 8000670:	af00      	add	r7, sp, #0
  DAC_ChannelConfTypeDef sConfig = {0};
 8000672:	463b      	mov	r3, r7
 8000674:	2230      	movs	r2, #48	; 0x30
 8000676:	2100      	movs	r1, #0
 8000678:	4618      	mov	r0, r3
 800067a:	f007 ff4b 	bl	8008514 <memset>

  /** DAC Initialization 
  */
  hdac2.Instance = DAC2;
 800067e:	4b16      	ldr	r3, [pc, #88]	; (80006d8 <MX_DAC2_Init+0x6c>)
 8000680:	4a16      	ldr	r2, [pc, #88]	; (80006dc <MX_DAC2_Init+0x70>)
 8000682:	601a      	str	r2, [r3, #0]
  if (HAL_DAC_Init(&hdac2) != HAL_OK)
 8000684:	4814      	ldr	r0, [pc, #80]	; (80006d8 <MX_DAC2_Init+0x6c>)
 8000686:	f003 f90c 	bl	80038a2 <HAL_DAC_Init>
 800068a:	4603      	mov	r3, r0
 800068c:	2b00      	cmp	r3, #0
 800068e:	d001      	beq.n	8000694 <MX_DAC2_Init+0x28>
  {
    Error_Handler();
 8000690:	f000 fdde 	bl	8001250 <Error_Handler>
  }
  /** DAC channel OUT1 config 
  */
  sConfig.DAC_HighFrequency = DAC_HIGH_FREQUENCY_INTERFACE_MODE_ABOVE_80MHZ;
 8000694:	f44f 4380 	mov.w	r3, #16384	; 0x4000
 8000698:	603b      	str	r3, [r7, #0]
  sConfig.DAC_DMADoubleDataMode = DISABLE;
 800069a:	2300      	movs	r3, #0
 800069c:	713b      	strb	r3, [r7, #4]
  sConfig.DAC_SignedFormat = DISABLE;
 800069e:	2300      	movs	r3, #0
 80006a0:	717b      	strb	r3, [r7, #5]
  sConfig.DAC_SampleAndHold = DAC_SAMPLEANDHOLD_DISABLE;
 80006a2:	2300      	movs	r3, #0
 80006a4:	60bb      	str	r3, [r7, #8]
  sConfig.DAC_Trigger = DAC_TRIGGER_T8_TRGO;
 80006a6:	2306      	movs	r3, #6
 80006a8:	60fb      	str	r3, [r7, #12]
  sConfig.DAC_Trigger2 = DAC_TRIGGER_NONE;
 80006aa:	2300      	movs	r3, #0
 80006ac:	613b      	str	r3, [r7, #16]
  sConfig.DAC_OutputBuffer = DAC_OUTPUTBUFFER_ENABLE;
 80006ae:	2300      	movs	r3, #0
 80006b0:	617b      	str	r3, [r7, #20]
  sConfig.DAC_ConnectOnChipPeripheral = DAC_CHIPCONNECT_DISABLE;
 80006b2:	2301      	movs	r3, #1
 80006b4:	61bb      	str	r3, [r7, #24]
  sConfig.DAC_UserTrimming = DAC_TRIMMING_FACTORY;
 80006b6:	2300      	movs	r3, #0
 80006b8:	61fb      	str	r3, [r7, #28]
  if (HAL_DAC_ConfigChannel(&hdac2, &sConfig, DAC_CHANNEL_1) != HAL_OK)
 80006ba:	463b      	mov	r3, r7
 80006bc:	2200      	movs	r2, #0
 80006be:	4619      	mov	r1, r3
 80006c0:	4805      	ldr	r0, [pc, #20]	; (80006d8 <MX_DAC2_Init+0x6c>)
 80006c2:	f003 fa6b 	bl	8003b9c <HAL_DAC_ConfigChannel>
 80006c6:	4603      	mov	r3, r0
 80006c8:	2b00      	cmp	r3, #0
 80006ca:	d001      	beq.n	80006d0 <MX_DAC2_Init+0x64>
  {
    Error_Handler();
 80006cc:	f000 fdc0 	bl	8001250 <Error_Handler>
  }

}
 80006d0:	bf00      	nop
 80006d2:	3730      	adds	r7, #48	; 0x30
 80006d4:	46bd      	mov	sp, r7
 80006d6:	bd80      	pop	{r7, pc}
 80006d8:	20000570 	.word	0x20000570
 80006dc:	50000c00 	.word	0x50000c00

080006e0 <HAL_DAC_MspInit>:

void HAL_DAC_MspInit(DAC_HandleTypeDef* dacHandle)
{
 80006e0:	b580      	push	{r7, lr}
 80006e2:	b08c      	sub	sp, #48	; 0x30
 80006e4:	af00      	add	r7, sp, #0
 80006e6:	6078      	str	r0, [r7, #4]

  GPIO_InitTypeDef GPIO_InitStruct = {0};
 80006e8:	f107 031c 	add.w	r3, r7, #28
 80006ec:	2200      	movs	r2, #0
 80006ee:	601a      	str	r2, [r3, #0]
 80006f0:	605a      	str	r2, [r3, #4]
 80006f2:	609a      	str	r2, [r3, #8]
 80006f4:	60da      	str	r2, [r3, #12]
 80006f6:	611a      	str	r2, [r3, #16]
  if(dacHandle->Instance==DAC1)
 80006f8:	687b      	ldr	r3, [r7, #4]
 80006fa:	681b      	ldr	r3, [r3, #0]
 80006fc:	4a56      	ldr	r2, [pc, #344]	; (8000858 <HAL_DAC_MspInit+0x178>)
 80006fe:	4293      	cmp	r3, r2
 8000700:	d150      	bne.n	80007a4 <HAL_DAC_MspInit+0xc4>
  {
  /* USER CODE BEGIN DAC1_MspInit 0 */

  /* USER CODE END DAC1_MspInit 0 */
    /* DAC1 clock enable */
    __HAL_RCC_DAC1_CLK_ENABLE();
 8000702:	4b56      	ldr	r3, [pc, #344]	; (800085c <HAL_DAC_MspInit+0x17c>)
 8000704:	6cdb      	ldr	r3, [r3, #76]	; 0x4c
 8000706:	4a55      	ldr	r2, [pc, #340]	; (800085c <HAL_DAC_MspInit+0x17c>)
 8000708:	f443 3380 	orr.w	r3, r3, #65536	; 0x10000
 800070c:	64d3      	str	r3, [r2, #76]	; 0x4c
 800070e:	4b53      	ldr	r3, [pc, #332]	; (800085c <HAL_DAC_MspInit+0x17c>)
 8000710:	6cdb      	ldr	r3, [r3, #76]	; 0x4c
 8000712:	f403 3380 	and.w	r3, r3, #65536	; 0x10000
 8000716:	61bb      	str	r3, [r7, #24]
 8000718:	69bb      	ldr	r3, [r7, #24]
  
    __HAL_RCC_GPIOA_CLK_ENABLE();
 800071a:	4b50      	ldr	r3, [pc, #320]	; (800085c <HAL_DAC_MspInit+0x17c>)
 800071c:	6cdb      	ldr	r3, [r3, #76]	; 0x4c
 800071e:	4a4f      	ldr	r2, [pc, #316]	; (800085c <HAL_DAC_MspInit+0x17c>)
 8000720:	f043 0301 	orr.w	r3, r3, #1
 8000724:	64d3      	str	r3, [r2, #76]	; 0x4c
 8000726:	4b4d      	ldr	r3, [pc, #308]	; (800085c <HAL_DAC_MspInit+0x17c>)
 8000728:	6cdb      	ldr	r3, [r3, #76]	; 0x4c
 800072a:	f003 0301 	and.w	r3, r3, #1
 800072e:	617b      	str	r3, [r7, #20]
 8000730:	697b      	ldr	r3, [r7, #20]
    /**DAC1 GPIO Configuration    
    PA4     ------> DAC1_OUT1
    PA5     ------> DAC1_OUT2 
    */
    GPIO_InitStruct.Pin = GPIO_PIN_4|GPIO_PIN_5;
 8000732:	2330      	movs	r3, #48	; 0x30
 8000734:	61fb      	str	r3, [r7, #28]
    GPIO_InitStruct.Mode = GPIO_MODE_ANALOG;
 8000736:	2303      	movs	r3, #3
 8000738:	623b      	str	r3, [r7, #32]
    GPIO_InitStruct.Pull = GPIO_NOPULL;
 800073a:	2300      	movs	r3, #0
 800073c:	627b      	str	r3, [r7, #36]	; 0x24
    HAL_GPIO_Init(GPIOA, &GPIO_InitStruct);
 800073e:	f107 031c 	add.w	r3, r7, #28
 8000742:	4619      	mov	r1, r3
 8000744:	f04f 4090 	mov.w	r0, #1207959552	; 0x48000000
 8000748:	f003 fed0 	bl	80044ec <HAL_GPIO_Init>

    /* DAC1 DMA Init */
    /* DAC1_CH1 Init */
    hdma_dac1_ch1.Instance = DMA1_Channel2;
 800074c:	4b44      	ldr	r3, [pc, #272]	; (8000860 <HAL_DAC_MspInit+0x180>)
 800074e:	4a45      	ldr	r2, [pc, #276]	; (8000864 <HAL_DAC_MspInit+0x184>)
 8000750:	601a      	str	r2, [r3, #0]
    hdma_dac1_ch1.Init.Request = DMA_REQUEST_DAC1_CHANNEL1;
 8000752:	4b43      	ldr	r3, [pc, #268]	; (8000860 <HAL_DAC_MspInit+0x180>)
 8000754:	2206      	movs	r2, #6
 8000756:	605a      	str	r2, [r3, #4]
    hdma_dac1_ch1.Init.Direction = DMA_MEMORY_TO_PERIPH;
 8000758:	4b41      	ldr	r3, [pc, #260]	; (8000860 <HAL_DAC_MspInit+0x180>)
 800075a:	2210      	movs	r2, #16
 800075c:	609a      	str	r2, [r3, #8]
    hdma_dac1_ch1.Init.PeriphInc = DMA_PINC_DISABLE;
 800075e:	4b40      	ldr	r3, [pc, #256]	; (8000860 <HAL_DAC_MspInit+0x180>)
 8000760:	2200      	movs	r2, #0
 8000762:	60da      	str	r2, [r3, #12]
    hdma_dac1_ch1.Init.MemInc = DMA_MINC_ENABLE;
 8000764:	4b3e      	ldr	r3, [pc, #248]	; (8000860 <HAL_DAC_MspInit+0x180>)
 8000766:	2280      	movs	r2, #128	; 0x80
 8000768:	611a      	str	r2, [r3, #16]
    hdma_dac1_ch1.Init.PeriphDataAlignment = DMA_PDATAALIGN_WORD;
 800076a:	4b3d      	ldr	r3, [pc, #244]	; (8000860 <HAL_DAC_MspInit+0x180>)
 800076c:	f44f 7200 	mov.w	r2, #512	; 0x200
 8000770:	615a      	str	r2, [r3, #20]
    hdma_dac1_ch1.Init.MemDataAlignment = DMA_MDATAALIGN_WORD;
 8000772:	4b3b      	ldr	r3, [pc, #236]	; (8000860 <HAL_DAC_MspInit+0x180>)
 8000774:	f44f 6200 	mov.w	r2, #2048	; 0x800
 8000778:	619a      	str	r2, [r3, #24]
    hdma_dac1_ch1.Init.Mode = DMA_CIRCULAR;
 800077a:	4b39      	ldr	r3, [pc, #228]	; (8000860 <HAL_DAC_MspInit+0x180>)
 800077c:	2220      	movs	r2, #32
 800077e:	61da      	str	r2, [r3, #28]
    hdma_dac1_ch1.Init.Priority = DMA_PRIORITY_LOW;
 8000780:	4b37      	ldr	r3, [pc, #220]	; (8000860 <HAL_DAC_MspInit+0x180>)
 8000782:	2200      	movs	r2, #0
 8000784:	621a      	str	r2, [r3, #32]
    if (HAL_DMA_Init(&hdma_dac1_ch1) != HAL_OK)
 8000786:	4836      	ldr	r0, [pc, #216]	; (8000860 <HAL_DAC_MspInit+0x180>)
 8000788:	f003 fc3e 	bl	8004008 <HAL_DMA_Init>
 800078c:	4603      	mov	r3, r0
 800078e:	2b00      	cmp	r3, #0
 8000790:	d001      	beq.n	8000796 <HAL_DAC_MspInit+0xb6>
    {
      Error_Handler();
 8000792:	f000 fd5d 	bl	8001250 <Error_Handler>
    }

    __HAL_LINKDMA(dacHandle,DMA_Handle1,hdma_dac1_ch1);
 8000796:	687b      	ldr	r3, [r7, #4]
 8000798:	4a31      	ldr	r2, [pc, #196]	; (8000860 <HAL_DAC_MspInit+0x180>)
 800079a:	609a      	str	r2, [r3, #8]
 800079c:	4a30      	ldr	r2, [pc, #192]	; (8000860 <HAL_DAC_MspInit+0x180>)
 800079e:	687b      	ldr	r3, [r7, #4]
 80007a0:	6293      	str	r3, [r2, #40]	; 0x28

  /* USER CODE BEGIN DAC2_MspInit 1 */

  /* USER CODE END DAC2_MspInit 1 */
  }
}
 80007a2:	e054      	b.n	800084e <HAL_DAC_MspInit+0x16e>
  else if(dacHandle->Instance==DAC2)
 80007a4:	687b      	ldr	r3, [r7, #4]
 80007a6:	681b      	ldr	r3, [r3, #0]
 80007a8:	4a2f      	ldr	r2, [pc, #188]	; (8000868 <HAL_DAC_MspInit+0x188>)
 80007aa:	4293      	cmp	r3, r2
 80007ac:	d14f      	bne.n	800084e <HAL_DAC_MspInit+0x16e>
    __HAL_RCC_DAC2_CLK_ENABLE();
 80007ae:	4b2b      	ldr	r3, [pc, #172]	; (800085c <HAL_DAC_MspInit+0x17c>)
 80007b0:	6cdb      	ldr	r3, [r3, #76]	; 0x4c
 80007b2:	4a2a      	ldr	r2, [pc, #168]	; (800085c <HAL_DAC_MspInit+0x17c>)
 80007b4:	f443 3300 	orr.w	r3, r3, #131072	; 0x20000
 80007b8:	64d3      	str	r3, [r2, #76]	; 0x4c
 80007ba:	4b28      	ldr	r3, [pc, #160]	; (800085c <HAL_DAC_MspInit+0x17c>)
 80007bc:	6cdb      	ldr	r3, [r3, #76]	; 0x4c
 80007be:	f403 3300 	and.w	r3, r3, #131072	; 0x20000
 80007c2:	613b      	str	r3, [r7, #16]
 80007c4:	693b      	ldr	r3, [r7, #16]
    __HAL_RCC_GPIOA_CLK_ENABLE();
 80007c6:	4b25      	ldr	r3, [pc, #148]	; (800085c <HAL_DAC_MspInit+0x17c>)
 80007c8:	6cdb      	ldr	r3, [r3, #76]	; 0x4c
 80007ca:	4a24      	ldr	r2, [pc, #144]	; (800085c <HAL_DAC_MspInit+0x17c>)
 80007cc:	f043 0301 	orr.w	r3, r3, #1
 80007d0:	64d3      	str	r3, [r2, #76]	; 0x4c
 80007d2:	4b22      	ldr	r3, [pc, #136]	; (800085c <HAL_DAC_MspInit+0x17c>)
 80007d4:	6cdb      	ldr	r3, [r3, #76]	; 0x4c
 80007d6:	f003 0301 	and.w	r3, r3, #1
 80007da:	60fb      	str	r3, [r7, #12]
 80007dc:	68fb      	ldr	r3, [r7, #12]
    GPIO_InitStruct.Pin = GPIO_PIN_6;
 80007de:	2340      	movs	r3, #64	; 0x40
 80007e0:	61fb      	str	r3, [r7, #28]
    GPIO_InitStruct.Mode = GPIO_MODE_ANALOG;
 80007e2:	2303      	movs	r3, #3
 80007e4:	623b      	str	r3, [r7, #32]
    GPIO_InitStruct.Pull = GPIO_NOPULL;
 80007e6:	2300      	movs	r3, #0
 80007e8:	627b      	str	r3, [r7, #36]	; 0x24
    HAL_GPIO_Init(GPIOA, &GPIO_InitStruct);
 80007ea:	f107 031c 	add.w	r3, r7, #28
 80007ee:	4619      	mov	r1, r3
 80007f0:	f04f 4090 	mov.w	r0, #1207959552	; 0x48000000
 80007f4:	f003 fe7a 	bl	80044ec <HAL_GPIO_Init>
    hdma_dac2_ch1.Instance = DMA1_Channel3;
 80007f8:	4b1c      	ldr	r3, [pc, #112]	; (800086c <HAL_DAC_MspInit+0x18c>)
 80007fa:	4a1d      	ldr	r2, [pc, #116]	; (8000870 <HAL_DAC_MspInit+0x190>)
 80007fc:	601a      	str	r2, [r3, #0]
    hdma_dac2_ch1.Init.Request = DMA_REQUEST_DAC2_CHANNEL1;
 80007fe:	4b1b      	ldr	r3, [pc, #108]	; (800086c <HAL_DAC_MspInit+0x18c>)
 8000800:	2229      	movs	r2, #41	; 0x29
 8000802:	605a      	str	r2, [r3, #4]
    hdma_dac2_ch1.Init.Direction = DMA_MEMORY_TO_PERIPH;
 8000804:	4b19      	ldr	r3, [pc, #100]	; (800086c <HAL_DAC_MspInit+0x18c>)
 8000806:	2210      	movs	r2, #16
 8000808:	609a      	str	r2, [r3, #8]
    hdma_dac2_ch1.Init.PeriphInc = DMA_PINC_DISABLE;
 800080a:	4b18      	ldr	r3, [pc, #96]	; (800086c <HAL_DAC_MspInit+0x18c>)
 800080c:	2200      	movs	r2, #0
 800080e:	60da      	str	r2, [r3, #12]
    hdma_dac2_ch1.Init.MemInc = DMA_MINC_ENABLE;
 8000810:	4b16      	ldr	r3, [pc, #88]	; (800086c <HAL_DAC_MspInit+0x18c>)
 8000812:	2280      	movs	r2, #128	; 0x80
 8000814:	611a      	str	r2, [r3, #16]
    hdma_dac2_ch1.Init.PeriphDataAlignment = DMA_PDATAALIGN_WORD;
 8000816:	4b15      	ldr	r3, [pc, #84]	; (800086c <HAL_DAC_MspInit+0x18c>)
 8000818:	f44f 7200 	mov.w	r2, #512	; 0x200
 800081c:	615a      	str	r2, [r3, #20]
    hdma_dac2_ch1.Init.MemDataAlignment = DMA_MDATAALIGN_WORD;
 800081e:	4b13      	ldr	r3, [pc, #76]	; (800086c <HAL_DAC_MspInit+0x18c>)
 8000820:	f44f 6200 	mov.w	r2, #2048	; 0x800
 8000824:	619a      	str	r2, [r3, #24]
    hdma_dac2_ch1.Init.Mode = DMA_CIRCULAR;
 8000826:	4b11      	ldr	r3, [pc, #68]	; (800086c <HAL_DAC_MspInit+0x18c>)
 8000828:	2220      	movs	r2, #32
 800082a:	61da      	str	r2, [r3, #28]
    hdma_dac2_ch1.Init.Priority = DMA_PRIORITY_LOW;
 800082c:	4b0f      	ldr	r3, [pc, #60]	; (800086c <HAL_DAC_MspInit+0x18c>)
 800082e:	2200      	movs	r2, #0
 8000830:	621a      	str	r2, [r3, #32]
    if (HAL_DMA_Init(&hdma_dac2_ch1) != HAL_OK)
 8000832:	480e      	ldr	r0, [pc, #56]	; (800086c <HAL_DAC_MspInit+0x18c>)
 8000834:	f003 fbe8 	bl	8004008 <HAL_DMA_Init>
 8000838:	4603      	mov	r3, r0
 800083a:	2b00      	cmp	r3, #0
 800083c:	d001      	beq.n	8000842 <HAL_DAC_MspInit+0x162>
      Error_Handler();
 800083e:	f000 fd07 	bl	8001250 <Error_Handler>
    __HAL_LINKDMA(dacHandle,DMA_Handle1,hdma_dac2_ch1);
 8000842:	687b      	ldr	r3, [r7, #4]
 8000844:	4a09      	ldr	r2, [pc, #36]	; (800086c <HAL_DAC_MspInit+0x18c>)
 8000846:	609a      	str	r2, [r3, #8]
 8000848:	4a08      	ldr	r2, [pc, #32]	; (800086c <HAL_DAC_MspInit+0x18c>)
 800084a:	687b      	ldr	r3, [r7, #4]
 800084c:	6293      	str	r3, [r2, #40]	; 0x28
}
 800084e:	bf00      	nop
 8000850:	3730      	adds	r7, #48	; 0x30
 8000852:	46bd      	mov	sp, r7
 8000854:	bd80      	pop	{r7, pc}
 8000856:	bf00      	nop
 8000858:	50000800 	.word	0x50000800
 800085c:	40021000 	.word	0x40021000
 8000860:	20000598 	.word	0x20000598
 8000864:	4002001c 	.word	0x4002001c
 8000868:	50000c00 	.word	0x50000c00
 800086c:	200005f8 	.word	0x200005f8
 8000870:	40020030 	.word	0x40020030

08000874 <MX_DMA_Init>:

/** 
  * Enable DMA controller clock
  */
void MX_DMA_Init(void) 
{
 8000874:	b580      	push	{r7, lr}
 8000876:	b082      	sub	sp, #8
 8000878:	af00      	add	r7, sp, #0

  /* DMA controller clock enable */
  __HAL_RCC_DMAMUX1_CLK_ENABLE();
 800087a:	4b1e      	ldr	r3, [pc, #120]	; (80008f4 <MX_DMA_Init+0x80>)
 800087c:	6c9b      	ldr	r3, [r3, #72]	; 0x48
 800087e:	4a1d      	ldr	r2, [pc, #116]	; (80008f4 <MX_DMA_Init+0x80>)
 8000880:	f043 0304 	orr.w	r3, r3, #4
 8000884:	6493      	str	r3, [r2, #72]	; 0x48
 8000886:	4b1b      	ldr	r3, [pc, #108]	; (80008f4 <MX_DMA_Init+0x80>)
 8000888:	6c9b      	ldr	r3, [r3, #72]	; 0x48
 800088a:	f003 0304 	and.w	r3, r3, #4
 800088e:	607b      	str	r3, [r7, #4]
 8000890:	687b      	ldr	r3, [r7, #4]
  __HAL_RCC_DMA1_CLK_ENABLE();
 8000892:	4b18      	ldr	r3, [pc, #96]	; (80008f4 <MX_DMA_Init+0x80>)
 8000894:	6c9b      	ldr	r3, [r3, #72]	; 0x48
 8000896:	4a17      	ldr	r2, [pc, #92]	; (80008f4 <MX_DMA_Init+0x80>)
 8000898:	f043 0301 	orr.w	r3, r3, #1
 800089c:	6493      	str	r3, [r2, #72]	; 0x48
 800089e:	4b15      	ldr	r3, [pc, #84]	; (80008f4 <MX_DMA_Init+0x80>)
 80008a0:	6c9b      	ldr	r3, [r3, #72]	; 0x48
 80008a2:	f003 0301 	and.w	r3, r3, #1
 80008a6:	603b      	str	r3, [r7, #0]
 80008a8:	683b      	ldr	r3, [r7, #0]

  /* DMA interrupt init */
  /* DMA1_Channel1_IRQn interrupt configuration */
  HAL_NVIC_SetPriority(DMA1_Channel1_IRQn, 1, 0);
 80008aa:	2200      	movs	r2, #0
 80008ac:	2101      	movs	r1, #1
 80008ae:	200b      	movs	r0, #11
 80008b0:	f002 ffc3 	bl	800383a <HAL_NVIC_SetPriority>
  HAL_NVIC_EnableIRQ(DMA1_Channel1_IRQn);
 80008b4:	200b      	movs	r0, #11
 80008b6:	f002 ffda 	bl	800386e <HAL_NVIC_EnableIRQ>
  /* DMA1_Channel2_IRQn interrupt configuration */
  HAL_NVIC_SetPriority(DMA1_Channel2_IRQn, 0, 0);
 80008ba:	2200      	movs	r2, #0
 80008bc:	2100      	movs	r1, #0
 80008be:	200c      	movs	r0, #12
 80008c0:	f002 ffbb 	bl	800383a <HAL_NVIC_SetPriority>
  HAL_NVIC_EnableIRQ(DMA1_Channel2_IRQn);
 80008c4:	200c      	movs	r0, #12
 80008c6:	f002 ffd2 	bl	800386e <HAL_NVIC_EnableIRQ>
  /* DMA1_Channel3_IRQn interrupt configuration */
  HAL_NVIC_SetPriority(DMA1_Channel3_IRQn, 0, 0);
 80008ca:	2200      	movs	r2, #0
 80008cc:	2100      	movs	r1, #0
 80008ce:	200d      	movs	r0, #13
 80008d0:	f002 ffb3 	bl	800383a <HAL_NVIC_SetPriority>
  HAL_NVIC_EnableIRQ(DMA1_Channel3_IRQn);
 80008d4:	200d      	movs	r0, #13
 80008d6:	f002 ffca 	bl	800386e <HAL_NVIC_EnableIRQ>
  /* DMA1_Channel4_IRQn interrupt configuration */
  HAL_NVIC_SetPriority(DMA1_Channel4_IRQn, 0, 0);
 80008da:	2200      	movs	r2, #0
 80008dc:	2100      	movs	r1, #0
 80008de:	200e      	movs	r0, #14
 80008e0:	f002 ffab 	bl	800383a <HAL_NVIC_SetPriority>
  HAL_NVIC_EnableIRQ(DMA1_Channel4_IRQn);
 80008e4:	200e      	movs	r0, #14
 80008e6:	f002 ffc2 	bl	800386e <HAL_NVIC_EnableIRQ>

}
 80008ea:	bf00      	nop
 80008ec:	3708      	adds	r7, #8
 80008ee:	46bd      	mov	sp, r7
 80008f0:	bd80      	pop	{r7, pc}
 80008f2:	bf00      	nop
 80008f4:	40021000 	.word	0x40021000

080008f8 <update_dc_bias_sweep>:
uint16_t dcbias = 0;
int dcbias_dir = 1;
int dcinverted = 0;

void update_dc_bias_sweep()
{
 80008f8:	b580      	push	{r7, lr}
 80008fa:	af00      	add	r7, sp, #0
	  // up=1, down=0
	  (dcbias_dir) ? (dcbias++) : (dcbias--);
 80008fc:	4b20      	ldr	r3, [pc, #128]	; (8000980 <update_dc_bias_sweep+0x88>)
 80008fe:	681b      	ldr	r3, [r3, #0]
 8000900:	2b00      	cmp	r3, #0
 8000902:	d006      	beq.n	8000912 <update_dc_bias_sweep+0x1a>
 8000904:	4b1f      	ldr	r3, [pc, #124]	; (8000984 <update_dc_bias_sweep+0x8c>)
 8000906:	881b      	ldrh	r3, [r3, #0]
 8000908:	3301      	adds	r3, #1
 800090a:	b29a      	uxth	r2, r3
 800090c:	4b1d      	ldr	r3, [pc, #116]	; (8000984 <update_dc_bias_sweep+0x8c>)
 800090e:	801a      	strh	r2, [r3, #0]
 8000910:	e005      	b.n	800091e <update_dc_bias_sweep+0x26>
 8000912:	4b1c      	ldr	r3, [pc, #112]	; (8000984 <update_dc_bias_sweep+0x8c>)
 8000914:	881b      	ldrh	r3, [r3, #0]
 8000916:	3b01      	subs	r3, #1
 8000918:	b29a      	uxth	r2, r3
 800091a:	4b1a      	ldr	r3, [pc, #104]	; (8000984 <update_dc_bias_sweep+0x8c>)
 800091c:	801a      	strh	r2, [r3, #0]

	  // invert the bias signal at zero crossing
	  if(dcbias < 1) {
 800091e:	4b19      	ldr	r3, [pc, #100]	; (8000984 <update_dc_bias_sweep+0x8c>)
 8000920:	881b      	ldrh	r3, [r3, #0]
 8000922:	2b00      	cmp	r3, #0
 8000924:	d10a      	bne.n	800093c <update_dc_bias_sweep+0x44>
		(dcinverted) ? (dcinverted=0) : (dcinverted=1);
 8000926:	4b18      	ldr	r3, [pc, #96]	; (8000988 <update_dc_bias_sweep+0x90>)
 8000928:	681b      	ldr	r3, [r3, #0]
 800092a:	2b00      	cmp	r3, #0
 800092c:	d003      	beq.n	8000936 <update_dc_bias_sweep+0x3e>
 800092e:	4b16      	ldr	r3, [pc, #88]	; (8000988 <update_dc_bias_sweep+0x90>)
 8000930:	2200      	movs	r2, #0
 8000932:	601a      	str	r2, [r3, #0]
 8000934:	e002      	b.n	800093c <update_dc_bias_sweep+0x44>
 8000936:	4b14      	ldr	r3, [pc, #80]	; (8000988 <update_dc_bias_sweep+0x90>)
 8000938:	2201      	movs	r2, #1
 800093a:	601a      	str	r2, [r3, #0]
	  }

	  // change direction if dac limits are reached
	  if(dcbias < 1) 	{ dcbias_dir = 1; }
 800093c:	4b11      	ldr	r3, [pc, #68]	; (8000984 <update_dc_bias_sweep+0x8c>)
 800093e:	881b      	ldrh	r3, [r3, #0]
 8000940:	2b00      	cmp	r3, #0
 8000942:	d102      	bne.n	800094a <update_dc_bias_sweep+0x52>
 8000944:	4b0e      	ldr	r3, [pc, #56]	; (8000980 <update_dc_bias_sweep+0x88>)
 8000946:	2201      	movs	r2, #1
 8000948:	601a      	str	r2, [r3, #0]
	  if(dcbias > 4095) { dcbias_dir = 0; }
 800094a:	4b0e      	ldr	r3, [pc, #56]	; (8000984 <update_dc_bias_sweep+0x8c>)
 800094c:	881b      	ldrh	r3, [r3, #0]
 800094e:	f5b3 5f80 	cmp.w	r3, #4096	; 0x1000
 8000952:	d302      	bcc.n	800095a <update_dc_bias_sweep+0x62>
 8000954:	4b0a      	ldr	r3, [pc, #40]	; (8000980 <update_dc_bias_sweep+0x88>)
 8000956:	2200      	movs	r2, #0
 8000958:	601a      	str	r2, [r3, #0]


	  HAL_GPIO_WritePin(DCBIAS_INVERT_GPIO_Port, DCBIAS_INVERT_Pin, dcinverted);
 800095a:	4b0b      	ldr	r3, [pc, #44]	; (8000988 <update_dc_bias_sweep+0x90>)
 800095c:	681b      	ldr	r3, [r3, #0]
 800095e:	b2db      	uxtb	r3, r3
 8000960:	461a      	mov	r2, r3
 8000962:	2108      	movs	r1, #8
 8000964:	f04f 4090 	mov.w	r0, #1207959552	; 0x48000000
 8000968:	f003 ff5a 	bl	8004820 <HAL_GPIO_WritePin>
	  HAL_DAC_SetValue(&hdac1, DAC1_CHANNEL_2, DAC_ALIGN_12B_R, dcbias);
 800096c:	4b05      	ldr	r3, [pc, #20]	; (8000984 <update_dc_bias_sweep+0x8c>)
 800096e:	881b      	ldrh	r3, [r3, #0]
 8000970:	2200      	movs	r2, #0
 8000972:	2110      	movs	r1, #16
 8000974:	4805      	ldr	r0, [pc, #20]	; (800098c <update_dc_bias_sweep+0x94>)
 8000976:	f003 f8cb 	bl	8003b10 <HAL_DAC_SetValue>
}
 800097a:	bf00      	nop
 800097c:	bd80      	pop	{r7, pc}
 800097e:	bf00      	nop
 8000980:	20000008 	.word	0x20000008
 8000984:	2000045c 	.word	0x2000045c
 8000988:	20000460 	.word	0x20000460
 800098c:	20000584 	.word	0x20000584

08000990 <__NVIC_GetPriorityGrouping>:
  \brief   Get Priority Grouping
  \details Reads the priority grouping field from the NVIC Interrupt Controller.
  \return                Priority grouping field (SCB->AIRCR [10:8] PRIGROUP field).
 */
__STATIC_INLINE uint32_t __NVIC_GetPriorityGrouping(void)
{
 8000990:	b480      	push	{r7}
 8000992:	af00      	add	r7, sp, #0
  return ((uint32_t)((SCB->AIRCR & SCB_AIRCR_PRIGROUP_Msk) >> SCB_AIRCR_PRIGROUP_Pos));
 8000994:	4b04      	ldr	r3, [pc, #16]	; (80009a8 <__NVIC_GetPriorityGrouping+0x18>)
 8000996:	68db      	ldr	r3, [r3, #12]
 8000998:	0a1b      	lsrs	r3, r3, #8
 800099a:	f003 0307 	and.w	r3, r3, #7
}
 800099e:	4618      	mov	r0, r3
 80009a0:	46bd      	mov	sp, r7
 80009a2:	f85d 7b04 	ldr.w	r7, [sp], #4
 80009a6:	4770      	bx	lr
 80009a8:	e000ed00 	.word	0xe000ed00

080009ac <__NVIC_EnableIRQ>:
  \details Enables a device specific interrupt in the NVIC interrupt controller.
  \param [in]      IRQn  Device specific interrupt number.
  \note    IRQn must not be negative.
 */
__STATIC_INLINE void __NVIC_EnableIRQ(IRQn_Type IRQn)
{
 80009ac:	b480      	push	{r7}
 80009ae:	b083      	sub	sp, #12
 80009b0:	af00      	add	r7, sp, #0
 80009b2:	4603      	mov	r3, r0
 80009b4:	71fb      	strb	r3, [r7, #7]
  if ((int32_t)(IRQn) >= 0)
 80009b6:	f997 3007 	ldrsb.w	r3, [r7, #7]
 80009ba:	2b00      	cmp	r3, #0
 80009bc:	db0b      	blt.n	80009d6 <__NVIC_EnableIRQ+0x2a>
  {
    NVIC->ISER[(((uint32_t)IRQn) >> 5UL)] = (uint32_t)(1UL << (((uint32_t)IRQn) & 0x1FUL));
 80009be:	79fb      	ldrb	r3, [r7, #7]
 80009c0:	f003 021f 	and.w	r2, r3, #31
 80009c4:	4907      	ldr	r1, [pc, #28]	; (80009e4 <__NVIC_EnableIRQ+0x38>)
 80009c6:	f997 3007 	ldrsb.w	r3, [r7, #7]
 80009ca:	095b      	lsrs	r3, r3, #5
 80009cc:	2001      	movs	r0, #1
 80009ce:	fa00 f202 	lsl.w	r2, r0, r2
 80009d2:	f841 2023 	str.w	r2, [r1, r3, lsl #2]
  }
}
 80009d6:	bf00      	nop
 80009d8:	370c      	adds	r7, #12
 80009da:	46bd      	mov	sp, r7
 80009dc:	f85d 7b04 	ldr.w	r7, [sp], #4
 80009e0:	4770      	bx	lr
 80009e2:	bf00      	nop
 80009e4:	e000e100 	.word	0xe000e100

080009e8 <__NVIC_SetPriority>:
  \param [in]      IRQn  Interrupt number.
  \param [in]  priority  Priority to set.
  \note    The priority cannot be set for every processor exception.
 */
__STATIC_INLINE void __NVIC_SetPriority(IRQn_Type IRQn, uint32_t priority)
{
 80009e8:	b480      	push	{r7}
 80009ea:	b083      	sub	sp, #12
 80009ec:	af00      	add	r7, sp, #0
 80009ee:	4603      	mov	r3, r0
 80009f0:	6039      	str	r1, [r7, #0]
 80009f2:	71fb      	strb	r3, [r7, #7]
  if ((int32_t)(IRQn) >= 0)
 80009f4:	f997 3007 	ldrsb.w	r3, [r7, #7]
 80009f8:	2b00      	cmp	r3, #0
 80009fa:	db0a      	blt.n	8000a12 <__NVIC_SetPriority+0x2a>
  {
    NVIC->IP[((uint32_t)IRQn)]               = (uint8_t)((priority << (8U - __NVIC_PRIO_BITS)) & (uint32_t)0xFFUL);
 80009fc:	683b      	ldr	r3, [r7, #0]
 80009fe:	b2da      	uxtb	r2, r3
 8000a00:	490c      	ldr	r1, [pc, #48]	; (8000a34 <__NVIC_SetPriority+0x4c>)
 8000a02:	f997 3007 	ldrsb.w	r3, [r7, #7]
 8000a06:	0112      	lsls	r2, r2, #4
 8000a08:	b2d2      	uxtb	r2, r2
 8000a0a:	440b      	add	r3, r1
 8000a0c:	f883 2300 	strb.w	r2, [r3, #768]	; 0x300
  }
  else
  {
    SCB->SHP[(((uint32_t)IRQn) & 0xFUL)-4UL] = (uint8_t)((priority << (8U - __NVIC_PRIO_BITS)) & (uint32_t)0xFFUL);
  }
}
 8000a10:	e00a      	b.n	8000a28 <__NVIC_SetPriority+0x40>
    SCB->SHP[(((uint32_t)IRQn) & 0xFUL)-4UL] = (uint8_t)((priority << (8U - __NVIC_PRIO_BITS)) & (uint32_t)0xFFUL);
 8000a12:	683b      	ldr	r3, [r7, #0]
 8000a14:	b2da      	uxtb	r2, r3
 8000a16:	4908      	ldr	r1, [pc, #32]	; (8000a38 <__NVIC_SetPriority+0x50>)
 8000a18:	79fb      	ldrb	r3, [r7, #7]
 8000a1a:	f003 030f 	and.w	r3, r3, #15
 8000a1e:	3b04      	subs	r3, #4
 8000a20:	0112      	lsls	r2, r2, #4
 8000a22:	b2d2      	uxtb	r2, r2
 8000a24:	440b      	add	r3, r1
 8000a26:	761a      	strb	r2, [r3, #24]
}
 8000a28:	bf00      	nop
 8000a2a:	370c      	adds	r7, #12
 8000a2c:	46bd      	mov	sp, r7
 8000a2e:	f85d 7b04 	ldr.w	r7, [sp], #4
 8000a32:	4770      	bx	lr
 8000a34:	e000e100 	.word	0xe000e100
 8000a38:	e000ed00 	.word	0xe000ed00

08000a3c <NVIC_EncodePriority>:
  \param [in]   PreemptPriority  Preemptive priority value (starting from 0).
  \param [in]       SubPriority  Subpriority value (starting from 0).
  \return                        Encoded priority. Value can be used in the function \ref NVIC_SetPriority().
 */
__STATIC_INLINE uint32_t NVIC_EncodePriority (uint32_t PriorityGroup, uint32_t PreemptPriority, uint32_t SubPriority)
{
 8000a3c:	b480      	push	{r7}
 8000a3e:	b089      	sub	sp, #36	; 0x24
 8000a40:	af00      	add	r7, sp, #0
 8000a42:	60f8      	str	r0, [r7, #12]
 8000a44:	60b9      	str	r1, [r7, #8]
 8000a46:	607a      	str	r2, [r7, #4]
  uint32_t PriorityGroupTmp = (PriorityGroup & (uint32_t)0x07UL);   /* only values 0..7 are used          */
 8000a48:	68fb      	ldr	r3, [r7, #12]
 8000a4a:	f003 0307 	and.w	r3, r3, #7
 8000a4e:	61fb      	str	r3, [r7, #28]
  uint32_t PreemptPriorityBits;
  uint32_t SubPriorityBits;

  PreemptPriorityBits = ((7UL - PriorityGroupTmp) > (uint32_t)(__NVIC_PRIO_BITS)) ? (uint32_t)(__NVIC_PRIO_BITS) : (uint32_t)(7UL - PriorityGroupTmp);
 8000a50:	69fb      	ldr	r3, [r7, #28]
 8000a52:	f1c3 0307 	rsb	r3, r3, #7
 8000a56:	2b04      	cmp	r3, #4
 8000a58:	bf28      	it	cs
 8000a5a:	2304      	movcs	r3, #4
 8000a5c:	61bb      	str	r3, [r7, #24]
  SubPriorityBits     = ((PriorityGroupTmp + (uint32_t)(__NVIC_PRIO_BITS)) < (uint32_t)7UL) ? (uint32_t)0UL : (uint32_t)((PriorityGroupTmp - 7UL) + (uint32_t)(__NVIC_PRIO_BITS));
 8000a5e:	69fb      	ldr	r3, [r7, #28]
 8000a60:	3304      	adds	r3, #4
 8000a62:	2b06      	cmp	r3, #6
 8000a64:	d902      	bls.n	8000a6c <NVIC_EncodePriority+0x30>
 8000a66:	69fb      	ldr	r3, [r7, #28]
 8000a68:	3b03      	subs	r3, #3
 8000a6a:	e000      	b.n	8000a6e <NVIC_EncodePriority+0x32>
 8000a6c:	2300      	movs	r3, #0
 8000a6e:	617b      	str	r3, [r7, #20]

  return (
           ((PreemptPriority & (uint32_t)((1UL << (PreemptPriorityBits)) - 1UL)) << SubPriorityBits) |
 8000a70:	f04f 32ff 	mov.w	r2, #4294967295	; 0xffffffff
 8000a74:	69bb      	ldr	r3, [r7, #24]
 8000a76:	fa02 f303 	lsl.w	r3, r2, r3
 8000a7a:	43da      	mvns	r2, r3
 8000a7c:	68bb      	ldr	r3, [r7, #8]
 8000a7e:	401a      	ands	r2, r3
 8000a80:	697b      	ldr	r3, [r7, #20]
 8000a82:	409a      	lsls	r2, r3
           ((SubPriority     & (uint32_t)((1UL << (SubPriorityBits    )) - 1UL)))
 8000a84:	f04f 31ff 	mov.w	r1, #4294967295	; 0xffffffff
 8000a88:	697b      	ldr	r3, [r7, #20]
 8000a8a:	fa01 f303 	lsl.w	r3, r1, r3
 8000a8e:	43d9      	mvns	r1, r3
 8000a90:	687b      	ldr	r3, [r7, #4]
 8000a92:	400b      	ands	r3, r1
           ((PreemptPriority & (uint32_t)((1UL << (PreemptPriorityBits)) - 1UL)) << SubPriorityBits) |
 8000a94:	4313      	orrs	r3, r2
         );
}
 8000a96:	4618      	mov	r0, r3
 8000a98:	3724      	adds	r7, #36	; 0x24
 8000a9a:	46bd      	mov	sp, r7
 8000a9c:	f85d 7b04 	ldr.w	r7, [sp], #4
 8000aa0:	4770      	bx	lr
	...

08000aa4 <LL_SYSCFG_SetEXTISource>:
  *         @arg @ref LL_SYSCFG_EXTI_LINE14
  *         @arg @ref LL_SYSCFG_EXTI_LINE15
  * @retval None
  */
__STATIC_INLINE void LL_SYSCFG_SetEXTISource(uint32_t Port, uint32_t Line)
{
 8000aa4:	b480      	push	{r7}
 8000aa6:	b085      	sub	sp, #20
 8000aa8:	af00      	add	r7, sp, #0
 8000aaa:	6078      	str	r0, [r7, #4]
 8000aac:	6039      	str	r1, [r7, #0]
  MODIFY_REG(SYSCFG->EXTICR[Line & 0x3U], (Line >> 16U), Port << (POSITION_VAL((Line >> 16U)) & 0x1FU) );
 8000aae:	4a14      	ldr	r2, [pc, #80]	; (8000b00 <LL_SYSCFG_SetEXTISource+0x5c>)
 8000ab0:	683b      	ldr	r3, [r7, #0]
 8000ab2:	f003 0303 	and.w	r3, r3, #3
 8000ab6:	3302      	adds	r3, #2
 8000ab8:	f852 2023 	ldr.w	r2, [r2, r3, lsl #2]
 8000abc:	683b      	ldr	r3, [r7, #0]
 8000abe:	0c1b      	lsrs	r3, r3, #16
 8000ac0:	43db      	mvns	r3, r3
 8000ac2:	ea02 0103 	and.w	r1, r2, r3
 8000ac6:	683b      	ldr	r3, [r7, #0]
 8000ac8:	0c1b      	lsrs	r3, r3, #16
 8000aca:	60fb      	str	r3, [r7, #12]
  uint32_t result;

#if ((defined (__ARM_ARCH_7M__      ) && (__ARM_ARCH_7M__      == 1)) || \
     (defined (__ARM_ARCH_7EM__     ) && (__ARM_ARCH_7EM__     == 1)) || \
     (defined (__ARM_ARCH_8M_MAIN__ ) && (__ARM_ARCH_8M_MAIN__ == 1))    )
   __ASM volatile ("rbit %0, %1" : "=r" (result) : "r" (value) );
 8000acc:	68fb      	ldr	r3, [r7, #12]
 8000ace:	fa93 f3a3 	rbit	r3, r3
 8000ad2:	60bb      	str	r3, [r7, #8]
    result |= value & 1U;
    s--;
  }
  result <<= s;                        /* shift when v's highest bits are zero */
#endif
  return result;
 8000ad4:	68bb      	ldr	r3, [r7, #8]
 8000ad6:	fab3 f383 	clz	r3, r3
 8000ada:	b2db      	uxtb	r3, r3
 8000adc:	f003 031f 	and.w	r3, r3, #31
 8000ae0:	687a      	ldr	r2, [r7, #4]
 8000ae2:	409a      	lsls	r2, r3
 8000ae4:	4806      	ldr	r0, [pc, #24]	; (8000b00 <LL_SYSCFG_SetEXTISource+0x5c>)
 8000ae6:	683b      	ldr	r3, [r7, #0]
 8000ae8:	f003 0303 	and.w	r3, r3, #3
 8000aec:	430a      	orrs	r2, r1
 8000aee:	3302      	adds	r3, #2
 8000af0:	f840 2023 	str.w	r2, [r0, r3, lsl #2]
}
 8000af4:	bf00      	nop
 8000af6:	3714      	adds	r7, #20
 8000af8:	46bd      	mov	sp, r7
 8000afa:	f85d 7b04 	ldr.w	r7, [sp], #4
 8000afe:	4770      	bx	lr
 8000b00:	40010000 	.word	0x40010000

08000b04 <LL_GPIO_SetPinMode>:
  *         @arg @ref LL_GPIO_MODE_ALTERNATE
  *         @arg @ref LL_GPIO_MODE_ANALOG
  * @retval None
  */
__STATIC_INLINE void LL_GPIO_SetPinMode(GPIO_TypeDef *GPIOx, uint32_t Pin, uint32_t Mode)
{
 8000b04:	b480      	push	{r7}
 8000b06:	b089      	sub	sp, #36	; 0x24
 8000b08:	af00      	add	r7, sp, #0
 8000b0a:	60f8      	str	r0, [r7, #12]
 8000b0c:	60b9      	str	r1, [r7, #8]
 8000b0e:	607a      	str	r2, [r7, #4]
  MODIFY_REG(GPIOx->MODER, (GPIO_MODER_MODE0 << (POSITION_VAL(Pin) * 2U)), (Mode << (POSITION_VAL(Pin) * 2U)));
 8000b10:	68fb      	ldr	r3, [r7, #12]
 8000b12:	681a      	ldr	r2, [r3, #0]
 8000b14:	68bb      	ldr	r3, [r7, #8]
 8000b16:	617b      	str	r3, [r7, #20]
   __ASM volatile ("rbit %0, %1" : "=r" (result) : "r" (value) );
 8000b18:	697b      	ldr	r3, [r7, #20]
 8000b1a:	fa93 f3a3 	rbit	r3, r3
 8000b1e:	613b      	str	r3, [r7, #16]
  return result;
 8000b20:	693b      	ldr	r3, [r7, #16]
 8000b22:	fab3 f383 	clz	r3, r3
 8000b26:	b2db      	uxtb	r3, r3
 8000b28:	005b      	lsls	r3, r3, #1
 8000b2a:	2103      	movs	r1, #3
 8000b2c:	fa01 f303 	lsl.w	r3, r1, r3
 8000b30:	43db      	mvns	r3, r3
 8000b32:	401a      	ands	r2, r3
 8000b34:	68bb      	ldr	r3, [r7, #8]
 8000b36:	61fb      	str	r3, [r7, #28]
   __ASM volatile ("rbit %0, %1" : "=r" (result) : "r" (value) );
 8000b38:	69fb      	ldr	r3, [r7, #28]
 8000b3a:	fa93 f3a3 	rbit	r3, r3
 8000b3e:	61bb      	str	r3, [r7, #24]
  return result;
 8000b40:	69bb      	ldr	r3, [r7, #24]
 8000b42:	fab3 f383 	clz	r3, r3
 8000b46:	b2db      	uxtb	r3, r3
 8000b48:	005b      	lsls	r3, r3, #1
 8000b4a:	6879      	ldr	r1, [r7, #4]
 8000b4c:	fa01 f303 	lsl.w	r3, r1, r3
 8000b50:	431a      	orrs	r2, r3
 8000b52:	68fb      	ldr	r3, [r7, #12]
 8000b54:	601a      	str	r2, [r3, #0]
}
 8000b56:	bf00      	nop
 8000b58:	3724      	adds	r7, #36	; 0x24
 8000b5a:	46bd      	mov	sp, r7
 8000b5c:	f85d 7b04 	ldr.w	r7, [sp], #4
 8000b60:	4770      	bx	lr

08000b62 <LL_GPIO_SetPinPull>:
  *         @arg @ref LL_GPIO_PULL_UP
  *         @arg @ref LL_GPIO_PULL_DOWN
  * @retval None
  */
__STATIC_INLINE void LL_GPIO_SetPinPull(GPIO_TypeDef *GPIOx, uint32_t Pin, uint32_t Pull)
{
 8000b62:	b480      	push	{r7}
 8000b64:	b089      	sub	sp, #36	; 0x24
 8000b66:	af00      	add	r7, sp, #0
 8000b68:	60f8      	str	r0, [r7, #12]
 8000b6a:	60b9      	str	r1, [r7, #8]
 8000b6c:	607a      	str	r2, [r7, #4]
  MODIFY_REG(GPIOx->PUPDR, (GPIO_PUPDR_PUPD0 << (POSITION_VAL(Pin) * 2U)), (Pull << (POSITION_VAL(Pin) * 2U)));
 8000b6e:	68fb      	ldr	r3, [r7, #12]
 8000b70:	68da      	ldr	r2, [r3, #12]
 8000b72:	68bb      	ldr	r3, [r7, #8]
 8000b74:	617b      	str	r3, [r7, #20]
   __ASM volatile ("rbit %0, %1" : "=r" (result) : "r" (value) );
 8000b76:	697b      	ldr	r3, [r7, #20]
 8000b78:	fa93 f3a3 	rbit	r3, r3
 8000b7c:	613b      	str	r3, [r7, #16]
  return result;
 8000b7e:	693b      	ldr	r3, [r7, #16]
 8000b80:	fab3 f383 	clz	r3, r3
 8000b84:	b2db      	uxtb	r3, r3
 8000b86:	005b      	lsls	r3, r3, #1
 8000b88:	2103      	movs	r1, #3
 8000b8a:	fa01 f303 	lsl.w	r3, r1, r3
 8000b8e:	43db      	mvns	r3, r3
 8000b90:	401a      	ands	r2, r3
 8000b92:	68bb      	ldr	r3, [r7, #8]
 8000b94:	61fb      	str	r3, [r7, #28]
   __ASM volatile ("rbit %0, %1" : "=r" (result) : "r" (value) );
 8000b96:	69fb      	ldr	r3, [r7, #28]
 8000b98:	fa93 f3a3 	rbit	r3, r3
 8000b9c:	61bb      	str	r3, [r7, #24]
  return result;
 8000b9e:	69bb      	ldr	r3, [r7, #24]
 8000ba0:	fab3 f383 	clz	r3, r3
 8000ba4:	b2db      	uxtb	r3, r3
 8000ba6:	005b      	lsls	r3, r3, #1
 8000ba8:	6879      	ldr	r1, [r7, #4]
 8000baa:	fa01 f303 	lsl.w	r3, r1, r3
 8000bae:	431a      	orrs	r2, r3
 8000bb0:	68fb      	ldr	r3, [r7, #12]
 8000bb2:	60da      	str	r2, [r3, #12]
}
 8000bb4:	bf00      	nop
 8000bb6:	3724      	adds	r7, #36	; 0x24
 8000bb8:	46bd      	mov	sp, r7
 8000bba:	f85d 7b04 	ldr.w	r7, [sp], #4
 8000bbe:	4770      	bx	lr

08000bc0 <LL_GPIO_ResetOutputPin>:
  *         @arg @ref LL_GPIO_PIN_15
  *         @arg @ref LL_GPIO_PIN_ALL
  * @retval None
  */
__STATIC_INLINE void LL_GPIO_ResetOutputPin(GPIO_TypeDef *GPIOx, uint32_t PinMask)
{
 8000bc0:	b480      	push	{r7}
 8000bc2:	b083      	sub	sp, #12
 8000bc4:	af00      	add	r7, sp, #0
 8000bc6:	6078      	str	r0, [r7, #4]
 8000bc8:	6039      	str	r1, [r7, #0]
  WRITE_REG(GPIOx->BRR, PinMask);
 8000bca:	687b      	ldr	r3, [r7, #4]
 8000bcc:	683a      	ldr	r2, [r7, #0]
 8000bce:	629a      	str	r2, [r3, #40]	; 0x28
}
 8000bd0:	bf00      	nop
 8000bd2:	370c      	adds	r7, #12
 8000bd4:	46bd      	mov	sp, r7
 8000bd6:	f85d 7b04 	ldr.w	r7, [sp], #4
 8000bda:	4770      	bx	lr

08000bdc <LL_AHB2_GRP1_EnableClock>:
  *
  *         (*) value not defined in all devices.
  * @retval None
  */
__STATIC_INLINE void LL_AHB2_GRP1_EnableClock(uint32_t Periphs)
{
 8000bdc:	b480      	push	{r7}
 8000bde:	b085      	sub	sp, #20
 8000be0:	af00      	add	r7, sp, #0
 8000be2:	6078      	str	r0, [r7, #4]
  __IO uint32_t tmpreg;
  SET_BIT(RCC->AHB2ENR, Periphs);
 8000be4:	4b08      	ldr	r3, [pc, #32]	; (8000c08 <LL_AHB2_GRP1_EnableClock+0x2c>)
 8000be6:	6cda      	ldr	r2, [r3, #76]	; 0x4c
 8000be8:	4907      	ldr	r1, [pc, #28]	; (8000c08 <LL_AHB2_GRP1_EnableClock+0x2c>)
 8000bea:	687b      	ldr	r3, [r7, #4]
 8000bec:	4313      	orrs	r3, r2
 8000bee:	64cb      	str	r3, [r1, #76]	; 0x4c
  /* Delay after an RCC peripheral clock enabling */
  tmpreg = READ_BIT(RCC->AHB2ENR, Periphs);
 8000bf0:	4b05      	ldr	r3, [pc, #20]	; (8000c08 <LL_AHB2_GRP1_EnableClock+0x2c>)
 8000bf2:	6cda      	ldr	r2, [r3, #76]	; 0x4c
 8000bf4:	687b      	ldr	r3, [r7, #4]
 8000bf6:	4013      	ands	r3, r2
 8000bf8:	60fb      	str	r3, [r7, #12]
  (void)tmpreg;
 8000bfa:	68fb      	ldr	r3, [r7, #12]
}
 8000bfc:	bf00      	nop
 8000bfe:	3714      	adds	r7, #20
 8000c00:	46bd      	mov	sp, r7
 8000c02:	f85d 7b04 	ldr.w	r7, [sp], #4
 8000c06:	4770      	bx	lr
 8000c08:	40021000 	.word	0x40021000

08000c0c <MX_GPIO_Init>:
        * Output
        * EVENT_OUT
        * EXTI
*/
void MX_GPIO_Init(void)
{
 8000c0c:	b580      	push	{r7, lr}
 8000c0e:	b08a      	sub	sp, #40	; 0x28
 8000c10:	af00      	add	r7, sp, #0

  LL_EXTI_InitTypeDef EXTI_InitStruct = {0};
 8000c12:	f107 031c 	add.w	r3, r7, #28
 8000c16:	2200      	movs	r2, #0
 8000c18:	601a      	str	r2, [r3, #0]
 8000c1a:	605a      	str	r2, [r3, #4]
 8000c1c:	609a      	str	r2, [r3, #8]
  LL_GPIO_InitTypeDef GPIO_InitStruct = {0};
 8000c1e:	1d3b      	adds	r3, r7, #4
 8000c20:	2200      	movs	r2, #0
 8000c22:	601a      	str	r2, [r3, #0]
 8000c24:	605a      	str	r2, [r3, #4]
 8000c26:	609a      	str	r2, [r3, #8]
 8000c28:	60da      	str	r2, [r3, #12]
 8000c2a:	611a      	str	r2, [r3, #16]
 8000c2c:	615a      	str	r2, [r3, #20]

  /* GPIO Ports Clock Enable */
  LL_AHB2_GRP1_EnableClock(LL_AHB2_GRP1_PERIPH_GPIOC);
 8000c2e:	2004      	movs	r0, #4
 8000c30:	f7ff ffd4 	bl	8000bdc <LL_AHB2_GRP1_EnableClock>
  LL_AHB2_GRP1_EnableClock(LL_AHB2_GRP1_PERIPH_GPIOF);
 8000c34:	2020      	movs	r0, #32
 8000c36:	f7ff ffd1 	bl	8000bdc <LL_AHB2_GRP1_EnableClock>
  LL_AHB2_GRP1_EnableClock(LL_AHB2_GRP1_PERIPH_GPIOA);
 8000c3a:	2001      	movs	r0, #1
 8000c3c:	f7ff ffce 	bl	8000bdc <LL_AHB2_GRP1_EnableClock>
  LL_AHB2_GRP1_EnableClock(LL_AHB2_GRP1_PERIPH_GPIOB);
 8000c40:	2002      	movs	r0, #2
 8000c42:	f7ff ffcb 	bl	8000bdc <LL_AHB2_GRP1_EnableClock>

  /**/
  LL_GPIO_ResetOutputPin(TRIGMODE_GPIO_Port, TRIGMODE_Pin);
 8000c46:	2108      	movs	r1, #8
 8000c48:	48d3      	ldr	r0, [pc, #844]	; (8000f98 <MX_GPIO_Init+0x38c>)
 8000c4a:	f7ff ffb9 	bl	8000bc0 <LL_GPIO_ResetOutputPin>

  /**/
  LL_GPIO_ResetOutputPin(DCBIAS_INVERT_GPIO_Port, DCBIAS_INVERT_Pin);
 8000c4e:	2108      	movs	r1, #8
 8000c50:	f04f 4090 	mov.w	r0, #1207959552	; 0x48000000
 8000c54:	f7ff ffb4 	bl	8000bc0 <LL_GPIO_ResetOutputPin>

  /**/
  LL_GPIO_ResetOutputPin(SG2_GPIO_Port, SG2_Pin);
 8000c58:	2110      	movs	r1, #16
 8000c5a:	48cf      	ldr	r0, [pc, #828]	; (8000f98 <MX_GPIO_Init+0x38c>)
 8000c5c:	f7ff ffb0 	bl	8000bc0 <LL_GPIO_ResetOutputPin>

  /**/
  LL_GPIO_ResetOutputPin(SG1_GPIO_Port, SG1_Pin);
 8000c60:	2120      	movs	r1, #32
 8000c62:	48cd      	ldr	r0, [pc, #820]	; (8000f98 <MX_GPIO_Init+0x38c>)
 8000c64:	f7ff ffac 	bl	8000bc0 <LL_GPIO_ResetOutputPin>

  /**/
  LL_GPIO_ResetOutputPin(SG0_GPIO_Port, SG0_Pin);
 8000c68:	2101      	movs	r1, #1
 8000c6a:	48cc      	ldr	r0, [pc, #816]	; (8000f9c <MX_GPIO_Init+0x390>)
 8000c6c:	f7ff ffa8 	bl	8000bc0 <LL_GPIO_ResetOutputPin>

  /**/
  LL_GPIO_ResetOutputPin(TRIGMUX1_GPIO_Port, TRIGMUX1_Pin);
 8000c70:	f44f 7180 	mov.w	r1, #256	; 0x100
 8000c74:	48c8      	ldr	r0, [pc, #800]	; (8000f98 <MX_GPIO_Init+0x38c>)
 8000c76:	f7ff ffa3 	bl	8000bc0 <LL_GPIO_ResetOutputPin>

  /**/
  LL_GPIO_ResetOutputPin(TRIGMUX2_GPIO_Port, TRIGMUX2_Pin);
 8000c7a:	f44f 7100 	mov.w	r1, #512	; 0x200
 8000c7e:	48c6      	ldr	r0, [pc, #792]	; (8000f98 <MX_GPIO_Init+0x38c>)
 8000c80:	f7ff ff9e 	bl	8000bc0 <LL_GPIO_ResetOutputPin>

  /**/
  LL_GPIO_ResetOutputPin(DC_GPIO_Port, DC_Pin);
 8000c84:	2140      	movs	r1, #64	; 0x40
 8000c86:	48c5      	ldr	r0, [pc, #788]	; (8000f9c <MX_GPIO_Init+0x390>)
 8000c88:	f7ff ff9a 	bl	8000bc0 <LL_GPIO_ResetOutputPin>

  /**/
  LL_GPIO_ResetOutputPin(CS_GPIO_Port, CS_Pin);
 8000c8c:	2180      	movs	r1, #128	; 0x80
 8000c8e:	48c3      	ldr	r0, [pc, #780]	; (8000f9c <MX_GPIO_Init+0x390>)
 8000c90:	f7ff ff96 	bl	8000bc0 <LL_GPIO_ResetOutputPin>

  /**/
  LL_GPIO_ResetOutputPin(RST_GPIO_Port, RST_Pin);
 8000c94:	f44f 7100 	mov.w	r1, #512	; 0x200
 8000c98:	48c0      	ldr	r0, [pc, #768]	; (8000f9c <MX_GPIO_Init+0x390>)
 8000c9a:	f7ff ff91 	bl	8000bc0 <LL_GPIO_ResetOutputPin>

  /**/
  LL_SYSCFG_SetEXTISource(LL_SYSCFG_EXTI_PORTC, LL_SYSCFG_EXTI_LINE14);
 8000c9e:	49c0      	ldr	r1, [pc, #768]	; (8000fa0 <MX_GPIO_Init+0x394>)
 8000ca0:	2002      	movs	r0, #2
 8000ca2:	f7ff feff 	bl	8000aa4 <LL_SYSCFG_SetEXTISource>

  /**/
  LL_SYSCFG_SetEXTISource(LL_SYSCFG_EXTI_PORTC, LL_SYSCFG_EXTI_LINE15);
 8000ca6:	49bf      	ldr	r1, [pc, #764]	; (8000fa4 <MX_GPIO_Init+0x398>)
 8000ca8:	2002      	movs	r0, #2
 8000caa:	f7ff fefb 	bl	8000aa4 <LL_SYSCFG_SetEXTISource>

  /**/
  LL_SYSCFG_SetEXTISource(LL_SYSCFG_EXTI_PORTF, LL_SYSCFG_EXTI_LINE0);
 8000cae:	f44f 2170 	mov.w	r1, #983040	; 0xf0000
 8000cb2:	2005      	movs	r0, #5
 8000cb4:	f7ff fef6 	bl	8000aa4 <LL_SYSCFG_SetEXTISource>

  /**/
  LL_SYSCFG_SetEXTISource(LL_SYSCFG_EXTI_PORTF, LL_SYSCFG_EXTI_LINE1);
 8000cb8:	f44f 0170 	mov.w	r1, #15728640	; 0xf00000
 8000cbc:	2005      	movs	r0, #5
 8000cbe:	f7ff fef1 	bl	8000aa4 <LL_SYSCFG_SetEXTISource>

  /**/
  LL_SYSCFG_SetEXTISource(LL_SYSCFG_EXTI_PORTC, LL_SYSCFG_EXTI_LINE2);
 8000cc2:	f04f 6170 	mov.w	r1, #251658240	; 0xf000000
 8000cc6:	2002      	movs	r0, #2
 8000cc8:	f7ff feec 	bl	8000aa4 <LL_SYSCFG_SetEXTISource>

  /**/
  EXTI_InitStruct.Line_0_31 = LL_EXTI_LINE_14;
 8000ccc:	f44f 4380 	mov.w	r3, #16384	; 0x4000
 8000cd0:	61fb      	str	r3, [r7, #28]
  EXTI_InitStruct.LineCommand = ENABLE;
 8000cd2:	2301      	movs	r3, #1
 8000cd4:	f887 3024 	strb.w	r3, [r7, #36]	; 0x24
  EXTI_InitStruct.Mode = LL_EXTI_MODE_IT;
 8000cd8:	2300      	movs	r3, #0
 8000cda:	f887 3025 	strb.w	r3, [r7, #37]	; 0x25
  EXTI_InitStruct.Trigger = LL_EXTI_TRIGGER_FALLING;
 8000cde:	2302      	movs	r3, #2
 8000ce0:	f887 3026 	strb.w	r3, [r7, #38]	; 0x26
  LL_EXTI_Init(&EXTI_InitStruct);
 8000ce4:	f107 031c 	add.w	r3, r7, #28
 8000ce8:	4618      	mov	r0, r3
 8000cea:	f006 fb4d 	bl	8007388 <LL_EXTI_Init>

  /**/
  EXTI_InitStruct.Line_0_31 = LL_EXTI_LINE_15;
 8000cee:	f44f 4300 	mov.w	r3, #32768	; 0x8000
 8000cf2:	61fb      	str	r3, [r7, #28]
  EXTI_InitStruct.LineCommand = ENABLE;
 8000cf4:	2301      	movs	r3, #1
 8000cf6:	f887 3024 	strb.w	r3, [r7, #36]	; 0x24
  EXTI_InitStruct.Mode = LL_EXTI_MODE_IT;
 8000cfa:	2300      	movs	r3, #0
 8000cfc:	f887 3025 	strb.w	r3, [r7, #37]	; 0x25
  EXTI_InitStruct.Trigger = LL_EXTI_TRIGGER_FALLING;
 8000d00:	2302      	movs	r3, #2
 8000d02:	f887 3026 	strb.w	r3, [r7, #38]	; 0x26
  LL_EXTI_Init(&EXTI_InitStruct);
 8000d06:	f107 031c 	add.w	r3, r7, #28
 8000d0a:	4618      	mov	r0, r3
 8000d0c:	f006 fb3c 	bl	8007388 <LL_EXTI_Init>

  /**/
  EXTI_InitStruct.Line_0_31 = LL_EXTI_LINE_0;
 8000d10:	2301      	movs	r3, #1
 8000d12:	61fb      	str	r3, [r7, #28]
  EXTI_InitStruct.LineCommand = ENABLE;
 8000d14:	2301      	movs	r3, #1
 8000d16:	f887 3024 	strb.w	r3, [r7, #36]	; 0x24
  EXTI_InitStruct.Mode = LL_EXTI_MODE_IT;
 8000d1a:	2300      	movs	r3, #0
 8000d1c:	f887 3025 	strb.w	r3, [r7, #37]	; 0x25
  EXTI_InitStruct.Trigger = LL_EXTI_TRIGGER_FALLING;
 8000d20:	2302      	movs	r3, #2
 8000d22:	f887 3026 	strb.w	r3, [r7, #38]	; 0x26
  LL_EXTI_Init(&EXTI_InitStruct);
 8000d26:	f107 031c 	add.w	r3, r7, #28
 8000d2a:	4618      	mov	r0, r3
 8000d2c:	f006 fb2c 	bl	8007388 <LL_EXTI_Init>

  /**/
  EXTI_InitStruct.Line_0_31 = LL_EXTI_LINE_1;
 8000d30:	2302      	movs	r3, #2
 8000d32:	61fb      	str	r3, [r7, #28]
  EXTI_InitStruct.LineCommand = ENABLE;
 8000d34:	2301      	movs	r3, #1
 8000d36:	f887 3024 	strb.w	r3, [r7, #36]	; 0x24
  EXTI_InitStruct.Mode = LL_EXTI_MODE_IT;
 8000d3a:	2300      	movs	r3, #0
 8000d3c:	f887 3025 	strb.w	r3, [r7, #37]	; 0x25
  EXTI_InitStruct.Trigger = LL_EXTI_TRIGGER_FALLING;
 8000d40:	2302      	movs	r3, #2
 8000d42:	f887 3026 	strb.w	r3, [r7, #38]	; 0x26
  LL_EXTI_Init(&EXTI_InitStruct);
 8000d46:	f107 031c 	add.w	r3, r7, #28
 8000d4a:	4618      	mov	r0, r3
 8000d4c:	f006 fb1c 	bl	8007388 <LL_EXTI_Init>

  /**/
  EXTI_InitStruct.Line_0_31 = LL_EXTI_LINE_2;
 8000d50:	2304      	movs	r3, #4
 8000d52:	61fb      	str	r3, [r7, #28]
  EXTI_InitStruct.LineCommand = ENABLE;
 8000d54:	2301      	movs	r3, #1
 8000d56:	f887 3024 	strb.w	r3, [r7, #36]	; 0x24
  EXTI_InitStruct.Mode = LL_EXTI_MODE_IT;
 8000d5a:	2300      	movs	r3, #0
 8000d5c:	f887 3025 	strb.w	r3, [r7, #37]	; 0x25
  EXTI_InitStruct.Trigger = LL_EXTI_TRIGGER_FALLING;
 8000d60:	2302      	movs	r3, #2
 8000d62:	f887 3026 	strb.w	r3, [r7, #38]	; 0x26
  LL_EXTI_Init(&EXTI_InitStruct);
 8000d66:	f107 031c 	add.w	r3, r7, #28
 8000d6a:	4618      	mov	r0, r3
 8000d6c:	f006 fb0c 	bl	8007388 <LL_EXTI_Init>

  /**/
  LL_GPIO_SetPinPull(BTN1_EXTI14_GPIO_Port, BTN1_EXTI14_Pin, LL_GPIO_PULL_UP);
 8000d70:	2201      	movs	r2, #1
 8000d72:	f44f 4180 	mov.w	r1, #16384	; 0x4000
 8000d76:	4888      	ldr	r0, [pc, #544]	; (8000f98 <MX_GPIO_Init+0x38c>)
 8000d78:	f7ff fef3 	bl	8000b62 <LL_GPIO_SetPinPull>

  /**/
  LL_GPIO_SetPinPull(BTN2_EXTI15_GPIO_Port, BTN2_EXTI15_Pin, LL_GPIO_PULL_UP);
 8000d7c:	2201      	movs	r2, #1
 8000d7e:	f44f 4100 	mov.w	r1, #32768	; 0x8000
 8000d82:	4885      	ldr	r0, [pc, #532]	; (8000f98 <MX_GPIO_Init+0x38c>)
 8000d84:	f7ff feed 	bl	8000b62 <LL_GPIO_SetPinPull>

  /**/
  LL_GPIO_SetPinPull(BTN3_EXTI0_GPIO_Port, BTN3_EXTI0_Pin, LL_GPIO_PULL_UP);
 8000d88:	2201      	movs	r2, #1
 8000d8a:	2101      	movs	r1, #1
 8000d8c:	4886      	ldr	r0, [pc, #536]	; (8000fa8 <MX_GPIO_Init+0x39c>)
 8000d8e:	f7ff fee8 	bl	8000b62 <LL_GPIO_SetPinPull>

  /**/
  LL_GPIO_SetPinPull(BTN4_EXTI1_GPIO_Port, BTN4_EXTI1_Pin, LL_GPIO_PULL_UP);
 8000d92:	2201      	movs	r2, #1
 8000d94:	2102      	movs	r1, #2
 8000d96:	4884      	ldr	r0, [pc, #528]	; (8000fa8 <MX_GPIO_Init+0x39c>)
 8000d98:	f7ff fee3 	bl	8000b62 <LL_GPIO_SetPinPull>

  /**/
  LL_GPIO_SetPinPull(ENC_EXTI2_GPIO_Port, ENC_EXTI2_Pin, LL_GPIO_PULL_UP);
 8000d9c:	2201      	movs	r2, #1
 8000d9e:	2104      	movs	r1, #4
 8000da0:	487d      	ldr	r0, [pc, #500]	; (8000f98 <MX_GPIO_Init+0x38c>)
 8000da2:	f7ff fede 	bl	8000b62 <LL_GPIO_SetPinPull>

  /**/
  LL_GPIO_SetPinMode(BTN1_EXTI14_GPIO_Port, BTN1_EXTI14_Pin, LL_GPIO_MODE_INPUT);
 8000da6:	2200      	movs	r2, #0
 8000da8:	f44f 4180 	mov.w	r1, #16384	; 0x4000
 8000dac:	487a      	ldr	r0, [pc, #488]	; (8000f98 <MX_GPIO_Init+0x38c>)
 8000dae:	f7ff fea9 	bl	8000b04 <LL_GPIO_SetPinMode>

  /**/
  LL_GPIO_SetPinMode(BTN2_EXTI15_GPIO_Port, BTN2_EXTI15_Pin, LL_GPIO_MODE_INPUT);
 8000db2:	2200      	movs	r2, #0
 8000db4:	f44f 4100 	mov.w	r1, #32768	; 0x8000
 8000db8:	4877      	ldr	r0, [pc, #476]	; (8000f98 <MX_GPIO_Init+0x38c>)
 8000dba:	f7ff fea3 	bl	8000b04 <LL_GPIO_SetPinMode>

  /**/
  LL_GPIO_SetPinMode(BTN3_EXTI0_GPIO_Port, BTN3_EXTI0_Pin, LL_GPIO_MODE_INPUT);
 8000dbe:	2200      	movs	r2, #0
 8000dc0:	2101      	movs	r1, #1
 8000dc2:	4879      	ldr	r0, [pc, #484]	; (8000fa8 <MX_GPIO_Init+0x39c>)
 8000dc4:	f7ff fe9e 	bl	8000b04 <LL_GPIO_SetPinMode>

  /**/
  LL_GPIO_SetPinMode(BTN4_EXTI1_GPIO_Port, BTN4_EXTI1_Pin, LL_GPIO_MODE_INPUT);
 8000dc8:	2200      	movs	r2, #0
 8000dca:	2102      	movs	r1, #2
 8000dcc:	4876      	ldr	r0, [pc, #472]	; (8000fa8 <MX_GPIO_Init+0x39c>)
 8000dce:	f7ff fe99 	bl	8000b04 <LL_GPIO_SetPinMode>

  /**/
  LL_GPIO_SetPinMode(ENC_EXTI2_GPIO_Port, ENC_EXTI2_Pin, LL_GPIO_MODE_INPUT);
 8000dd2:	2200      	movs	r2, #0
 8000dd4:	2104      	movs	r1, #4
 8000dd6:	4870      	ldr	r0, [pc, #448]	; (8000f98 <MX_GPIO_Init+0x38c>)
 8000dd8:	f7ff fe94 	bl	8000b04 <LL_GPIO_SetPinMode>

  /**/
  GPIO_InitStruct.Pin = TRIGMODE_Pin;
 8000ddc:	2308      	movs	r3, #8
 8000dde:	607b      	str	r3, [r7, #4]
  GPIO_InitStruct.Mode = LL_GPIO_MODE_OUTPUT;
 8000de0:	2301      	movs	r3, #1
 8000de2:	60bb      	str	r3, [r7, #8]
  GPIO_InitStruct.Speed = LL_GPIO_SPEED_FREQ_LOW;
 8000de4:	2300      	movs	r3, #0
 8000de6:	60fb      	str	r3, [r7, #12]
  GPIO_InitStruct.OutputType = LL_GPIO_OUTPUT_PUSHPULL;
 8000de8:	2300      	movs	r3, #0
 8000dea:	613b      	str	r3, [r7, #16]
  GPIO_InitStruct.Pull = LL_GPIO_PULL_DOWN;
 8000dec:	2302      	movs	r3, #2
 8000dee:	617b      	str	r3, [r7, #20]
  LL_GPIO_Init(TRIGMODE_GPIO_Port, &GPIO_InitStruct);
 8000df0:	1d3b      	adds	r3, r7, #4
 8000df2:	4619      	mov	r1, r3
 8000df4:	4868      	ldr	r0, [pc, #416]	; (8000f98 <MX_GPIO_Init+0x38c>)
 8000df6:	f006 fcba 	bl	800776e <LL_GPIO_Init>

  /**/
  GPIO_InitStruct.Pin = DCBIAS_INVERT_Pin;
 8000dfa:	2308      	movs	r3, #8
 8000dfc:	607b      	str	r3, [r7, #4]
  GPIO_InitStruct.Mode = LL_GPIO_MODE_OUTPUT;
 8000dfe:	2301      	movs	r3, #1
 8000e00:	60bb      	str	r3, [r7, #8]
  GPIO_InitStruct.Speed = LL_GPIO_SPEED_FREQ_LOW;
 8000e02:	2300      	movs	r3, #0
 8000e04:	60fb      	str	r3, [r7, #12]
  GPIO_InitStruct.OutputType = LL_GPIO_OUTPUT_PUSHPULL;
 8000e06:	2300      	movs	r3, #0
 8000e08:	613b      	str	r3, [r7, #16]
  GPIO_InitStruct.Pull = LL_GPIO_PULL_NO;
 8000e0a:	2300      	movs	r3, #0
 8000e0c:	617b      	str	r3, [r7, #20]
  LL_GPIO_Init(DCBIAS_INVERT_GPIO_Port, &GPIO_InitStruct);
 8000e0e:	1d3b      	adds	r3, r7, #4
 8000e10:	4619      	mov	r1, r3
 8000e12:	f04f 4090 	mov.w	r0, #1207959552	; 0x48000000
 8000e16:	f006 fcaa 	bl	800776e <LL_GPIO_Init>

  /**/
  GPIO_InitStruct.Pin = SG2_Pin;
 8000e1a:	2310      	movs	r3, #16
 8000e1c:	607b      	str	r3, [r7, #4]
  GPIO_InitStruct.Mode = LL_GPIO_MODE_OUTPUT;
 8000e1e:	2301      	movs	r3, #1
 8000e20:	60bb      	str	r3, [r7, #8]
  GPIO_InitStruct.Speed = LL_GPIO_SPEED_FREQ_LOW;
 8000e22:	2300      	movs	r3, #0
 8000e24:	60fb      	str	r3, [r7, #12]
  GPIO_InitStruct.OutputType = LL_GPIO_OUTPUT_PUSHPULL;
 8000e26:	2300      	movs	r3, #0
 8000e28:	613b      	str	r3, [r7, #16]
  GPIO_InitStruct.Pull = LL_GPIO_PULL_NO;
 8000e2a:	2300      	movs	r3, #0
 8000e2c:	617b      	str	r3, [r7, #20]
  LL_GPIO_Init(SG2_GPIO_Port, &GPIO_InitStruct);
 8000e2e:	1d3b      	adds	r3, r7, #4
 8000e30:	4619      	mov	r1, r3
 8000e32:	4859      	ldr	r0, [pc, #356]	; (8000f98 <MX_GPIO_Init+0x38c>)
 8000e34:	f006 fc9b 	bl	800776e <LL_GPIO_Init>

  /**/
  GPIO_InitStruct.Pin = SG1_Pin;
 8000e38:	2320      	movs	r3, #32
 8000e3a:	607b      	str	r3, [r7, #4]
  GPIO_InitStruct.Mode = LL_GPIO_MODE_OUTPUT;
 8000e3c:	2301      	movs	r3, #1
 8000e3e:	60bb      	str	r3, [r7, #8]
  GPIO_InitStruct.Speed = LL_GPIO_SPEED_FREQ_LOW;
 8000e40:	2300      	movs	r3, #0
 8000e42:	60fb      	str	r3, [r7, #12]
  GPIO_InitStruct.OutputType = LL_GPIO_OUTPUT_PUSHPULL;
 8000e44:	2300      	movs	r3, #0
 8000e46:	613b      	str	r3, [r7, #16]
  GPIO_InitStruct.Pull = LL_GPIO_PULL_NO;
 8000e48:	2300      	movs	r3, #0
 8000e4a:	617b      	str	r3, [r7, #20]
  LL_GPIO_Init(SG1_GPIO_Port, &GPIO_InitStruct);
 8000e4c:	1d3b      	adds	r3, r7, #4
 8000e4e:	4619      	mov	r1, r3
 8000e50:	4851      	ldr	r0, [pc, #324]	; (8000f98 <MX_GPIO_Init+0x38c>)
 8000e52:	f006 fc8c 	bl	800776e <LL_GPIO_Init>

  /**/
  GPIO_InitStruct.Pin = SG0_Pin;
 8000e56:	2301      	movs	r3, #1
 8000e58:	607b      	str	r3, [r7, #4]
  GPIO_InitStruct.Mode = LL_GPIO_MODE_OUTPUT;
 8000e5a:	2301      	movs	r3, #1
 8000e5c:	60bb      	str	r3, [r7, #8]
  GPIO_InitStruct.Speed = LL_GPIO_SPEED_FREQ_LOW;
 8000e5e:	2300      	movs	r3, #0
 8000e60:	60fb      	str	r3, [r7, #12]
  GPIO_InitStruct.OutputType = LL_GPIO_OUTPUT_PUSHPULL;
 8000e62:	2300      	movs	r3, #0
 8000e64:	613b      	str	r3, [r7, #16]
  GPIO_InitStruct.Pull = LL_GPIO_PULL_NO;
 8000e66:	2300      	movs	r3, #0
 8000e68:	617b      	str	r3, [r7, #20]
  LL_GPIO_Init(SG0_GPIO_Port, &GPIO_InitStruct);
 8000e6a:	1d3b      	adds	r3, r7, #4
 8000e6c:	4619      	mov	r1, r3
 8000e6e:	484b      	ldr	r0, [pc, #300]	; (8000f9c <MX_GPIO_Init+0x390>)
 8000e70:	f006 fc7d 	bl	800776e <LL_GPIO_Init>

  /**/
  GPIO_InitStruct.Pin = TRIGMUX1_Pin;
 8000e74:	f44f 7380 	mov.w	r3, #256	; 0x100
 8000e78:	607b      	str	r3, [r7, #4]
  GPIO_InitStruct.Mode = LL_GPIO_MODE_OUTPUT;
 8000e7a:	2301      	movs	r3, #1
 8000e7c:	60bb      	str	r3, [r7, #8]
  GPIO_InitStruct.Speed = LL_GPIO_SPEED_FREQ_LOW;
 8000e7e:	2300      	movs	r3, #0
 8000e80:	60fb      	str	r3, [r7, #12]
  GPIO_InitStruct.OutputType = LL_GPIO_OUTPUT_PUSHPULL;
 8000e82:	2300      	movs	r3, #0
 8000e84:	613b      	str	r3, [r7, #16]
  GPIO_InitStruct.Pull = LL_GPIO_PULL_NO;
 8000e86:	2300      	movs	r3, #0
 8000e88:	617b      	str	r3, [r7, #20]
  LL_GPIO_Init(TRIGMUX1_GPIO_Port, &GPIO_InitStruct);
 8000e8a:	1d3b      	adds	r3, r7, #4
 8000e8c:	4619      	mov	r1, r3
 8000e8e:	4842      	ldr	r0, [pc, #264]	; (8000f98 <MX_GPIO_Init+0x38c>)
 8000e90:	f006 fc6d 	bl	800776e <LL_GPIO_Init>

  /**/
  GPIO_InitStruct.Pin = TRIGMUX2_Pin;
 8000e94:	f44f 7300 	mov.w	r3, #512	; 0x200
 8000e98:	607b      	str	r3, [r7, #4]
  GPIO_InitStruct.Mode = LL_GPIO_MODE_OUTPUT;
 8000e9a:	2301      	movs	r3, #1
 8000e9c:	60bb      	str	r3, [r7, #8]
  GPIO_InitStruct.Speed = LL_GPIO_SPEED_FREQ_LOW;
 8000e9e:	2300      	movs	r3, #0
 8000ea0:	60fb      	str	r3, [r7, #12]
  GPIO_InitStruct.OutputType = LL_GPIO_OUTPUT_PUSHPULL;
 8000ea2:	2300      	movs	r3, #0
 8000ea4:	613b      	str	r3, [r7, #16]
  GPIO_InitStruct.Pull = LL_GPIO_PULL_NO;
 8000ea6:	2300      	movs	r3, #0
 8000ea8:	617b      	str	r3, [r7, #20]
  LL_GPIO_Init(TRIGMUX2_GPIO_Port, &GPIO_InitStruct);
 8000eaa:	1d3b      	adds	r3, r7, #4
 8000eac:	4619      	mov	r1, r3
 8000eae:	483a      	ldr	r0, [pc, #232]	; (8000f98 <MX_GPIO_Init+0x38c>)
 8000eb0:	f006 fc5d 	bl	800776e <LL_GPIO_Init>

  /**/
  GPIO_InitStruct.Pin = DC_Pin;
 8000eb4:	2340      	movs	r3, #64	; 0x40
 8000eb6:	607b      	str	r3, [r7, #4]
  GPIO_InitStruct.Mode = LL_GPIO_MODE_OUTPUT;
 8000eb8:	2301      	movs	r3, #1
 8000eba:	60bb      	str	r3, [r7, #8]
  GPIO_InitStruct.Speed = LL_GPIO_SPEED_FREQ_VERY_HIGH;
 8000ebc:	2303      	movs	r3, #3
 8000ebe:	60fb      	str	r3, [r7, #12]
  GPIO_InitStruct.OutputType = LL_GPIO_OUTPUT_PUSHPULL;
 8000ec0:	2300      	movs	r3, #0
 8000ec2:	613b      	str	r3, [r7, #16]
  GPIO_InitStruct.Pull = LL_GPIO_PULL_NO;
 8000ec4:	2300      	movs	r3, #0
 8000ec6:	617b      	str	r3, [r7, #20]
  LL_GPIO_Init(DC_GPIO_Port, &GPIO_InitStruct);
 8000ec8:	1d3b      	adds	r3, r7, #4
 8000eca:	4619      	mov	r1, r3
 8000ecc:	4833      	ldr	r0, [pc, #204]	; (8000f9c <MX_GPIO_Init+0x390>)
 8000ece:	f006 fc4e 	bl	800776e <LL_GPIO_Init>

  /**/
  GPIO_InitStruct.Pin = CS_Pin;
 8000ed2:	2380      	movs	r3, #128	; 0x80
 8000ed4:	607b      	str	r3, [r7, #4]
  GPIO_InitStruct.Mode = LL_GPIO_MODE_OUTPUT;
 8000ed6:	2301      	movs	r3, #1
 8000ed8:	60bb      	str	r3, [r7, #8]
  GPIO_InitStruct.Speed = LL_GPIO_SPEED_FREQ_VERY_HIGH;
 8000eda:	2303      	movs	r3, #3
 8000edc:	60fb      	str	r3, [r7, #12]
  GPIO_InitStruct.OutputType = LL_GPIO_OUTPUT_PUSHPULL;
 8000ede:	2300      	movs	r3, #0
 8000ee0:	613b      	str	r3, [r7, #16]
  GPIO_InitStruct.Pull = LL_GPIO_PULL_NO;
 8000ee2:	2300      	movs	r3, #0
 8000ee4:	617b      	str	r3, [r7, #20]
  LL_GPIO_Init(CS_GPIO_Port, &GPIO_InitStruct);
 8000ee6:	1d3b      	adds	r3, r7, #4
 8000ee8:	4619      	mov	r1, r3
 8000eea:	482c      	ldr	r0, [pc, #176]	; (8000f9c <MX_GPIO_Init+0x390>)
 8000eec:	f006 fc3f 	bl	800776e <LL_GPIO_Init>

  /**/
  GPIO_InitStruct.Pin = RST_Pin;
 8000ef0:	f44f 7300 	mov.w	r3, #512	; 0x200
 8000ef4:	607b      	str	r3, [r7, #4]
  GPIO_InitStruct.Mode = LL_GPIO_MODE_OUTPUT;
 8000ef6:	2301      	movs	r3, #1
 8000ef8:	60bb      	str	r3, [r7, #8]
  GPIO_InitStruct.Speed = LL_GPIO_SPEED_FREQ_VERY_HIGH;
 8000efa:	2303      	movs	r3, #3
 8000efc:	60fb      	str	r3, [r7, #12]
  GPIO_InitStruct.OutputType = LL_GPIO_OUTPUT_PUSHPULL;
 8000efe:	2300      	movs	r3, #0
 8000f00:	613b      	str	r3, [r7, #16]
  GPIO_InitStruct.Pull = LL_GPIO_PULL_NO;
 8000f02:	2300      	movs	r3, #0
 8000f04:	617b      	str	r3, [r7, #20]
  LL_GPIO_Init(RST_GPIO_Port, &GPIO_InitStruct);
 8000f06:	1d3b      	adds	r3, r7, #4
 8000f08:	4619      	mov	r1, r3
 8000f0a:	4824      	ldr	r0, [pc, #144]	; (8000f9c <MX_GPIO_Init+0x390>)
 8000f0c:	f006 fc2f 	bl	800776e <LL_GPIO_Init>

  /* EXTI interrupt init*/
  NVIC_SetPriority(EXTI0_IRQn, NVIC_EncodePriority(NVIC_GetPriorityGrouping(),0, 0));
 8000f10:	f7ff fd3e 	bl	8000990 <__NVIC_GetPriorityGrouping>
 8000f14:	4603      	mov	r3, r0
 8000f16:	2200      	movs	r2, #0
 8000f18:	2100      	movs	r1, #0
 8000f1a:	4618      	mov	r0, r3
 8000f1c:	f7ff fd8e 	bl	8000a3c <NVIC_EncodePriority>
 8000f20:	4603      	mov	r3, r0
 8000f22:	4619      	mov	r1, r3
 8000f24:	2006      	movs	r0, #6
 8000f26:	f7ff fd5f 	bl	80009e8 <__NVIC_SetPriority>
  NVIC_EnableIRQ(EXTI0_IRQn);
 8000f2a:	2006      	movs	r0, #6
 8000f2c:	f7ff fd3e 	bl	80009ac <__NVIC_EnableIRQ>
  NVIC_SetPriority(EXTI1_IRQn, NVIC_EncodePriority(NVIC_GetPriorityGrouping(),0, 0));
 8000f30:	f7ff fd2e 	bl	8000990 <__NVIC_GetPriorityGrouping>
 8000f34:	4603      	mov	r3, r0
 8000f36:	2200      	movs	r2, #0
 8000f38:	2100      	movs	r1, #0
 8000f3a:	4618      	mov	r0, r3
 8000f3c:	f7ff fd7e 	bl	8000a3c <NVIC_EncodePriority>
 8000f40:	4603      	mov	r3, r0
 8000f42:	4619      	mov	r1, r3
 8000f44:	2007      	movs	r0, #7
 8000f46:	f7ff fd4f 	bl	80009e8 <__NVIC_SetPriority>
  NVIC_EnableIRQ(EXTI1_IRQn);
 8000f4a:	2007      	movs	r0, #7
 8000f4c:	f7ff fd2e 	bl	80009ac <__NVIC_EnableIRQ>
  NVIC_SetPriority(EXTI2_IRQn, NVIC_EncodePriority(NVIC_GetPriorityGrouping(),0, 0));
 8000f50:	f7ff fd1e 	bl	8000990 <__NVIC_GetPriorityGrouping>
 8000f54:	4603      	mov	r3, r0
 8000f56:	2200      	movs	r2, #0
 8000f58:	2100      	movs	r1, #0
 8000f5a:	4618      	mov	r0, r3
 8000f5c:	f7ff fd6e 	bl	8000a3c <NVIC_EncodePriority>
 8000f60:	4603      	mov	r3, r0
 8000f62:	4619      	mov	r1, r3
 8000f64:	2008      	movs	r0, #8
 8000f66:	f7ff fd3f 	bl	80009e8 <__NVIC_SetPriority>
  NVIC_EnableIRQ(EXTI2_IRQn);
 8000f6a:	2008      	movs	r0, #8
 8000f6c:	f7ff fd1e 	bl	80009ac <__NVIC_EnableIRQ>
  NVIC_SetPriority(EXTI15_10_IRQn, NVIC_EncodePriority(NVIC_GetPriorityGrouping(),0, 0));
 8000f70:	f7ff fd0e 	bl	8000990 <__NVIC_GetPriorityGrouping>
 8000f74:	4603      	mov	r3, r0
 8000f76:	2200      	movs	r2, #0
 8000f78:	2100      	movs	r1, #0
 8000f7a:	4618      	mov	r0, r3
 8000f7c:	f7ff fd5e 	bl	8000a3c <NVIC_EncodePriority>
 8000f80:	4603      	mov	r3, r0
 8000f82:	4619      	mov	r1, r3
 8000f84:	2028      	movs	r0, #40	; 0x28
 8000f86:	f7ff fd2f 	bl	80009e8 <__NVIC_SetPriority>
  NVIC_EnableIRQ(EXTI15_10_IRQn);
 8000f8a:	2028      	movs	r0, #40	; 0x28
 8000f8c:	f7ff fd0e 	bl	80009ac <__NVIC_EnableIRQ>

}
 8000f90:	bf00      	nop
 8000f92:	3728      	adds	r7, #40	; 0x28
 8000f94:	46bd      	mov	sp, r7
 8000f96:	e009      	b.n	8000fac <MX_GPIO_Init+0x3a0>
 8000f98:	48000800 	.word	0x48000800
 8000f9c:	48000400 	.word	0x48000400
 8000fa0:	0f000003 	.word	0x0f000003
 8000fa4:	f0000003 	.word	0xf0000003
 8000fa8:	48001400 	.word	0x48001400
 8000fac:	bd80      	pop	{r7, pc}
 8000fae:	bf00      	nop

08000fb0 <ITM_SendChar>:
           \li Is blocking when a debugger is connected, but the previous character sent has not been transmitted.
  \param [in]     ch  Character to transmit.
  \returns            Character to transmit.
 */
__STATIC_INLINE uint32_t ITM_SendChar (uint32_t ch)
{
 8000fb0:	b480      	push	{r7}
 8000fb2:	b083      	sub	sp, #12
 8000fb4:	af00      	add	r7, sp, #0
 8000fb6:	6078      	str	r0, [r7, #4]
  if (((ITM->TCR & ITM_TCR_ITMENA_Msk) != 0UL) &&      /* ITM enabled */
 8000fb8:	f04f 4360 	mov.w	r3, #3758096384	; 0xe0000000
 8000fbc:	f8d3 3e80 	ldr.w	r3, [r3, #3712]	; 0xe80
 8000fc0:	f003 0301 	and.w	r3, r3, #1
 8000fc4:	2b00      	cmp	r3, #0
 8000fc6:	d013      	beq.n	8000ff0 <ITM_SendChar+0x40>
      ((ITM->TER & 1UL               ) != 0UL)   )     /* ITM Port #0 enabled */
 8000fc8:	f04f 4360 	mov.w	r3, #3758096384	; 0xe0000000
 8000fcc:	f8d3 3e00 	ldr.w	r3, [r3, #3584]	; 0xe00
 8000fd0:	f003 0301 	and.w	r3, r3, #1
  if (((ITM->TCR & ITM_TCR_ITMENA_Msk) != 0UL) &&      /* ITM enabled */
 8000fd4:	2b00      	cmp	r3, #0
 8000fd6:	d00b      	beq.n	8000ff0 <ITM_SendChar+0x40>
  {
    while (ITM->PORT[0U].u32 == 0UL)
 8000fd8:	e000      	b.n	8000fdc <ITM_SendChar+0x2c>
    {
      __NOP();
 8000fda:	bf00      	nop
    while (ITM->PORT[0U].u32 == 0UL)
 8000fdc:	f04f 4360 	mov.w	r3, #3758096384	; 0xe0000000
 8000fe0:	681b      	ldr	r3, [r3, #0]
 8000fe2:	2b00      	cmp	r3, #0
 8000fe4:	d0f9      	beq.n	8000fda <ITM_SendChar+0x2a>
    }
    ITM->PORT[0U].u8 = (uint8_t)ch;
 8000fe6:	f04f 4360 	mov.w	r3, #3758096384	; 0xe0000000
 8000fea:	687a      	ldr	r2, [r7, #4]
 8000fec:	b2d2      	uxtb	r2, r2
 8000fee:	701a      	strb	r2, [r3, #0]
  }
  return (ch);
 8000ff0:	687b      	ldr	r3, [r7, #4]
}
 8000ff2:	4618      	mov	r0, r3
 8000ff4:	370c      	adds	r7, #12
 8000ff6:	46bd      	mov	sp, r7
 8000ff8:	f85d 7b04 	ldr.w	r7, [sp], #4
 8000ffc:	4770      	bx	lr

08000ffe <_write>:
/* USER CODE END PFP */

/* Private user code ---------------------------------------------------------*/
/* USER CODE BEGIN 0 */
int _write(int file, char *ptr, int len)
{
 8000ffe:	b580      	push	{r7, lr}
 8001000:	b086      	sub	sp, #24
 8001002:	af00      	add	r7, sp, #0
 8001004:	60f8      	str	r0, [r7, #12]
 8001006:	60b9      	str	r1, [r7, #8]
 8001008:	607a      	str	r2, [r7, #4]
  /* Implement your write code here, this is used by puts and printf for example */
  int i=0;
 800100a:	2300      	movs	r3, #0
 800100c:	617b      	str	r3, [r7, #20]
  for(i=0 ; i<len ; i++)
 800100e:	2300      	movs	r3, #0
 8001010:	617b      	str	r3, [r7, #20]
 8001012:	e009      	b.n	8001028 <_write+0x2a>
    ITM_SendChar((*ptr++));
 8001014:	68bb      	ldr	r3, [r7, #8]
 8001016:	1c5a      	adds	r2, r3, #1
 8001018:	60ba      	str	r2, [r7, #8]
 800101a:	781b      	ldrb	r3, [r3, #0]
 800101c:	4618      	mov	r0, r3
 800101e:	f7ff ffc7 	bl	8000fb0 <ITM_SendChar>
  for(i=0 ; i<len ; i++)
 8001022:	697b      	ldr	r3, [r7, #20]
 8001024:	3301      	adds	r3, #1
 8001026:	617b      	str	r3, [r7, #20]
 8001028:	697a      	ldr	r2, [r7, #20]
 800102a:	687b      	ldr	r3, [r7, #4]
 800102c:	429a      	cmp	r2, r3
 800102e:	dbf1      	blt.n	8001014 <_write+0x16>
  return len;
 8001030:	687b      	ldr	r3, [r7, #4]
}
 8001032:	4618      	mov	r0, r3
 8001034:	3718      	adds	r7, #24
 8001036:	46bd      	mov	sp, r7
 8001038:	bd80      	pop	{r7, pc}
	...

0800103c <main>:
/**
  * @brief  The application entry point.
  * @retval int
  */
int main(void)
{
 800103c:	b580      	push	{r7, lr}
 800103e:	b082      	sub	sp, #8
 8001040:	af02      	add	r7, sp, #8
  /* USER CODE END 1 */

  /* MCU Configuration--------------------------------------------------------*/

  /* Reset of all peripherals, Initializes the Flash interface and the Systick. */
  HAL_Init();
 8001042:	f000 ff4c 	bl	8001ede <HAL_Init>
  /* USER CODE BEGIN Init */

  /* USER CODE END Init */

  /* Configure the system clock */
  SystemClock_Config();
 8001046:	f000 f895 	bl	8001174 <SystemClock_Config>
  /* USER CODE BEGIN SysInit */

  /* USER CODE END SysInit */

  /* Initialize all configured peripherals */
  MX_GPIO_Init();
 800104a:	f7ff fddf 	bl	8000c0c <MX_GPIO_Init>
  MX_DMA_Init();
 800104e:	f7ff fc11 	bl	8000874 <MX_DMA_Init>
  MX_DAC1_Init();
 8001052:	f7ff fac1 	bl	80005d8 <MX_DAC1_Init>
  MX_DAC2_Init();
 8001056:	f7ff fb09 	bl	800066c <MX_DAC2_Init>
  MX_ADC1_Init();
 800105a:	f7ff f97f 	bl	800035c <MX_ADC1_Init>
  MX_COMP1_Init();
 800105e:	f7ff fa61 	bl	8000524 <MX_COMP1_Init>
  MX_TIM2_Init();
 8001062:	f000 fc97 	bl	8001994 <MX_TIM2_Init>
  MX_TIM17_Init();
 8001066:	f000 fddf 	bl	8001c28 <MX_TIM17_Init>
  MX_SPI3_Init();
 800106a:	f000 f92f 	bl	80012cc <MX_SPI3_Init>
  MX_RNG_Init();
 800106e:	f000 f91f 	bl	80012b0 <MX_RNG_Init>
  MX_TIM1_Init();
 8001072:	f000 fc1f 	bl	80018b4 <MX_TIM1_Init>
  MX_TIM8_Init();
 8001076:	f000 fcf7 	bl	8001a68 <MX_TIM8_Init>
  MX_TIM16_Init();
 800107a:	f000 fdaf 	bl	8001bdc <MX_TIM16_Init>
  MX_TIM15_Init();
 800107e:	f000 fd5b 	bl	8001b38 <MX_TIM15_Init>
  /* USER CODE BEGIN 2 */

  // main signal function output (external)
  HAL_DAC_Start_DMA(&hdac1, DAC1_CHANNEL_1, sine_data_table, SINE_DATA_SIZE, DAC_ALIGN_12B_R);
 8001082:	2300      	movs	r3, #0
 8001084:	9300      	str	r3, [sp, #0]
 8001086:	2378      	movs	r3, #120	; 0x78
 8001088:	4a2f      	ldr	r2, [pc, #188]	; (8001148 <main+0x10c>)
 800108a:	2100      	movs	r1, #0
 800108c:	482f      	ldr	r0, [pc, #188]	; (800114c <main+0x110>)
 800108e:	f002 fc7d 	bl	800398c <HAL_DAC_Start_DMA>
  //TIM8->ARR = sin1_max_arr;

  // DC bias output (internal)
  HAL_DAC_Start(&hdac1, DAC1_CHANNEL_2);
 8001092:	2110      	movs	r1, #16
 8001094:	482d      	ldr	r0, [pc, #180]	; (800114c <main+0x110>)
 8001096:	f002 fc26 	bl	80038e6 <HAL_DAC_Start>
  //HAL_DAC_Start_DMA(&hdac2, DAC2_CHANNEL_1, sine_data_table, SINE_DATA_SIZE, DAC_ALIGN_12B_R);
  //HAL_DAC_Start_DMA(&hdac2, DAC2_CHANNEL_1, square_data_table, SQUARE_DATA_SIZE, DAC_ALIGN_12B_R);
  //HAL_DAC_Start_DMA(&hdac2, DAC2_CHANNEL_1, unitimpulse_data_table, UNITIMPULSE_DATA_SIZE, DAC_ALIGN_12B_R);
  //HAL_DAC_Start_DMA(&hdac2, DAC2_CHANNEL_1, saw_data_table, SAW_DATA_SIZE, DAC_ALIGN_12B_R);
  //HAL_DAC_Start_DMA(&hdac2, DAC2_CHANNEL_1, saw_rev_data_table, SAW_REV_DATA_SIZE, DAC_ALIGN_12B_R);
  HAL_DAC_Start_DMA(&hdac2, DAC2_CHANNEL_1, triangle_data_table, TRIANGLE_DATA_SIZE, DAC_ALIGN_12B_R);
 800109a:	2300      	movs	r3, #0
 800109c:	9300      	str	r3, [sp, #0]
 800109e:	2378      	movs	r3, #120	; 0x78
 80010a0:	4a2b      	ldr	r2, [pc, #172]	; (8001150 <main+0x114>)
 80010a2:	2100      	movs	r1, #0
 80010a4:	482b      	ldr	r0, [pc, #172]	; (8001154 <main+0x118>)
 80010a6:	f002 fc71 	bl	800398c <HAL_DAC_Start_DMA>

  //HAL_DAC_Start_DMA(&hdac2, DAC2_CHANNEL_1, trigger_input, TRIGGER_DATA_SIZE, DAC_ALIGN_12B_R);
#ifndef DISABLE_ALL_TIMERS
  // single clock to run all DAC channels. TODO add independent clocks
  HAL_TIM_Base_Start(&htim8);
 80010aa:	482b      	ldr	r0, [pc, #172]	; (8001158 <main+0x11c>)
 80010ac:	f005 f8c0 	bl	8006230 <HAL_TIM_Base_Start>
#endif //DISABLE_ALL_TIMERS

  // DC bias inversion
  HAL_GPIO_WritePin(DCBIAS_INVERT_GPIO_Port, DCBIAS_INVERT_Pin, GPIO_PIN_SET);
 80010b0:	2201      	movs	r2, #1
 80010b2:	2108      	movs	r1, #8
 80010b4:	f04f 4090 	mov.w	r0, #1207959552	; 0x48000000
 80010b8:	f003 fbb2 	bl	8004820 <HAL_GPIO_WritePin>

  // PGA gain
  HAL_GPIO_WritePin(SG0_GPIO_Port, SG0_Pin, GPIO_PIN_SET);
 80010bc:	2201      	movs	r2, #1
 80010be:	2101      	movs	r1, #1
 80010c0:	4826      	ldr	r0, [pc, #152]	; (800115c <main+0x120>)
 80010c2:	f003 fbad 	bl	8004820 <HAL_GPIO_WritePin>
  HAL_GPIO_WritePin(SG1_GPIO_Port, SG1_Pin, GPIO_PIN_SET);
 80010c6:	2201      	movs	r2, #1
 80010c8:	2120      	movs	r1, #32
 80010ca:	4825      	ldr	r0, [pc, #148]	; (8001160 <main+0x124>)
 80010cc:	f003 fba8 	bl	8004820 <HAL_GPIO_WritePin>
  HAL_GPIO_WritePin(SG2_GPIO_Port, SG2_Pin, GPIO_PIN_SET);
 80010d0:	2201      	movs	r2, #1
 80010d2:	2110      	movs	r1, #16
 80010d4:	4822      	ldr	r0, [pc, #136]	; (8001160 <main+0x124>)
 80010d6:	f003 fba3 	bl	8004820 <HAL_GPIO_WritePin>

#ifndef DISABLE_ALL_TIMERS
  // start test routine (update_dc_bias_sweep())
  HAL_TIM_Base_Start_IT(&htim17);
 80010da:	4822      	ldr	r0, [pc, #136]	; (8001164 <main+0x128>)
 80010dc:	f005 f8d6 	bl	800628c <HAL_TIM_Base_Start_IT>
#endif	//DISABLE_ALL_TIMERS


// http://www.ti.com/lit/ds/symlink/ts5a3357.pdf
  HAL_GPIO_WritePin(TRIGMUX1_GPIO_Port, TRIGMUX1_Pin, GPIO_PIN_RESET);	// TS5A3357 Pin6
 80010e0:	2200      	movs	r2, #0
 80010e2:	f44f 7180 	mov.w	r1, #256	; 0x100
 80010e6:	481e      	ldr	r0, [pc, #120]	; (8001160 <main+0x124>)
 80010e8:	f003 fb9a 	bl	8004820 <HAL_GPIO_WritePin>
  HAL_GPIO_WritePin(TRIGMUX2_GPIO_Port, TRIGMUX2_Pin, GPIO_PIN_RESET);	// TS5A3357 Pin5
 80010ec:	2200      	movs	r2, #0
 80010ee:	f44f 7100 	mov.w	r1, #512	; 0x200
 80010f2:	481b      	ldr	r0, [pc, #108]	; (8001160 <main+0x124>)
 80010f4:	f003 fb94 	bl	8004820 <HAL_GPIO_WritePin>

#ifdef TIM_TRIGGER_MODE
  // input capture on in TIM2 slave-mode TF1FP1

  // set HW switch to direct ext. trigger input to TIM pin
  HAL_GPIO_WritePin(TRIGMODE_GPIO_Port, TRIGMODE_Pin, GPIO_PIN_SET);
 80010f8:	2201      	movs	r2, #1
 80010fa:	2108      	movs	r1, #8
 80010fc:	4818      	ldr	r0, [pc, #96]	; (8001160 <main+0x124>)
 80010fe:	f003 fb8f 	bl	8004820 <HAL_GPIO_WritePin>
  //HAL_GPIO_WritePin(TRIGMUX1_GPIO_Port, TRIGMUX1_Pin, GPIO_PIN_SET);	// TS5A3357 Pin6
  //HAL_GPIO_WritePin(TRIGMUX2_GPIO_Port, TRIGMUX2_Pin, GPIO_PIN_RESET); // TS5A3357 Pin5

  // clear slave mode select reg
  TIM2->SMCR &= ~(TIM_SMCR_SMS_0 | TIM_SMCR_SMS_1 | TIM_SMCR_SMS_2);
 8001102:	f04f 4380 	mov.w	r3, #1073741824	; 0x40000000
 8001106:	689b      	ldr	r3, [r3, #8]
 8001108:	f04f 4280 	mov.w	r2, #1073741824	; 0x40000000
 800110c:	f023 0307 	bic.w	r3, r3, #7
 8001110:	6093      	str	r3, [r2, #8]

  // slave mode
  //TIM2->SMCR |= TIM_SMCR_SMS_2;						// SLAVE MODE: RESET
  TIM2->SMCR |= TIM_SMCR_SMS_0 | TIM_SMCR_SMS_2;	// SLAVE MODE: GATED
 8001112:	f04f 4380 	mov.w	r3, #1073741824	; 0x40000000
 8001116:	689b      	ldr	r3, [r3, #8]
 8001118:	f04f 4280 	mov.w	r2, #1073741824	; 0x40000000
 800111c:	f043 0305 	orr.w	r3, r3, #5
 8001120:	6093      	str	r3, [r2, #8]
  //TIM2->SMCR |= TIM_SMCR_SMS_1 | TIM_SMCR_SMS_2;	// SLAVE MODE: TRIGGER

#ifndef DISABLE_ALL_TIMERS
  HAL_TIM_Base_Start_IT(&htim2);
 8001122:	4811      	ldr	r0, [pc, #68]	; (8001168 <main+0x12c>)
 8001124:	f005 f8b2 	bl	800628c <HAL_TIM_Base_Start_IT>



#ifndef DISABLE_ALL_TIMERS
  // encoder input
  HAL_TIM_Base_Start(&htim1);
 8001128:	4810      	ldr	r0, [pc, #64]	; (800116c <main+0x130>)
 800112a:	f005 f881 	bl	8006230 <HAL_TIM_Base_Start>
  //HAL_TIM_Base_Start_IT(&htim16);
#endif	//DISABLE_ALL_TIMERS

  // TFT lib enable
  ILI9341_Init();
 800112e:	f006 fe39 	bl	8007da4 <ILI9341_Init>
/*	ILI9341_Fill_Screen(WHITE);

	ILI9341_Draw_Text("Initialising", 10, 10, BLACK, 1, WHITE);
	HAL_Delay(2000);
*/
	ILI9341_Fill_Screen(WHITE);
 8001132:	f64f 70ff 	movw	r0, #65535	; 0xffff
 8001136:	f006 ffdd 	bl	80080f4 <ILI9341_Fill_Screen>
	ILI9341_Set_Rotation(SCREEN_HORIZONTAL_2);
 800113a:	2003      	movs	r0, #3
 800113c:	f006 fdd4 	bl	8007ce8 <ILI9341_Set_Rotation>
	HAL_TIM_Base_Start_IT(&htim15);
 8001140:	480b      	ldr	r0, [pc, #44]	; (8001170 <main+0x134>)
 8001142:	f005 f8a3 	bl	800628c <HAL_TIM_Base_Start_IT>
  /* USER CODE END 2 */

  /* Infinite loop */
  /* USER CODE BEGIN WHILE */
  while (1)
 8001146:	e7fe      	b.n	8001146 <main+0x10a>
 8001148:	2000000c 	.word	0x2000000c
 800114c:	20000584 	.word	0x20000584
 8001150:	200001ec 	.word	0x200001ec
 8001154:	20000570 	.word	0x20000570
 8001158:	2000071c 	.word	0x2000071c
 800115c:	48000400 	.word	0x48000400
 8001160:	48000800 	.word	0x48000800
 8001164:	200007b4 	.word	0x200007b4
 8001168:	2000084c 	.word	0x2000084c
 800116c:	20000800 	.word	0x20000800
 8001170:	20000768 	.word	0x20000768

08001174 <SystemClock_Config>:
/**
  * @brief System Clock Configuration
  * @retval None
  */
void SystemClock_Config(void)
{
 8001174:	b580      	push	{r7, lr}
 8001176:	b0a8      	sub	sp, #160	; 0xa0
 8001178:	af00      	add	r7, sp, #0
  RCC_OscInitTypeDef RCC_OscInitStruct = {0};
 800117a:	f107 0368 	add.w	r3, r7, #104	; 0x68
 800117e:	2238      	movs	r2, #56	; 0x38
 8001180:	2100      	movs	r1, #0
 8001182:	4618      	mov	r0, r3
 8001184:	f007 f9c6 	bl	8008514 <memset>
  RCC_ClkInitTypeDef RCC_ClkInitStruct = {0};
 8001188:	f107 0354 	add.w	r3, r7, #84	; 0x54
 800118c:	2200      	movs	r2, #0
 800118e:	601a      	str	r2, [r3, #0]
 8001190:	605a      	str	r2, [r3, #4]
 8001192:	609a      	str	r2, [r3, #8]
 8001194:	60da      	str	r2, [r3, #12]
 8001196:	611a      	str	r2, [r3, #16]
  RCC_PeriphCLKInitTypeDef PeriphClkInit = {0};
 8001198:	463b      	mov	r3, r7
 800119a:	2254      	movs	r2, #84	; 0x54
 800119c:	2100      	movs	r1, #0
 800119e:	4618      	mov	r0, r3
 80011a0:	f007 f9b8 	bl	8008514 <memset>

  /** Configure the main internal regulator output voltage 
  */
  HAL_PWREx_ControlVoltageScaling(PWR_REGULATOR_VOLTAGE_SCALE1_BOOST);
 80011a4:	2000      	movs	r0, #0
 80011a6:	f003 fb53 	bl	8004850 <HAL_PWREx_ControlVoltageScaling>
  /** Initializes the CPU, AHB and APB busses clocks 
  */
  RCC_OscInitStruct.OscillatorType = RCC_OSCILLATORTYPE_HSI|RCC_OSCILLATORTYPE_HSI48;
 80011aa:	2322      	movs	r3, #34	; 0x22
 80011ac:	66bb      	str	r3, [r7, #104]	; 0x68
  RCC_OscInitStruct.HSIState = RCC_HSI_ON;
 80011ae:	f44f 7380 	mov.w	r3, #256	; 0x100
 80011b2:	677b      	str	r3, [r7, #116]	; 0x74
  RCC_OscInitStruct.HSICalibrationValue = RCC_HSICALIBRATION_DEFAULT;
 80011b4:	2340      	movs	r3, #64	; 0x40
 80011b6:	67bb      	str	r3, [r7, #120]	; 0x78
  RCC_OscInitStruct.HSI48State = RCC_HSI48_ON;
 80011b8:	2301      	movs	r3, #1
 80011ba:	f8c7 3080 	str.w	r3, [r7, #128]	; 0x80
  RCC_OscInitStruct.PLL.PLLState = RCC_PLL_ON;
 80011be:	2302      	movs	r3, #2
 80011c0:	f8c7 3084 	str.w	r3, [r7, #132]	; 0x84
  RCC_OscInitStruct.PLL.PLLSource = RCC_PLLSOURCE_HSI;
 80011c4:	2302      	movs	r3, #2
 80011c6:	f8c7 3088 	str.w	r3, [r7, #136]	; 0x88
  RCC_OscInitStruct.PLL.PLLM = RCC_PLLM_DIV2;
 80011ca:	2302      	movs	r3, #2
 80011cc:	f8c7 308c 	str.w	r3, [r7, #140]	; 0x8c
  RCC_OscInitStruct.PLL.PLLN = 42;
 80011d0:	232a      	movs	r3, #42	; 0x2a
 80011d2:	f8c7 3090 	str.w	r3, [r7, #144]	; 0x90
  RCC_OscInitStruct.PLL.PLLP = RCC_PLLP_DIV2;
 80011d6:	2302      	movs	r3, #2
 80011d8:	f8c7 3094 	str.w	r3, [r7, #148]	; 0x94
  RCC_OscInitStruct.PLL.PLLQ = RCC_PLLQ_DIV4;
 80011dc:	2304      	movs	r3, #4
 80011de:	f8c7 3098 	str.w	r3, [r7, #152]	; 0x98
  RCC_OscInitStruct.PLL.PLLR = RCC_PLLR_DIV2;
 80011e2:	2302      	movs	r3, #2
 80011e4:	f8c7 309c 	str.w	r3, [r7, #156]	; 0x9c
  if (HAL_RCC_OscConfig(&RCC_OscInitStruct) != HAL_OK)
 80011e8:	f107 0368 	add.w	r3, r7, #104	; 0x68
 80011ec:	4618      	mov	r0, r3
 80011ee:	f003 fbd3 	bl	8004998 <HAL_RCC_OscConfig>
 80011f2:	4603      	mov	r3, r0
 80011f4:	2b00      	cmp	r3, #0
 80011f6:	d001      	beq.n	80011fc <SystemClock_Config+0x88>
  {
    Error_Handler();
 80011f8:	f000 f82a 	bl	8001250 <Error_Handler>
  }
  /** Initializes the CPU, AHB and APB busses clocks 
  */
  RCC_ClkInitStruct.ClockType = RCC_CLOCKTYPE_HCLK|RCC_CLOCKTYPE_SYSCLK
 80011fc:	230f      	movs	r3, #15
 80011fe:	657b      	str	r3, [r7, #84]	; 0x54
                              |RCC_CLOCKTYPE_PCLK1|RCC_CLOCKTYPE_PCLK2;
  RCC_ClkInitStruct.SYSCLKSource = RCC_SYSCLKSOURCE_PLLCLK;
 8001200:	2303      	movs	r3, #3
 8001202:	65bb      	str	r3, [r7, #88]	; 0x58
  RCC_ClkInitStruct.AHBCLKDivider = RCC_SYSCLK_DIV1;
 8001204:	2300      	movs	r3, #0
 8001206:	65fb      	str	r3, [r7, #92]	; 0x5c
  RCC_ClkInitStruct.APB1CLKDivider = RCC_HCLK_DIV1;
 8001208:	2300      	movs	r3, #0
 800120a:	663b      	str	r3, [r7, #96]	; 0x60
  RCC_ClkInitStruct.APB2CLKDivider = RCC_HCLK_DIV1;
 800120c:	2300      	movs	r3, #0
 800120e:	667b      	str	r3, [r7, #100]	; 0x64

  if (HAL_RCC_ClockConfig(&RCC_ClkInitStruct, FLASH_LATENCY_8) != HAL_OK)
 8001210:	f107 0354 	add.w	r3, r7, #84	; 0x54
 8001214:	2108      	movs	r1, #8
 8001216:	4618      	mov	r0, r3
 8001218:	f003 fed6 	bl	8004fc8 <HAL_RCC_ClockConfig>
 800121c:	4603      	mov	r3, r0
 800121e:	2b00      	cmp	r3, #0
 8001220:	d001      	beq.n	8001226 <SystemClock_Config+0xb2>
  {
    Error_Handler();
 8001222:	f000 f815 	bl	8001250 <Error_Handler>
  }
  /** Initializes the peripherals clocks 
  */
  PeriphClkInit.PeriphClockSelection = RCC_PERIPHCLK_RNG|RCC_PERIPHCLK_ADC12;
 8001226:	f44f 4340 	mov.w	r3, #49152	; 0xc000
 800122a:	603b      	str	r3, [r7, #0]
  PeriphClkInit.RngClockSelection = RCC_RNGCLKSOURCE_HSI48;
 800122c:	2300      	movs	r3, #0
 800122e:	643b      	str	r3, [r7, #64]	; 0x40
  PeriphClkInit.Adc12ClockSelection = RCC_ADC12CLKSOURCE_SYSCLK;
 8001230:	f04f 5300 	mov.w	r3, #536870912	; 0x20000000
 8001234:	647b      	str	r3, [r7, #68]	; 0x44
  if (HAL_RCCEx_PeriphCLKConfig(&PeriphClkInit) != HAL_OK)
 8001236:	463b      	mov	r3, r7
 8001238:	4618      	mov	r0, r3
 800123a:	f004 f8b5 	bl	80053a8 <HAL_RCCEx_PeriphCLKConfig>
 800123e:	4603      	mov	r3, r0
 8001240:	2b00      	cmp	r3, #0
 8001242:	d001      	beq.n	8001248 <SystemClock_Config+0xd4>
  {
    Error_Handler();
 8001244:	f000 f804 	bl	8001250 <Error_Handler>
  }
}
 8001248:	bf00      	nop
 800124a:	37a0      	adds	r7, #160	; 0xa0
 800124c:	46bd      	mov	sp, r7
 800124e:	bd80      	pop	{r7, pc}

08001250 <Error_Handler>:
/**
  * @brief  This function is executed in case of error occurrence.
  * @retval None
  */
void Error_Handler(void)
{
 8001250:	b480      	push	{r7}
 8001252:	af00      	add	r7, sp, #0
  /* USER CODE BEGIN Error_Handler_Debug */
  /* User can add his own implementation to report the HAL error return state */

  /* USER CODE END Error_Handler_Debug */
}
 8001254:	bf00      	nop
 8001256:	46bd      	mov	sp, r7
 8001258:	f85d 7b04 	ldr.w	r7, [sp], #4
 800125c:	4770      	bx	lr

0800125e <LL_RNG_Enable>:
  * @rmtoll CR           RNGEN         LL_RNG_Enable
  * @param  RNGx RNG Instance
  * @retval None
  */
__STATIC_INLINE void LL_RNG_Enable(RNG_TypeDef *RNGx)
{
 800125e:	b480      	push	{r7}
 8001260:	b083      	sub	sp, #12
 8001262:	af00      	add	r7, sp, #0
 8001264:	6078      	str	r0, [r7, #4]
  SET_BIT(RNGx->CR, RNG_CR_RNGEN);
 8001266:	687b      	ldr	r3, [r7, #4]
 8001268:	681b      	ldr	r3, [r3, #0]
 800126a:	f043 0204 	orr.w	r2, r3, #4
 800126e:	687b      	ldr	r3, [r7, #4]
 8001270:	601a      	str	r2, [r3, #0]
}
 8001272:	bf00      	nop
 8001274:	370c      	adds	r7, #12
 8001276:	46bd      	mov	sp, r7
 8001278:	f85d 7b04 	ldr.w	r7, [sp], #4
 800127c:	4770      	bx	lr
	...

08001280 <LL_AHB2_GRP1_EnableClock>:
{
 8001280:	b480      	push	{r7}
 8001282:	b085      	sub	sp, #20
 8001284:	af00      	add	r7, sp, #0
 8001286:	6078      	str	r0, [r7, #4]
  SET_BIT(RCC->AHB2ENR, Periphs);
 8001288:	4b08      	ldr	r3, [pc, #32]	; (80012ac <LL_AHB2_GRP1_EnableClock+0x2c>)
 800128a:	6cda      	ldr	r2, [r3, #76]	; 0x4c
 800128c:	4907      	ldr	r1, [pc, #28]	; (80012ac <LL_AHB2_GRP1_EnableClock+0x2c>)
 800128e:	687b      	ldr	r3, [r7, #4]
 8001290:	4313      	orrs	r3, r2
 8001292:	64cb      	str	r3, [r1, #76]	; 0x4c
  tmpreg = READ_BIT(RCC->AHB2ENR, Periphs);
 8001294:	4b05      	ldr	r3, [pc, #20]	; (80012ac <LL_AHB2_GRP1_EnableClock+0x2c>)
 8001296:	6cda      	ldr	r2, [r3, #76]	; 0x4c
 8001298:	687b      	ldr	r3, [r7, #4]
 800129a:	4013      	ands	r3, r2
 800129c:	60fb      	str	r3, [r7, #12]
  (void)tmpreg;
 800129e:	68fb      	ldr	r3, [r7, #12]
}
 80012a0:	bf00      	nop
 80012a2:	3714      	adds	r7, #20
 80012a4:	46bd      	mov	sp, r7
 80012a6:	f85d 7b04 	ldr.w	r7, [sp], #4
 80012aa:	4770      	bx	lr
 80012ac:	40021000 	.word	0x40021000

080012b0 <MX_RNG_Init>:

/* USER CODE END 0 */

/* RNG init function */
void MX_RNG_Init(void)
{
 80012b0:	b580      	push	{r7, lr}
 80012b2:	af00      	add	r7, sp, #0

  /* Peripheral clock enable */
  LL_AHB2_GRP1_EnableClock(LL_AHB2_GRP1_PERIPH_RNG);
 80012b4:	f04f 6080 	mov.w	r0, #67108864	; 0x4000000
 80012b8:	f7ff ffe2 	bl	8001280 <LL_AHB2_GRP1_EnableClock>

  LL_RNG_Enable(RNG);
 80012bc:	4802      	ldr	r0, [pc, #8]	; (80012c8 <MX_RNG_Init+0x18>)
 80012be:	f7ff ffce 	bl	800125e <LL_RNG_Enable>

}
 80012c2:	bf00      	nop
 80012c4:	bd80      	pop	{r7, pc}
 80012c6:	bf00      	nop
 80012c8:	50060800 	.word	0x50060800

080012cc <MX_SPI3_Init>:
SPI_HandleTypeDef hspi3;
DMA_HandleTypeDef hdma_spi3_tx;

/* SPI3 init function */
void MX_SPI3_Init(void)
{
 80012cc:	b580      	push	{r7, lr}
 80012ce:	af00      	add	r7, sp, #0

  hspi3.Instance = SPI3;
 80012d0:	4b1b      	ldr	r3, [pc, #108]	; (8001340 <MX_SPI3_Init+0x74>)
 80012d2:	4a1c      	ldr	r2, [pc, #112]	; (8001344 <MX_SPI3_Init+0x78>)
 80012d4:	601a      	str	r2, [r3, #0]
  hspi3.Init.Mode = SPI_MODE_MASTER;
 80012d6:	4b1a      	ldr	r3, [pc, #104]	; (8001340 <MX_SPI3_Init+0x74>)
 80012d8:	f44f 7282 	mov.w	r2, #260	; 0x104
 80012dc:	605a      	str	r2, [r3, #4]
  hspi3.Init.Direction = SPI_DIRECTION_2LINES;
 80012de:	4b18      	ldr	r3, [pc, #96]	; (8001340 <MX_SPI3_Init+0x74>)
 80012e0:	2200      	movs	r2, #0
 80012e2:	609a      	str	r2, [r3, #8]
  hspi3.Init.DataSize = SPI_DATASIZE_8BIT;
 80012e4:	4b16      	ldr	r3, [pc, #88]	; (8001340 <MX_SPI3_Init+0x74>)
 80012e6:	f44f 62e0 	mov.w	r2, #1792	; 0x700
 80012ea:	60da      	str	r2, [r3, #12]
  hspi3.Init.CLKPolarity = SPI_POLARITY_LOW;
 80012ec:	4b14      	ldr	r3, [pc, #80]	; (8001340 <MX_SPI3_Init+0x74>)
 80012ee:	2200      	movs	r2, #0
 80012f0:	611a      	str	r2, [r3, #16]
  hspi3.Init.CLKPhase = SPI_PHASE_1EDGE;
 80012f2:	4b13      	ldr	r3, [pc, #76]	; (8001340 <MX_SPI3_Init+0x74>)
 80012f4:	2200      	movs	r2, #0
 80012f6:	615a      	str	r2, [r3, #20]
  hspi3.Init.NSS = SPI_NSS_SOFT;
 80012f8:	4b11      	ldr	r3, [pc, #68]	; (8001340 <MX_SPI3_Init+0x74>)
 80012fa:	f44f 7200 	mov.w	r2, #512	; 0x200
 80012fe:	619a      	str	r2, [r3, #24]
  hspi3.Init.BaudRatePrescaler = SPI_BAUDRATEPRESCALER_8;
 8001300:	4b0f      	ldr	r3, [pc, #60]	; (8001340 <MX_SPI3_Init+0x74>)
 8001302:	2210      	movs	r2, #16
 8001304:	61da      	str	r2, [r3, #28]
  hspi3.Init.FirstBit = SPI_FIRSTBIT_MSB;
 8001306:	4b0e      	ldr	r3, [pc, #56]	; (8001340 <MX_SPI3_Init+0x74>)
 8001308:	2200      	movs	r2, #0
 800130a:	621a      	str	r2, [r3, #32]
  hspi3.Init.TIMode = SPI_TIMODE_DISABLE;
 800130c:	4b0c      	ldr	r3, [pc, #48]	; (8001340 <MX_SPI3_Init+0x74>)
 800130e:	2200      	movs	r2, #0
 8001310:	625a      	str	r2, [r3, #36]	; 0x24
  hspi3.Init.CRCCalculation = SPI_CRCCALCULATION_DISABLE;
 8001312:	4b0b      	ldr	r3, [pc, #44]	; (8001340 <MX_SPI3_Init+0x74>)
 8001314:	2200      	movs	r2, #0
 8001316:	629a      	str	r2, [r3, #40]	; 0x28
  hspi3.Init.CRCPolynomial = 7;
 8001318:	4b09      	ldr	r3, [pc, #36]	; (8001340 <MX_SPI3_Init+0x74>)
 800131a:	2207      	movs	r2, #7
 800131c:	62da      	str	r2, [r3, #44]	; 0x2c
  hspi3.Init.CRCLength = SPI_CRC_LENGTH_DATASIZE;
 800131e:	4b08      	ldr	r3, [pc, #32]	; (8001340 <MX_SPI3_Init+0x74>)
 8001320:	2200      	movs	r2, #0
 8001322:	631a      	str	r2, [r3, #48]	; 0x30
  hspi3.Init.NSSPMode = SPI_NSS_PULSE_ENABLE;
 8001324:	4b06      	ldr	r3, [pc, #24]	; (8001340 <MX_SPI3_Init+0x74>)
 8001326:	2208      	movs	r2, #8
 8001328:	635a      	str	r2, [r3, #52]	; 0x34
  if (HAL_SPI_Init(&hspi3) != HAL_OK)
 800132a:	4805      	ldr	r0, [pc, #20]	; (8001340 <MX_SPI3_Init+0x74>)
 800132c:	f004 fa88 	bl	8005840 <HAL_SPI_Init>
 8001330:	4603      	mov	r3, r0
 8001332:	2b00      	cmp	r3, #0
 8001334:	d001      	beq.n	800133a <MX_SPI3_Init+0x6e>
  {
    Error_Handler();
 8001336:	f7ff ff8b 	bl	8001250 <Error_Handler>
  }

}
 800133a:	bf00      	nop
 800133c:	bd80      	pop	{r7, pc}
 800133e:	bf00      	nop
 8001340:	20000658 	.word	0x20000658
 8001344:	40003c00 	.word	0x40003c00

08001348 <HAL_SPI_MspInit>:

void HAL_SPI_MspInit(SPI_HandleTypeDef* spiHandle)
{
 8001348:	b580      	push	{r7, lr}
 800134a:	b08a      	sub	sp, #40	; 0x28
 800134c:	af00      	add	r7, sp, #0
 800134e:	6078      	str	r0, [r7, #4]

  GPIO_InitTypeDef GPIO_InitStruct = {0};
 8001350:	f107 0314 	add.w	r3, r7, #20
 8001354:	2200      	movs	r2, #0
 8001356:	601a      	str	r2, [r3, #0]
 8001358:	605a      	str	r2, [r3, #4]
 800135a:	609a      	str	r2, [r3, #8]
 800135c:	60da      	str	r2, [r3, #12]
 800135e:	611a      	str	r2, [r3, #16]
  if(spiHandle->Instance==SPI3)
 8001360:	687b      	ldr	r3, [r7, #4]
 8001362:	681b      	ldr	r3, [r3, #0]
 8001364:	4a2c      	ldr	r2, [pc, #176]	; (8001418 <HAL_SPI_MspInit+0xd0>)
 8001366:	4293      	cmp	r3, r2
 8001368:	d151      	bne.n	800140e <HAL_SPI_MspInit+0xc6>
  {
  /* USER CODE BEGIN SPI3_MspInit 0 */

  /* USER CODE END SPI3_MspInit 0 */
    /* SPI3 clock enable */
    __HAL_RCC_SPI3_CLK_ENABLE();
 800136a:	4b2c      	ldr	r3, [pc, #176]	; (800141c <HAL_SPI_MspInit+0xd4>)
 800136c:	6d9b      	ldr	r3, [r3, #88]	; 0x58
 800136e:	4a2b      	ldr	r2, [pc, #172]	; (800141c <HAL_SPI_MspInit+0xd4>)
 8001370:	f443 4300 	orr.w	r3, r3, #32768	; 0x8000
 8001374:	6593      	str	r3, [r2, #88]	; 0x58
 8001376:	4b29      	ldr	r3, [pc, #164]	; (800141c <HAL_SPI_MspInit+0xd4>)
 8001378:	6d9b      	ldr	r3, [r3, #88]	; 0x58
 800137a:	f403 4300 	and.w	r3, r3, #32768	; 0x8000
 800137e:	613b      	str	r3, [r7, #16]
 8001380:	693b      	ldr	r3, [r7, #16]
  
    __HAL_RCC_GPIOC_CLK_ENABLE();
 8001382:	4b26      	ldr	r3, [pc, #152]	; (800141c <HAL_SPI_MspInit+0xd4>)
 8001384:	6cdb      	ldr	r3, [r3, #76]	; 0x4c
 8001386:	4a25      	ldr	r2, [pc, #148]	; (800141c <HAL_SPI_MspInit+0xd4>)
 8001388:	f043 0304 	orr.w	r3, r3, #4
 800138c:	64d3      	str	r3, [r2, #76]	; 0x4c
 800138e:	4b23      	ldr	r3, [pc, #140]	; (800141c <HAL_SPI_MspInit+0xd4>)
 8001390:	6cdb      	ldr	r3, [r3, #76]	; 0x4c
 8001392:	f003 0304 	and.w	r3, r3, #4
 8001396:	60fb      	str	r3, [r7, #12]
 8001398:	68fb      	ldr	r3, [r7, #12]
    /**SPI3 GPIO Configuration    
    PC10     ------> SPI3_SCK
    PC11     ------> SPI3_MISO
    PC12     ------> SPI3_MOSI 
    */
    GPIO_InitStruct.Pin = GPIO_PIN_10|GPIO_PIN_11|GPIO_PIN_12;
 800139a:	f44f 53e0 	mov.w	r3, #7168	; 0x1c00
 800139e:	617b      	str	r3, [r7, #20]
    GPIO_InitStruct.Mode = GPIO_MODE_AF_PP;
 80013a0:	2302      	movs	r3, #2
 80013a2:	61bb      	str	r3, [r7, #24]
    GPIO_InitStruct.Pull = GPIO_NOPULL;
 80013a4:	2300      	movs	r3, #0
 80013a6:	61fb      	str	r3, [r7, #28]
    GPIO_InitStruct.Speed = GPIO_SPEED_FREQ_LOW;
 80013a8:	2300      	movs	r3, #0
 80013aa:	623b      	str	r3, [r7, #32]
    GPIO_InitStruct.Alternate = GPIO_AF6_SPI3;
 80013ac:	2306      	movs	r3, #6
 80013ae:	627b      	str	r3, [r7, #36]	; 0x24
    HAL_GPIO_Init(GPIOC, &GPIO_InitStruct);
 80013b0:	f107 0314 	add.w	r3, r7, #20
 80013b4:	4619      	mov	r1, r3
 80013b6:	481a      	ldr	r0, [pc, #104]	; (8001420 <HAL_SPI_MspInit+0xd8>)
 80013b8:	f003 f898 	bl	80044ec <HAL_GPIO_Init>

    /* SPI3 DMA Init */
    /* SPI3_TX Init */
    hdma_spi3_tx.Instance = DMA1_Channel4;
 80013bc:	4b19      	ldr	r3, [pc, #100]	; (8001424 <HAL_SPI_MspInit+0xdc>)
 80013be:	4a1a      	ldr	r2, [pc, #104]	; (8001428 <HAL_SPI_MspInit+0xe0>)
 80013c0:	601a      	str	r2, [r3, #0]
    hdma_spi3_tx.Init.Request = DMA_REQUEST_SPI3_TX;
 80013c2:	4b18      	ldr	r3, [pc, #96]	; (8001424 <HAL_SPI_MspInit+0xdc>)
 80013c4:	220f      	movs	r2, #15
 80013c6:	605a      	str	r2, [r3, #4]
    hdma_spi3_tx.Init.Direction = DMA_MEMORY_TO_PERIPH;
 80013c8:	4b16      	ldr	r3, [pc, #88]	; (8001424 <HAL_SPI_MspInit+0xdc>)
 80013ca:	2210      	movs	r2, #16
 80013cc:	609a      	str	r2, [r3, #8]
    hdma_spi3_tx.Init.PeriphInc = DMA_PINC_DISABLE;
 80013ce:	4b15      	ldr	r3, [pc, #84]	; (8001424 <HAL_SPI_MspInit+0xdc>)
 80013d0:	2200      	movs	r2, #0
 80013d2:	60da      	str	r2, [r3, #12]
    hdma_spi3_tx.Init.MemInc = DMA_MINC_ENABLE;
 80013d4:	4b13      	ldr	r3, [pc, #76]	; (8001424 <HAL_SPI_MspInit+0xdc>)
 80013d6:	2280      	movs	r2, #128	; 0x80
 80013d8:	611a      	str	r2, [r3, #16]
    hdma_spi3_tx.Init.PeriphDataAlignment = DMA_PDATAALIGN_BYTE;
 80013da:	4b12      	ldr	r3, [pc, #72]	; (8001424 <HAL_SPI_MspInit+0xdc>)
 80013dc:	2200      	movs	r2, #0
 80013de:	615a      	str	r2, [r3, #20]
    hdma_spi3_tx.Init.MemDataAlignment = DMA_MDATAALIGN_BYTE;
 80013e0:	4b10      	ldr	r3, [pc, #64]	; (8001424 <HAL_SPI_MspInit+0xdc>)
 80013e2:	2200      	movs	r2, #0
 80013e4:	619a      	str	r2, [r3, #24]
    hdma_spi3_tx.Init.Mode = DMA_NORMAL;
 80013e6:	4b0f      	ldr	r3, [pc, #60]	; (8001424 <HAL_SPI_MspInit+0xdc>)
 80013e8:	2200      	movs	r2, #0
 80013ea:	61da      	str	r2, [r3, #28]
    hdma_spi3_tx.Init.Priority = DMA_PRIORITY_LOW;
 80013ec:	4b0d      	ldr	r3, [pc, #52]	; (8001424 <HAL_SPI_MspInit+0xdc>)
 80013ee:	2200      	movs	r2, #0
 80013f0:	621a      	str	r2, [r3, #32]
    if (HAL_DMA_Init(&hdma_spi3_tx) != HAL_OK)
 80013f2:	480c      	ldr	r0, [pc, #48]	; (8001424 <HAL_SPI_MspInit+0xdc>)
 80013f4:	f002 fe08 	bl	8004008 <HAL_DMA_Init>
 80013f8:	4603      	mov	r3, r0
 80013fa:	2b00      	cmp	r3, #0
 80013fc:	d001      	beq.n	8001402 <HAL_SPI_MspInit+0xba>
    {
      Error_Handler();
 80013fe:	f7ff ff27 	bl	8001250 <Error_Handler>
    }

    __HAL_LINKDMA(spiHandle,hdmatx,hdma_spi3_tx);
 8001402:	687b      	ldr	r3, [r7, #4]
 8001404:	4a07      	ldr	r2, [pc, #28]	; (8001424 <HAL_SPI_MspInit+0xdc>)
 8001406:	655a      	str	r2, [r3, #84]	; 0x54
 8001408:	4a06      	ldr	r2, [pc, #24]	; (8001424 <HAL_SPI_MspInit+0xdc>)
 800140a:	687b      	ldr	r3, [r7, #4]
 800140c:	6293      	str	r3, [r2, #40]	; 0x28

  /* USER CODE BEGIN SPI3_MspInit 1 */

  /* USER CODE END SPI3_MspInit 1 */
  }
}
 800140e:	bf00      	nop
 8001410:	3728      	adds	r7, #40	; 0x28
 8001412:	46bd      	mov	sp, r7
 8001414:	bd80      	pop	{r7, pc}
 8001416:	bf00      	nop
 8001418:	40003c00 	.word	0x40003c00
 800141c:	40021000 	.word	0x40021000
 8001420:	48000800 	.word	0x48000800
 8001424:	200006bc 	.word	0x200006bc
 8001428:	40020044 	.word	0x40020044

0800142c <LL_PWR_DisableUCPDDeadBattery>:
  *         control to the UCPD (which should therefore be initialized before doing the disable).
  * @rmtoll CR3          UCPD_DBDIS           LL_PWR_DisableUCPDDeadBattery
  * @retval None
  */
__STATIC_INLINE void LL_PWR_DisableUCPDDeadBattery(void)
{
 800142c:	b480      	push	{r7}
 800142e:	af00      	add	r7, sp, #0
  SET_BIT(PWR->CR3, PWR_CR3_UCPD_DBDIS);
 8001430:	4b05      	ldr	r3, [pc, #20]	; (8001448 <LL_PWR_DisableUCPDDeadBattery+0x1c>)
 8001432:	689b      	ldr	r3, [r3, #8]
 8001434:	4a04      	ldr	r2, [pc, #16]	; (8001448 <LL_PWR_DisableUCPDDeadBattery+0x1c>)
 8001436:	f443 4380 	orr.w	r3, r3, #16384	; 0x4000
 800143a:	6093      	str	r3, [r2, #8]
}
 800143c:	bf00      	nop
 800143e:	46bd      	mov	sp, r7
 8001440:	f85d 7b04 	ldr.w	r7, [sp], #4
 8001444:	4770      	bx	lr
 8001446:	bf00      	nop
 8001448:	40007000 	.word	0x40007000

0800144c <HAL_MspInit>:
/* USER CODE END 0 */
/**
  * Initializes the Global MSP.
  */
void HAL_MspInit(void)
{
 800144c:	b580      	push	{r7, lr}
 800144e:	b082      	sub	sp, #8
 8001450:	af00      	add	r7, sp, #0
  /* USER CODE BEGIN MspInit 0 */

  /* USER CODE END MspInit 0 */

  __HAL_RCC_SYSCFG_CLK_ENABLE();
 8001452:	4b0f      	ldr	r3, [pc, #60]	; (8001490 <HAL_MspInit+0x44>)
 8001454:	6e1b      	ldr	r3, [r3, #96]	; 0x60
 8001456:	4a0e      	ldr	r2, [pc, #56]	; (8001490 <HAL_MspInit+0x44>)
 8001458:	f043 0301 	orr.w	r3, r3, #1
 800145c:	6613      	str	r3, [r2, #96]	; 0x60
 800145e:	4b0c      	ldr	r3, [pc, #48]	; (8001490 <HAL_MspInit+0x44>)
 8001460:	6e1b      	ldr	r3, [r3, #96]	; 0x60
 8001462:	f003 0301 	and.w	r3, r3, #1
 8001466:	607b      	str	r3, [r7, #4]
 8001468:	687b      	ldr	r3, [r7, #4]
  __HAL_RCC_PWR_CLK_ENABLE();
 800146a:	4b09      	ldr	r3, [pc, #36]	; (8001490 <HAL_MspInit+0x44>)
 800146c:	6d9b      	ldr	r3, [r3, #88]	; 0x58
 800146e:	4a08      	ldr	r2, [pc, #32]	; (8001490 <HAL_MspInit+0x44>)
 8001470:	f043 5380 	orr.w	r3, r3, #268435456	; 0x10000000
 8001474:	6593      	str	r3, [r2, #88]	; 0x58
 8001476:	4b06      	ldr	r3, [pc, #24]	; (8001490 <HAL_MspInit+0x44>)
 8001478:	6d9b      	ldr	r3, [r3, #88]	; 0x58
 800147a:	f003 5380 	and.w	r3, r3, #268435456	; 0x10000000
 800147e:	603b      	str	r3, [r7, #0]
 8001480:	683b      	ldr	r3, [r7, #0]

  /* System interrupt init*/

  /** Disable the internal Pull-Up in Dead Battery pins of UCPD peripheral 
  */
  LL_PWR_DisableDeadBatteryPD();
 8001482:	f7ff ffd3 	bl	800142c <LL_PWR_DisableUCPDDeadBattery>

  /* USER CODE BEGIN MspInit 1 */

  /* USER CODE END MspInit 1 */
}
 8001486:	bf00      	nop
 8001488:	3708      	adds	r7, #8
 800148a:	46bd      	mov	sp, r7
 800148c:	bd80      	pop	{r7, pc}
 800148e:	bf00      	nop
 8001490:	40021000 	.word	0x40021000

08001494 <LL_EXTI_IsActiveFlag_0_31>:
  * @note   (*): Available in some devices
  * @note   Please check each device line mapping for EXTI Line availability
  * @retval State of bit (1 or 0).
  */
__STATIC_INLINE uint32_t LL_EXTI_IsActiveFlag_0_31(uint32_t ExtiLine)
{
 8001494:	b480      	push	{r7}
 8001496:	b083      	sub	sp, #12
 8001498:	af00      	add	r7, sp, #0
 800149a:	6078      	str	r0, [r7, #4]
  return ((READ_BIT(EXTI->PR1, ExtiLine) == (ExtiLine)) ? 1UL : 0UL);
 800149c:	4b07      	ldr	r3, [pc, #28]	; (80014bc <LL_EXTI_IsActiveFlag_0_31+0x28>)
 800149e:	695a      	ldr	r2, [r3, #20]
 80014a0:	687b      	ldr	r3, [r7, #4]
 80014a2:	4013      	ands	r3, r2
 80014a4:	687a      	ldr	r2, [r7, #4]
 80014a6:	429a      	cmp	r2, r3
 80014a8:	d101      	bne.n	80014ae <LL_EXTI_IsActiveFlag_0_31+0x1a>
 80014aa:	2301      	movs	r3, #1
 80014ac:	e000      	b.n	80014b0 <LL_EXTI_IsActiveFlag_0_31+0x1c>
 80014ae:	2300      	movs	r3, #0
}
 80014b0:	4618      	mov	r0, r3
 80014b2:	370c      	adds	r7, #12
 80014b4:	46bd      	mov	sp, r7
 80014b6:	f85d 7b04 	ldr.w	r7, [sp], #4
 80014ba:	4770      	bx	lr
 80014bc:	40010400 	.word	0x40010400

080014c0 <LL_EXTI_ClearFlag_0_31>:
  * @note   (*): Available in some devices
  * @note   Please check each device line mapping for EXTI Line availability
  * @retval None
  */
__STATIC_INLINE void LL_EXTI_ClearFlag_0_31(uint32_t ExtiLine)
{
 80014c0:	b480      	push	{r7}
 80014c2:	b083      	sub	sp, #12
 80014c4:	af00      	add	r7, sp, #0
 80014c6:	6078      	str	r0, [r7, #4]
  WRITE_REG(EXTI->PR1, ExtiLine);
 80014c8:	4a04      	ldr	r2, [pc, #16]	; (80014dc <LL_EXTI_ClearFlag_0_31+0x1c>)
 80014ca:	687b      	ldr	r3, [r7, #4]
 80014cc:	6153      	str	r3, [r2, #20]
}
 80014ce:	bf00      	nop
 80014d0:	370c      	adds	r7, #12
 80014d2:	46bd      	mov	sp, r7
 80014d4:	f85d 7b04 	ldr.w	r7, [sp], #4
 80014d8:	4770      	bx	lr
 80014da:	bf00      	nop
 80014dc:	40010400 	.word	0x40010400

080014e0 <NMI_Handler>:
/******************************************************************************/
/**
  * @brief This function handles Non maskable interrupt.
  */
void NMI_Handler(void)
{
 80014e0:	b480      	push	{r7}
 80014e2:	af00      	add	r7, sp, #0

  /* USER CODE END NonMaskableInt_IRQn 0 */
  /* USER CODE BEGIN NonMaskableInt_IRQn 1 */

  /* USER CODE END NonMaskableInt_IRQn 1 */
}
 80014e4:	bf00      	nop
 80014e6:	46bd      	mov	sp, r7
 80014e8:	f85d 7b04 	ldr.w	r7, [sp], #4
 80014ec:	4770      	bx	lr

080014ee <HardFault_Handler>:

/**
  * @brief This function handles Hard fault interrupt.
  */
void HardFault_Handler(void)
{
 80014ee:	b480      	push	{r7}
 80014f0:	af00      	add	r7, sp, #0
  /* USER CODE BEGIN HardFault_IRQn 0 */

  /* USER CODE END HardFault_IRQn 0 */
  while (1)
 80014f2:	e7fe      	b.n	80014f2 <HardFault_Handler+0x4>

080014f4 <MemManage_Handler>:

/**
  * @brief This function handles Memory management fault.
  */
void MemManage_Handler(void)
{
 80014f4:	b480      	push	{r7}
 80014f6:	af00      	add	r7, sp, #0
  /* USER CODE BEGIN MemoryManagement_IRQn 0 */

  /* USER CODE END MemoryManagement_IRQn 0 */
  while (1)
 80014f8:	e7fe      	b.n	80014f8 <MemManage_Handler+0x4>

080014fa <BusFault_Handler>:

/**
  * @brief This function handles Prefetch fault, memory access fault.
  */
void BusFault_Handler(void)
{
 80014fa:	b480      	push	{r7}
 80014fc:	af00      	add	r7, sp, #0
  /* USER CODE BEGIN BusFault_IRQn 0 */

  /* USER CODE END BusFault_IRQn 0 */
  while (1)
 80014fe:	e7fe      	b.n	80014fe <BusFault_Handler+0x4>

08001500 <UsageFault_Handler>:

/**
  * @brief This function handles Undefined instruction or illegal state.
  */
void UsageFault_Handler(void)
{
 8001500:	b480      	push	{r7}
 8001502:	af00      	add	r7, sp, #0
  /* USER CODE BEGIN UsageFault_IRQn 0 */

  /* USER CODE END UsageFault_IRQn 0 */
  while (1)
 8001504:	e7fe      	b.n	8001504 <UsageFault_Handler+0x4>

08001506 <SVC_Handler>:

/**
  * @brief This function handles System service call via SWI instruction.
  */
void SVC_Handler(void)
{
 8001506:	b480      	push	{r7}
 8001508:	af00      	add	r7, sp, #0

  /* USER CODE END SVCall_IRQn 0 */
  /* USER CODE BEGIN SVCall_IRQn 1 */

  /* USER CODE END SVCall_IRQn 1 */
}
 800150a:	bf00      	nop
 800150c:	46bd      	mov	sp, r7
 800150e:	f85d 7b04 	ldr.w	r7, [sp], #4
 8001512:	4770      	bx	lr

08001514 <DebugMon_Handler>:

/**
  * @brief This function handles Debug monitor.
  */
void DebugMon_Handler(void)
{
 8001514:	b480      	push	{r7}
 8001516:	af00      	add	r7, sp, #0

  /* USER CODE END DebugMonitor_IRQn 0 */
  /* USER CODE BEGIN DebugMonitor_IRQn 1 */

  /* USER CODE END DebugMonitor_IRQn 1 */
}
 8001518:	bf00      	nop
 800151a:	46bd      	mov	sp, r7
 800151c:	f85d 7b04 	ldr.w	r7, [sp], #4
 8001520:	4770      	bx	lr

08001522 <PendSV_Handler>:

/**
  * @brief This function handles Pendable request for system service.
  */
void PendSV_Handler(void)
{
 8001522:	b480      	push	{r7}
 8001524:	af00      	add	r7, sp, #0

  /* USER CODE END PendSV_IRQn 0 */
  /* USER CODE BEGIN PendSV_IRQn 1 */

  /* USER CODE END PendSV_IRQn 1 */
}
 8001526:	bf00      	nop
 8001528:	46bd      	mov	sp, r7
 800152a:	f85d 7b04 	ldr.w	r7, [sp], #4
 800152e:	4770      	bx	lr

08001530 <SysTick_Handler>:

/**
  * @brief This function handles System tick timer.
  */
void SysTick_Handler(void)
{
 8001530:	b580      	push	{r7, lr}
 8001532:	af00      	add	r7, sp, #0
  /* USER CODE BEGIN SysTick_IRQn 0 */

  /* USER CODE END SysTick_IRQn 0 */
  HAL_IncTick();
 8001534:	f000 fd26 	bl	8001f84 <HAL_IncTick>
  /* USER CODE BEGIN SysTick_IRQn 1 */

  /* USER CODE END SysTick_IRQn 1 */
}
 8001538:	bf00      	nop
 800153a:	bd80      	pop	{r7, pc}

0800153c <EXTI0_IRQHandler>:

/**
  * @brief This function handles EXTI line0 interrupt.
  */
void EXTI0_IRQHandler(void)
{
 800153c:	b580      	push	{r7, lr}
 800153e:	af00      	add	r7, sp, #0
  /* USER CODE BEGIN EXTI0_IRQn 0 */

//	if(HAL_GPIO_ReadPin(BTN3_EXTI0_GPIO_Port, BTN3_EXTI0_Pin))
//	{
		snprintf(control_pressed, sizeof(control_pressed), "BTN3");
 8001540:	4b09      	ldr	r3, [pc, #36]	; (8001568 <EXTI0_IRQHandler+0x2c>)
 8001542:	4a0a      	ldr	r2, [pc, #40]	; (800156c <EXTI0_IRQHandler+0x30>)
 8001544:	6810      	ldr	r0, [r2, #0]
 8001546:	6018      	str	r0, [r3, #0]
 8001548:	7912      	ldrb	r2, [r2, #4]
 800154a:	711a      	strb	r2, [r3, #4]
 		printf("BTN3_EXTI0_Pin\n");
 800154c:	4808      	ldr	r0, [pc, #32]	; (8001570 <EXTI0_IRQHandler+0x34>)
 800154e:	f007 f85d 	bl	800860c <puts>
//	}

  /* USER CODE END EXTI0_IRQn 0 */
  if (LL_EXTI_IsActiveFlag_0_31(LL_EXTI_LINE_0) != RESET)
 8001552:	2001      	movs	r0, #1
 8001554:	f7ff ff9e 	bl	8001494 <LL_EXTI_IsActiveFlag_0_31>
 8001558:	4603      	mov	r3, r0
 800155a:	2b00      	cmp	r3, #0
 800155c:	d002      	beq.n	8001564 <EXTI0_IRQHandler+0x28>
  {
    LL_EXTI_ClearFlag_0_31(LL_EXTI_LINE_0);
 800155e:	2001      	movs	r0, #1
 8001560:	f7ff ffae 	bl	80014c0 <LL_EXTI_ClearFlag_0_31>
    /* USER CODE END LL_EXTI_LINE_0 */
  }
  /* USER CODE BEGIN EXTI0_IRQn 1 */

  /* USER CODE END EXTI0_IRQn 1 */
}
 8001564:	bf00      	nop
 8001566:	bd80      	pop	{r7, pc}
 8001568:	20000474 	.word	0x20000474
 800156c:	080093d8 	.word	0x080093d8
 8001570:	080093e0 	.word	0x080093e0

08001574 <EXTI1_IRQHandler>:

/**
  * @brief This function handles EXTI line1 interrupt.
  */
void EXTI1_IRQHandler(void)
{
 8001574:	b580      	push	{r7, lr}
 8001576:	af00      	add	r7, sp, #0
  /* USER CODE BEGIN EXTI1_IRQn 0 */

//	if(HAL_GPIO_ReadPin(BTN4_EXTI1_GPIO_Port, BTN4_EXTI1_Pin))
//	{
		snprintf(control_pressed, sizeof(control_pressed), "BTN4");
 8001578:	4b09      	ldr	r3, [pc, #36]	; (80015a0 <EXTI1_IRQHandler+0x2c>)
 800157a:	4a0a      	ldr	r2, [pc, #40]	; (80015a4 <EXTI1_IRQHandler+0x30>)
 800157c:	6810      	ldr	r0, [r2, #0]
 800157e:	6018      	str	r0, [r3, #0]
 8001580:	7912      	ldrb	r2, [r2, #4]
 8001582:	711a      	strb	r2, [r3, #4]
		printf("BTN4_EXTI1_Pin\n");
 8001584:	4808      	ldr	r0, [pc, #32]	; (80015a8 <EXTI1_IRQHandler+0x34>)
 8001586:	f007 f841 	bl	800860c <puts>
//	}

  /* USER CODE END EXTI1_IRQn 0 */
  if (LL_EXTI_IsActiveFlag_0_31(LL_EXTI_LINE_1) != RESET)
 800158a:	2002      	movs	r0, #2
 800158c:	f7ff ff82 	bl	8001494 <LL_EXTI_IsActiveFlag_0_31>
 8001590:	4603      	mov	r3, r0
 8001592:	2b00      	cmp	r3, #0
 8001594:	d002      	beq.n	800159c <EXTI1_IRQHandler+0x28>
  {
    LL_EXTI_ClearFlag_0_31(LL_EXTI_LINE_1);
 8001596:	2002      	movs	r0, #2
 8001598:	f7ff ff92 	bl	80014c0 <LL_EXTI_ClearFlag_0_31>
    /* USER CODE END LL_EXTI_LINE_1 */
  }
  /* USER CODE BEGIN EXTI1_IRQn 1 */

  /* USER CODE END EXTI1_IRQn 1 */
}
 800159c:	bf00      	nop
 800159e:	bd80      	pop	{r7, pc}
 80015a0:	20000474 	.word	0x20000474
 80015a4:	080093f0 	.word	0x080093f0
 80015a8:	080093f8 	.word	0x080093f8

080015ac <EXTI2_IRQHandler>:

/**
  * @brief This function handles EXTI line2 interrupt.
  */
void EXTI2_IRQHandler(void)
{
 80015ac:	b580      	push	{r7, lr}
 80015ae:	af00      	add	r7, sp, #0
  /* USER CODE BEGIN EXTI2_IRQn 0 */


		snprintf(control_pressed, sizeof(control_pressed), "ENC_BTN");
 80015b0:	4a09      	ldr	r2, [pc, #36]	; (80015d8 <EXTI2_IRQHandler+0x2c>)
 80015b2:	4b0a      	ldr	r3, [pc, #40]	; (80015dc <EXTI2_IRQHandler+0x30>)
 80015b4:	cb03      	ldmia	r3!, {r0, r1}
 80015b6:	6010      	str	r0, [r2, #0]
 80015b8:	6051      	str	r1, [r2, #4]
		printf("ENC_EXTI2_Pin\n");
 80015ba:	4809      	ldr	r0, [pc, #36]	; (80015e0 <EXTI2_IRQHandler+0x34>)
 80015bc:	f007 f826 	bl	800860c <puts>


  /* USER CODE END EXTI2_IRQn 0 */
  if (LL_EXTI_IsActiveFlag_0_31(LL_EXTI_LINE_2) != RESET)
 80015c0:	2004      	movs	r0, #4
 80015c2:	f7ff ff67 	bl	8001494 <LL_EXTI_IsActiveFlag_0_31>
 80015c6:	4603      	mov	r3, r0
 80015c8:	2b00      	cmp	r3, #0
 80015ca:	d002      	beq.n	80015d2 <EXTI2_IRQHandler+0x26>
  {
    LL_EXTI_ClearFlag_0_31(LL_EXTI_LINE_2);
 80015cc:	2004      	movs	r0, #4
 80015ce:	f7ff ff77 	bl	80014c0 <LL_EXTI_ClearFlag_0_31>
    /* USER CODE END LL_EXTI_LINE_2 */
  }
  /* USER CODE BEGIN EXTI2_IRQn 1 */

  /* USER CODE END EXTI2_IRQn 1 */
}
 80015d2:	bf00      	nop
 80015d4:	bd80      	pop	{r7, pc}
 80015d6:	bf00      	nop
 80015d8:	20000474 	.word	0x20000474
 80015dc:	08009408 	.word	0x08009408
 80015e0:	08009410 	.word	0x08009410

080015e4 <DMA1_Channel1_IRQHandler>:

/**
  * @brief This function handles DMA1 channel1 global interrupt.
  */
void DMA1_Channel1_IRQHandler(void)
{
 80015e4:	b580      	push	{r7, lr}
 80015e6:	af00      	add	r7, sp, #0
  /* USER CODE BEGIN DMA1_Channel1_IRQn 0 */
	//printf("Test\n");
	//printf("%lu\n", trigger_input[0]);
  /* USER CODE END DMA1_Channel1_IRQn 0 */
  HAL_DMA_IRQHandler(&hdma_adc1);
 80015e8:	4802      	ldr	r0, [pc, #8]	; (80015f4 <DMA1_Channel1_IRQHandler+0x10>)
 80015ea:	f002 fe30 	bl	800424e <HAL_DMA_IRQHandler>
  /* USER CODE BEGIN DMA1_Channel1_IRQn 1 */

  /* USER CODE END DMA1_Channel1_IRQn 1 */
}
 80015ee:	bf00      	nop
 80015f0:	bd80      	pop	{r7, pc}
 80015f2:	bf00      	nop
 80015f4:	200004ec 	.word	0x200004ec

080015f8 <DMA1_Channel2_IRQHandler>:

/**
  * @brief This function handles DMA1 channel2 global interrupt.
  */
void DMA1_Channel2_IRQHandler(void)
{
 80015f8:	b580      	push	{r7, lr}
 80015fa:	af00      	add	r7, sp, #0
  /* USER CODE BEGIN DMA1_Channel2_IRQn 0 */

  /* USER CODE END DMA1_Channel2_IRQn 0 */
  HAL_DMA_IRQHandler(&hdma_dac1_ch1);
 80015fc:	4802      	ldr	r0, [pc, #8]	; (8001608 <DMA1_Channel2_IRQHandler+0x10>)
 80015fe:	f002 fe26 	bl	800424e <HAL_DMA_IRQHandler>
  /* USER CODE BEGIN DMA1_Channel2_IRQn 1 */

  /* USER CODE END DMA1_Channel2_IRQn 1 */
}
 8001602:	bf00      	nop
 8001604:	bd80      	pop	{r7, pc}
 8001606:	bf00      	nop
 8001608:	20000598 	.word	0x20000598

0800160c <DMA1_Channel3_IRQHandler>:

/**
  * @brief This function handles DMA1 channel3 global interrupt.
  */
void DMA1_Channel3_IRQHandler(void)
{
 800160c:	b580      	push	{r7, lr}
 800160e:	af00      	add	r7, sp, #0
  /* USER CODE BEGIN DMA1_Channel3_IRQn 0 */

  /* USER CODE END DMA1_Channel3_IRQn 0 */
  HAL_DMA_IRQHandler(&hdma_dac2_ch1);
 8001610:	4802      	ldr	r0, [pc, #8]	; (800161c <DMA1_Channel3_IRQHandler+0x10>)
 8001612:	f002 fe1c 	bl	800424e <HAL_DMA_IRQHandler>
  /* USER CODE BEGIN DMA1_Channel3_IRQn 1 */

  /* USER CODE END DMA1_Channel3_IRQn 1 */
}
 8001616:	bf00      	nop
 8001618:	bd80      	pop	{r7, pc}
 800161a:	bf00      	nop
 800161c:	200005f8 	.word	0x200005f8

08001620 <DMA1_Channel4_IRQHandler>:

/**
  * @brief This function handles DMA1 channel4 global interrupt.
  */
void DMA1_Channel4_IRQHandler(void)
{
 8001620:	b580      	push	{r7, lr}
 8001622:	af00      	add	r7, sp, #0
  /* USER CODE BEGIN DMA1_Channel4_IRQn 0 */

  /* USER CODE END DMA1_Channel4_IRQn 0 */
  HAL_DMA_IRQHandler(&hdma_spi3_tx);
 8001624:	4802      	ldr	r0, [pc, #8]	; (8001630 <DMA1_Channel4_IRQHandler+0x10>)
 8001626:	f002 fe12 	bl	800424e <HAL_DMA_IRQHandler>
  /* USER CODE BEGIN DMA1_Channel4_IRQn 1 */

  /* USER CODE END DMA1_Channel4_IRQn 1 */
}
 800162a:	bf00      	nop
 800162c:	bd80      	pop	{r7, pc}
 800162e:	bf00      	nop
 8001630:	200006bc 	.word	0x200006bc

08001634 <TIM1_BRK_TIM15_IRQHandler>:

/**
  * @brief This function handles TIM1 break interrupt and TIM15 global interrupt.
  */
void TIM1_BRK_TIM15_IRQHandler(void)
{
 8001634:	b580      	push	{r7, lr}
 8001636:	af00      	add	r7, sp, #0
  /* USER CODE BEGIN TIM1_BRK_TIM15_IRQn 0 */
	dm_update_display();
 8001638:	f7fe fe42 	bl	80002c0 <dm_update_display>
  /* USER CODE END TIM1_BRK_TIM15_IRQn 0 */
  HAL_TIM_IRQHandler(&htim1);
 800163c:	4803      	ldr	r0, [pc, #12]	; (800164c <TIM1_BRK_TIM15_IRQHandler+0x18>)
 800163e:	f004 ff01 	bl	8006444 <HAL_TIM_IRQHandler>
  HAL_TIM_IRQHandler(&htim15);
 8001642:	4803      	ldr	r0, [pc, #12]	; (8001650 <TIM1_BRK_TIM15_IRQHandler+0x1c>)
 8001644:	f004 fefe 	bl	8006444 <HAL_TIM_IRQHandler>
  /* USER CODE BEGIN TIM1_BRK_TIM15_IRQn 1 */

  /* USER CODE END TIM1_BRK_TIM15_IRQn 1 */
}
 8001648:	bf00      	nop
 800164a:	bd80      	pop	{r7, pc}
 800164c:	20000800 	.word	0x20000800
 8001650:	20000768 	.word	0x20000768

08001654 <TIM1_UP_TIM16_IRQHandler>:

/**
  * @brief This function handles TIM1 update interrupt and TIM16 global interrupt.
  */
void TIM1_UP_TIM16_IRQHandler(void)
{
 8001654:	b580      	push	{r7, lr}
 8001656:	af00      	add	r7, sp, #0
  /* USER CODE BEGIN TIM1_UP_TIM16_IRQn 0 */
	snprintf(control_pressed, sizeof(control_pressed), " ");
 8001658:	4a05      	ldr	r2, [pc, #20]	; (8001670 <TIM1_UP_TIM16_IRQHandler+0x1c>)
 800165a:	4b06      	ldr	r3, [pc, #24]	; (8001674 <TIM1_UP_TIM16_IRQHandler+0x20>)
 800165c:	881b      	ldrh	r3, [r3, #0]
 800165e:	8013      	strh	r3, [r2, #0]
  /* USER CODE END TIM1_UP_TIM16_IRQn 0 */
  HAL_TIM_IRQHandler(&htim1);
 8001660:	4805      	ldr	r0, [pc, #20]	; (8001678 <TIM1_UP_TIM16_IRQHandler+0x24>)
 8001662:	f004 feef 	bl	8006444 <HAL_TIM_IRQHandler>
  HAL_TIM_IRQHandler(&htim16);
 8001666:	4805      	ldr	r0, [pc, #20]	; (800167c <TIM1_UP_TIM16_IRQHandler+0x28>)
 8001668:	f004 feec 	bl	8006444 <HAL_TIM_IRQHandler>
  /* USER CODE BEGIN TIM1_UP_TIM16_IRQn 1 */

  /* USER CODE END TIM1_UP_TIM16_IRQn 1 */
}
 800166c:	bf00      	nop
 800166e:	bd80      	pop	{r7, pc}
 8001670:	20000474 	.word	0x20000474
 8001674:	08009420 	.word	0x08009420
 8001678:	20000800 	.word	0x20000800
 800167c:	20000898 	.word	0x20000898

08001680 <TIM1_TRG_COM_TIM17_IRQHandler>:

/**
  * @brief This function handles TIM1 trigger and commutation interrupts and TIM17 global interrupt.
  */
void TIM1_TRG_COM_TIM17_IRQHandler(void)
{
 8001680:	b580      	push	{r7, lr}
 8001682:	af00      	add	r7, sp, #0
  /* USER CODE BEGIN TIM1_TRG_COM_TIM17_IRQn 0 */
	update_dc_bias_sweep();
 8001684:	f7ff f938 	bl	80008f8 <update_dc_bias_sweep>
	if((TIM1->CNT < last_enc_value) || (TIM1->CNT > last_enc_value))
 8001688:	4b11      	ldr	r3, [pc, #68]	; (80016d0 <TIM1_TRG_COM_TIM17_IRQHandler+0x50>)
 800168a:	6a5b      	ldr	r3, [r3, #36]	; 0x24
 800168c:	4a11      	ldr	r2, [pc, #68]	; (80016d4 <TIM1_TRG_COM_TIM17_IRQHandler+0x54>)
 800168e:	8812      	ldrh	r2, [r2, #0]
 8001690:	4293      	cmp	r3, r2
 8001692:	d305      	bcc.n	80016a0 <TIM1_TRG_COM_TIM17_IRQHandler+0x20>
 8001694:	4b0e      	ldr	r3, [pc, #56]	; (80016d0 <TIM1_TRG_COM_TIM17_IRQHandler+0x50>)
 8001696:	6a5b      	ldr	r3, [r3, #36]	; 0x24
 8001698:	4a0e      	ldr	r2, [pc, #56]	; (80016d4 <TIM1_TRG_COM_TIM17_IRQHandler+0x54>)
 800169a:	8812      	ldrh	r2, [r2, #0]
 800169c:	4293      	cmp	r3, r2
 800169e:	d90a      	bls.n	80016b6 <TIM1_TRG_COM_TIM17_IRQHandler+0x36>
	{
		printf("%lu\n",TIM1->CNT);
 80016a0:	4b0b      	ldr	r3, [pc, #44]	; (80016d0 <TIM1_TRG_COM_TIM17_IRQHandler+0x50>)
 80016a2:	6a5b      	ldr	r3, [r3, #36]	; 0x24
 80016a4:	4619      	mov	r1, r3
 80016a6:	480c      	ldr	r0, [pc, #48]	; (80016d8 <TIM1_TRG_COM_TIM17_IRQHandler+0x58>)
 80016a8:	f006 ff3c 	bl	8008524 <iprintf>
		new_enc_value = TIM1->CNT;
 80016ac:	4b08      	ldr	r3, [pc, #32]	; (80016d0 <TIM1_TRG_COM_TIM17_IRQHandler+0x50>)
 80016ae:	6a5b      	ldr	r3, [r3, #36]	; 0x24
 80016b0:	b29a      	uxth	r2, r3
 80016b2:	4b0a      	ldr	r3, [pc, #40]	; (80016dc <TIM1_TRG_COM_TIM17_IRQHandler+0x5c>)
 80016b4:	801a      	strh	r2, [r3, #0]
	}


	last_enc_value = TIM1->CNT;
 80016b6:	4b06      	ldr	r3, [pc, #24]	; (80016d0 <TIM1_TRG_COM_TIM17_IRQHandler+0x50>)
 80016b8:	6a5b      	ldr	r3, [r3, #36]	; 0x24
 80016ba:	b29a      	uxth	r2, r3
 80016bc:	4b05      	ldr	r3, [pc, #20]	; (80016d4 <TIM1_TRG_COM_TIM17_IRQHandler+0x54>)
 80016be:	801a      	strh	r2, [r3, #0]


  /* USER CODE END TIM1_TRG_COM_TIM17_IRQn 0 */
  HAL_TIM_IRQHandler(&htim1);
 80016c0:	4807      	ldr	r0, [pc, #28]	; (80016e0 <TIM1_TRG_COM_TIM17_IRQHandler+0x60>)
 80016c2:	f004 febf 	bl	8006444 <HAL_TIM_IRQHandler>
  HAL_TIM_IRQHandler(&htim17);
 80016c6:	4807      	ldr	r0, [pc, #28]	; (80016e4 <TIM1_TRG_COM_TIM17_IRQHandler+0x64>)
 80016c8:	f004 febc 	bl	8006444 <HAL_TIM_IRQHandler>
  /* USER CODE BEGIN TIM1_TRG_COM_TIM17_IRQn 1 */

  /* USER CODE END TIM1_TRG_COM_TIM17_IRQn 1 */
}
 80016cc:	bf00      	nop
 80016ce:	bd80      	pop	{r7, pc}
 80016d0:	40012c00 	.word	0x40012c00
 80016d4:	20000464 	.word	0x20000464
 80016d8:	08009424 	.word	0x08009424
 80016dc:	20000466 	.word	0x20000466
 80016e0:	20000800 	.word	0x20000800
 80016e4:	200007b4 	.word	0x200007b4

080016e8 <TIM2_IRQHandler>:

/**
  * @brief This function handles TIM2 global interrupt.
  */
void TIM2_IRQHandler(void)
{
 80016e8:	b580      	push	{r7, lr}
 80016ea:	af00      	add	r7, sp, #0
  /* USER CODE BEGIN TIM2_IRQn 0 */

  /* USER CODE END TIM2_IRQn 0 */
  HAL_TIM_IRQHandler(&htim2);
 80016ec:	4802      	ldr	r0, [pc, #8]	; (80016f8 <TIM2_IRQHandler+0x10>)
 80016ee:	f004 fea9 	bl	8006444 <HAL_TIM_IRQHandler>
  /* USER CODE BEGIN TIM2_IRQn 1 */

  /* USER CODE END TIM2_IRQn 1 */
}
 80016f2:	bf00      	nop
 80016f4:	bd80      	pop	{r7, pc}
 80016f6:	bf00      	nop
 80016f8:	2000084c 	.word	0x2000084c

080016fc <EXTI15_10_IRQHandler>:

/**
  * @brief This function handles EXTI line[15:10] interrupts.
  */
void EXTI15_10_IRQHandler(void)
{
 80016fc:	b580      	push	{r7, lr}
 80016fe:	af00      	add	r7, sp, #0
  /* USER CODE BEGIN EXTI15_10_IRQn 0 */

	if(HAL_GPIO_ReadPin(BTN1_EXTI14_GPIO_Port, BTN1_EXTI14_Pin))
 8001700:	f44f 4180 	mov.w	r1, #16384	; 0x4000
 8001704:	481b      	ldr	r0, [pc, #108]	; (8001774 <EXTI15_10_IRQHandler+0x78>)
 8001706:	f003 f873 	bl	80047f0 <HAL_GPIO_ReadPin>
 800170a:	4603      	mov	r3, r0
 800170c:	2b00      	cmp	r3, #0
 800170e:	d008      	beq.n	8001722 <EXTI15_10_IRQHandler+0x26>
	{
		snprintf(control_pressed, sizeof(control_pressed), "BTN1");
 8001710:	4b19      	ldr	r3, [pc, #100]	; (8001778 <EXTI15_10_IRQHandler+0x7c>)
 8001712:	4a1a      	ldr	r2, [pc, #104]	; (800177c <EXTI15_10_IRQHandler+0x80>)
 8001714:	6810      	ldr	r0, [r2, #0]
 8001716:	6018      	str	r0, [r3, #0]
 8001718:	7912      	ldrb	r2, [r2, #4]
 800171a:	711a      	strb	r2, [r3, #4]
		printf("BTN1_EXTI14_Pin\n");
 800171c:	4818      	ldr	r0, [pc, #96]	; (8001780 <EXTI15_10_IRQHandler+0x84>)
 800171e:	f006 ff75 	bl	800860c <puts>
	}
	if(HAL_GPIO_ReadPin(BTN2_EXTI15_GPIO_Port, BTN2_EXTI15_Pin))
 8001722:	f44f 4100 	mov.w	r1, #32768	; 0x8000
 8001726:	4813      	ldr	r0, [pc, #76]	; (8001774 <EXTI15_10_IRQHandler+0x78>)
 8001728:	f003 f862 	bl	80047f0 <HAL_GPIO_ReadPin>
 800172c:	4603      	mov	r3, r0
 800172e:	2b00      	cmp	r3, #0
 8001730:	d008      	beq.n	8001744 <EXTI15_10_IRQHandler+0x48>
	{
		snprintf(control_pressed, sizeof(control_pressed), "BTN2");
 8001732:	4b11      	ldr	r3, [pc, #68]	; (8001778 <EXTI15_10_IRQHandler+0x7c>)
 8001734:	4a13      	ldr	r2, [pc, #76]	; (8001784 <EXTI15_10_IRQHandler+0x88>)
 8001736:	6810      	ldr	r0, [r2, #0]
 8001738:	6018      	str	r0, [r3, #0]
 800173a:	7912      	ldrb	r2, [r2, #4]
 800173c:	711a      	strb	r2, [r3, #4]
		printf("BTN2_EXTI15_Pin\n");
 800173e:	4812      	ldr	r0, [pc, #72]	; (8001788 <EXTI15_10_IRQHandler+0x8c>)
 8001740:	f006 ff64 	bl	800860c <puts>
	}

  /* USER CODE END EXTI15_10_IRQn 0 */
  if (LL_EXTI_IsActiveFlag_0_31(LL_EXTI_LINE_14) != RESET)
 8001744:	f44f 4080 	mov.w	r0, #16384	; 0x4000
 8001748:	f7ff fea4 	bl	8001494 <LL_EXTI_IsActiveFlag_0_31>
 800174c:	4603      	mov	r3, r0
 800174e:	2b00      	cmp	r3, #0
 8001750:	d003      	beq.n	800175a <EXTI15_10_IRQHandler+0x5e>
  {
    LL_EXTI_ClearFlag_0_31(LL_EXTI_LINE_14);
 8001752:	f44f 4080 	mov.w	r0, #16384	; 0x4000
 8001756:	f7ff feb3 	bl	80014c0 <LL_EXTI_ClearFlag_0_31>
    /* USER CODE BEGIN LL_EXTI_LINE_14 */
    
    /* USER CODE END LL_EXTI_LINE_14 */
  }
  if (LL_EXTI_IsActiveFlag_0_31(LL_EXTI_LINE_15) != RESET)
 800175a:	f44f 4000 	mov.w	r0, #32768	; 0x8000
 800175e:	f7ff fe99 	bl	8001494 <LL_EXTI_IsActiveFlag_0_31>
 8001762:	4603      	mov	r3, r0
 8001764:	2b00      	cmp	r3, #0
 8001766:	d003      	beq.n	8001770 <EXTI15_10_IRQHandler+0x74>
  {
    LL_EXTI_ClearFlag_0_31(LL_EXTI_LINE_15);
 8001768:	f44f 4000 	mov.w	r0, #32768	; 0x8000
 800176c:	f7ff fea8 	bl	80014c0 <LL_EXTI_ClearFlag_0_31>
    /* USER CODE END LL_EXTI_LINE_15 */
  }
  /* USER CODE BEGIN EXTI15_10_IRQn 1 */

  /* USER CODE END EXTI15_10_IRQn 1 */
}
 8001770:	bf00      	nop
 8001772:	bd80      	pop	{r7, pc}
 8001774:	48000800 	.word	0x48000800
 8001778:	20000474 	.word	0x20000474
 800177c:	0800942c 	.word	0x0800942c
 8001780:	08009434 	.word	0x08009434
 8001784:	08009444 	.word	0x08009444
 8001788:	0800944c 	.word	0x0800944c

0800178c <_read>:
	_kill(status, -1);
	while (1) {}		/* Make sure we hang here */
}

__attribute__((weak)) int _read(int file, char *ptr, int len)
{
 800178c:	b580      	push	{r7, lr}
 800178e:	b086      	sub	sp, #24
 8001790:	af00      	add	r7, sp, #0
 8001792:	60f8      	str	r0, [r7, #12]
 8001794:	60b9      	str	r1, [r7, #8]
 8001796:	607a      	str	r2, [r7, #4]
	int DataIdx;

	for (DataIdx = 0; DataIdx < len; DataIdx++)
 8001798:	2300      	movs	r3, #0
 800179a:	617b      	str	r3, [r7, #20]
 800179c:	e00a      	b.n	80017b4 <_read+0x28>
	{
		*ptr++ = __io_getchar();
 800179e:	f3af 8000 	nop.w
 80017a2:	4601      	mov	r1, r0
 80017a4:	68bb      	ldr	r3, [r7, #8]
 80017a6:	1c5a      	adds	r2, r3, #1
 80017a8:	60ba      	str	r2, [r7, #8]
 80017aa:	b2ca      	uxtb	r2, r1
 80017ac:	701a      	strb	r2, [r3, #0]
	for (DataIdx = 0; DataIdx < len; DataIdx++)
 80017ae:	697b      	ldr	r3, [r7, #20]
 80017b0:	3301      	adds	r3, #1
 80017b2:	617b      	str	r3, [r7, #20]
 80017b4:	697a      	ldr	r2, [r7, #20]
 80017b6:	687b      	ldr	r3, [r7, #4]
 80017b8:	429a      	cmp	r2, r3
 80017ba:	dbf0      	blt.n	800179e <_read+0x12>
	}

return len;
 80017bc:	687b      	ldr	r3, [r7, #4]
}
 80017be:	4618      	mov	r0, r3
 80017c0:	3718      	adds	r7, #24
 80017c2:	46bd      	mov	sp, r7
 80017c4:	bd80      	pop	{r7, pc}

080017c6 <_close>:
	}
	return len;
}

int _close(int file)
{
 80017c6:	b480      	push	{r7}
 80017c8:	b083      	sub	sp, #12
 80017ca:	af00      	add	r7, sp, #0
 80017cc:	6078      	str	r0, [r7, #4]
	return -1;
 80017ce:	f04f 33ff 	mov.w	r3, #4294967295	; 0xffffffff
}
 80017d2:	4618      	mov	r0, r3
 80017d4:	370c      	adds	r7, #12
 80017d6:	46bd      	mov	sp, r7
 80017d8:	f85d 7b04 	ldr.w	r7, [sp], #4
 80017dc:	4770      	bx	lr

080017de <_fstat>:


int _fstat(int file, struct stat *st)
{
 80017de:	b480      	push	{r7}
 80017e0:	b083      	sub	sp, #12
 80017e2:	af00      	add	r7, sp, #0
 80017e4:	6078      	str	r0, [r7, #4]
 80017e6:	6039      	str	r1, [r7, #0]
	st->st_mode = S_IFCHR;
 80017e8:	683b      	ldr	r3, [r7, #0]
 80017ea:	f44f 5200 	mov.w	r2, #8192	; 0x2000
 80017ee:	605a      	str	r2, [r3, #4]
	return 0;
 80017f0:	2300      	movs	r3, #0
}
 80017f2:	4618      	mov	r0, r3
 80017f4:	370c      	adds	r7, #12
 80017f6:	46bd      	mov	sp, r7
 80017f8:	f85d 7b04 	ldr.w	r7, [sp], #4
 80017fc:	4770      	bx	lr

080017fe <_isatty>:

int _isatty(int file)
{
 80017fe:	b480      	push	{r7}
 8001800:	b083      	sub	sp, #12
 8001802:	af00      	add	r7, sp, #0
 8001804:	6078      	str	r0, [r7, #4]
	return 1;
 8001806:	2301      	movs	r3, #1
}
 8001808:	4618      	mov	r0, r3
 800180a:	370c      	adds	r7, #12
 800180c:	46bd      	mov	sp, r7
 800180e:	f85d 7b04 	ldr.w	r7, [sp], #4
 8001812:	4770      	bx	lr

08001814 <_lseek>:

int _lseek(int file, int ptr, int dir)
{
 8001814:	b480      	push	{r7}
 8001816:	b085      	sub	sp, #20
 8001818:	af00      	add	r7, sp, #0
 800181a:	60f8      	str	r0, [r7, #12]
 800181c:	60b9      	str	r1, [r7, #8]
 800181e:	607a      	str	r2, [r7, #4]
	return 0;
 8001820:	2300      	movs	r3, #0
}
 8001822:	4618      	mov	r0, r3
 8001824:	3714      	adds	r7, #20
 8001826:	46bd      	mov	sp, r7
 8001828:	f85d 7b04 	ldr.w	r7, [sp], #4
 800182c:	4770      	bx	lr
	...

08001830 <_sbrk>:
/**
 _sbrk
 Increase program data space. Malloc and related functions depend on this
**/
caddr_t _sbrk(int incr)
{
 8001830:	b580      	push	{r7, lr}
 8001832:	b084      	sub	sp, #16
 8001834:	af00      	add	r7, sp, #0
 8001836:	6078      	str	r0, [r7, #4]
	extern char end asm("end");
	static char *heap_end;
	char *prev_heap_end;

	if (heap_end == 0)
 8001838:	4b11      	ldr	r3, [pc, #68]	; (8001880 <_sbrk+0x50>)
 800183a:	681b      	ldr	r3, [r3, #0]
 800183c:	2b00      	cmp	r3, #0
 800183e:	d102      	bne.n	8001846 <_sbrk+0x16>
		heap_end = &end;
 8001840:	4b0f      	ldr	r3, [pc, #60]	; (8001880 <_sbrk+0x50>)
 8001842:	4a10      	ldr	r2, [pc, #64]	; (8001884 <_sbrk+0x54>)
 8001844:	601a      	str	r2, [r3, #0]

	prev_heap_end = heap_end;
 8001846:	4b0e      	ldr	r3, [pc, #56]	; (8001880 <_sbrk+0x50>)
 8001848:	681b      	ldr	r3, [r3, #0]
 800184a:	60fb      	str	r3, [r7, #12]
	if (heap_end + incr > stack_ptr)
 800184c:	4b0c      	ldr	r3, [pc, #48]	; (8001880 <_sbrk+0x50>)
 800184e:	681a      	ldr	r2, [r3, #0]
 8001850:	687b      	ldr	r3, [r7, #4]
 8001852:	4413      	add	r3, r2
 8001854:	466a      	mov	r2, sp
 8001856:	4293      	cmp	r3, r2
 8001858:	d907      	bls.n	800186a <_sbrk+0x3a>
	{
		errno = ENOMEM;
 800185a:	f006 fe31 	bl	80084c0 <__errno>
 800185e:	4602      	mov	r2, r0
 8001860:	230c      	movs	r3, #12
 8001862:	6013      	str	r3, [r2, #0]
		return (caddr_t) -1;
 8001864:	f04f 33ff 	mov.w	r3, #4294967295	; 0xffffffff
 8001868:	e006      	b.n	8001878 <_sbrk+0x48>
	}

	heap_end += incr;
 800186a:	4b05      	ldr	r3, [pc, #20]	; (8001880 <_sbrk+0x50>)
 800186c:	681a      	ldr	r2, [r3, #0]
 800186e:	687b      	ldr	r3, [r7, #4]
 8001870:	4413      	add	r3, r2
 8001872:	4a03      	ldr	r2, [pc, #12]	; (8001880 <_sbrk+0x50>)
 8001874:	6013      	str	r3, [r2, #0]

	return (caddr_t) prev_heap_end;
 8001876:	68fb      	ldr	r3, [r7, #12]
}
 8001878:	4618      	mov	r0, r3
 800187a:	3710      	adds	r7, #16
 800187c:	46bd      	mov	sp, r7
 800187e:	bd80      	pop	{r7, pc}
 8001880:	20000468 	.word	0x20000468
 8001884:	200008f0 	.word	0x200008f0

08001888 <SystemInit>:
  * @param  None
  * @retval None
  */

void SystemInit(void)
{
 8001888:	b480      	push	{r7}
 800188a:	af00      	add	r7, sp, #0
  /* FPU settings ------------------------------------------------------------*/
  #if (__FPU_PRESENT == 1) && (__FPU_USED == 1)
    SCB->CPACR |= ((3UL << (10*2))|(3UL << (11*2)));  /* set CP10 and CP11 Full Access */
 800188c:	4b08      	ldr	r3, [pc, #32]	; (80018b0 <SystemInit+0x28>)
 800188e:	f8d3 3088 	ldr.w	r3, [r3, #136]	; 0x88
 8001892:	4a07      	ldr	r2, [pc, #28]	; (80018b0 <SystemInit+0x28>)
 8001894:	f443 0370 	orr.w	r3, r3, #15728640	; 0xf00000
 8001898:	f8c2 3088 	str.w	r3, [r2, #136]	; 0x88

  /* Configure the Vector Table location add offset address ------------------*/
#ifdef VECT_TAB_SRAM
  SCB->VTOR = SRAM_BASE | VECT_TAB_OFFSET; /* Vector Table Relocation in Internal SRAM */
#else
  SCB->VTOR = FLASH_BASE | VECT_TAB_OFFSET; /* Vector Table Relocation in Internal FLASH */
 800189c:	4b04      	ldr	r3, [pc, #16]	; (80018b0 <SystemInit+0x28>)
 800189e:	f04f 6200 	mov.w	r2, #134217728	; 0x8000000
 80018a2:	609a      	str	r2, [r3, #8]
#endif
}
 80018a4:	bf00      	nop
 80018a6:	46bd      	mov	sp, r7
 80018a8:	f85d 7b04 	ldr.w	r7, [sp], #4
 80018ac:	4770      	bx	lr
 80018ae:	bf00      	nop
 80018b0:	e000ed00 	.word	0xe000ed00

080018b4 <MX_TIM1_Init>:
TIM_HandleTypeDef htim16;
TIM_HandleTypeDef htim17;

/* TIM1 init function */
void MX_TIM1_Init(void)
{
 80018b4:	b580      	push	{r7, lr}
 80018b6:	b09a      	sub	sp, #104	; 0x68
 80018b8:	af00      	add	r7, sp, #0
  TIM_Encoder_InitTypeDef sConfig = {0};
 80018ba:	f107 0344 	add.w	r3, r7, #68	; 0x44
 80018be:	2224      	movs	r2, #36	; 0x24
 80018c0:	2100      	movs	r1, #0
 80018c2:	4618      	mov	r0, r3
 80018c4:	f006 fe26 	bl	8008514 <memset>
  TIM_MasterConfigTypeDef sMasterConfig = {0};
 80018c8:	f107 0338 	add.w	r3, r7, #56	; 0x38
 80018cc:	2200      	movs	r2, #0
 80018ce:	601a      	str	r2, [r3, #0]
 80018d0:	605a      	str	r2, [r3, #4]
 80018d2:	609a      	str	r2, [r3, #8]
  TIM_BreakDeadTimeConfigTypeDef sBreakDeadTimeConfig = {0};
 80018d4:	1d3b      	adds	r3, r7, #4
 80018d6:	2234      	movs	r2, #52	; 0x34
 80018d8:	2100      	movs	r1, #0
 80018da:	4618      	mov	r0, r3
 80018dc:	f006 fe1a 	bl	8008514 <memset>

  htim1.Instance = TIM1;
 80018e0:	4b2a      	ldr	r3, [pc, #168]	; (800198c <MX_TIM1_Init+0xd8>)
 80018e2:	4a2b      	ldr	r2, [pc, #172]	; (8001990 <MX_TIM1_Init+0xdc>)
 80018e4:	601a      	str	r2, [r3, #0]
  htim1.Init.Prescaler = 0;
 80018e6:	4b29      	ldr	r3, [pc, #164]	; (800198c <MX_TIM1_Init+0xd8>)
 80018e8:	2200      	movs	r2, #0
 80018ea:	605a      	str	r2, [r3, #4]
  htim1.Init.CounterMode = TIM_COUNTERMODE_CENTERALIGNED2;
 80018ec:	4b27      	ldr	r3, [pc, #156]	; (800198c <MX_TIM1_Init+0xd8>)
 80018ee:	2240      	movs	r2, #64	; 0x40
 80018f0:	609a      	str	r2, [r3, #8]
  htim1.Init.Period = 1024;
 80018f2:	4b26      	ldr	r3, [pc, #152]	; (800198c <MX_TIM1_Init+0xd8>)
 80018f4:	f44f 6280 	mov.w	r2, #1024	; 0x400
 80018f8:	60da      	str	r2, [r3, #12]
  htim1.Init.ClockDivision = TIM_CLOCKDIVISION_DIV1;
 80018fa:	4b24      	ldr	r3, [pc, #144]	; (800198c <MX_TIM1_Init+0xd8>)
 80018fc:	2200      	movs	r2, #0
 80018fe:	611a      	str	r2, [r3, #16]
  htim1.Init.RepetitionCounter = 0;
 8001900:	4b22      	ldr	r3, [pc, #136]	; (800198c <MX_TIM1_Init+0xd8>)
 8001902:	2200      	movs	r2, #0
 8001904:	615a      	str	r2, [r3, #20]
  htim1.Init.AutoReloadPreload = TIM_AUTORELOAD_PRELOAD_DISABLE;
 8001906:	4b21      	ldr	r3, [pc, #132]	; (800198c <MX_TIM1_Init+0xd8>)
 8001908:	2200      	movs	r2, #0
 800190a:	619a      	str	r2, [r3, #24]
  sConfig.EncoderMode = TIM_ENCODERMODE_TI12;
 800190c:	2303      	movs	r3, #3
 800190e:	647b      	str	r3, [r7, #68]	; 0x44
  sConfig.IC1Polarity = TIM_ICPOLARITY_RISING;
 8001910:	2300      	movs	r3, #0
 8001912:	64bb      	str	r3, [r7, #72]	; 0x48
  sConfig.IC1Selection = TIM_ICSELECTION_DIRECTTI;
 8001914:	2301      	movs	r3, #1
 8001916:	64fb      	str	r3, [r7, #76]	; 0x4c
  sConfig.IC1Prescaler = TIM_ICPSC_DIV1;
 8001918:	2300      	movs	r3, #0
 800191a:	653b      	str	r3, [r7, #80]	; 0x50
  sConfig.IC1Filter = 0;
 800191c:	2300      	movs	r3, #0
 800191e:	657b      	str	r3, [r7, #84]	; 0x54
  sConfig.IC2Polarity = TIM_ICPOLARITY_RISING;
 8001920:	2300      	movs	r3, #0
 8001922:	65bb      	str	r3, [r7, #88]	; 0x58
  sConfig.IC2Selection = TIM_ICSELECTION_DIRECTTI;
 8001924:	2301      	movs	r3, #1
 8001926:	65fb      	str	r3, [r7, #92]	; 0x5c
  sConfig.IC2Prescaler = TIM_ICPSC_DIV1;
 8001928:	2300      	movs	r3, #0
 800192a:	663b      	str	r3, [r7, #96]	; 0x60
  sConfig.IC2Filter = 0;
 800192c:	2300      	movs	r3, #0
 800192e:	667b      	str	r3, [r7, #100]	; 0x64
  if (HAL_TIM_Encoder_Init(&htim1, &sConfig) != HAL_OK)
 8001930:	f107 0344 	add.w	r3, r7, #68	; 0x44
 8001934:	4619      	mov	r1, r3
 8001936:	4815      	ldr	r0, [pc, #84]	; (800198c <MX_TIM1_Init+0xd8>)
 8001938:	f004 fcde 	bl	80062f8 <HAL_TIM_Encoder_Init>
 800193c:	4603      	mov	r3, r0
 800193e:	2b00      	cmp	r3, #0
 8001940:	d001      	beq.n	8001946 <MX_TIM1_Init+0x92>
  {
    Error_Handler();
 8001942:	f7ff fc85 	bl	8001250 <Error_Handler>
  }
  sMasterConfig.MasterOutputTrigger = TIM_TRGO_RESET;
 8001946:	2300      	movs	r3, #0
 8001948:	63bb      	str	r3, [r7, #56]	; 0x38
  sMasterConfig.MasterOutputTrigger2 = TIM_TRGO2_RESET;
 800194a:	2300      	movs	r3, #0
 800194c:	63fb      	str	r3, [r7, #60]	; 0x3c
  sMasterConfig.MasterSlaveMode = TIM_MASTERSLAVEMODE_DISABLE;
 800194e:	2300      	movs	r3, #0
 8001950:	643b      	str	r3, [r7, #64]	; 0x40
  if (HAL_TIMEx_MasterConfigSynchronization(&htim1, &sMasterConfig) != HAL_OK)
 8001952:	f107 0338 	add.w	r3, r7, #56	; 0x38
 8001956:	4619      	mov	r1, r3
 8001958:	480c      	ldr	r0, [pc, #48]	; (800198c <MX_TIM1_Init+0xd8>)
 800195a:	f005 fa57 	bl	8006e0c <HAL_TIMEx_MasterConfigSynchronization>
 800195e:	4603      	mov	r3, r0
 8001960:	2b00      	cmp	r3, #0
 8001962:	d001      	beq.n	8001968 <MX_TIM1_Init+0xb4>
  {
    Error_Handler();
 8001964:	f7ff fc74 	bl	8001250 <Error_Handler>
  }
  sBreakDeadTimeConfig.BreakAFMode = TIM_BREAK_AFMODE_INPUT;
 8001968:	2300      	movs	r3, #0
 800196a:	623b      	str	r3, [r7, #32]
  sBreakDeadTimeConfig.Break2AFMode = TIM_BREAK_AFMODE_INPUT;
 800196c:	2300      	movs	r3, #0
 800196e:	633b      	str	r3, [r7, #48]	; 0x30
  if (HAL_TIMEx_ConfigBreakDeadTime(&htim1, &sBreakDeadTimeConfig) != HAL_OK)
 8001970:	1d3b      	adds	r3, r7, #4
 8001972:	4619      	mov	r1, r3
 8001974:	4805      	ldr	r0, [pc, #20]	; (800198c <MX_TIM1_Init+0xd8>)
 8001976:	f005 fadf 	bl	8006f38 <HAL_TIMEx_ConfigBreakDeadTime>
 800197a:	4603      	mov	r3, r0
 800197c:	2b00      	cmp	r3, #0
 800197e:	d001      	beq.n	8001984 <MX_TIM1_Init+0xd0>
  {
    Error_Handler();
 8001980:	f7ff fc66 	bl	8001250 <Error_Handler>
  }

}
 8001984:	bf00      	nop
 8001986:	3768      	adds	r7, #104	; 0x68
 8001988:	46bd      	mov	sp, r7
 800198a:	bd80      	pop	{r7, pc}
 800198c:	20000800 	.word	0x20000800
 8001990:	40012c00 	.word	0x40012c00

08001994 <MX_TIM2_Init>:
/* TIM2 init function */
void MX_TIM2_Init(void)
{
 8001994:	b580      	push	{r7, lr}
 8001996:	b08c      	sub	sp, #48	; 0x30
 8001998:	af00      	add	r7, sp, #0
  TIM_ClockConfigTypeDef sClockSourceConfig = {0};
 800199a:	f107 0320 	add.w	r3, r7, #32
 800199e:	2200      	movs	r2, #0
 80019a0:	601a      	str	r2, [r3, #0]
 80019a2:	605a      	str	r2, [r3, #4]
 80019a4:	609a      	str	r2, [r3, #8]
 80019a6:	60da      	str	r2, [r3, #12]
  TIM_SlaveConfigTypeDef sSlaveConfig = {0};
 80019a8:	f107 030c 	add.w	r3, r7, #12
 80019ac:	2200      	movs	r2, #0
 80019ae:	601a      	str	r2, [r3, #0]
 80019b0:	605a      	str	r2, [r3, #4]
 80019b2:	609a      	str	r2, [r3, #8]
 80019b4:	60da      	str	r2, [r3, #12]
 80019b6:	611a      	str	r2, [r3, #16]
  TIM_MasterConfigTypeDef sMasterConfig = {0};
 80019b8:	463b      	mov	r3, r7
 80019ba:	2200      	movs	r2, #0
 80019bc:	601a      	str	r2, [r3, #0]
 80019be:	605a      	str	r2, [r3, #4]
 80019c0:	609a      	str	r2, [r3, #8]

  htim2.Instance = TIM2;
 80019c2:	4b28      	ldr	r3, [pc, #160]	; (8001a64 <MX_TIM2_Init+0xd0>)
 80019c4:	f04f 4280 	mov.w	r2, #1073741824	; 0x40000000
 80019c8:	601a      	str	r2, [r3, #0]
  htim2.Init.Prescaler = 2047;
 80019ca:	4b26      	ldr	r3, [pc, #152]	; (8001a64 <MX_TIM2_Init+0xd0>)
 80019cc:	f240 72ff 	movw	r2, #2047	; 0x7ff
 80019d0:	605a      	str	r2, [r3, #4]
  htim2.Init.CounterMode = TIM_COUNTERMODE_UP;
 80019d2:	4b24      	ldr	r3, [pc, #144]	; (8001a64 <MX_TIM2_Init+0xd0>)
 80019d4:	2200      	movs	r2, #0
 80019d6:	609a      	str	r2, [r3, #8]
  htim2.Init.Period = 1024;
 80019d8:	4b22      	ldr	r3, [pc, #136]	; (8001a64 <MX_TIM2_Init+0xd0>)
 80019da:	f44f 6280 	mov.w	r2, #1024	; 0x400
 80019de:	60da      	str	r2, [r3, #12]
  htim2.Init.ClockDivision = TIM_CLOCKDIVISION_DIV1;
 80019e0:	4b20      	ldr	r3, [pc, #128]	; (8001a64 <MX_TIM2_Init+0xd0>)
 80019e2:	2200      	movs	r2, #0
 80019e4:	611a      	str	r2, [r3, #16]
  htim2.Init.AutoReloadPreload = TIM_AUTORELOAD_PRELOAD_DISABLE;
 80019e6:	4b1f      	ldr	r3, [pc, #124]	; (8001a64 <MX_TIM2_Init+0xd0>)
 80019e8:	2200      	movs	r2, #0
 80019ea:	619a      	str	r2, [r3, #24]
  if (HAL_TIM_Base_Init(&htim2) != HAL_OK)
 80019ec:	481d      	ldr	r0, [pc, #116]	; (8001a64 <MX_TIM2_Init+0xd0>)
 80019ee:	f004 fbc7 	bl	8006180 <HAL_TIM_Base_Init>
 80019f2:	4603      	mov	r3, r0
 80019f4:	2b00      	cmp	r3, #0
 80019f6:	d001      	beq.n	80019fc <MX_TIM2_Init+0x68>
  {
    Error_Handler();
 80019f8:	f7ff fc2a 	bl	8001250 <Error_Handler>
  }
  sClockSourceConfig.ClockSource = TIM_CLOCKSOURCE_INTERNAL;
 80019fc:	f44f 5380 	mov.w	r3, #4096	; 0x1000
 8001a00:	623b      	str	r3, [r7, #32]
  if (HAL_TIM_ConfigClockSource(&htim2, &sClockSourceConfig) != HAL_OK)
 8001a02:	f107 0320 	add.w	r3, r7, #32
 8001a06:	4619      	mov	r1, r3
 8001a08:	4816      	ldr	r0, [pc, #88]	; (8001a64 <MX_TIM2_Init+0xd0>)
 8001a0a:	f004 fe9b 	bl	8006744 <HAL_TIM_ConfigClockSource>
 8001a0e:	4603      	mov	r3, r0
 8001a10:	2b00      	cmp	r3, #0
 8001a12:	d001      	beq.n	8001a18 <MX_TIM2_Init+0x84>
  {
    Error_Handler();
 8001a14:	f7ff fc1c 	bl	8001250 <Error_Handler>
  }
  sSlaveConfig.SlaveMode = TIM_SLAVEMODE_GATED;
 8001a18:	2305      	movs	r3, #5
 8001a1a:	60fb      	str	r3, [r7, #12]
  sSlaveConfig.InputTrigger = TIM_TS_TI1FP1;
 8001a1c:	2350      	movs	r3, #80	; 0x50
 8001a1e:	613b      	str	r3, [r7, #16]
  sSlaveConfig.TriggerPolarity = TIM_TRIGGERPOLARITY_RISING;
 8001a20:	2300      	movs	r3, #0
 8001a22:	617b      	str	r3, [r7, #20]
  sSlaveConfig.TriggerFilter = 0;
 8001a24:	2300      	movs	r3, #0
 8001a26:	61fb      	str	r3, [r7, #28]
  if (HAL_TIM_SlaveConfigSynchro(&htim2, &sSlaveConfig) != HAL_OK)
 8001a28:	f107 030c 	add.w	r3, r7, #12
 8001a2c:	4619      	mov	r1, r3
 8001a2e:	480d      	ldr	r0, [pc, #52]	; (8001a64 <MX_TIM2_Init+0xd0>)
 8001a30:	f004 ff78 	bl	8006924 <HAL_TIM_SlaveConfigSynchro>
 8001a34:	4603      	mov	r3, r0
 8001a36:	2b00      	cmp	r3, #0
 8001a38:	d001      	beq.n	8001a3e <MX_TIM2_Init+0xaa>
  {
    Error_Handler();
 8001a3a:	f7ff fc09 	bl	8001250 <Error_Handler>
  }
  sMasterConfig.MasterOutputTrigger = TIM_TRGO_RESET;
 8001a3e:	2300      	movs	r3, #0
 8001a40:	603b      	str	r3, [r7, #0]
  sMasterConfig.MasterSlaveMode = TIM_MASTERSLAVEMODE_DISABLE;
 8001a42:	2300      	movs	r3, #0
 8001a44:	60bb      	str	r3, [r7, #8]
  if (HAL_TIMEx_MasterConfigSynchronization(&htim2, &sMasterConfig) != HAL_OK)
 8001a46:	463b      	mov	r3, r7
 8001a48:	4619      	mov	r1, r3
 8001a4a:	4806      	ldr	r0, [pc, #24]	; (8001a64 <MX_TIM2_Init+0xd0>)
 8001a4c:	f005 f9de 	bl	8006e0c <HAL_TIMEx_MasterConfigSynchronization>
 8001a50:	4603      	mov	r3, r0
 8001a52:	2b00      	cmp	r3, #0
 8001a54:	d001      	beq.n	8001a5a <MX_TIM2_Init+0xc6>
  {
    Error_Handler();
 8001a56:	f7ff fbfb 	bl	8001250 <Error_Handler>
  }

}
 8001a5a:	bf00      	nop
 8001a5c:	3730      	adds	r7, #48	; 0x30
 8001a5e:	46bd      	mov	sp, r7
 8001a60:	bd80      	pop	{r7, pc}
 8001a62:	bf00      	nop
 8001a64:	2000084c 	.word	0x2000084c

08001a68 <MX_TIM8_Init>:
/* TIM8 init function */
void MX_TIM8_Init(void)
{
 8001a68:	b580      	push	{r7, lr}
 8001a6a:	b094      	sub	sp, #80	; 0x50
 8001a6c:	af00      	add	r7, sp, #0
  TIM_ClockConfigTypeDef sClockSourceConfig = {0};
 8001a6e:	f107 0340 	add.w	r3, r7, #64	; 0x40
 8001a72:	2200      	movs	r2, #0
 8001a74:	601a      	str	r2, [r3, #0]
 8001a76:	605a      	str	r2, [r3, #4]
 8001a78:	609a      	str	r2, [r3, #8]
 8001a7a:	60da      	str	r2, [r3, #12]
  TIM_MasterConfigTypeDef sMasterConfig = {0};
 8001a7c:	f107 0334 	add.w	r3, r7, #52	; 0x34
 8001a80:	2200      	movs	r2, #0
 8001a82:	601a      	str	r2, [r3, #0]
 8001a84:	605a      	str	r2, [r3, #4]
 8001a86:	609a      	str	r2, [r3, #8]
  TIM_BreakDeadTimeConfigTypeDef sBreakDeadTimeConfig = {0};
 8001a88:	463b      	mov	r3, r7
 8001a8a:	2234      	movs	r2, #52	; 0x34
 8001a8c:	2100      	movs	r1, #0
 8001a8e:	4618      	mov	r0, r3
 8001a90:	f006 fd40 	bl	8008514 <memset>

  htim8.Instance = TIM8;
 8001a94:	4b26      	ldr	r3, [pc, #152]	; (8001b30 <MX_TIM8_Init+0xc8>)
 8001a96:	4a27      	ldr	r2, [pc, #156]	; (8001b34 <MX_TIM8_Init+0xcc>)
 8001a98:	601a      	str	r2, [r3, #0]
  htim8.Init.Prescaler = 0;
 8001a9a:	4b25      	ldr	r3, [pc, #148]	; (8001b30 <MX_TIM8_Init+0xc8>)
 8001a9c:	2200      	movs	r2, #0
 8001a9e:	605a      	str	r2, [r3, #4]
  htim8.Init.CounterMode = TIM_COUNTERMODE_UP;
 8001aa0:	4b23      	ldr	r3, [pc, #140]	; (8001b30 <MX_TIM8_Init+0xc8>)
 8001aa2:	2200      	movs	r2, #0
 8001aa4:	609a      	str	r2, [r3, #8]
  htim8.Init.Period = 1;
 8001aa6:	4b22      	ldr	r3, [pc, #136]	; (8001b30 <MX_TIM8_Init+0xc8>)
 8001aa8:	2201      	movs	r2, #1
 8001aaa:	60da      	str	r2, [r3, #12]
  htim8.Init.ClockDivision = TIM_CLOCKDIVISION_DIV1;
 8001aac:	4b20      	ldr	r3, [pc, #128]	; (8001b30 <MX_TIM8_Init+0xc8>)
 8001aae:	2200      	movs	r2, #0
 8001ab0:	611a      	str	r2, [r3, #16]
  htim8.Init.RepetitionCounter = 0;
 8001ab2:	4b1f      	ldr	r3, [pc, #124]	; (8001b30 <MX_TIM8_Init+0xc8>)
 8001ab4:	2200      	movs	r2, #0
 8001ab6:	615a      	str	r2, [r3, #20]
  htim8.Init.AutoReloadPreload = TIM_AUTORELOAD_PRELOAD_DISABLE;
 8001ab8:	4b1d      	ldr	r3, [pc, #116]	; (8001b30 <MX_TIM8_Init+0xc8>)
 8001aba:	2200      	movs	r2, #0
 8001abc:	619a      	str	r2, [r3, #24]
  if (HAL_TIM_Base_Init(&htim8) != HAL_OK)
 8001abe:	481c      	ldr	r0, [pc, #112]	; (8001b30 <MX_TIM8_Init+0xc8>)
 8001ac0:	f004 fb5e 	bl	8006180 <HAL_TIM_Base_Init>
 8001ac4:	4603      	mov	r3, r0
 8001ac6:	2b00      	cmp	r3, #0
 8001ac8:	d001      	beq.n	8001ace <MX_TIM8_Init+0x66>
  {
    Error_Handler();
 8001aca:	f7ff fbc1 	bl	8001250 <Error_Handler>
  }
  sClockSourceConfig.ClockSource = TIM_CLOCKSOURCE_INTERNAL;
 8001ace:	f44f 5380 	mov.w	r3, #4096	; 0x1000
 8001ad2:	643b      	str	r3, [r7, #64]	; 0x40
  if (HAL_TIM_ConfigClockSource(&htim8, &sClockSourceConfig) != HAL_OK)
 8001ad4:	f107 0340 	add.w	r3, r7, #64	; 0x40
 8001ad8:	4619      	mov	r1, r3
 8001ada:	4815      	ldr	r0, [pc, #84]	; (8001b30 <MX_TIM8_Init+0xc8>)
 8001adc:	f004 fe32 	bl	8006744 <HAL_TIM_ConfigClockSource>
 8001ae0:	4603      	mov	r3, r0
 8001ae2:	2b00      	cmp	r3, #0
 8001ae4:	d001      	beq.n	8001aea <MX_TIM8_Init+0x82>
  {
    Error_Handler();
 8001ae6:	f7ff fbb3 	bl	8001250 <Error_Handler>
  }
  sMasterConfig.MasterOutputTrigger = TIM_TRGO_UPDATE;
 8001aea:	2320      	movs	r3, #32
 8001aec:	637b      	str	r3, [r7, #52]	; 0x34
  sMasterConfig.MasterOutputTrigger2 = TIM_TRGO2_RESET;
 8001aee:	2300      	movs	r3, #0
 8001af0:	63bb      	str	r3, [r7, #56]	; 0x38
  sMasterConfig.MasterSlaveMode = TIM_MASTERSLAVEMODE_DISABLE;
 8001af2:	2300      	movs	r3, #0
 8001af4:	63fb      	str	r3, [r7, #60]	; 0x3c
  if (HAL_TIMEx_MasterConfigSynchronization(&htim8, &sMasterConfig) != HAL_OK)
 8001af6:	f107 0334 	add.w	r3, r7, #52	; 0x34
 8001afa:	4619      	mov	r1, r3
 8001afc:	480c      	ldr	r0, [pc, #48]	; (8001b30 <MX_TIM8_Init+0xc8>)
 8001afe:	f005 f985 	bl	8006e0c <HAL_TIMEx_MasterConfigSynchronization>
 8001b02:	4603      	mov	r3, r0
 8001b04:	2b00      	cmp	r3, #0
 8001b06:	d001      	beq.n	8001b0c <MX_TIM8_Init+0xa4>
  {
    Error_Handler();
 8001b08:	f7ff fba2 	bl	8001250 <Error_Handler>
  }
  sBreakDeadTimeConfig.BreakAFMode = TIM_BREAK_AFMODE_INPUT;
 8001b0c:	2300      	movs	r3, #0
 8001b0e:	61fb      	str	r3, [r7, #28]
  sBreakDeadTimeConfig.Break2AFMode = TIM_BREAK_AFMODE_INPUT;
 8001b10:	2300      	movs	r3, #0
 8001b12:	62fb      	str	r3, [r7, #44]	; 0x2c
  if (HAL_TIMEx_ConfigBreakDeadTime(&htim8, &sBreakDeadTimeConfig) != HAL_OK)
 8001b14:	463b      	mov	r3, r7
 8001b16:	4619      	mov	r1, r3
 8001b18:	4805      	ldr	r0, [pc, #20]	; (8001b30 <MX_TIM8_Init+0xc8>)
 8001b1a:	f005 fa0d 	bl	8006f38 <HAL_TIMEx_ConfigBreakDeadTime>
 8001b1e:	4603      	mov	r3, r0
 8001b20:	2b00      	cmp	r3, #0
 8001b22:	d001      	beq.n	8001b28 <MX_TIM8_Init+0xc0>
  {
    Error_Handler();
 8001b24:	f7ff fb94 	bl	8001250 <Error_Handler>
  }

}
 8001b28:	bf00      	nop
 8001b2a:	3750      	adds	r7, #80	; 0x50
 8001b2c:	46bd      	mov	sp, r7
 8001b2e:	bd80      	pop	{r7, pc}
 8001b30:	2000071c 	.word	0x2000071c
 8001b34:	40013400 	.word	0x40013400

08001b38 <MX_TIM15_Init>:
/* TIM15 init function */
void MX_TIM15_Init(void)
{
 8001b38:	b580      	push	{r7, lr}
 8001b3a:	b088      	sub	sp, #32
 8001b3c:	af00      	add	r7, sp, #0
  TIM_ClockConfigTypeDef sClockSourceConfig = {0};
 8001b3e:	f107 0310 	add.w	r3, r7, #16
 8001b42:	2200      	movs	r2, #0
 8001b44:	601a      	str	r2, [r3, #0]
 8001b46:	605a      	str	r2, [r3, #4]
 8001b48:	609a      	str	r2, [r3, #8]
 8001b4a:	60da      	str	r2, [r3, #12]
  TIM_MasterConfigTypeDef sMasterConfig = {0};
 8001b4c:	1d3b      	adds	r3, r7, #4
 8001b4e:	2200      	movs	r2, #0
 8001b50:	601a      	str	r2, [r3, #0]
 8001b52:	605a      	str	r2, [r3, #4]
 8001b54:	609a      	str	r2, [r3, #8]

  htim15.Instance = TIM15;
 8001b56:	4b1f      	ldr	r3, [pc, #124]	; (8001bd4 <MX_TIM15_Init+0x9c>)
 8001b58:	4a1f      	ldr	r2, [pc, #124]	; (8001bd8 <MX_TIM15_Init+0xa0>)
 8001b5a:	601a      	str	r2, [r3, #0]
  htim15.Init.Prescaler = 1024;
 8001b5c:	4b1d      	ldr	r3, [pc, #116]	; (8001bd4 <MX_TIM15_Init+0x9c>)
 8001b5e:	f44f 6280 	mov.w	r2, #1024	; 0x400
 8001b62:	605a      	str	r2, [r3, #4]
  htim15.Init.CounterMode = TIM_COUNTERMODE_UP;
 8001b64:	4b1b      	ldr	r3, [pc, #108]	; (8001bd4 <MX_TIM15_Init+0x9c>)
 8001b66:	2200      	movs	r2, #0
 8001b68:	609a      	str	r2, [r3, #8]
  htim15.Init.Period = 1024;
 8001b6a:	4b1a      	ldr	r3, [pc, #104]	; (8001bd4 <MX_TIM15_Init+0x9c>)
 8001b6c:	f44f 6280 	mov.w	r2, #1024	; 0x400
 8001b70:	60da      	str	r2, [r3, #12]
  htim15.Init.ClockDivision = TIM_CLOCKDIVISION_DIV1;
 8001b72:	4b18      	ldr	r3, [pc, #96]	; (8001bd4 <MX_TIM15_Init+0x9c>)
 8001b74:	2200      	movs	r2, #0
 8001b76:	611a      	str	r2, [r3, #16]
  htim15.Init.RepetitionCounter = 0;
 8001b78:	4b16      	ldr	r3, [pc, #88]	; (8001bd4 <MX_TIM15_Init+0x9c>)
 8001b7a:	2200      	movs	r2, #0
 8001b7c:	615a      	str	r2, [r3, #20]
  htim15.Init.AutoReloadPreload = TIM_AUTORELOAD_PRELOAD_DISABLE;
 8001b7e:	4b15      	ldr	r3, [pc, #84]	; (8001bd4 <MX_TIM15_Init+0x9c>)
 8001b80:	2200      	movs	r2, #0
 8001b82:	619a      	str	r2, [r3, #24]
  if (HAL_TIM_Base_Init(&htim15) != HAL_OK)
 8001b84:	4813      	ldr	r0, [pc, #76]	; (8001bd4 <MX_TIM15_Init+0x9c>)
 8001b86:	f004 fafb 	bl	8006180 <HAL_TIM_Base_Init>
 8001b8a:	4603      	mov	r3, r0
 8001b8c:	2b00      	cmp	r3, #0
 8001b8e:	d001      	beq.n	8001b94 <MX_TIM15_Init+0x5c>
  {
    Error_Handler();
 8001b90:	f7ff fb5e 	bl	8001250 <Error_Handler>
  }
  sClockSourceConfig.ClockSource = TIM_CLOCKSOURCE_INTERNAL;
 8001b94:	f44f 5380 	mov.w	r3, #4096	; 0x1000
 8001b98:	613b      	str	r3, [r7, #16]
  if (HAL_TIM_ConfigClockSource(&htim15, &sClockSourceConfig) != HAL_OK)
 8001b9a:	f107 0310 	add.w	r3, r7, #16
 8001b9e:	4619      	mov	r1, r3
 8001ba0:	480c      	ldr	r0, [pc, #48]	; (8001bd4 <MX_TIM15_Init+0x9c>)
 8001ba2:	f004 fdcf 	bl	8006744 <HAL_TIM_ConfigClockSource>
 8001ba6:	4603      	mov	r3, r0
 8001ba8:	2b00      	cmp	r3, #0
 8001baa:	d001      	beq.n	8001bb0 <MX_TIM15_Init+0x78>
  {
    Error_Handler();
 8001bac:	f7ff fb50 	bl	8001250 <Error_Handler>
  }
  sMasterConfig.MasterOutputTrigger = TIM_TRGO_RESET;
 8001bb0:	2300      	movs	r3, #0
 8001bb2:	607b      	str	r3, [r7, #4]
  sMasterConfig.MasterSlaveMode = TIM_MASTERSLAVEMODE_DISABLE;
 8001bb4:	2300      	movs	r3, #0
 8001bb6:	60fb      	str	r3, [r7, #12]
  if (HAL_TIMEx_MasterConfigSynchronization(&htim15, &sMasterConfig) != HAL_OK)
 8001bb8:	1d3b      	adds	r3, r7, #4
 8001bba:	4619      	mov	r1, r3
 8001bbc:	4805      	ldr	r0, [pc, #20]	; (8001bd4 <MX_TIM15_Init+0x9c>)
 8001bbe:	f005 f925 	bl	8006e0c <HAL_TIMEx_MasterConfigSynchronization>
 8001bc2:	4603      	mov	r3, r0
 8001bc4:	2b00      	cmp	r3, #0
 8001bc6:	d001      	beq.n	8001bcc <MX_TIM15_Init+0x94>
  {
    Error_Handler();
 8001bc8:	f7ff fb42 	bl	8001250 <Error_Handler>
  }

}
 8001bcc:	bf00      	nop
 8001bce:	3720      	adds	r7, #32
 8001bd0:	46bd      	mov	sp, r7
 8001bd2:	bd80      	pop	{r7, pc}
 8001bd4:	20000768 	.word	0x20000768
 8001bd8:	40014000 	.word	0x40014000

08001bdc <MX_TIM16_Init>:
/* TIM16 init function */
void MX_TIM16_Init(void)
{
 8001bdc:	b580      	push	{r7, lr}
 8001bde:	af00      	add	r7, sp, #0

  htim16.Instance = TIM16;
 8001be0:	4b0f      	ldr	r3, [pc, #60]	; (8001c20 <MX_TIM16_Init+0x44>)
 8001be2:	4a10      	ldr	r2, [pc, #64]	; (8001c24 <MX_TIM16_Init+0x48>)
 8001be4:	601a      	str	r2, [r3, #0]
  htim16.Init.Prescaler = 0;
 8001be6:	4b0e      	ldr	r3, [pc, #56]	; (8001c20 <MX_TIM16_Init+0x44>)
 8001be8:	2200      	movs	r2, #0
 8001bea:	605a      	str	r2, [r3, #4]
  htim16.Init.CounterMode = TIM_COUNTERMODE_UP;
 8001bec:	4b0c      	ldr	r3, [pc, #48]	; (8001c20 <MX_TIM16_Init+0x44>)
 8001bee:	2200      	movs	r2, #0
 8001bf0:	609a      	str	r2, [r3, #8]
  htim16.Init.Period = 8191;
 8001bf2:	4b0b      	ldr	r3, [pc, #44]	; (8001c20 <MX_TIM16_Init+0x44>)
 8001bf4:	f641 72ff 	movw	r2, #8191	; 0x1fff
 8001bf8:	60da      	str	r2, [r3, #12]
  htim16.Init.ClockDivision = TIM_CLOCKDIVISION_DIV1;
 8001bfa:	4b09      	ldr	r3, [pc, #36]	; (8001c20 <MX_TIM16_Init+0x44>)
 8001bfc:	2200      	movs	r2, #0
 8001bfe:	611a      	str	r2, [r3, #16]
  htim16.Init.RepetitionCounter = 0;
 8001c00:	4b07      	ldr	r3, [pc, #28]	; (8001c20 <MX_TIM16_Init+0x44>)
 8001c02:	2200      	movs	r2, #0
 8001c04:	615a      	str	r2, [r3, #20]
  htim16.Init.AutoReloadPreload = TIM_AUTORELOAD_PRELOAD_DISABLE;
 8001c06:	4b06      	ldr	r3, [pc, #24]	; (8001c20 <MX_TIM16_Init+0x44>)
 8001c08:	2200      	movs	r2, #0
 8001c0a:	619a      	str	r2, [r3, #24]
  if (HAL_TIM_Base_Init(&htim16) != HAL_OK)
 8001c0c:	4804      	ldr	r0, [pc, #16]	; (8001c20 <MX_TIM16_Init+0x44>)
 8001c0e:	f004 fab7 	bl	8006180 <HAL_TIM_Base_Init>
 8001c12:	4603      	mov	r3, r0
 8001c14:	2b00      	cmp	r3, #0
 8001c16:	d001      	beq.n	8001c1c <MX_TIM16_Init+0x40>
  {
    Error_Handler();
 8001c18:	f7ff fb1a 	bl	8001250 <Error_Handler>
  }

}
 8001c1c:	bf00      	nop
 8001c1e:	bd80      	pop	{r7, pc}
 8001c20:	20000898 	.word	0x20000898
 8001c24:	40014400 	.word	0x40014400

08001c28 <MX_TIM17_Init>:
/* TIM17 init function */
void MX_TIM17_Init(void)
{
 8001c28:	b580      	push	{r7, lr}
 8001c2a:	af00      	add	r7, sp, #0

  htim17.Instance = TIM17;
 8001c2c:	4b0f      	ldr	r3, [pc, #60]	; (8001c6c <MX_TIM17_Init+0x44>)
 8001c2e:	4a10      	ldr	r2, [pc, #64]	; (8001c70 <MX_TIM17_Init+0x48>)
 8001c30:	601a      	str	r2, [r3, #0]
  htim17.Init.Prescaler = 1023;
 8001c32:	4b0e      	ldr	r3, [pc, #56]	; (8001c6c <MX_TIM17_Init+0x44>)
 8001c34:	f240 32ff 	movw	r2, #1023	; 0x3ff
 8001c38:	605a      	str	r2, [r3, #4]
  htim17.Init.CounterMode = TIM_COUNTERMODE_UP;
 8001c3a:	4b0c      	ldr	r3, [pc, #48]	; (8001c6c <MX_TIM17_Init+0x44>)
 8001c3c:	2200      	movs	r2, #0
 8001c3e:	609a      	str	r2, [r3, #8]
  htim17.Init.Period = 64;
 8001c40:	4b0a      	ldr	r3, [pc, #40]	; (8001c6c <MX_TIM17_Init+0x44>)
 8001c42:	2240      	movs	r2, #64	; 0x40
 8001c44:	60da      	str	r2, [r3, #12]
  htim17.Init.ClockDivision = TIM_CLOCKDIVISION_DIV1;
 8001c46:	4b09      	ldr	r3, [pc, #36]	; (8001c6c <MX_TIM17_Init+0x44>)
 8001c48:	2200      	movs	r2, #0
 8001c4a:	611a      	str	r2, [r3, #16]
  htim17.Init.RepetitionCounter = 0;
 8001c4c:	4b07      	ldr	r3, [pc, #28]	; (8001c6c <MX_TIM17_Init+0x44>)
 8001c4e:	2200      	movs	r2, #0
 8001c50:	615a      	str	r2, [r3, #20]
  htim17.Init.AutoReloadPreload = TIM_AUTORELOAD_PRELOAD_DISABLE;
 8001c52:	4b06      	ldr	r3, [pc, #24]	; (8001c6c <MX_TIM17_Init+0x44>)
 8001c54:	2200      	movs	r2, #0
 8001c56:	619a      	str	r2, [r3, #24]
  if (HAL_TIM_Base_Init(&htim17) != HAL_OK)
 8001c58:	4804      	ldr	r0, [pc, #16]	; (8001c6c <MX_TIM17_Init+0x44>)
 8001c5a:	f004 fa91 	bl	8006180 <HAL_TIM_Base_Init>
 8001c5e:	4603      	mov	r3, r0
 8001c60:	2b00      	cmp	r3, #0
 8001c62:	d001      	beq.n	8001c68 <MX_TIM17_Init+0x40>
  {
    Error_Handler();
 8001c64:	f7ff faf4 	bl	8001250 <Error_Handler>
  }

}
 8001c68:	bf00      	nop
 8001c6a:	bd80      	pop	{r7, pc}
 8001c6c:	200007b4 	.word	0x200007b4
 8001c70:	40014800 	.word	0x40014800

08001c74 <HAL_TIM_Encoder_MspInit>:

void HAL_TIM_Encoder_MspInit(TIM_HandleTypeDef* tim_encoderHandle)
{
 8001c74:	b580      	push	{r7, lr}
 8001c76:	b08a      	sub	sp, #40	; 0x28
 8001c78:	af00      	add	r7, sp, #0
 8001c7a:	6078      	str	r0, [r7, #4]

  GPIO_InitTypeDef GPIO_InitStruct = {0};
 8001c7c:	f107 0314 	add.w	r3, r7, #20
 8001c80:	2200      	movs	r2, #0
 8001c82:	601a      	str	r2, [r3, #0]
 8001c84:	605a      	str	r2, [r3, #4]
 8001c86:	609a      	str	r2, [r3, #8]
 8001c88:	60da      	str	r2, [r3, #12]
 8001c8a:	611a      	str	r2, [r3, #16]
  if(tim_encoderHandle->Instance==TIM1)
 8001c8c:	687b      	ldr	r3, [r7, #4]
 8001c8e:	681b      	ldr	r3, [r3, #0]
 8001c90:	4a23      	ldr	r2, [pc, #140]	; (8001d20 <HAL_TIM_Encoder_MspInit+0xac>)
 8001c92:	4293      	cmp	r3, r2
 8001c94:	d13f      	bne.n	8001d16 <HAL_TIM_Encoder_MspInit+0xa2>
  {
  /* USER CODE BEGIN TIM1_MspInit 0 */

  /* USER CODE END TIM1_MspInit 0 */
    /* TIM1 clock enable */
    __HAL_RCC_TIM1_CLK_ENABLE();
 8001c96:	4b23      	ldr	r3, [pc, #140]	; (8001d24 <HAL_TIM_Encoder_MspInit+0xb0>)
 8001c98:	6e1b      	ldr	r3, [r3, #96]	; 0x60
 8001c9a:	4a22      	ldr	r2, [pc, #136]	; (8001d24 <HAL_TIM_Encoder_MspInit+0xb0>)
 8001c9c:	f443 6300 	orr.w	r3, r3, #2048	; 0x800
 8001ca0:	6613      	str	r3, [r2, #96]	; 0x60
 8001ca2:	4b20      	ldr	r3, [pc, #128]	; (8001d24 <HAL_TIM_Encoder_MspInit+0xb0>)
 8001ca4:	6e1b      	ldr	r3, [r3, #96]	; 0x60
 8001ca6:	f403 6300 	and.w	r3, r3, #2048	; 0x800
 8001caa:	613b      	str	r3, [r7, #16]
 8001cac:	693b      	ldr	r3, [r7, #16]
  
    __HAL_RCC_GPIOC_CLK_ENABLE();
 8001cae:	4b1d      	ldr	r3, [pc, #116]	; (8001d24 <HAL_TIM_Encoder_MspInit+0xb0>)
 8001cb0:	6cdb      	ldr	r3, [r3, #76]	; 0x4c
 8001cb2:	4a1c      	ldr	r2, [pc, #112]	; (8001d24 <HAL_TIM_Encoder_MspInit+0xb0>)
 8001cb4:	f043 0304 	orr.w	r3, r3, #4
 8001cb8:	64d3      	str	r3, [r2, #76]	; 0x4c
 8001cba:	4b1a      	ldr	r3, [pc, #104]	; (8001d24 <HAL_TIM_Encoder_MspInit+0xb0>)
 8001cbc:	6cdb      	ldr	r3, [r3, #76]	; 0x4c
 8001cbe:	f003 0304 	and.w	r3, r3, #4
 8001cc2:	60fb      	str	r3, [r7, #12]
 8001cc4:	68fb      	ldr	r3, [r7, #12]
    /**TIM1 GPIO Configuration    
    PC0     ------> TIM1_CH1
    PC1     ------> TIM1_CH2 
    */
    GPIO_InitStruct.Pin = GPIO_PIN_0|GPIO_PIN_1;
 8001cc6:	2303      	movs	r3, #3
 8001cc8:	617b      	str	r3, [r7, #20]
    GPIO_InitStruct.Mode = GPIO_MODE_AF_PP;
 8001cca:	2302      	movs	r3, #2
 8001ccc:	61bb      	str	r3, [r7, #24]
    GPIO_InitStruct.Pull = GPIO_NOPULL;
 8001cce:	2300      	movs	r3, #0
 8001cd0:	61fb      	str	r3, [r7, #28]
    GPIO_InitStruct.Speed = GPIO_SPEED_FREQ_LOW;
 8001cd2:	2300      	movs	r3, #0
 8001cd4:	623b      	str	r3, [r7, #32]
    GPIO_InitStruct.Alternate = GPIO_AF2_TIM1;
 8001cd6:	2302      	movs	r3, #2
 8001cd8:	627b      	str	r3, [r7, #36]	; 0x24
    HAL_GPIO_Init(GPIOC, &GPIO_InitStruct);
 8001cda:	f107 0314 	add.w	r3, r7, #20
 8001cde:	4619      	mov	r1, r3
 8001ce0:	4811      	ldr	r0, [pc, #68]	; (8001d28 <HAL_TIM_Encoder_MspInit+0xb4>)
 8001ce2:	f002 fc03 	bl	80044ec <HAL_GPIO_Init>

    /* TIM1 interrupt Init */
    HAL_NVIC_SetPriority(TIM1_BRK_TIM15_IRQn, 1, 0);
 8001ce6:	2200      	movs	r2, #0
 8001ce8:	2101      	movs	r1, #1
 8001cea:	2018      	movs	r0, #24
 8001cec:	f001 fda5 	bl	800383a <HAL_NVIC_SetPriority>
    HAL_NVIC_EnableIRQ(TIM1_BRK_TIM15_IRQn);
 8001cf0:	2018      	movs	r0, #24
 8001cf2:	f001 fdbc 	bl	800386e <HAL_NVIC_EnableIRQ>
    HAL_NVIC_SetPriority(TIM1_UP_TIM16_IRQn, 1, 0);
 8001cf6:	2200      	movs	r2, #0
 8001cf8:	2101      	movs	r1, #1
 8001cfa:	2019      	movs	r0, #25
 8001cfc:	f001 fd9d 	bl	800383a <HAL_NVIC_SetPriority>
    HAL_NVIC_EnableIRQ(TIM1_UP_TIM16_IRQn);
 8001d00:	2019      	movs	r0, #25
 8001d02:	f001 fdb4 	bl	800386e <HAL_NVIC_EnableIRQ>
    HAL_NVIC_SetPriority(TIM1_TRG_COM_TIM17_IRQn, 0, 0);
 8001d06:	2200      	movs	r2, #0
 8001d08:	2100      	movs	r1, #0
 8001d0a:	201a      	movs	r0, #26
 8001d0c:	f001 fd95 	bl	800383a <HAL_NVIC_SetPriority>
    HAL_NVIC_EnableIRQ(TIM1_TRG_COM_TIM17_IRQn);
 8001d10:	201a      	movs	r0, #26
 8001d12:	f001 fdac 	bl	800386e <HAL_NVIC_EnableIRQ>
  /* USER CODE BEGIN TIM1_MspInit 1 */

  /* USER CODE END TIM1_MspInit 1 */
  }
}
 8001d16:	bf00      	nop
 8001d18:	3728      	adds	r7, #40	; 0x28
 8001d1a:	46bd      	mov	sp, r7
 8001d1c:	bd80      	pop	{r7, pc}
 8001d1e:	bf00      	nop
 8001d20:	40012c00 	.word	0x40012c00
 8001d24:	40021000 	.word	0x40021000
 8001d28:	48000800 	.word	0x48000800

08001d2c <HAL_TIM_Base_MspInit>:

void HAL_TIM_Base_MspInit(TIM_HandleTypeDef* tim_baseHandle)
{
 8001d2c:	b580      	push	{r7, lr}
 8001d2e:	b08e      	sub	sp, #56	; 0x38
 8001d30:	af00      	add	r7, sp, #0
 8001d32:	6078      	str	r0, [r7, #4]

  GPIO_InitTypeDef GPIO_InitStruct = {0};
 8001d34:	f107 0324 	add.w	r3, r7, #36	; 0x24
 8001d38:	2200      	movs	r2, #0
 8001d3a:	601a      	str	r2, [r3, #0]
 8001d3c:	605a      	str	r2, [r3, #4]
 8001d3e:	609a      	str	r2, [r3, #8]
 8001d40:	60da      	str	r2, [r3, #12]
 8001d42:	611a      	str	r2, [r3, #16]
  if(tim_baseHandle->Instance==TIM2)
 8001d44:	687b      	ldr	r3, [r7, #4]
 8001d46:	681b      	ldr	r3, [r3, #0]
 8001d48:	f1b3 4f80 	cmp.w	r3, #1073741824	; 0x40000000
 8001d4c:	d131      	bne.n	8001db2 <HAL_TIM_Base_MspInit+0x86>
  {
  /* USER CODE BEGIN TIM2_MspInit 0 */

  /* USER CODE END TIM2_MspInit 0 */
    /* TIM2 clock enable */
    __HAL_RCC_TIM2_CLK_ENABLE();
 8001d4e:	4b4a      	ldr	r3, [pc, #296]	; (8001e78 <HAL_TIM_Base_MspInit+0x14c>)
 8001d50:	6d9b      	ldr	r3, [r3, #88]	; 0x58
 8001d52:	4a49      	ldr	r2, [pc, #292]	; (8001e78 <HAL_TIM_Base_MspInit+0x14c>)
 8001d54:	f043 0301 	orr.w	r3, r3, #1
 8001d58:	6593      	str	r3, [r2, #88]	; 0x58
 8001d5a:	4b47      	ldr	r3, [pc, #284]	; (8001e78 <HAL_TIM_Base_MspInit+0x14c>)
 8001d5c:	6d9b      	ldr	r3, [r3, #88]	; 0x58
 8001d5e:	f003 0301 	and.w	r3, r3, #1
 8001d62:	623b      	str	r3, [r7, #32]
 8001d64:	6a3b      	ldr	r3, [r7, #32]
  
    __HAL_RCC_GPIOA_CLK_ENABLE();
 8001d66:	4b44      	ldr	r3, [pc, #272]	; (8001e78 <HAL_TIM_Base_MspInit+0x14c>)
 8001d68:	6cdb      	ldr	r3, [r3, #76]	; 0x4c
 8001d6a:	4a43      	ldr	r2, [pc, #268]	; (8001e78 <HAL_TIM_Base_MspInit+0x14c>)
 8001d6c:	f043 0301 	orr.w	r3, r3, #1
 8001d70:	64d3      	str	r3, [r2, #76]	; 0x4c
 8001d72:	4b41      	ldr	r3, [pc, #260]	; (8001e78 <HAL_TIM_Base_MspInit+0x14c>)
 8001d74:	6cdb      	ldr	r3, [r3, #76]	; 0x4c
 8001d76:	f003 0301 	and.w	r3, r3, #1
 8001d7a:	61fb      	str	r3, [r7, #28]
 8001d7c:	69fb      	ldr	r3, [r7, #28]
    /**TIM2 GPIO Configuration    
    PA0     ------> TIM2_CH1 
    */
    GPIO_InitStruct.Pin = GPIO_PIN_0;
 8001d7e:	2301      	movs	r3, #1
 8001d80:	627b      	str	r3, [r7, #36]	; 0x24
    GPIO_InitStruct.Mode = GPIO_MODE_AF_PP;
 8001d82:	2302      	movs	r3, #2
 8001d84:	62bb      	str	r3, [r7, #40]	; 0x28
    GPIO_InitStruct.Pull = GPIO_NOPULL;
 8001d86:	2300      	movs	r3, #0
 8001d88:	62fb      	str	r3, [r7, #44]	; 0x2c
    GPIO_InitStruct.Speed = GPIO_SPEED_FREQ_LOW;
 8001d8a:	2300      	movs	r3, #0
 8001d8c:	633b      	str	r3, [r7, #48]	; 0x30
    GPIO_InitStruct.Alternate = GPIO_AF1_TIM2;
 8001d8e:	2301      	movs	r3, #1
 8001d90:	637b      	str	r3, [r7, #52]	; 0x34
    HAL_GPIO_Init(GPIOA, &GPIO_InitStruct);
 8001d92:	f107 0324 	add.w	r3, r7, #36	; 0x24
 8001d96:	4619      	mov	r1, r3
 8001d98:	f04f 4090 	mov.w	r0, #1207959552	; 0x48000000
 8001d9c:	f002 fba6 	bl	80044ec <HAL_GPIO_Init>

    /* TIM2 interrupt Init */
    HAL_NVIC_SetPriority(TIM2_IRQn, 1, 0);
 8001da0:	2200      	movs	r2, #0
 8001da2:	2101      	movs	r1, #1
 8001da4:	201c      	movs	r0, #28
 8001da6:	f001 fd48 	bl	800383a <HAL_NVIC_SetPriority>
    HAL_NVIC_EnableIRQ(TIM2_IRQn);
 8001daa:	201c      	movs	r0, #28
 8001dac:	f001 fd5f 	bl	800386e <HAL_NVIC_EnableIRQ>
    HAL_NVIC_EnableIRQ(TIM1_TRG_COM_TIM17_IRQn);
  /* USER CODE BEGIN TIM17_MspInit 1 */

  /* USER CODE END TIM17_MspInit 1 */
  }
}
 8001db0:	e05e      	b.n	8001e70 <HAL_TIM_Base_MspInit+0x144>
  else if(tim_baseHandle->Instance==TIM8)
 8001db2:	687b      	ldr	r3, [r7, #4]
 8001db4:	681b      	ldr	r3, [r3, #0]
 8001db6:	4a31      	ldr	r2, [pc, #196]	; (8001e7c <HAL_TIM_Base_MspInit+0x150>)
 8001db8:	4293      	cmp	r3, r2
 8001dba:	d10c      	bne.n	8001dd6 <HAL_TIM_Base_MspInit+0xaa>
    __HAL_RCC_TIM8_CLK_ENABLE();
 8001dbc:	4b2e      	ldr	r3, [pc, #184]	; (8001e78 <HAL_TIM_Base_MspInit+0x14c>)
 8001dbe:	6e1b      	ldr	r3, [r3, #96]	; 0x60
 8001dc0:	4a2d      	ldr	r2, [pc, #180]	; (8001e78 <HAL_TIM_Base_MspInit+0x14c>)
 8001dc2:	f443 5300 	orr.w	r3, r3, #8192	; 0x2000
 8001dc6:	6613      	str	r3, [r2, #96]	; 0x60
 8001dc8:	4b2b      	ldr	r3, [pc, #172]	; (8001e78 <HAL_TIM_Base_MspInit+0x14c>)
 8001dca:	6e1b      	ldr	r3, [r3, #96]	; 0x60
 8001dcc:	f403 5300 	and.w	r3, r3, #8192	; 0x2000
 8001dd0:	61bb      	str	r3, [r7, #24]
 8001dd2:	69bb      	ldr	r3, [r7, #24]
}
 8001dd4:	e04c      	b.n	8001e70 <HAL_TIM_Base_MspInit+0x144>
  else if(tim_baseHandle->Instance==TIM15)
 8001dd6:	687b      	ldr	r3, [r7, #4]
 8001dd8:	681b      	ldr	r3, [r3, #0]
 8001dda:	4a29      	ldr	r2, [pc, #164]	; (8001e80 <HAL_TIM_Base_MspInit+0x154>)
 8001ddc:	4293      	cmp	r3, r2
 8001dde:	d114      	bne.n	8001e0a <HAL_TIM_Base_MspInit+0xde>
    __HAL_RCC_TIM15_CLK_ENABLE();
 8001de0:	4b25      	ldr	r3, [pc, #148]	; (8001e78 <HAL_TIM_Base_MspInit+0x14c>)
 8001de2:	6e1b      	ldr	r3, [r3, #96]	; 0x60
 8001de4:	4a24      	ldr	r2, [pc, #144]	; (8001e78 <HAL_TIM_Base_MspInit+0x14c>)
 8001de6:	f443 3380 	orr.w	r3, r3, #65536	; 0x10000
 8001dea:	6613      	str	r3, [r2, #96]	; 0x60
 8001dec:	4b22      	ldr	r3, [pc, #136]	; (8001e78 <HAL_TIM_Base_MspInit+0x14c>)
 8001dee:	6e1b      	ldr	r3, [r3, #96]	; 0x60
 8001df0:	f403 3380 	and.w	r3, r3, #65536	; 0x10000
 8001df4:	617b      	str	r3, [r7, #20]
 8001df6:	697b      	ldr	r3, [r7, #20]
    HAL_NVIC_SetPriority(TIM1_BRK_TIM15_IRQn, 1, 0);
 8001df8:	2200      	movs	r2, #0
 8001dfa:	2101      	movs	r1, #1
 8001dfc:	2018      	movs	r0, #24
 8001dfe:	f001 fd1c 	bl	800383a <HAL_NVIC_SetPriority>
    HAL_NVIC_EnableIRQ(TIM1_BRK_TIM15_IRQn);
 8001e02:	2018      	movs	r0, #24
 8001e04:	f001 fd33 	bl	800386e <HAL_NVIC_EnableIRQ>
}
 8001e08:	e032      	b.n	8001e70 <HAL_TIM_Base_MspInit+0x144>
  else if(tim_baseHandle->Instance==TIM16)
 8001e0a:	687b      	ldr	r3, [r7, #4]
 8001e0c:	681b      	ldr	r3, [r3, #0]
 8001e0e:	4a1d      	ldr	r2, [pc, #116]	; (8001e84 <HAL_TIM_Base_MspInit+0x158>)
 8001e10:	4293      	cmp	r3, r2
 8001e12:	d114      	bne.n	8001e3e <HAL_TIM_Base_MspInit+0x112>
    __HAL_RCC_TIM16_CLK_ENABLE();
 8001e14:	4b18      	ldr	r3, [pc, #96]	; (8001e78 <HAL_TIM_Base_MspInit+0x14c>)
 8001e16:	6e1b      	ldr	r3, [r3, #96]	; 0x60
 8001e18:	4a17      	ldr	r2, [pc, #92]	; (8001e78 <HAL_TIM_Base_MspInit+0x14c>)
 8001e1a:	f443 3300 	orr.w	r3, r3, #131072	; 0x20000
 8001e1e:	6613      	str	r3, [r2, #96]	; 0x60
 8001e20:	4b15      	ldr	r3, [pc, #84]	; (8001e78 <HAL_TIM_Base_MspInit+0x14c>)
 8001e22:	6e1b      	ldr	r3, [r3, #96]	; 0x60
 8001e24:	f403 3300 	and.w	r3, r3, #131072	; 0x20000
 8001e28:	613b      	str	r3, [r7, #16]
 8001e2a:	693b      	ldr	r3, [r7, #16]
    HAL_NVIC_SetPriority(TIM1_UP_TIM16_IRQn, 1, 0);
 8001e2c:	2200      	movs	r2, #0
 8001e2e:	2101      	movs	r1, #1
 8001e30:	2019      	movs	r0, #25
 8001e32:	f001 fd02 	bl	800383a <HAL_NVIC_SetPriority>
    HAL_NVIC_EnableIRQ(TIM1_UP_TIM16_IRQn);
 8001e36:	2019      	movs	r0, #25
 8001e38:	f001 fd19 	bl	800386e <HAL_NVIC_EnableIRQ>
}
 8001e3c:	e018      	b.n	8001e70 <HAL_TIM_Base_MspInit+0x144>
  else if(tim_baseHandle->Instance==TIM17)
 8001e3e:	687b      	ldr	r3, [r7, #4]
 8001e40:	681b      	ldr	r3, [r3, #0]
 8001e42:	4a11      	ldr	r2, [pc, #68]	; (8001e88 <HAL_TIM_Base_MspInit+0x15c>)
 8001e44:	4293      	cmp	r3, r2
 8001e46:	d113      	bne.n	8001e70 <HAL_TIM_Base_MspInit+0x144>
    __HAL_RCC_TIM17_CLK_ENABLE();
 8001e48:	4b0b      	ldr	r3, [pc, #44]	; (8001e78 <HAL_TIM_Base_MspInit+0x14c>)
 8001e4a:	6e1b      	ldr	r3, [r3, #96]	; 0x60
 8001e4c:	4a0a      	ldr	r2, [pc, #40]	; (8001e78 <HAL_TIM_Base_MspInit+0x14c>)
 8001e4e:	f443 2380 	orr.w	r3, r3, #262144	; 0x40000
 8001e52:	6613      	str	r3, [r2, #96]	; 0x60
 8001e54:	4b08      	ldr	r3, [pc, #32]	; (8001e78 <HAL_TIM_Base_MspInit+0x14c>)
 8001e56:	6e1b      	ldr	r3, [r3, #96]	; 0x60
 8001e58:	f403 2380 	and.w	r3, r3, #262144	; 0x40000
 8001e5c:	60fb      	str	r3, [r7, #12]
 8001e5e:	68fb      	ldr	r3, [r7, #12]
    HAL_NVIC_SetPriority(TIM1_TRG_COM_TIM17_IRQn, 0, 0);
 8001e60:	2200      	movs	r2, #0
 8001e62:	2100      	movs	r1, #0
 8001e64:	201a      	movs	r0, #26
 8001e66:	f001 fce8 	bl	800383a <HAL_NVIC_SetPriority>
    HAL_NVIC_EnableIRQ(TIM1_TRG_COM_TIM17_IRQn);
 8001e6a:	201a      	movs	r0, #26
 8001e6c:	f001 fcff 	bl	800386e <HAL_NVIC_EnableIRQ>
}
 8001e70:	bf00      	nop
 8001e72:	3738      	adds	r7, #56	; 0x38
 8001e74:	46bd      	mov	sp, r7
 8001e76:	bd80      	pop	{r7, pc}
 8001e78:	40021000 	.word	0x40021000
 8001e7c:	40013400 	.word	0x40013400
 8001e80:	40014000 	.word	0x40014000
 8001e84:	40014400 	.word	0x40014400
 8001e88:	40014800 	.word	0x40014800

08001e8c <Reset_Handler>:

    .section	.text.Reset_Handler
	.weak	Reset_Handler
	.type	Reset_Handler, %function
Reset_Handler:
  ldr   r0, =_estack
 8001e8c:	480d      	ldr	r0, [pc, #52]	; (8001ec4 <LoopForever+0x2>)
  mov   sp, r0          /* set stack pointer */
 8001e8e:	4685      	mov	sp, r0

/* Copy the data segment initializers from flash to SRAM */
  ldr r0, =_sdata
 8001e90:	480d      	ldr	r0, [pc, #52]	; (8001ec8 <LoopForever+0x6>)
  ldr r1, =_edata
 8001e92:	490e      	ldr	r1, [pc, #56]	; (8001ecc <LoopForever+0xa>)
  ldr r2, =_sidata
 8001e94:	4a0e      	ldr	r2, [pc, #56]	; (8001ed0 <LoopForever+0xe>)
  movs r3, #0
 8001e96:	2300      	movs	r3, #0
  b	LoopCopyDataInit
 8001e98:	e002      	b.n	8001ea0 <LoopCopyDataInit>

08001e9a <CopyDataInit>:

CopyDataInit:
  ldr r4, [r2, r3]
 8001e9a:	58d4      	ldr	r4, [r2, r3]
  str r4, [r0, r3]
 8001e9c:	50c4      	str	r4, [r0, r3]
  adds r3, r3, #4
 8001e9e:	3304      	adds	r3, #4

08001ea0 <LoopCopyDataInit>:

LoopCopyDataInit:
  adds r4, r0, r3
 8001ea0:	18c4      	adds	r4, r0, r3
  cmp r4, r1
 8001ea2:	428c      	cmp	r4, r1
  bcc CopyDataInit
 8001ea4:	d3f9      	bcc.n	8001e9a <CopyDataInit>
  
/* Zero fill the bss segment. */
  ldr r2, =_sbss
 8001ea6:	4a0b      	ldr	r2, [pc, #44]	; (8001ed4 <LoopForever+0x12>)
  ldr r4, =_ebss
 8001ea8:	4c0b      	ldr	r4, [pc, #44]	; (8001ed8 <LoopForever+0x16>)
  movs r3, #0
 8001eaa:	2300      	movs	r3, #0
  b LoopFillZerobss
 8001eac:	e001      	b.n	8001eb2 <LoopFillZerobss>

08001eae <FillZerobss>:

FillZerobss:
  str  r3, [r2]
 8001eae:	6013      	str	r3, [r2, #0]
  adds r2, r2, #4
 8001eb0:	3204      	adds	r2, #4

08001eb2 <LoopFillZerobss>:

LoopFillZerobss:
  cmp r2, r4
 8001eb2:	42a2      	cmp	r2, r4
  bcc FillZerobss
 8001eb4:	d3fb      	bcc.n	8001eae <FillZerobss>

/* Call the clock system intitialization function.*/
    bl  SystemInit
 8001eb6:	f7ff fce7 	bl	8001888 <SystemInit>
/* Call static constructors */
    bl __libc_init_array
 8001eba:	f006 fb07 	bl	80084cc <__libc_init_array>
/* Call the application's entry point.*/
	bl	main
 8001ebe:	f7ff f8bd 	bl	800103c <main>

08001ec2 <LoopForever>:

LoopForever:
    b LoopForever
 8001ec2:	e7fe      	b.n	8001ec2 <LoopForever>
  ldr   r0, =_estack
 8001ec4:	20020000 	.word	0x20020000
  ldr r0, =_sdata
 8001ec8:	20000000 	.word	0x20000000
  ldr r1, =_edata
 8001ecc:	20000440 	.word	0x20000440
  ldr r2, =_sidata
 8001ed0:	0800974c 	.word	0x0800974c
  ldr r2, =_sbss
 8001ed4:	20000440 	.word	0x20000440
  ldr r4, =_ebss
 8001ed8:	200008ec 	.word	0x200008ec

08001edc <ADC1_2_IRQHandler>:
 * @retval : None
*/
    .section	.text.Default_Handler,"ax",%progbits
Default_Handler:
Infinite_Loop:
	b	Infinite_Loop
 8001edc:	e7fe      	b.n	8001edc <ADC1_2_IRQHandler>

08001ede <HAL_Init>:
  *         each 1ms in the SysTick_Handler() interrupt handler.
  *
  * @retval HAL status
  */
HAL_StatusTypeDef HAL_Init(void)
{
 8001ede:	b580      	push	{r7, lr}
 8001ee0:	b082      	sub	sp, #8
 8001ee2:	af00      	add	r7, sp, #0
  HAL_StatusTypeDef  status = HAL_OK;
 8001ee4:	2300      	movs	r3, #0
 8001ee6:	71fb      	strb	r3, [r7, #7]
#if (PREFETCH_ENABLE != 0U)
  __HAL_FLASH_PREFETCH_BUFFER_ENABLE();
#endif /* PREFETCH_ENABLE */

  /* Set Interrupt Group Priority */
  HAL_NVIC_SetPriorityGrouping(NVIC_PRIORITYGROUP_4);
 8001ee8:	2003      	movs	r0, #3
 8001eea:	f001 fc9b 	bl	8003824 <HAL_NVIC_SetPriorityGrouping>

  /* Use SysTick as time base source and configure 1ms tick (default clock after Reset is HSI) */
  if (HAL_InitTick(TICK_INT_PRIORITY) != HAL_OK)
 8001eee:	2000      	movs	r0, #0
 8001ef0:	f000 f80e 	bl	8001f10 <HAL_InitTick>
 8001ef4:	4603      	mov	r3, r0
 8001ef6:	2b00      	cmp	r3, #0
 8001ef8:	d002      	beq.n	8001f00 <HAL_Init+0x22>
  {
    status = HAL_ERROR;
 8001efa:	2301      	movs	r3, #1
 8001efc:	71fb      	strb	r3, [r7, #7]
 8001efe:	e001      	b.n	8001f04 <HAL_Init+0x26>
  }
  else
  {
    /* Init the low level hardware */
    HAL_MspInit();
 8001f00:	f7ff faa4 	bl	800144c <HAL_MspInit>
  }

  /* Return function status */
  return status;
 8001f04:	79fb      	ldrb	r3, [r7, #7]

}
 8001f06:	4618      	mov	r0, r3
 8001f08:	3708      	adds	r7, #8
 8001f0a:	46bd      	mov	sp, r7
 8001f0c:	bd80      	pop	{r7, pc}
	...

08001f10 <HAL_InitTick>:
  *       implementation  in user file.
  * @param TickPriority: Tick interrupt priority.
  * @retval HAL status
  */
__weak HAL_StatusTypeDef HAL_InitTick(uint32_t TickPriority)
{
 8001f10:	b580      	push	{r7, lr}
 8001f12:	b084      	sub	sp, #16
 8001f14:	af00      	add	r7, sp, #0
 8001f16:	6078      	str	r0, [r7, #4]
  HAL_StatusTypeDef  status = HAL_OK;
 8001f18:	2300      	movs	r3, #0
 8001f1a:	73fb      	strb	r3, [r7, #15]

  if (uwTickFreq != 0U)
 8001f1c:	4b16      	ldr	r3, [pc, #88]	; (8001f78 <HAL_InitTick+0x68>)
 8001f1e:	681b      	ldr	r3, [r3, #0]
 8001f20:	2b00      	cmp	r3, #0
 8001f22:	d022      	beq.n	8001f6a <HAL_InitTick+0x5a>
  {
    /* Configure the SysTick to have interrupt in 1ms time basis*/
    if (HAL_SYSTICK_Config(SystemCoreClock / (1000U / uwTickFreq)) == 0U)
 8001f24:	4b15      	ldr	r3, [pc, #84]	; (8001f7c <HAL_InitTick+0x6c>)
 8001f26:	681a      	ldr	r2, [r3, #0]
 8001f28:	4b13      	ldr	r3, [pc, #76]	; (8001f78 <HAL_InitTick+0x68>)
 8001f2a:	681b      	ldr	r3, [r3, #0]
 8001f2c:	f44f 717a 	mov.w	r1, #1000	; 0x3e8
 8001f30:	fbb1 f3f3 	udiv	r3, r1, r3
 8001f34:	fbb2 f3f3 	udiv	r3, r2, r3
 8001f38:	4618      	mov	r0, r3
 8001f3a:	f001 fca6 	bl	800388a <HAL_SYSTICK_Config>
 8001f3e:	4603      	mov	r3, r0
 8001f40:	2b00      	cmp	r3, #0
 8001f42:	d10f      	bne.n	8001f64 <HAL_InitTick+0x54>
    {
      /* Configure the SysTick IRQ priority */
      if (TickPriority < (1UL << __NVIC_PRIO_BITS))
 8001f44:	687b      	ldr	r3, [r7, #4]
 8001f46:	2b0f      	cmp	r3, #15
 8001f48:	d809      	bhi.n	8001f5e <HAL_InitTick+0x4e>
      {
        HAL_NVIC_SetPriority(SysTick_IRQn, TickPriority, 0U);
 8001f4a:	2200      	movs	r2, #0
 8001f4c:	6879      	ldr	r1, [r7, #4]
 8001f4e:	f04f 30ff 	mov.w	r0, #4294967295	; 0xffffffff
 8001f52:	f001 fc72 	bl	800383a <HAL_NVIC_SetPriority>
        uwTickPrio = TickPriority;
 8001f56:	4a0a      	ldr	r2, [pc, #40]	; (8001f80 <HAL_InitTick+0x70>)
 8001f58:	687b      	ldr	r3, [r7, #4]
 8001f5a:	6013      	str	r3, [r2, #0]
 8001f5c:	e007      	b.n	8001f6e <HAL_InitTick+0x5e>
      }
      else
      {
        status = HAL_ERROR;
 8001f5e:	2301      	movs	r3, #1
 8001f60:	73fb      	strb	r3, [r7, #15]
 8001f62:	e004      	b.n	8001f6e <HAL_InitTick+0x5e>
      }
    }
    else
    {
      status = HAL_ERROR;
 8001f64:	2301      	movs	r3, #1
 8001f66:	73fb      	strb	r3, [r7, #15]
 8001f68:	e001      	b.n	8001f6e <HAL_InitTick+0x5e>
    }
  }
  else
  {
    status = HAL_ERROR;
 8001f6a:	2301      	movs	r3, #1
 8001f6c:	73fb      	strb	r3, [r7, #15]
  }

  /* Return function status */
  return status;
 8001f6e:	7bfb      	ldrb	r3, [r7, #15]
}
 8001f70:	4618      	mov	r0, r3
 8001f72:	3710      	adds	r7, #16
 8001f74:	46bd      	mov	sp, r7
 8001f76:	bd80      	pop	{r7, pc}
 8001f78:	200003d4 	.word	0x200003d4
 8001f7c:	200003cc 	.word	0x200003cc
 8001f80:	200003d0 	.word	0x200003d0

08001f84 <HAL_IncTick>:
  * @note This function is declared as __weak to be overwritten in case of other
  *      implementations in user file.
  * @retval None
  */
__weak void HAL_IncTick(void)
{
 8001f84:	b480      	push	{r7}
 8001f86:	af00      	add	r7, sp, #0
  uwTick += uwTickFreq;
 8001f88:	4b05      	ldr	r3, [pc, #20]	; (8001fa0 <HAL_IncTick+0x1c>)
 8001f8a:	681a      	ldr	r2, [r3, #0]
 8001f8c:	4b05      	ldr	r3, [pc, #20]	; (8001fa4 <HAL_IncTick+0x20>)
 8001f8e:	681b      	ldr	r3, [r3, #0]
 8001f90:	4413      	add	r3, r2
 8001f92:	4a03      	ldr	r2, [pc, #12]	; (8001fa0 <HAL_IncTick+0x1c>)
 8001f94:	6013      	str	r3, [r2, #0]
}
 8001f96:	bf00      	nop
 8001f98:	46bd      	mov	sp, r7
 8001f9a:	f85d 7b04 	ldr.w	r7, [sp], #4
 8001f9e:	4770      	bx	lr
 8001fa0:	200008e4 	.word	0x200008e4
 8001fa4:	200003d4 	.word	0x200003d4

08001fa8 <HAL_GetTick>:
  * @note This function is declared as __weak to be overwritten in case of other
  *       implementations in user file.
  * @retval tick value
  */
__weak uint32_t HAL_GetTick(void)
{
 8001fa8:	b480      	push	{r7}
 8001faa:	af00      	add	r7, sp, #0
  return uwTick;
 8001fac:	4b03      	ldr	r3, [pc, #12]	; (8001fbc <HAL_GetTick+0x14>)
 8001fae:	681b      	ldr	r3, [r3, #0]
}
 8001fb0:	4618      	mov	r0, r3
 8001fb2:	46bd      	mov	sp, r7
 8001fb4:	f85d 7b04 	ldr.w	r7, [sp], #4
 8001fb8:	4770      	bx	lr
 8001fba:	bf00      	nop
 8001fbc:	200008e4 	.word	0x200008e4

08001fc0 <HAL_Delay>:
  *       implementations in user file.
  * @param Delay specifies the delay time length, in milliseconds.
  * @retval None
  */
__weak void HAL_Delay(uint32_t Delay)
{
 8001fc0:	b580      	push	{r7, lr}
 8001fc2:	b084      	sub	sp, #16
 8001fc4:	af00      	add	r7, sp, #0
 8001fc6:	6078      	str	r0, [r7, #4]
  uint32_t tickstart = HAL_GetTick();
 8001fc8:	f7ff ffee 	bl	8001fa8 <HAL_GetTick>
 8001fcc:	60b8      	str	r0, [r7, #8]
  uint32_t wait = Delay;
 8001fce:	687b      	ldr	r3, [r7, #4]
 8001fd0:	60fb      	str	r3, [r7, #12]

  /* Add a freq to guarantee minimum wait */
  if (wait < HAL_MAX_DELAY)
 8001fd2:	68fb      	ldr	r3, [r7, #12]
 8001fd4:	f1b3 3fff 	cmp.w	r3, #4294967295	; 0xffffffff
 8001fd8:	d004      	beq.n	8001fe4 <HAL_Delay+0x24>
  {
    wait += (uint32_t)(uwTickFreq);
 8001fda:	4b09      	ldr	r3, [pc, #36]	; (8002000 <HAL_Delay+0x40>)
 8001fdc:	681b      	ldr	r3, [r3, #0]
 8001fde:	68fa      	ldr	r2, [r7, #12]
 8001fe0:	4413      	add	r3, r2
 8001fe2:	60fb      	str	r3, [r7, #12]
  }

  while ((HAL_GetTick() - tickstart) < wait)
 8001fe4:	bf00      	nop
 8001fe6:	f7ff ffdf 	bl	8001fa8 <HAL_GetTick>
 8001fea:	4602      	mov	r2, r0
 8001fec:	68bb      	ldr	r3, [r7, #8]
 8001fee:	1ad3      	subs	r3, r2, r3
 8001ff0:	68fa      	ldr	r2, [r7, #12]
 8001ff2:	429a      	cmp	r2, r3
 8001ff4:	d8f7      	bhi.n	8001fe6 <HAL_Delay+0x26>
  {
  }
}
 8001ff6:	bf00      	nop
 8001ff8:	3710      	adds	r7, #16
 8001ffa:	46bd      	mov	sp, r7
 8001ffc:	bd80      	pop	{r7, pc}
 8001ffe:	bf00      	nop
 8002000:	200003d4 	.word	0x200003d4

08002004 <LL_ADC_SetCommonClock>:
  *         @arg @ref LL_ADC_CLOCK_ASYNC_DIV128
  *         @arg @ref LL_ADC_CLOCK_ASYNC_DIV256
  * @retval None
  */
__STATIC_INLINE void LL_ADC_SetCommonClock(ADC_Common_TypeDef *ADCxy_COMMON, uint32_t CommonClock)
{
 8002004:	b480      	push	{r7}
 8002006:	b083      	sub	sp, #12
 8002008:	af00      	add	r7, sp, #0
 800200a:	6078      	str	r0, [r7, #4]
 800200c:	6039      	str	r1, [r7, #0]
  MODIFY_REG(ADCxy_COMMON->CCR, ADC_CCR_CKMODE | ADC_CCR_PRESC, CommonClock);
 800200e:	687b      	ldr	r3, [r7, #4]
 8002010:	689b      	ldr	r3, [r3, #8]
 8002012:	f423 127c 	bic.w	r2, r3, #4128768	; 0x3f0000
 8002016:	683b      	ldr	r3, [r7, #0]
 8002018:	431a      	orrs	r2, r3
 800201a:	687b      	ldr	r3, [r7, #4]
 800201c:	609a      	str	r2, [r3, #8]
}
 800201e:	bf00      	nop
 8002020:	370c      	adds	r7, #12
 8002022:	46bd      	mov	sp, r7
 8002024:	f85d 7b04 	ldr.w	r7, [sp], #4
 8002028:	4770      	bx	lr

0800202a <LL_ADC_SetCommonPathInternalCh>:
  *         @arg @ref LL_ADC_PATH_INTERNAL_TEMPSENSOR
  *         @arg @ref LL_ADC_PATH_INTERNAL_VBAT
  * @retval None
  */
__STATIC_INLINE void LL_ADC_SetCommonPathInternalCh(ADC_Common_TypeDef *ADCxy_COMMON, uint32_t PathInternal)
{
 800202a:	b480      	push	{r7}
 800202c:	b083      	sub	sp, #12
 800202e:	af00      	add	r7, sp, #0
 8002030:	6078      	str	r0, [r7, #4]
 8002032:	6039      	str	r1, [r7, #0]
  MODIFY_REG(ADCxy_COMMON->CCR, ADC_CCR_VREFEN | ADC_CCR_VSENSESEL | ADC_CCR_VBATSEL, PathInternal);
 8002034:	687b      	ldr	r3, [r7, #4]
 8002036:	689b      	ldr	r3, [r3, #8]
 8002038:	f023 72e0 	bic.w	r2, r3, #29360128	; 0x1c00000
 800203c:	683b      	ldr	r3, [r7, #0]
 800203e:	431a      	orrs	r2, r3
 8002040:	687b      	ldr	r3, [r7, #4]
 8002042:	609a      	str	r2, [r3, #8]
}
 8002044:	bf00      	nop
 8002046:	370c      	adds	r7, #12
 8002048:	46bd      	mov	sp, r7
 800204a:	f85d 7b04 	ldr.w	r7, [sp], #4
 800204e:	4770      	bx	lr

08002050 <LL_ADC_GetCommonPathInternalCh>:
  *         @arg @ref LL_ADC_PATH_INTERNAL_VREFINT
  *         @arg @ref LL_ADC_PATH_INTERNAL_TEMPSENSOR
  *         @arg @ref LL_ADC_PATH_INTERNAL_VBAT
  */
__STATIC_INLINE uint32_t LL_ADC_GetCommonPathInternalCh(ADC_Common_TypeDef *ADCxy_COMMON)
{
 8002050:	b480      	push	{r7}
 8002052:	b083      	sub	sp, #12
 8002054:	af00      	add	r7, sp, #0
 8002056:	6078      	str	r0, [r7, #4]
  return (uint32_t)(READ_BIT(ADCxy_COMMON->CCR, ADC_CCR_VREFEN | ADC_CCR_VSENSESEL | ADC_CCR_VBATSEL));
 8002058:	687b      	ldr	r3, [r7, #4]
 800205a:	689b      	ldr	r3, [r3, #8]
 800205c:	f003 73e0 	and.w	r3, r3, #29360128	; 0x1c00000
}
 8002060:	4618      	mov	r0, r3
 8002062:	370c      	adds	r7, #12
 8002064:	46bd      	mov	sp, r7
 8002066:	f85d 7b04 	ldr.w	r7, [sp], #4
 800206a:	4770      	bx	lr

0800206c <LL_ADC_SetOffset>:
  *             Other channels are slow channels  allows: 6.5 (sampling) + 12.5 (conversion) = 19 ADC clock cycles (fADC) to convert in 12-bit resolution.\n
  * @param  OffsetLevel Value between Min_Data=0x000 and Max_Data=0xFFF
  * @retval None
  */
__STATIC_INLINE void LL_ADC_SetOffset(ADC_TypeDef *ADCx, uint32_t Offsety, uint32_t Channel, uint32_t OffsetLevel)
{
 800206c:	b490      	push	{r4, r7}
 800206e:	b084      	sub	sp, #16
 8002070:	af00      	add	r7, sp, #0
 8002072:	60f8      	str	r0, [r7, #12]
 8002074:	60b9      	str	r1, [r7, #8]
 8002076:	607a      	str	r2, [r7, #4]
 8002078:	603b      	str	r3, [r7, #0]
  register __IO uint32_t *preg = __ADC_PTR_REG_OFFSET(ADCx->OFR1, Offsety);
 800207a:	68fb      	ldr	r3, [r7, #12]
 800207c:	3360      	adds	r3, #96	; 0x60
 800207e:	461a      	mov	r2, r3
 8002080:	68bb      	ldr	r3, [r7, #8]
 8002082:	009b      	lsls	r3, r3, #2
 8002084:	4413      	add	r3, r2
 8002086:	461c      	mov	r4, r3

  MODIFY_REG(*preg,
 8002088:	6822      	ldr	r2, [r4, #0]
 800208a:	4b08      	ldr	r3, [pc, #32]	; (80020ac <LL_ADC_SetOffset+0x40>)
 800208c:	4013      	ands	r3, r2
 800208e:	687a      	ldr	r2, [r7, #4]
 8002090:	f002 41f8 	and.w	r1, r2, #2080374784	; 0x7c000000
 8002094:	683a      	ldr	r2, [r7, #0]
 8002096:	430a      	orrs	r2, r1
 8002098:	4313      	orrs	r3, r2
 800209a:	f043 4300 	orr.w	r3, r3, #2147483648	; 0x80000000
 800209e:	6023      	str	r3, [r4, #0]
             ADC_OFR1_OFFSET1_EN | ADC_OFR1_OFFSET1_CH | ADC_OFR1_OFFSET1,
             ADC_OFR1_OFFSET1_EN | (Channel & ADC_CHANNEL_ID_NUMBER_MASK) | OffsetLevel);
}
 80020a0:	bf00      	nop
 80020a2:	3710      	adds	r7, #16
 80020a4:	46bd      	mov	sp, r7
 80020a6:	bc90      	pop	{r4, r7}
 80020a8:	4770      	bx	lr
 80020aa:	bf00      	nop
 80020ac:	03fff000 	.word	0x03fff000

080020b0 <LL_ADC_GetOffsetChannel>:
  *         (1, 2, 3, 4, 5, 7) For ADC channel read back from ADC register,
  *                      comparison with internal channel parameter to be done
  *                      using helper macro @ref __LL_ADC_CHANNEL_INTERNAL_TO_EXTERNAL().
  */
__STATIC_INLINE uint32_t LL_ADC_GetOffsetChannel(ADC_TypeDef *ADCx, uint32_t Offsety)
{
 80020b0:	b490      	push	{r4, r7}
 80020b2:	b082      	sub	sp, #8
 80020b4:	af00      	add	r7, sp, #0
 80020b6:	6078      	str	r0, [r7, #4]
 80020b8:	6039      	str	r1, [r7, #0]
  register const __IO uint32_t *preg = __ADC_PTR_REG_OFFSET(ADCx->OFR1, Offsety);
 80020ba:	687b      	ldr	r3, [r7, #4]
 80020bc:	3360      	adds	r3, #96	; 0x60
 80020be:	461a      	mov	r2, r3
 80020c0:	683b      	ldr	r3, [r7, #0]
 80020c2:	009b      	lsls	r3, r3, #2
 80020c4:	4413      	add	r3, r2
 80020c6:	461c      	mov	r4, r3

  return (uint32_t) READ_BIT(*preg, ADC_OFR1_OFFSET1_CH);
 80020c8:	6823      	ldr	r3, [r4, #0]
 80020ca:	f003 43f8 	and.w	r3, r3, #2080374784	; 0x7c000000
}
 80020ce:	4618      	mov	r0, r3
 80020d0:	3708      	adds	r7, #8
 80020d2:	46bd      	mov	sp, r7
 80020d4:	bc90      	pop	{r4, r7}
 80020d6:	4770      	bx	lr

080020d8 <LL_ADC_SetOffsetState>:
  *         @arg @ref LL_ADC_OFFSET_DISABLE
  *         @arg @ref LL_ADC_OFFSET_ENABLE
  * @retval None
  */
__STATIC_INLINE void LL_ADC_SetOffsetState(ADC_TypeDef *ADCx, uint32_t Offsety, uint32_t OffsetState)
{
 80020d8:	b490      	push	{r4, r7}
 80020da:	b084      	sub	sp, #16
 80020dc:	af00      	add	r7, sp, #0
 80020de:	60f8      	str	r0, [r7, #12]
 80020e0:	60b9      	str	r1, [r7, #8]
 80020e2:	607a      	str	r2, [r7, #4]
  register __IO uint32_t *preg = __ADC_PTR_REG_OFFSET(ADCx->OFR1, Offsety);
 80020e4:	68fb      	ldr	r3, [r7, #12]
 80020e6:	3360      	adds	r3, #96	; 0x60
 80020e8:	461a      	mov	r2, r3
 80020ea:	68bb      	ldr	r3, [r7, #8]
 80020ec:	009b      	lsls	r3, r3, #2
 80020ee:	4413      	add	r3, r2
 80020f0:	461c      	mov	r4, r3

  MODIFY_REG(*preg,
 80020f2:	6823      	ldr	r3, [r4, #0]
 80020f4:	f023 4200 	bic.w	r2, r3, #2147483648	; 0x80000000
 80020f8:	687b      	ldr	r3, [r7, #4]
 80020fa:	4313      	orrs	r3, r2
 80020fc:	6023      	str	r3, [r4, #0]
             ADC_OFR1_OFFSET1_EN,
             OffsetState);
}
 80020fe:	bf00      	nop
 8002100:	3710      	adds	r7, #16
 8002102:	46bd      	mov	sp, r7
 8002104:	bc90      	pop	{r4, r7}
 8002106:	4770      	bx	lr

08002108 <LL_ADC_SetOffsetSign>:
  *         @arg @ref LL_ADC_OFFSET_SIGN_NEGATIVE
  *         @arg @ref LL_ADC_OFFSET_SIGN_POSITIVE
  * @retval None
  */
__STATIC_INLINE void LL_ADC_SetOffsetSign(ADC_TypeDef *ADCx, uint32_t Offsety, uint32_t OffsetSign)
{
 8002108:	b490      	push	{r4, r7}
 800210a:	b084      	sub	sp, #16
 800210c:	af00      	add	r7, sp, #0
 800210e:	60f8      	str	r0, [r7, #12]
 8002110:	60b9      	str	r1, [r7, #8]
 8002112:	607a      	str	r2, [r7, #4]
  register __IO uint32_t *preg = __ADC_PTR_REG_OFFSET(ADCx->OFR1, Offsety);
 8002114:	68fb      	ldr	r3, [r7, #12]
 8002116:	3360      	adds	r3, #96	; 0x60
 8002118:	461a      	mov	r2, r3
 800211a:	68bb      	ldr	r3, [r7, #8]
 800211c:	009b      	lsls	r3, r3, #2
 800211e:	4413      	add	r3, r2
 8002120:	461c      	mov	r4, r3

  MODIFY_REG(*preg,
 8002122:	6823      	ldr	r3, [r4, #0]
 8002124:	f023 7280 	bic.w	r2, r3, #16777216	; 0x1000000
 8002128:	687b      	ldr	r3, [r7, #4]
 800212a:	4313      	orrs	r3, r2
 800212c:	6023      	str	r3, [r4, #0]
             ADC_OFR1_OFFSETPOS,
             OffsetSign);
}
 800212e:	bf00      	nop
 8002130:	3710      	adds	r7, #16
 8002132:	46bd      	mov	sp, r7
 8002134:	bc90      	pop	{r4, r7}
 8002136:	4770      	bx	lr

08002138 <LL_ADC_SetOffsetSaturation>:
  *         @arg @ref LL_ADC_OFFSET_SATURATION_ENABLE
  *         @arg @ref LL_ADC_OFFSET_SATURATION_DISABLE
  * @retval None
  */
__STATIC_INLINE void LL_ADC_SetOffsetSaturation(ADC_TypeDef *ADCx, uint32_t Offsety, uint32_t OffsetSaturation)
{
 8002138:	b490      	push	{r4, r7}
 800213a:	b084      	sub	sp, #16
 800213c:	af00      	add	r7, sp, #0
 800213e:	60f8      	str	r0, [r7, #12]
 8002140:	60b9      	str	r1, [r7, #8]
 8002142:	607a      	str	r2, [r7, #4]
  register __IO uint32_t *preg = __ADC_PTR_REG_OFFSET(ADCx->OFR1, Offsety);
 8002144:	68fb      	ldr	r3, [r7, #12]
 8002146:	3360      	adds	r3, #96	; 0x60
 8002148:	461a      	mov	r2, r3
 800214a:	68bb      	ldr	r3, [r7, #8]
 800214c:	009b      	lsls	r3, r3, #2
 800214e:	4413      	add	r3, r2
 8002150:	461c      	mov	r4, r3

  MODIFY_REG(*preg,
 8002152:	6823      	ldr	r3, [r4, #0]
 8002154:	f023 7200 	bic.w	r2, r3, #33554432	; 0x2000000
 8002158:	687b      	ldr	r3, [r7, #4]
 800215a:	4313      	orrs	r3, r2
 800215c:	6023      	str	r3, [r4, #0]
             ADC_OFR1_SATEN,
             OffsetSaturation);
}
 800215e:	bf00      	nop
 8002160:	3710      	adds	r7, #16
 8002162:	46bd      	mov	sp, r7
 8002164:	bc90      	pop	{r4, r7}
 8002166:	4770      	bx	lr

08002168 <LL_ADC_SetSamplingTimeCommonConfig>:
  *         @arg @ref LL_ADC_SAMPLINGTIME_COMMON_DEFAULT
  *         @arg @ref LL_ADC_SAMPLINGTIME_COMMON_3C5_REPL_2C5
  * @retval None
  */
__STATIC_INLINE void LL_ADC_SetSamplingTimeCommonConfig(ADC_TypeDef *ADCx, uint32_t SamplingTimeCommonConfig)
{
 8002168:	b480      	push	{r7}
 800216a:	b083      	sub	sp, #12
 800216c:	af00      	add	r7, sp, #0
 800216e:	6078      	str	r0, [r7, #4]
 8002170:	6039      	str	r1, [r7, #0]
  MODIFY_REG(ADCx->SMPR1, ADC_SMPR1_SMPPLUS, SamplingTimeCommonConfig);
 8002172:	687b      	ldr	r3, [r7, #4]
 8002174:	695b      	ldr	r3, [r3, #20]
 8002176:	f023 4200 	bic.w	r2, r3, #2147483648	; 0x80000000
 800217a:	683b      	ldr	r3, [r7, #0]
 800217c:	431a      	orrs	r2, r3
 800217e:	687b      	ldr	r3, [r7, #4]
 8002180:	615a      	str	r2, [r3, #20]
}
 8002182:	bf00      	nop
 8002184:	370c      	adds	r7, #12
 8002186:	46bd      	mov	sp, r7
 8002188:	f85d 7b04 	ldr.w	r7, [sp], #4
 800218c:	4770      	bx	lr

0800218e <LL_ADC_REG_SetSequencerRanks>:
  *         (8) On STM32G4, fast channel allows: 2.5 (sampling) + 12.5 (conversion) = 15 ADC clock cycles (fADC) to convert in 12-bit resolution.
  *             Other channels are slow channels  allows: 6.5 (sampling) + 12.5 (conversion) = 19 ADC clock cycles (fADC) to convert in 12-bit resolution.\n
  * @retval None
  */
__STATIC_INLINE void LL_ADC_REG_SetSequencerRanks(ADC_TypeDef *ADCx, uint32_t Rank, uint32_t Channel)
{
 800218e:	b490      	push	{r4, r7}
 8002190:	b084      	sub	sp, #16
 8002192:	af00      	add	r7, sp, #0
 8002194:	60f8      	str	r0, [r7, #12]
 8002196:	60b9      	str	r1, [r7, #8]
 8002198:	607a      	str	r2, [r7, #4]
  /* Set bits with content of parameter "Channel" with bits position          */
  /* in register and register position depending on parameter "Rank".         */
  /* Parameters "Rank" and "Channel" are used with masks because containing   */
  /* other bits reserved for other purpose.                                   */
  register __IO uint32_t *preg = __ADC_PTR_REG_OFFSET(ADCx->SQR1, ((Rank & ADC_REG_SQRX_REGOFFSET_MASK) >> ADC_SQRX_REGOFFSET_POS));
 800219a:	68fb      	ldr	r3, [r7, #12]
 800219c:	3330      	adds	r3, #48	; 0x30
 800219e:	461a      	mov	r2, r3
 80021a0:	68bb      	ldr	r3, [r7, #8]
 80021a2:	0a1b      	lsrs	r3, r3, #8
 80021a4:	009b      	lsls	r3, r3, #2
 80021a6:	f003 030c 	and.w	r3, r3, #12
 80021aa:	4413      	add	r3, r2
 80021ac:	461c      	mov	r4, r3

  MODIFY_REG(*preg,
 80021ae:	6822      	ldr	r2, [r4, #0]
 80021b0:	68bb      	ldr	r3, [r7, #8]
 80021b2:	f003 031f 	and.w	r3, r3, #31
 80021b6:	211f      	movs	r1, #31
 80021b8:	fa01 f303 	lsl.w	r3, r1, r3
 80021bc:	43db      	mvns	r3, r3
 80021be:	401a      	ands	r2, r3
 80021c0:	687b      	ldr	r3, [r7, #4]
 80021c2:	0e9b      	lsrs	r3, r3, #26
 80021c4:	f003 011f 	and.w	r1, r3, #31
 80021c8:	68bb      	ldr	r3, [r7, #8]
 80021ca:	f003 031f 	and.w	r3, r3, #31
 80021ce:	fa01 f303 	lsl.w	r3, r1, r3
 80021d2:	4313      	orrs	r3, r2
 80021d4:	6023      	str	r3, [r4, #0]
             ADC_CHANNEL_ID_NUMBER_MASK_POSBIT0 << (Rank & ADC_REG_RANK_ID_SQRX_MASK),
             ((Channel & ADC_CHANNEL_ID_NUMBER_MASK) >> ADC_CHANNEL_ID_NUMBER_BITOFFSET_POS) << (Rank & ADC_REG_RANK_ID_SQRX_MASK));
}
 80021d6:	bf00      	nop
 80021d8:	3710      	adds	r7, #16
 80021da:	46bd      	mov	sp, r7
 80021dc:	bc90      	pop	{r4, r7}
 80021de:	4770      	bx	lr

080021e0 <LL_ADC_SetChannelSamplingTime>:
  *             can be replaced by 3.5 ADC clock cycles.
  *             Refer to function @ref LL_ADC_SetSamplingTimeCommonConfig().
  * @retval None
  */
__STATIC_INLINE void LL_ADC_SetChannelSamplingTime(ADC_TypeDef *ADCx, uint32_t Channel, uint32_t SamplingTime)
{
 80021e0:	b490      	push	{r4, r7}
 80021e2:	b084      	sub	sp, #16
 80021e4:	af00      	add	r7, sp, #0
 80021e6:	60f8      	str	r0, [r7, #12]
 80021e8:	60b9      	str	r1, [r7, #8]
 80021ea:	607a      	str	r2, [r7, #4]
  /* Set bits with content of parameter "SamplingTime" with bits position     */
  /* in register and register position depending on parameter "Channel".      */
  /* Parameter "Channel" is used with masks because containing                */
  /* other bits reserved for other purpose.                                   */
  register __IO uint32_t *preg = __ADC_PTR_REG_OFFSET(ADCx->SMPR1, ((Channel & ADC_CHANNEL_SMPRX_REGOFFSET_MASK) >> ADC_SMPRX_REGOFFSET_POS));
 80021ec:	68fb      	ldr	r3, [r7, #12]
 80021ee:	3314      	adds	r3, #20
 80021f0:	461a      	mov	r2, r3
 80021f2:	68bb      	ldr	r3, [r7, #8]
 80021f4:	0e5b      	lsrs	r3, r3, #25
 80021f6:	009b      	lsls	r3, r3, #2
 80021f8:	f003 0304 	and.w	r3, r3, #4
 80021fc:	4413      	add	r3, r2
 80021fe:	461c      	mov	r4, r3

  MODIFY_REG(*preg,
 8002200:	6822      	ldr	r2, [r4, #0]
 8002202:	68bb      	ldr	r3, [r7, #8]
 8002204:	0d1b      	lsrs	r3, r3, #20
 8002206:	f003 031f 	and.w	r3, r3, #31
 800220a:	2107      	movs	r1, #7
 800220c:	fa01 f303 	lsl.w	r3, r1, r3
 8002210:	43db      	mvns	r3, r3
 8002212:	401a      	ands	r2, r3
 8002214:	68bb      	ldr	r3, [r7, #8]
 8002216:	0d1b      	lsrs	r3, r3, #20
 8002218:	f003 031f 	and.w	r3, r3, #31
 800221c:	6879      	ldr	r1, [r7, #4]
 800221e:	fa01 f303 	lsl.w	r3, r1, r3
 8002222:	4313      	orrs	r3, r2
 8002224:	6023      	str	r3, [r4, #0]
             ADC_SMPR1_SMP0 << ((Channel & ADC_CHANNEL_SMPx_BITOFFSET_MASK) >> ADC_CHANNEL_SMPx_BITOFFSET_POS),
             SamplingTime   << ((Channel & ADC_CHANNEL_SMPx_BITOFFSET_MASK) >> ADC_CHANNEL_SMPx_BITOFFSET_POS));
}
 8002226:	bf00      	nop
 8002228:	3710      	adds	r7, #16
 800222a:	46bd      	mov	sp, r7
 800222c:	bc90      	pop	{r4, r7}
 800222e:	4770      	bx	lr

08002230 <LL_ADC_SetChannelSingleDiff>:
  *         @arg @ref LL_ADC_SINGLE_ENDED
  *         @arg @ref LL_ADC_DIFFERENTIAL_ENDED
  * @retval None
  */
__STATIC_INLINE void LL_ADC_SetChannelSingleDiff(ADC_TypeDef *ADCx, uint32_t Channel, uint32_t SingleDiff)
{
 8002230:	b480      	push	{r7}
 8002232:	b085      	sub	sp, #20
 8002234:	af00      	add	r7, sp, #0
 8002236:	60f8      	str	r0, [r7, #12]
 8002238:	60b9      	str	r1, [r7, #8]
 800223a:	607a      	str	r2, [r7, #4]
  /* Bits of channels in single or differential mode are set only for         */
  /* differential mode (for single mode, mask of bits allowed to be set is    */
  /* shifted out of range of bits of channels in single or differential mode. */
  MODIFY_REG(ADCx->DIFSEL,
 800223c:	68fb      	ldr	r3, [r7, #12]
 800223e:	f8d3 20b0 	ldr.w	r2, [r3, #176]	; 0xb0
 8002242:	68bb      	ldr	r3, [r7, #8]
 8002244:	f3c3 0312 	ubfx	r3, r3, #0, #19
 8002248:	43db      	mvns	r3, r3
 800224a:	401a      	ands	r2, r3
 800224c:	687b      	ldr	r3, [r7, #4]
 800224e:	f003 0318 	and.w	r3, r3, #24
 8002252:	4908      	ldr	r1, [pc, #32]	; (8002274 <LL_ADC_SetChannelSingleDiff+0x44>)
 8002254:	40d9      	lsrs	r1, r3
 8002256:	68bb      	ldr	r3, [r7, #8]
 8002258:	400b      	ands	r3, r1
 800225a:	f3c3 0312 	ubfx	r3, r3, #0, #19
 800225e:	431a      	orrs	r2, r3
 8002260:	68fb      	ldr	r3, [r7, #12]
 8002262:	f8c3 20b0 	str.w	r2, [r3, #176]	; 0xb0
             Channel & ADC_SINGLEDIFF_CHANNEL_MASK,
             (Channel & ADC_SINGLEDIFF_CHANNEL_MASK) & (ADC_DIFSEL_DIFSEL >> (SingleDiff & ADC_SINGLEDIFF_CHANNEL_SHIFT_MASK)));
}
 8002266:	bf00      	nop
 8002268:	3714      	adds	r7, #20
 800226a:	46bd      	mov	sp, r7
 800226c:	f85d 7b04 	ldr.w	r7, [sp], #4
 8002270:	4770      	bx	lr
 8002272:	bf00      	nop
 8002274:	0007ffff 	.word	0x0007ffff

08002278 <LL_ADC_DisableDeepPowerDown>:
  * @rmtoll CR       DEEPPWD        LL_ADC_DisableDeepPowerDown
  * @param  ADCx ADC instance
  * @retval None
  */
__STATIC_INLINE void LL_ADC_DisableDeepPowerDown(ADC_TypeDef *ADCx)
{
 8002278:	b480      	push	{r7}
 800227a:	b083      	sub	sp, #12
 800227c:	af00      	add	r7, sp, #0
 800227e:	6078      	str	r0, [r7, #4]
  /* Note: Write register with some additional bits forced to state reset     */
  /*       instead of modifying only the selected bit for this function,      */
  /*       to not interfere with bits with HW property "rs".                  */
  CLEAR_BIT(ADCx->CR, (ADC_CR_DEEPPWD | ADC_CR_BITS_PROPERTY_RS));
 8002280:	687b      	ldr	r3, [r7, #4]
 8002282:	689b      	ldr	r3, [r3, #8]
 8002284:	f023 4320 	bic.w	r3, r3, #2684354560	; 0xa0000000
 8002288:	f023 033f 	bic.w	r3, r3, #63	; 0x3f
 800228c:	687a      	ldr	r2, [r7, #4]
 800228e:	6093      	str	r3, [r2, #8]
}
 8002290:	bf00      	nop
 8002292:	370c      	adds	r7, #12
 8002294:	46bd      	mov	sp, r7
 8002296:	f85d 7b04 	ldr.w	r7, [sp], #4
 800229a:	4770      	bx	lr

0800229c <LL_ADC_IsDeepPowerDownEnabled>:
  * @rmtoll CR       DEEPPWD        LL_ADC_IsDeepPowerDownEnabled
  * @param  ADCx ADC instance
  * @retval 0: deep power down is disabled, 1: deep power down is enabled.
  */
__STATIC_INLINE uint32_t LL_ADC_IsDeepPowerDownEnabled(ADC_TypeDef *ADCx)
{
 800229c:	b480      	push	{r7}
 800229e:	b083      	sub	sp, #12
 80022a0:	af00      	add	r7, sp, #0
 80022a2:	6078      	str	r0, [r7, #4]
  return ((READ_BIT(ADCx->CR, ADC_CR_DEEPPWD) == (ADC_CR_DEEPPWD)) ? 1UL : 0UL);
 80022a4:	687b      	ldr	r3, [r7, #4]
 80022a6:	689b      	ldr	r3, [r3, #8]
 80022a8:	f003 5300 	and.w	r3, r3, #536870912	; 0x20000000
 80022ac:	f1b3 5f00 	cmp.w	r3, #536870912	; 0x20000000
 80022b0:	d101      	bne.n	80022b6 <LL_ADC_IsDeepPowerDownEnabled+0x1a>
 80022b2:	2301      	movs	r3, #1
 80022b4:	e000      	b.n	80022b8 <LL_ADC_IsDeepPowerDownEnabled+0x1c>
 80022b6:	2300      	movs	r3, #0
}
 80022b8:	4618      	mov	r0, r3
 80022ba:	370c      	adds	r7, #12
 80022bc:	46bd      	mov	sp, r7
 80022be:	f85d 7b04 	ldr.w	r7, [sp], #4
 80022c2:	4770      	bx	lr

080022c4 <LL_ADC_EnableInternalRegulator>:
  * @rmtoll CR       ADVREGEN       LL_ADC_EnableInternalRegulator
  * @param  ADCx ADC instance
  * @retval None
  */
__STATIC_INLINE void LL_ADC_EnableInternalRegulator(ADC_TypeDef *ADCx)
{
 80022c4:	b480      	push	{r7}
 80022c6:	b083      	sub	sp, #12
 80022c8:	af00      	add	r7, sp, #0
 80022ca:	6078      	str	r0, [r7, #4]
  /* Note: Write register with some additional bits forced to state reset     */
  /*       instead of modifying only the selected bit for this function,      */
  /*       to not interfere with bits with HW property "rs".                  */
  MODIFY_REG(ADCx->CR,
 80022cc:	687b      	ldr	r3, [r7, #4]
 80022ce:	689b      	ldr	r3, [r3, #8]
 80022d0:	f023 4310 	bic.w	r3, r3, #2415919104	; 0x90000000
 80022d4:	f023 033f 	bic.w	r3, r3, #63	; 0x3f
 80022d8:	f043 5280 	orr.w	r2, r3, #268435456	; 0x10000000
 80022dc:	687b      	ldr	r3, [r7, #4]
 80022de:	609a      	str	r2, [r3, #8]
             ADC_CR_BITS_PROPERTY_RS,
             ADC_CR_ADVREGEN);
}
 80022e0:	bf00      	nop
 80022e2:	370c      	adds	r7, #12
 80022e4:	46bd      	mov	sp, r7
 80022e6:	f85d 7b04 	ldr.w	r7, [sp], #4
 80022ea:	4770      	bx	lr

080022ec <LL_ADC_IsInternalRegulatorEnabled>:
  * @rmtoll CR       ADVREGEN       LL_ADC_IsInternalRegulatorEnabled
  * @param  ADCx ADC instance
  * @retval 0: internal regulator is disabled, 1: internal regulator is enabled.
  */
__STATIC_INLINE uint32_t LL_ADC_IsInternalRegulatorEnabled(ADC_TypeDef *ADCx)
{
 80022ec:	b480      	push	{r7}
 80022ee:	b083      	sub	sp, #12
 80022f0:	af00      	add	r7, sp, #0
 80022f2:	6078      	str	r0, [r7, #4]
  return ((READ_BIT(ADCx->CR, ADC_CR_ADVREGEN) == (ADC_CR_ADVREGEN)) ? 1UL : 0UL);
 80022f4:	687b      	ldr	r3, [r7, #4]
 80022f6:	689b      	ldr	r3, [r3, #8]
 80022f8:	f003 5380 	and.w	r3, r3, #268435456	; 0x10000000
 80022fc:	f1b3 5f80 	cmp.w	r3, #268435456	; 0x10000000
 8002300:	d101      	bne.n	8002306 <LL_ADC_IsInternalRegulatorEnabled+0x1a>
 8002302:	2301      	movs	r3, #1
 8002304:	e000      	b.n	8002308 <LL_ADC_IsInternalRegulatorEnabled+0x1c>
 8002306:	2300      	movs	r3, #0
}
 8002308:	4618      	mov	r0, r3
 800230a:	370c      	adds	r7, #12
 800230c:	46bd      	mov	sp, r7
 800230e:	f85d 7b04 	ldr.w	r7, [sp], #4
 8002312:	4770      	bx	lr

08002314 <LL_ADC_IsEnabled>:
  * @rmtoll CR       ADEN           LL_ADC_IsEnabled
  * @param  ADCx ADC instance
  * @retval 0: ADC is disabled, 1: ADC is enabled.
  */
__STATIC_INLINE uint32_t LL_ADC_IsEnabled(ADC_TypeDef *ADCx)
{
 8002314:	b480      	push	{r7}
 8002316:	b083      	sub	sp, #12
 8002318:	af00      	add	r7, sp, #0
 800231a:	6078      	str	r0, [r7, #4]
  return ((READ_BIT(ADCx->CR, ADC_CR_ADEN) == (ADC_CR_ADEN)) ? 1UL : 0UL);
 800231c:	687b      	ldr	r3, [r7, #4]
 800231e:	689b      	ldr	r3, [r3, #8]
 8002320:	f003 0301 	and.w	r3, r3, #1
 8002324:	2b01      	cmp	r3, #1
 8002326:	d101      	bne.n	800232c <LL_ADC_IsEnabled+0x18>
 8002328:	2301      	movs	r3, #1
 800232a:	e000      	b.n	800232e <LL_ADC_IsEnabled+0x1a>
 800232c:	2300      	movs	r3, #0
}
 800232e:	4618      	mov	r0, r3
 8002330:	370c      	adds	r7, #12
 8002332:	46bd      	mov	sp, r7
 8002334:	f85d 7b04 	ldr.w	r7, [sp], #4
 8002338:	4770      	bx	lr

0800233a <LL_ADC_REG_IsConversionOngoing>:
  * @rmtoll CR       ADSTART        LL_ADC_REG_IsConversionOngoing
  * @param  ADCx ADC instance
  * @retval 0: no conversion is on going on ADC group regular.
  */
__STATIC_INLINE uint32_t LL_ADC_REG_IsConversionOngoing(ADC_TypeDef *ADCx)
{
 800233a:	b480      	push	{r7}
 800233c:	b083      	sub	sp, #12
 800233e:	af00      	add	r7, sp, #0
 8002340:	6078      	str	r0, [r7, #4]
  return ((READ_BIT(ADCx->CR, ADC_CR_ADSTART) == (ADC_CR_ADSTART)) ? 1UL : 0UL);
 8002342:	687b      	ldr	r3, [r7, #4]
 8002344:	689b      	ldr	r3, [r3, #8]
 8002346:	f003 0304 	and.w	r3, r3, #4
 800234a:	2b04      	cmp	r3, #4
 800234c:	d101      	bne.n	8002352 <LL_ADC_REG_IsConversionOngoing+0x18>
 800234e:	2301      	movs	r3, #1
 8002350:	e000      	b.n	8002354 <LL_ADC_REG_IsConversionOngoing+0x1a>
 8002352:	2300      	movs	r3, #0
}
 8002354:	4618      	mov	r0, r3
 8002356:	370c      	adds	r7, #12
 8002358:	46bd      	mov	sp, r7
 800235a:	f85d 7b04 	ldr.w	r7, [sp], #4
 800235e:	4770      	bx	lr

08002360 <LL_ADC_INJ_IsConversionOngoing>:
  * @rmtoll CR       JADSTART       LL_ADC_INJ_IsConversionOngoing
  * @param  ADCx ADC instance
  * @retval 0: no conversion is on going on ADC group injected.
  */
__STATIC_INLINE uint32_t LL_ADC_INJ_IsConversionOngoing(ADC_TypeDef *ADCx)
{
 8002360:	b480      	push	{r7}
 8002362:	b083      	sub	sp, #12
 8002364:	af00      	add	r7, sp, #0
 8002366:	6078      	str	r0, [r7, #4]
  return ((READ_BIT(ADCx->CR, ADC_CR_JADSTART) == (ADC_CR_JADSTART)) ? 1UL : 0UL);
 8002368:	687b      	ldr	r3, [r7, #4]
 800236a:	689b      	ldr	r3, [r3, #8]
 800236c:	f003 0308 	and.w	r3, r3, #8
 8002370:	2b08      	cmp	r3, #8
 8002372:	d101      	bne.n	8002378 <LL_ADC_INJ_IsConversionOngoing+0x18>
 8002374:	2301      	movs	r3, #1
 8002376:	e000      	b.n	800237a <LL_ADC_INJ_IsConversionOngoing+0x1a>
 8002378:	2300      	movs	r3, #0
}
 800237a:	4618      	mov	r0, r3
 800237c:	370c      	adds	r7, #12
 800237e:	46bd      	mov	sp, r7
 8002380:	f85d 7b04 	ldr.w	r7, [sp], #4
 8002384:	4770      	bx	lr
	...

08002388 <HAL_ADC_Init>:
  *         without  disabling the other ADCs.
  * @param hadc ADC handle
  * @retval HAL status
  */
HAL_StatusTypeDef HAL_ADC_Init(ADC_HandleTypeDef *hadc)
{
 8002388:	b590      	push	{r4, r7, lr}
 800238a:	b089      	sub	sp, #36	; 0x24
 800238c:	af00      	add	r7, sp, #0
 800238e:	6078      	str	r0, [r7, #4]
  HAL_StatusTypeDef tmp_hal_status = HAL_OK;
 8002390:	2300      	movs	r3, #0
 8002392:	77fb      	strb	r3, [r7, #31]
  uint32_t tmpCFGR;
  uint32_t tmp_adc_reg_is_conversion_on_going;
  __IO uint32_t wait_loop_index = 0UL;
 8002394:	2300      	movs	r3, #0
 8002396:	60bb      	str	r3, [r7, #8]
  uint32_t tmp_adc_is_conversion_on_going_regular;
  uint32_t tmp_adc_is_conversion_on_going_injected;

  /* Check ADC handle */
  if (hadc == NULL)
 8002398:	687b      	ldr	r3, [r7, #4]
 800239a:	2b00      	cmp	r3, #0
 800239c:	d101      	bne.n	80023a2 <HAL_ADC_Init+0x1a>
  {
    return HAL_ERROR;
 800239e:	2301      	movs	r3, #1
 80023a0:	e1ad      	b.n	80026fe <HAL_ADC_Init+0x376>
  assert_param(IS_ADC_EOC_SELECTION(hadc->Init.EOCSelection));
  assert_param(IS_ADC_OVERRUN(hadc->Init.Overrun));
  assert_param(IS_FUNCTIONAL_STATE(hadc->Init.LowPowerAutoWait));
  assert_param(IS_FUNCTIONAL_STATE(hadc->Init.OversamplingMode));

  if (hadc->Init.ScanConvMode != ADC_SCAN_DISABLE)
 80023a2:	687b      	ldr	r3, [r7, #4]
 80023a4:	695b      	ldr	r3, [r3, #20]
 80023a6:	2b00      	cmp	r3, #0
  /* DISCEN and CONT bits cannot be set at the same time */
  assert_param(!((hadc->Init.DiscontinuousConvMode == ENABLE) && (hadc->Init.ContinuousConvMode == ENABLE)));

  /* Actions performed only if ADC is coming from state reset:                */
  /* - Initialization of ADC MSP                                              */
  if (hadc->State == HAL_ADC_STATE_RESET)
 80023a8:	687b      	ldr	r3, [r7, #4]
 80023aa:	6ddb      	ldr	r3, [r3, #92]	; 0x5c
 80023ac:	2b00      	cmp	r3, #0
 80023ae:	d109      	bne.n	80023c4 <HAL_ADC_Init+0x3c>

    /* Init the low level hardware */
    hadc->MspInitCallback(hadc);
#else
    /* Init the low level hardware */
    HAL_ADC_MspInit(hadc);
 80023b0:	6878      	ldr	r0, [r7, #4]
 80023b2:	f7fe f84b 	bl	800044c <HAL_ADC_MspInit>
#endif /* USE_HAL_ADC_REGISTER_CALLBACKS */

    /* Set ADC error code to none */
    ADC_CLEAR_ERRORCODE(hadc);
 80023b6:	687b      	ldr	r3, [r7, #4]
 80023b8:	2200      	movs	r2, #0
 80023ba:	661a      	str	r2, [r3, #96]	; 0x60

    /* Initialize Lock */
    hadc->Lock = HAL_UNLOCKED;
 80023bc:	687b      	ldr	r3, [r7, #4]
 80023be:	2200      	movs	r2, #0
 80023c0:	f883 2058 	strb.w	r2, [r3, #88]	; 0x58
  }

  /* - Exit from deep-power-down mode and ADC voltage regulator enable        */
  if (LL_ADC_IsDeepPowerDownEnabled(hadc->Instance) != 0UL)
 80023c4:	687b      	ldr	r3, [r7, #4]
 80023c6:	681b      	ldr	r3, [r3, #0]
 80023c8:	4618      	mov	r0, r3
 80023ca:	f7ff ff67 	bl	800229c <LL_ADC_IsDeepPowerDownEnabled>
 80023ce:	4603      	mov	r3, r0
 80023d0:	2b00      	cmp	r3, #0
 80023d2:	d004      	beq.n	80023de <HAL_ADC_Init+0x56>
  {
    /* Disable ADC deep power down mode */
    LL_ADC_DisableDeepPowerDown(hadc->Instance);
 80023d4:	687b      	ldr	r3, [r7, #4]
 80023d6:	681b      	ldr	r3, [r3, #0]
 80023d8:	4618      	mov	r0, r3
 80023da:	f7ff ff4d 	bl	8002278 <LL_ADC_DisableDeepPowerDown>
    /* System was in deep power down mode, calibration must
     be relaunched or a previously saved calibration factor
     re-applied once the ADC voltage regulator is enabled */
  }

  if (LL_ADC_IsInternalRegulatorEnabled(hadc->Instance) == 0UL)
 80023de:	687b      	ldr	r3, [r7, #4]
 80023e0:	681b      	ldr	r3, [r3, #0]
 80023e2:	4618      	mov	r0, r3
 80023e4:	f7ff ff82 	bl	80022ec <LL_ADC_IsInternalRegulatorEnabled>
 80023e8:	4603      	mov	r3, r0
 80023ea:	2b00      	cmp	r3, #0
 80023ec:	d113      	bne.n	8002416 <HAL_ADC_Init+0x8e>
  {
    /* Enable ADC internal voltage regulator */
    LL_ADC_EnableInternalRegulator(hadc->Instance);
 80023ee:	687b      	ldr	r3, [r7, #4]
 80023f0:	681b      	ldr	r3, [r3, #0]
 80023f2:	4618      	mov	r0, r3
 80023f4:	f7ff ff66 	bl	80022c4 <LL_ADC_EnableInternalRegulator>

    /* Note: Variable divided by 2 to compensate partially              */
    /*       CPU processing cycles, scaling in us split to not          */
    /*       exceed 32 bits register capacity and handle low frequency. */
    wait_loop_index = ((LL_ADC_DELAY_INTERNAL_REGUL_STAB_US / 10UL) * (SystemCoreClock / (100000UL * 2UL)));
 80023f8:	4b9e      	ldr	r3, [pc, #632]	; (8002674 <HAL_ADC_Init+0x2ec>)
 80023fa:	681b      	ldr	r3, [r3, #0]
 80023fc:	099b      	lsrs	r3, r3, #6
 80023fe:	4a9e      	ldr	r2, [pc, #632]	; (8002678 <HAL_ADC_Init+0x2f0>)
 8002400:	fba2 2303 	umull	r2, r3, r2, r3
 8002404:	099b      	lsrs	r3, r3, #6
 8002406:	60bb      	str	r3, [r7, #8]
    while (wait_loop_index != 0UL)
 8002408:	e002      	b.n	8002410 <HAL_ADC_Init+0x88>
    {
      wait_loop_index--;
 800240a:	68bb      	ldr	r3, [r7, #8]
 800240c:	3b01      	subs	r3, #1
 800240e:	60bb      	str	r3, [r7, #8]
    while (wait_loop_index != 0UL)
 8002410:	68bb      	ldr	r3, [r7, #8]
 8002412:	2b00      	cmp	r3, #0
 8002414:	d1f9      	bne.n	800240a <HAL_ADC_Init+0x82>
  }

  /* Verification that ADC voltage regulator is correctly enabled, whether    */
  /* or not ADC is coming from state reset (if any potential problem of       */
  /* clocking, voltage regulator would not be enabled).                       */
  if (LL_ADC_IsInternalRegulatorEnabled(hadc->Instance) == 0UL)
 8002416:	687b      	ldr	r3, [r7, #4]
 8002418:	681b      	ldr	r3, [r3, #0]
 800241a:	4618      	mov	r0, r3
 800241c:	f7ff ff66 	bl	80022ec <LL_ADC_IsInternalRegulatorEnabled>
 8002420:	4603      	mov	r3, r0
 8002422:	2b00      	cmp	r3, #0
 8002424:	d10d      	bne.n	8002442 <HAL_ADC_Init+0xba>
  {
    /* Update ADC state machine to error */
    SET_BIT(hadc->State, HAL_ADC_STATE_ERROR_INTERNAL);
 8002426:	687b      	ldr	r3, [r7, #4]
 8002428:	6ddb      	ldr	r3, [r3, #92]	; 0x5c
 800242a:	f043 0210 	orr.w	r2, r3, #16
 800242e:	687b      	ldr	r3, [r7, #4]
 8002430:	65da      	str	r2, [r3, #92]	; 0x5c

    /* Set ADC error code to ADC peripheral internal error */
    SET_BIT(hadc->ErrorCode, HAL_ADC_ERROR_INTERNAL);
 8002432:	687b      	ldr	r3, [r7, #4]
 8002434:	6e1b      	ldr	r3, [r3, #96]	; 0x60
 8002436:	f043 0201 	orr.w	r2, r3, #1
 800243a:	687b      	ldr	r3, [r7, #4]
 800243c:	661a      	str	r2, [r3, #96]	; 0x60

    tmp_hal_status = HAL_ERROR;
 800243e:	2301      	movs	r3, #1
 8002440:	77fb      	strb	r3, [r7, #31]

  /* Configuration of ADC parameters if previous preliminary actions are      */
  /* correctly completed and if there is no conversion on going on regular    */
  /* group (ADC may already be enabled at this point if HAL_ADC_Init() is     */
  /* called to update a parameter on the fly).                                */
  tmp_adc_reg_is_conversion_on_going = LL_ADC_REG_IsConversionOngoing(hadc->Instance);
 8002442:	687b      	ldr	r3, [r7, #4]
 8002444:	681b      	ldr	r3, [r3, #0]
 8002446:	4618      	mov	r0, r3
 8002448:	f7ff ff77 	bl	800233a <LL_ADC_REG_IsConversionOngoing>
 800244c:	6178      	str	r0, [r7, #20]

  if (((hadc->State & HAL_ADC_STATE_ERROR_INTERNAL) == 0UL)
 800244e:	687b      	ldr	r3, [r7, #4]
 8002450:	6ddb      	ldr	r3, [r3, #92]	; 0x5c
 8002452:	f003 0310 	and.w	r3, r3, #16
 8002456:	2b00      	cmp	r3, #0
 8002458:	f040 8148 	bne.w	80026ec <HAL_ADC_Init+0x364>
      && (tmp_adc_reg_is_conversion_on_going == 0UL)
 800245c:	697b      	ldr	r3, [r7, #20]
 800245e:	2b00      	cmp	r3, #0
 8002460:	f040 8144 	bne.w	80026ec <HAL_ADC_Init+0x364>
     )
  {
    /* Set ADC state */
    ADC_STATE_CLR_SET(hadc->State,
 8002464:	687b      	ldr	r3, [r7, #4]
 8002466:	6ddb      	ldr	r3, [r3, #92]	; 0x5c
 8002468:	f423 7381 	bic.w	r3, r3, #258	; 0x102
 800246c:	f043 0202 	orr.w	r2, r3, #2
 8002470:	687b      	ldr	r3, [r7, #4]
 8002472:	65da      	str	r2, [r3, #92]	; 0x5c
    /* Configuration of common ADC parameters                                 */

    /* Parameters update conditioned to ADC state:                            */
    /* Parameters that can be updated only when ADC is disabled:              */
    /*  - clock configuration                                                 */
    if (LL_ADC_IsEnabled(hadc->Instance) == 0UL)
 8002474:	687b      	ldr	r3, [r7, #4]
 8002476:	681b      	ldr	r3, [r3, #0]
 8002478:	4618      	mov	r0, r3
 800247a:	f7ff ff4b 	bl	8002314 <LL_ADC_IsEnabled>
 800247e:	4603      	mov	r3, r0
 8002480:	2b00      	cmp	r3, #0
 8002482:	d141      	bne.n	8002508 <HAL_ADC_Init+0x180>
    {
      if (__LL_ADC_IS_ENABLED_ALL_COMMON_INSTANCE(__LL_ADC_COMMON_INSTANCE(hadc->Instance)) == 0UL)
 8002484:	687b      	ldr	r3, [r7, #4]
 8002486:	681b      	ldr	r3, [r3, #0]
 8002488:	f1b3 4fa0 	cmp.w	r3, #1342177280	; 0x50000000
 800248c:	d004      	beq.n	8002498 <HAL_ADC_Init+0x110>
 800248e:	687b      	ldr	r3, [r7, #4]
 8002490:	681b      	ldr	r3, [r3, #0]
 8002492:	4a7a      	ldr	r2, [pc, #488]	; (800267c <HAL_ADC_Init+0x2f4>)
 8002494:	4293      	cmp	r3, r2
 8002496:	d10f      	bne.n	80024b8 <HAL_ADC_Init+0x130>
 8002498:	f04f 40a0 	mov.w	r0, #1342177280	; 0x50000000
 800249c:	f7ff ff3a 	bl	8002314 <LL_ADC_IsEnabled>
 80024a0:	4604      	mov	r4, r0
 80024a2:	4876      	ldr	r0, [pc, #472]	; (800267c <HAL_ADC_Init+0x2f4>)
 80024a4:	f7ff ff36 	bl	8002314 <LL_ADC_IsEnabled>
 80024a8:	4603      	mov	r3, r0
 80024aa:	4323      	orrs	r3, r4
 80024ac:	2b00      	cmp	r3, #0
 80024ae:	bf0c      	ite	eq
 80024b0:	2301      	moveq	r3, #1
 80024b2:	2300      	movne	r3, #0
 80024b4:	b2db      	uxtb	r3, r3
 80024b6:	e012      	b.n	80024de <HAL_ADC_Init+0x156>
 80024b8:	4871      	ldr	r0, [pc, #452]	; (8002680 <HAL_ADC_Init+0x2f8>)
 80024ba:	f7ff ff2b 	bl	8002314 <LL_ADC_IsEnabled>
 80024be:	4604      	mov	r4, r0
 80024c0:	4870      	ldr	r0, [pc, #448]	; (8002684 <HAL_ADC_Init+0x2fc>)
 80024c2:	f7ff ff27 	bl	8002314 <LL_ADC_IsEnabled>
 80024c6:	4603      	mov	r3, r0
 80024c8:	431c      	orrs	r4, r3
 80024ca:	486f      	ldr	r0, [pc, #444]	; (8002688 <HAL_ADC_Init+0x300>)
 80024cc:	f7ff ff22 	bl	8002314 <LL_ADC_IsEnabled>
 80024d0:	4603      	mov	r3, r0
 80024d2:	4323      	orrs	r3, r4
 80024d4:	2b00      	cmp	r3, #0
 80024d6:	bf0c      	ite	eq
 80024d8:	2301      	moveq	r3, #1
 80024da:	2300      	movne	r3, #0
 80024dc:	b2db      	uxtb	r3, r3
 80024de:	2b00      	cmp	r3, #0
 80024e0:	d012      	beq.n	8002508 <HAL_ADC_Init+0x180>
        /*     parameters: MDMA, DMACFG, DELAY, DUAL (set by API                */
        /*     HAL_ADCEx_MultiModeConfigChannel() )                             */
        /*   - internal measurement paths: Vbat, temperature sensor, Vref       */
        /*     (set into HAL_ADC_ConfigChannel() or                             */
        /*     HAL_ADCEx_InjectedConfigChannel() )                              */
        LL_ADC_SetCommonClock(__LL_ADC_COMMON_INSTANCE(hadc->Instance), hadc->Init.ClockPrescaler);
 80024e2:	687b      	ldr	r3, [r7, #4]
 80024e4:	681b      	ldr	r3, [r3, #0]
 80024e6:	f1b3 4fa0 	cmp.w	r3, #1342177280	; 0x50000000
 80024ea:	d004      	beq.n	80024f6 <HAL_ADC_Init+0x16e>
 80024ec:	687b      	ldr	r3, [r7, #4]
 80024ee:	681b      	ldr	r3, [r3, #0]
 80024f0:	4a62      	ldr	r2, [pc, #392]	; (800267c <HAL_ADC_Init+0x2f4>)
 80024f2:	4293      	cmp	r3, r2
 80024f4:	d101      	bne.n	80024fa <HAL_ADC_Init+0x172>
 80024f6:	4a65      	ldr	r2, [pc, #404]	; (800268c <HAL_ADC_Init+0x304>)
 80024f8:	e000      	b.n	80024fc <HAL_ADC_Init+0x174>
 80024fa:	4a65      	ldr	r2, [pc, #404]	; (8002690 <HAL_ADC_Init+0x308>)
 80024fc:	687b      	ldr	r3, [r7, #4]
 80024fe:	685b      	ldr	r3, [r3, #4]
 8002500:	4619      	mov	r1, r3
 8002502:	4610      	mov	r0, r2
 8002504:	f7ff fd7e 	bl	8002004 <LL_ADC_SetCommonClock>
    /*  - external trigger polarity                Init.ExternalTrigConvEdge  */
    /*  - continuous conversion mode               Init.ContinuousConvMode    */
    /*  - overrun                                  Init.Overrun               */
    /*  - discontinuous mode                       Init.DiscontinuousConvMode */
    /*  - discontinuous mode channel count         Init.NbrOfDiscConversion   */
    tmpCFGR  = (ADC_CFGR_CONTINUOUS((uint32_t)hadc->Init.ContinuousConvMode)           |
 8002508:	687b      	ldr	r3, [r7, #4]
 800250a:	7f5b      	ldrb	r3, [r3, #29]
 800250c:	035a      	lsls	r2, r3, #13
                hadc->Init.Overrun                                                     |
 800250e:	687b      	ldr	r3, [r7, #4]
 8002510:	6bdb      	ldr	r3, [r3, #60]	; 0x3c
    tmpCFGR  = (ADC_CFGR_CONTINUOUS((uint32_t)hadc->Init.ContinuousConvMode)           |
 8002512:	431a      	orrs	r2, r3
                hadc->Init.DataAlign                                                   |
 8002514:	687b      	ldr	r3, [r7, #4]
 8002516:	68db      	ldr	r3, [r3, #12]
                hadc->Init.Overrun                                                     |
 8002518:	431a      	orrs	r2, r3
                hadc->Init.Resolution                                                  |
 800251a:	687b      	ldr	r3, [r7, #4]
 800251c:	689b      	ldr	r3, [r3, #8]
                hadc->Init.DataAlign                                                   |
 800251e:	431a      	orrs	r2, r3
                ADC_CFGR_REG_DISCONTINUOUS((uint32_t)hadc->Init.DiscontinuousConvMode));
 8002520:	687b      	ldr	r3, [r7, #4]
 8002522:	f893 3024 	ldrb.w	r3, [r3, #36]	; 0x24
 8002526:	041b      	lsls	r3, r3, #16
    tmpCFGR  = (ADC_CFGR_CONTINUOUS((uint32_t)hadc->Init.ContinuousConvMode)           |
 8002528:	4313      	orrs	r3, r2
 800252a:	61bb      	str	r3, [r7, #24]

    if (hadc->Init.DiscontinuousConvMode == ENABLE)
 800252c:	687b      	ldr	r3, [r7, #4]
 800252e:	f893 3024 	ldrb.w	r3, [r3, #36]	; 0x24
 8002532:	2b01      	cmp	r3, #1
 8002534:	d106      	bne.n	8002544 <HAL_ADC_Init+0x1bc>
    {
      tmpCFGR |= ADC_CFGR_DISCONTINUOUS_NUM(hadc->Init.NbrOfDiscConversion);
 8002536:	687b      	ldr	r3, [r7, #4]
 8002538:	6a9b      	ldr	r3, [r3, #40]	; 0x28
 800253a:	3b01      	subs	r3, #1
 800253c:	045b      	lsls	r3, r3, #17
 800253e:	69ba      	ldr	r2, [r7, #24]
 8002540:	4313      	orrs	r3, r2
 8002542:	61bb      	str	r3, [r7, #24]
    /* Enable external trigger if trigger selection is different of software  */
    /* start.                                                                 */
    /* Note: This configuration keeps the hardware feature of parameter       */
    /*       ExternalTrigConvEdge "trigger edge none" equivalent to           */
    /*       software start.                                                  */
    if (hadc->Init.ExternalTrigConv != ADC_SOFTWARE_START)
 8002544:	687b      	ldr	r3, [r7, #4]
 8002546:	6adb      	ldr	r3, [r3, #44]	; 0x2c
 8002548:	2b00      	cmp	r3, #0
 800254a:	d009      	beq.n	8002560 <HAL_ADC_Init+0x1d8>
    {
      tmpCFGR |= ((hadc->Init.ExternalTrigConv & ADC_CFGR_EXTSEL)
 800254c:	687b      	ldr	r3, [r7, #4]
 800254e:	6adb      	ldr	r3, [r3, #44]	; 0x2c
 8002550:	f403 7278 	and.w	r2, r3, #992	; 0x3e0
                  | hadc->Init.ExternalTrigConvEdge
 8002554:	687b      	ldr	r3, [r7, #4]
 8002556:	6b1b      	ldr	r3, [r3, #48]	; 0x30
 8002558:	4313      	orrs	r3, r2
      tmpCFGR |= ((hadc->Init.ExternalTrigConv & ADC_CFGR_EXTSEL)
 800255a:	69ba      	ldr	r2, [r7, #24]
 800255c:	4313      	orrs	r3, r2
 800255e:	61bb      	str	r3, [r7, #24]
                 );
    }

    /* Update Configuration Register CFGR */
    MODIFY_REG(hadc->Instance->CFGR, ADC_CFGR_FIELDS_1, tmpCFGR);
 8002560:	687b      	ldr	r3, [r7, #4]
 8002562:	681b      	ldr	r3, [r3, #0]
 8002564:	68da      	ldr	r2, [r3, #12]
 8002566:	4b4b      	ldr	r3, [pc, #300]	; (8002694 <HAL_ADC_Init+0x30c>)
 8002568:	4013      	ands	r3, r2
 800256a:	687a      	ldr	r2, [r7, #4]
 800256c:	6812      	ldr	r2, [r2, #0]
 800256e:	69b9      	ldr	r1, [r7, #24]
 8002570:	430b      	orrs	r3, r1
 8002572:	60d3      	str	r3, [r2, #12]

    /* Configuration of sampling mode */
    MODIFY_REG(hadc->Instance->CFGR2, ADC_CFGR2_BULB | ADC_CFGR2_SMPTRIG, hadc->Init.SamplingMode);
 8002574:	687b      	ldr	r3, [r7, #4]
 8002576:	681b      	ldr	r3, [r3, #0]
 8002578:	691b      	ldr	r3, [r3, #16]
 800257a:	f023 6140 	bic.w	r1, r3, #201326592	; 0xc000000
 800257e:	687b      	ldr	r3, [r7, #4]
 8002580:	6b5a      	ldr	r2, [r3, #52]	; 0x34
 8002582:	687b      	ldr	r3, [r7, #4]
 8002584:	681b      	ldr	r3, [r3, #0]
 8002586:	430a      	orrs	r2, r1
 8002588:	611a      	str	r2, [r3, #16]
    /* conversion on going on regular and injected groups:                    */
    /*  - Gain Compensation               Init.GainCompensation               */
    /*  - DMA continuous request          Init.DMAContinuousRequests          */
    /*  - LowPowerAutoWait feature        Init.LowPowerAutoWait               */
    /*  - Oversampling parameters         Init.Oversampling                   */
    tmp_adc_is_conversion_on_going_regular = LL_ADC_REG_IsConversionOngoing(hadc->Instance);
 800258a:	687b      	ldr	r3, [r7, #4]
 800258c:	681b      	ldr	r3, [r3, #0]
 800258e:	4618      	mov	r0, r3
 8002590:	f7ff fed3 	bl	800233a <LL_ADC_REG_IsConversionOngoing>
 8002594:	6138      	str	r0, [r7, #16]
    tmp_adc_is_conversion_on_going_injected = LL_ADC_INJ_IsConversionOngoing(hadc->Instance);
 8002596:	687b      	ldr	r3, [r7, #4]
 8002598:	681b      	ldr	r3, [r3, #0]
 800259a:	4618      	mov	r0, r3
 800259c:	f7ff fee0 	bl	8002360 <LL_ADC_INJ_IsConversionOngoing>
 80025a0:	60f8      	str	r0, [r7, #12]
    if ((tmp_adc_is_conversion_on_going_regular == 0UL)
 80025a2:	693b      	ldr	r3, [r7, #16]
 80025a4:	2b00      	cmp	r3, #0
 80025a6:	d17f      	bne.n	80026a8 <HAL_ADC_Init+0x320>
        && (tmp_adc_is_conversion_on_going_injected == 0UL)
 80025a8:	68fb      	ldr	r3, [r7, #12]
 80025aa:	2b00      	cmp	r3, #0
 80025ac:	d17c      	bne.n	80026a8 <HAL_ADC_Init+0x320>
       )
    {
      tmpCFGR = (ADC_CFGR_DFSDM(hadc)                                            |
                 ADC_CFGR_AUTOWAIT((uint32_t)hadc->Init.LowPowerAutoWait)        |
 80025ae:	687b      	ldr	r3, [r7, #4]
 80025b0:	7f1b      	ldrb	r3, [r3, #28]
      tmpCFGR = (ADC_CFGR_DFSDM(hadc)                                            |
 80025b2:	039a      	lsls	r2, r3, #14
                 ADC_CFGR_DMACONTREQ((uint32_t)hadc->Init.DMAContinuousRequests));
 80025b4:	687b      	ldr	r3, [r7, #4]
 80025b6:	f893 3038 	ldrb.w	r3, [r3, #56]	; 0x38
 80025ba:	005b      	lsls	r3, r3, #1
      tmpCFGR = (ADC_CFGR_DFSDM(hadc)                                            |
 80025bc:	4313      	orrs	r3, r2
 80025be:	61bb      	str	r3, [r7, #24]

      MODIFY_REG(hadc->Instance->CFGR, ADC_CFGR_FIELDS_2, tmpCFGR);
 80025c0:	687b      	ldr	r3, [r7, #4]
 80025c2:	681b      	ldr	r3, [r3, #0]
 80025c4:	68db      	ldr	r3, [r3, #12]
 80025c6:	f423 4380 	bic.w	r3, r3, #16384	; 0x4000
 80025ca:	f023 0302 	bic.w	r3, r3, #2
 80025ce:	687a      	ldr	r2, [r7, #4]
 80025d0:	6812      	ldr	r2, [r2, #0]
 80025d2:	69b9      	ldr	r1, [r7, #24]
 80025d4:	430b      	orrs	r3, r1
 80025d6:	60d3      	str	r3, [r2, #12]

      if (hadc->Init.GainCompensation != 0UL)
 80025d8:	687b      	ldr	r3, [r7, #4]
 80025da:	691b      	ldr	r3, [r3, #16]
 80025dc:	2b00      	cmp	r3, #0
 80025de:	d017      	beq.n	8002610 <HAL_ADC_Init+0x288>
      {
        SET_BIT(hadc->Instance->CFGR2, ADC_CFGR2_GCOMP);
 80025e0:	687b      	ldr	r3, [r7, #4]
 80025e2:	681b      	ldr	r3, [r3, #0]
 80025e4:	691a      	ldr	r2, [r3, #16]
 80025e6:	687b      	ldr	r3, [r7, #4]
 80025e8:	681b      	ldr	r3, [r3, #0]
 80025ea:	f442 3280 	orr.w	r2, r2, #65536	; 0x10000
 80025ee:	611a      	str	r2, [r3, #16]
        MODIFY_REG(hadc->Instance->GCOMP, ADC_GCOMP_GCOMPCOEFF, hadc->Init.GainCompensation);
 80025f0:	687b      	ldr	r3, [r7, #4]
 80025f2:	681b      	ldr	r3, [r3, #0]
 80025f4:	f8d3 30c0 	ldr.w	r3, [r3, #192]	; 0xc0
 80025f8:	f423 537f 	bic.w	r3, r3, #16320	; 0x3fc0
 80025fc:	f023 033f 	bic.w	r3, r3, #63	; 0x3f
 8002600:	687a      	ldr	r2, [r7, #4]
 8002602:	6911      	ldr	r1, [r2, #16]
 8002604:	687a      	ldr	r2, [r7, #4]
 8002606:	6812      	ldr	r2, [r2, #0]
 8002608:	430b      	orrs	r3, r1
 800260a:	f8c2 30c0 	str.w	r3, [r2, #192]	; 0xc0
 800260e:	e013      	b.n	8002638 <HAL_ADC_Init+0x2b0>
      }
      else
      {
        CLEAR_BIT(hadc->Instance->CFGR2, ADC_CFGR2_GCOMP);
 8002610:	687b      	ldr	r3, [r7, #4]
 8002612:	681b      	ldr	r3, [r3, #0]
 8002614:	691a      	ldr	r2, [r3, #16]
 8002616:	687b      	ldr	r3, [r7, #4]
 8002618:	681b      	ldr	r3, [r3, #0]
 800261a:	f422 3280 	bic.w	r2, r2, #65536	; 0x10000
 800261e:	611a      	str	r2, [r3, #16]
        MODIFY_REG(hadc->Instance->GCOMP, ADC_GCOMP_GCOMPCOEFF, 0UL);
 8002620:	687b      	ldr	r3, [r7, #4]
 8002622:	681b      	ldr	r3, [r3, #0]
 8002624:	f8d3 30c0 	ldr.w	r3, [r3, #192]	; 0xc0
 8002628:	687a      	ldr	r2, [r7, #4]
 800262a:	6812      	ldr	r2, [r2, #0]
 800262c:	f423 537f 	bic.w	r3, r3, #16320	; 0x3fc0
 8002630:	f023 033f 	bic.w	r3, r3, #63	; 0x3f
 8002634:	f8c2 30c0 	str.w	r3, [r2, #192]	; 0xc0
      }

      if (hadc->Init.OversamplingMode == ENABLE)
 8002638:	687b      	ldr	r3, [r7, #4]
 800263a:	f893 3040 	ldrb.w	r3, [r3, #64]	; 0x40
 800263e:	2b01      	cmp	r3, #1
 8002640:	d12a      	bne.n	8002698 <HAL_ADC_Init+0x310>
        /* Configuration of Oversampler:                                      */
        /*  - Oversampling Ratio                                              */
        /*  - Right bit shift                                                 */
        /*  - Triggered mode                                                  */
        /*  - Oversampling mode (continued/resumed)                           */
        MODIFY_REG(hadc->Instance->CFGR2,
 8002642:	687b      	ldr	r3, [r7, #4]
 8002644:	681b      	ldr	r3, [r3, #0]
 8002646:	691b      	ldr	r3, [r3, #16]
 8002648:	f423 63ff 	bic.w	r3, r3, #2040	; 0x7f8
 800264c:	f023 0304 	bic.w	r3, r3, #4
 8002650:	687a      	ldr	r2, [r7, #4]
 8002652:	6c51      	ldr	r1, [r2, #68]	; 0x44
 8002654:	687a      	ldr	r2, [r7, #4]
 8002656:	6c92      	ldr	r2, [r2, #72]	; 0x48
 8002658:	4311      	orrs	r1, r2
 800265a:	687a      	ldr	r2, [r7, #4]
 800265c:	6cd2      	ldr	r2, [r2, #76]	; 0x4c
 800265e:	4311      	orrs	r1, r2
 8002660:	687a      	ldr	r2, [r7, #4]
 8002662:	6d12      	ldr	r2, [r2, #80]	; 0x50
 8002664:	430a      	orrs	r2, r1
 8002666:	431a      	orrs	r2, r3
 8002668:	687b      	ldr	r3, [r7, #4]
 800266a:	681b      	ldr	r3, [r3, #0]
 800266c:	f042 0201 	orr.w	r2, r2, #1
 8002670:	611a      	str	r2, [r3, #16]
 8002672:	e019      	b.n	80026a8 <HAL_ADC_Init+0x320>
 8002674:	200003cc 	.word	0x200003cc
 8002678:	053e2d63 	.word	0x053e2d63
 800267c:	50000100 	.word	0x50000100
 8002680:	50000400 	.word	0x50000400
 8002684:	50000500 	.word	0x50000500
 8002688:	50000600 	.word	0x50000600
 800268c:	50000300 	.word	0x50000300
 8002690:	50000700 	.word	0x50000700
 8002694:	fff04007 	.word	0xfff04007
                  );
      }
      else
      {
        /* Disable ADC oversampling scope on ADC group regular */
        CLEAR_BIT(hadc->Instance->CFGR2, ADC_CFGR2_ROVSE);
 8002698:	687b      	ldr	r3, [r7, #4]
 800269a:	681b      	ldr	r3, [r3, #0]
 800269c:	691a      	ldr	r2, [r3, #16]
 800269e:	687b      	ldr	r3, [r7, #4]
 80026a0:	681b      	ldr	r3, [r3, #0]
 80026a2:	f022 0201 	bic.w	r2, r2, #1
 80026a6:	611a      	str	r2, [r3, #16]
    /*   Note: Scan mode is not present by hardware on this device, but       */
    /*   emulated by software for alignment over all STM32 devices.           */
    /* - if scan mode is enabled, regular channels sequence length is set to  */
    /*   parameter "NbrOfConversion".                                         */

    if (hadc->Init.ScanConvMode == ADC_SCAN_ENABLE)
 80026a8:	687b      	ldr	r3, [r7, #4]
 80026aa:	695b      	ldr	r3, [r3, #20]
 80026ac:	2b01      	cmp	r3, #1
 80026ae:	d10c      	bne.n	80026ca <HAL_ADC_Init+0x342>
    {
      /* Set number of ranks in regular group sequencer */
      MODIFY_REG(hadc->Instance->SQR1, ADC_SQR1_L, (hadc->Init.NbrOfConversion - (uint8_t)1));
 80026b0:	687b      	ldr	r3, [r7, #4]
 80026b2:	681b      	ldr	r3, [r3, #0]
 80026b4:	6b1b      	ldr	r3, [r3, #48]	; 0x30
 80026b6:	f023 010f 	bic.w	r1, r3, #15
 80026ba:	687b      	ldr	r3, [r7, #4]
 80026bc:	6a1b      	ldr	r3, [r3, #32]
 80026be:	1e5a      	subs	r2, r3, #1
 80026c0:	687b      	ldr	r3, [r7, #4]
 80026c2:	681b      	ldr	r3, [r3, #0]
 80026c4:	430a      	orrs	r2, r1
 80026c6:	631a      	str	r2, [r3, #48]	; 0x30
 80026c8:	e007      	b.n	80026da <HAL_ADC_Init+0x352>
    }
    else
    {
      CLEAR_BIT(hadc->Instance->SQR1, ADC_SQR1_L);
 80026ca:	687b      	ldr	r3, [r7, #4]
 80026cc:	681b      	ldr	r3, [r3, #0]
 80026ce:	6b1a      	ldr	r2, [r3, #48]	; 0x30
 80026d0:	687b      	ldr	r3, [r7, #4]
 80026d2:	681b      	ldr	r3, [r3, #0]
 80026d4:	f022 020f 	bic.w	r2, r2, #15
 80026d8:	631a      	str	r2, [r3, #48]	; 0x30
    }

    /* Initialize the ADC state */
    /* Clear HAL_ADC_STATE_BUSY_INTERNAL bit, set HAL_ADC_STATE_READY bit */
    ADC_STATE_CLR_SET(hadc->State, HAL_ADC_STATE_BUSY_INTERNAL, HAL_ADC_STATE_READY);
 80026da:	687b      	ldr	r3, [r7, #4]
 80026dc:	6ddb      	ldr	r3, [r3, #92]	; 0x5c
 80026de:	f023 0303 	bic.w	r3, r3, #3
 80026e2:	f043 0201 	orr.w	r2, r3, #1
 80026e6:	687b      	ldr	r3, [r7, #4]
 80026e8:	65da      	str	r2, [r3, #92]	; 0x5c
 80026ea:	e007      	b.n	80026fc <HAL_ADC_Init+0x374>
  }
  else
  {
    /* Update ADC state machine to error */
    SET_BIT(hadc->State, HAL_ADC_STATE_ERROR_INTERNAL);
 80026ec:	687b      	ldr	r3, [r7, #4]
 80026ee:	6ddb      	ldr	r3, [r3, #92]	; 0x5c
 80026f0:	f043 0210 	orr.w	r2, r3, #16
 80026f4:	687b      	ldr	r3, [r7, #4]
 80026f6:	65da      	str	r2, [r3, #92]	; 0x5c

    tmp_hal_status = HAL_ERROR;
 80026f8:	2301      	movs	r3, #1
 80026fa:	77fb      	strb	r3, [r7, #31]
  }

  /* Return function status */
  return tmp_hal_status;
 80026fc:	7ffb      	ldrb	r3, [r7, #31]
}
 80026fe:	4618      	mov	r0, r3
 8002700:	3724      	adds	r7, #36	; 0x24
 8002702:	46bd      	mov	sp, r7
 8002704:	bd90      	pop	{r4, r7, pc}
 8002706:	bf00      	nop

08002708 <HAL_ADC_ConfigChannel>:
  * @param hadc ADC handle
  * @param sConfig Structure of ADC channel assigned to ADC group regular.
  * @retval HAL status
  */
HAL_StatusTypeDef HAL_ADC_ConfigChannel(ADC_HandleTypeDef *hadc, ADC_ChannelConfTypeDef *sConfig)
{
 8002708:	b580      	push	{r7, lr}
 800270a:	b0a6      	sub	sp, #152	; 0x98
 800270c:	af00      	add	r7, sp, #0
 800270e:	6078      	str	r0, [r7, #4]
 8002710:	6039      	str	r1, [r7, #0]
  HAL_StatusTypeDef tmp_hal_status = HAL_OK;
 8002712:	2300      	movs	r3, #0
 8002714:	f887 3097 	strb.w	r3, [r7, #151]	; 0x97
  uint32_t tmpOffsetShifted;
  uint32_t tmp_config_internal_channel;
  __IO uint32_t wait_loop_index = 0;
 8002718:	2300      	movs	r3, #0
 800271a:	60bb      	str	r3, [r7, #8]
  {
    assert_param(IS_ADC_DIFF_CHANNEL(hadc, sConfig->Channel));
  }

  /* Process locked */
  __HAL_LOCK(hadc);
 800271c:	687b      	ldr	r3, [r7, #4]
 800271e:	f893 3058 	ldrb.w	r3, [r3, #88]	; 0x58
 8002722:	2b01      	cmp	r3, #1
 8002724:	d101      	bne.n	800272a <HAL_ADC_ConfigChannel+0x22>
 8002726:	2302      	movs	r3, #2
 8002728:	e38e      	b.n	8002e48 <HAL_ADC_ConfigChannel+0x740>
 800272a:	687b      	ldr	r3, [r7, #4]
 800272c:	2201      	movs	r2, #1
 800272e:	f883 2058 	strb.w	r2, [r3, #88]	; 0x58
  /* Parameters update conditioned to ADC state:                              */
  /* Parameters that can be updated when ADC is disabled or enabled without   */
  /* conversion on going on regular group:                                    */
  /*  - Channel number                                                        */
  /*  - Channel rank                                                          */
  if (LL_ADC_REG_IsConversionOngoing(hadc->Instance) == 0UL)
 8002732:	687b      	ldr	r3, [r7, #4]
 8002734:	681b      	ldr	r3, [r3, #0]
 8002736:	4618      	mov	r0, r3
 8002738:	f7ff fdff 	bl	800233a <LL_ADC_REG_IsConversionOngoing>
 800273c:	4603      	mov	r3, r0
 800273e:	2b00      	cmp	r3, #0
 8002740:	f040 836f 	bne.w	8002e22 <HAL_ADC_ConfigChannel+0x71a>
  {
    /* Set ADC group regular sequence: channel on the selected scan sequence rank */
    LL_ADC_REG_SetSequencerRanks(hadc->Instance, sConfig->Rank, sConfig->Channel);
 8002744:	687b      	ldr	r3, [r7, #4]
 8002746:	6818      	ldr	r0, [r3, #0]
 8002748:	683b      	ldr	r3, [r7, #0]
 800274a:	6859      	ldr	r1, [r3, #4]
 800274c:	683b      	ldr	r3, [r7, #0]
 800274e:	681b      	ldr	r3, [r3, #0]
 8002750:	461a      	mov	r2, r3
 8002752:	f7ff fd1c 	bl	800218e <LL_ADC_REG_SetSequencerRanks>
    /* Parameters update conditioned to ADC state:                              */
    /* Parameters that can be updated when ADC is disabled or enabled without   */
    /* conversion on going on regular group:                                    */
    /*  - Channel sampling time                                                 */
    /*  - Channel offset                                                        */
    tmp_adc_is_conversion_on_going_regular = LL_ADC_REG_IsConversionOngoing(hadc->Instance);
 8002756:	687b      	ldr	r3, [r7, #4]
 8002758:	681b      	ldr	r3, [r3, #0]
 800275a:	4618      	mov	r0, r3
 800275c:	f7ff fded 	bl	800233a <LL_ADC_REG_IsConversionOngoing>
 8002760:	f8c7 0090 	str.w	r0, [r7, #144]	; 0x90
    tmp_adc_is_conversion_on_going_injected = LL_ADC_INJ_IsConversionOngoing(hadc->Instance);
 8002764:	687b      	ldr	r3, [r7, #4]
 8002766:	681b      	ldr	r3, [r3, #0]
 8002768:	4618      	mov	r0, r3
 800276a:	f7ff fdf9 	bl	8002360 <LL_ADC_INJ_IsConversionOngoing>
 800276e:	f8c7 008c 	str.w	r0, [r7, #140]	; 0x8c
    if ((tmp_adc_is_conversion_on_going_regular == 0UL)
 8002772:	f8d7 3090 	ldr.w	r3, [r7, #144]	; 0x90
 8002776:	2b00      	cmp	r3, #0
 8002778:	f040 817b 	bne.w	8002a72 <HAL_ADC_ConfigChannel+0x36a>
        && (tmp_adc_is_conversion_on_going_injected == 0UL)
 800277c:	f8d7 308c 	ldr.w	r3, [r7, #140]	; 0x8c
 8002780:	2b00      	cmp	r3, #0
 8002782:	f040 8176 	bne.w	8002a72 <HAL_ADC_ConfigChannel+0x36a>
       )
    {
      /* Manage specific case of sampling time 3.5 cycles replacing 2.5 cyles */
      if (sConfig->SamplingTime == ADC_SAMPLETIME_3CYCLES_5)
 8002786:	683b      	ldr	r3, [r7, #0]
 8002788:	689b      	ldr	r3, [r3, #8]
 800278a:	f1b3 4f00 	cmp.w	r3, #2147483648	; 0x80000000
 800278e:	d10f      	bne.n	80027b0 <HAL_ADC_ConfigChannel+0xa8>
      {
        /* Set sampling time of the selected ADC channel */
        LL_ADC_SetChannelSamplingTime(hadc->Instance, sConfig->Channel, LL_ADC_SAMPLINGTIME_2CYCLES_5);
 8002790:	687b      	ldr	r3, [r7, #4]
 8002792:	6818      	ldr	r0, [r3, #0]
 8002794:	683b      	ldr	r3, [r7, #0]
 8002796:	681b      	ldr	r3, [r3, #0]
 8002798:	2200      	movs	r2, #0
 800279a:	4619      	mov	r1, r3
 800279c:	f7ff fd20 	bl	80021e0 <LL_ADC_SetChannelSamplingTime>

        /* Set ADC sampling time common configuration */
        LL_ADC_SetSamplingTimeCommonConfig(hadc->Instance, LL_ADC_SAMPLINGTIME_COMMON_3C5_REPL_2C5);
 80027a0:	687b      	ldr	r3, [r7, #4]
 80027a2:	681b      	ldr	r3, [r3, #0]
 80027a4:	f04f 4100 	mov.w	r1, #2147483648	; 0x80000000
 80027a8:	4618      	mov	r0, r3
 80027aa:	f7ff fcdd 	bl	8002168 <LL_ADC_SetSamplingTimeCommonConfig>
 80027ae:	e00e      	b.n	80027ce <HAL_ADC_ConfigChannel+0xc6>
      }
      else
      {
        /* Set sampling time of the selected ADC channel */
        LL_ADC_SetChannelSamplingTime(hadc->Instance, sConfig->Channel, sConfig->SamplingTime);
 80027b0:	687b      	ldr	r3, [r7, #4]
 80027b2:	6818      	ldr	r0, [r3, #0]
 80027b4:	683b      	ldr	r3, [r7, #0]
 80027b6:	6819      	ldr	r1, [r3, #0]
 80027b8:	683b      	ldr	r3, [r7, #0]
 80027ba:	689b      	ldr	r3, [r3, #8]
 80027bc:	461a      	mov	r2, r3
 80027be:	f7ff fd0f 	bl	80021e0 <LL_ADC_SetChannelSamplingTime>

        /* Set ADC sampling time common configuration */
        LL_ADC_SetSamplingTimeCommonConfig(hadc->Instance, LL_ADC_SAMPLINGTIME_COMMON_DEFAULT);
 80027c2:	687b      	ldr	r3, [r7, #4]
 80027c4:	681b      	ldr	r3, [r3, #0]
 80027c6:	2100      	movs	r1, #0
 80027c8:	4618      	mov	r0, r3
 80027ca:	f7ff fccd 	bl	8002168 <LL_ADC_SetSamplingTimeCommonConfig>

      /* Configure the offset: offset enable/disable, channel, offset value */

      /* Shift the offset with respect to the selected ADC resolution. */
      /* Offset has to be left-aligned on bit 11, the LSB (right bits) are set to 0 */
      tmpOffsetShifted = ADC_OFFSET_SHIFT_RESOLUTION(hadc, (uint32_t)sConfig->Offset);
 80027ce:	683b      	ldr	r3, [r7, #0]
 80027d0:	695a      	ldr	r2, [r3, #20]
 80027d2:	687b      	ldr	r3, [r7, #4]
 80027d4:	681b      	ldr	r3, [r3, #0]
 80027d6:	68db      	ldr	r3, [r3, #12]
 80027d8:	08db      	lsrs	r3, r3, #3
 80027da:	f003 0303 	and.w	r3, r3, #3
 80027de:	005b      	lsls	r3, r3, #1
 80027e0:	fa02 f303 	lsl.w	r3, r2, r3
 80027e4:	f8c7 3088 	str.w	r3, [r7, #136]	; 0x88

      if (sConfig->OffsetNumber != ADC_OFFSET_NONE)
 80027e8:	683b      	ldr	r3, [r7, #0]
 80027ea:	691b      	ldr	r3, [r3, #16]
 80027ec:	2b04      	cmp	r3, #4
 80027ee:	d022      	beq.n	8002836 <HAL_ADC_ConfigChannel+0x12e>
      {
        /* Set ADC selected offset number */
        LL_ADC_SetOffset(hadc->Instance, sConfig->OffsetNumber, sConfig->Channel, tmpOffsetShifted);
 80027f0:	687b      	ldr	r3, [r7, #4]
 80027f2:	6818      	ldr	r0, [r3, #0]
 80027f4:	683b      	ldr	r3, [r7, #0]
 80027f6:	6919      	ldr	r1, [r3, #16]
 80027f8:	683b      	ldr	r3, [r7, #0]
 80027fa:	681a      	ldr	r2, [r3, #0]
 80027fc:	f8d7 3088 	ldr.w	r3, [r7, #136]	; 0x88
 8002800:	f7ff fc34 	bl	800206c <LL_ADC_SetOffset>

        assert_param(IS_ADC_OFFSET_SIGN(sConfig->OffsetSign));
        assert_param(IS_FUNCTIONAL_STATE(sConfig->OffsetSaturation));
        /* Set ADC selected offset sign & saturation */
        LL_ADC_SetOffsetSign(hadc->Instance, sConfig->OffsetNumber, sConfig->OffsetSign);
 8002804:	687b      	ldr	r3, [r7, #4]
 8002806:	6818      	ldr	r0, [r3, #0]
 8002808:	683b      	ldr	r3, [r7, #0]
 800280a:	6919      	ldr	r1, [r3, #16]
 800280c:	683b      	ldr	r3, [r7, #0]
 800280e:	699b      	ldr	r3, [r3, #24]
 8002810:	461a      	mov	r2, r3
 8002812:	f7ff fc79 	bl	8002108 <LL_ADC_SetOffsetSign>
        LL_ADC_SetOffsetSaturation(hadc->Instance, sConfig->OffsetNumber, (sConfig->OffsetSaturation == ENABLE) ? LL_ADC_OFFSET_SATURATION_ENABLE : LL_ADC_OFFSET_SATURATION_DISABLE);
 8002816:	687b      	ldr	r3, [r7, #4]
 8002818:	6818      	ldr	r0, [r3, #0]
 800281a:	683b      	ldr	r3, [r7, #0]
 800281c:	6919      	ldr	r1, [r3, #16]
 800281e:	683b      	ldr	r3, [r7, #0]
 8002820:	7f1b      	ldrb	r3, [r3, #28]
 8002822:	2b01      	cmp	r3, #1
 8002824:	d102      	bne.n	800282c <HAL_ADC_ConfigChannel+0x124>
 8002826:	f04f 7300 	mov.w	r3, #33554432	; 0x2000000
 800282a:	e000      	b.n	800282e <HAL_ADC_ConfigChannel+0x126>
 800282c:	2300      	movs	r3, #0
 800282e:	461a      	mov	r2, r3
 8002830:	f7ff fc82 	bl	8002138 <LL_ADC_SetOffsetSaturation>
 8002834:	e11d      	b.n	8002a72 <HAL_ADC_ConfigChannel+0x36a>
      }
      else
      {
        /* Scan each offset register to check if the selected channel is targeted. */
        /* If this is the case, the corresponding offset number is disabled.       */
        if(__LL_ADC_CHANNEL_TO_DECIMAL_NB(LL_ADC_GetOffsetChannel(hadc->Instance, LL_ADC_OFFSET_1)) == __LL_ADC_CHANNEL_TO_DECIMAL_NB(sConfig->Channel))
 8002836:	687b      	ldr	r3, [r7, #4]
 8002838:	681b      	ldr	r3, [r3, #0]
 800283a:	2100      	movs	r1, #0
 800283c:	4618      	mov	r0, r3
 800283e:	f7ff fc37 	bl	80020b0 <LL_ADC_GetOffsetChannel>
 8002842:	4603      	mov	r3, r0
 8002844:	f3c3 0312 	ubfx	r3, r3, #0, #19
 8002848:	2b00      	cmp	r3, #0
 800284a:	d10a      	bne.n	8002862 <HAL_ADC_ConfigChannel+0x15a>
 800284c:	687b      	ldr	r3, [r7, #4]
 800284e:	681b      	ldr	r3, [r3, #0]
 8002850:	2100      	movs	r1, #0
 8002852:	4618      	mov	r0, r3
 8002854:	f7ff fc2c 	bl	80020b0 <LL_ADC_GetOffsetChannel>
 8002858:	4603      	mov	r3, r0
 800285a:	0e9b      	lsrs	r3, r3, #26
 800285c:	f003 021f 	and.w	r2, r3, #31
 8002860:	e012      	b.n	8002888 <HAL_ADC_ConfigChannel+0x180>
 8002862:	687b      	ldr	r3, [r7, #4]
 8002864:	681b      	ldr	r3, [r3, #0]
 8002866:	2100      	movs	r1, #0
 8002868:	4618      	mov	r0, r3
 800286a:	f7ff fc21 	bl	80020b0 <LL_ADC_GetOffsetChannel>
 800286e:	4603      	mov	r3, r0
 8002870:	f8c7 3080 	str.w	r3, [r7, #128]	; 0x80
   __ASM volatile ("rbit %0, %1" : "=r" (result) : "r" (value) );
 8002874:	f8d7 3080 	ldr.w	r3, [r7, #128]	; 0x80
 8002878:	fa93 f3a3 	rbit	r3, r3
 800287c:	67fb      	str	r3, [r7, #124]	; 0x7c
  return result;
 800287e:	6ffb      	ldr	r3, [r7, #124]	; 0x7c
 8002880:	fab3 f383 	clz	r3, r3
 8002884:	b2db      	uxtb	r3, r3
 8002886:	461a      	mov	r2, r3
 8002888:	683b      	ldr	r3, [r7, #0]
 800288a:	681b      	ldr	r3, [r3, #0]
 800288c:	f3c3 0312 	ubfx	r3, r3, #0, #19
 8002890:	2b00      	cmp	r3, #0
 8002892:	d105      	bne.n	80028a0 <HAL_ADC_ConfigChannel+0x198>
 8002894:	683b      	ldr	r3, [r7, #0]
 8002896:	681b      	ldr	r3, [r3, #0]
 8002898:	0e9b      	lsrs	r3, r3, #26
 800289a:	f003 031f 	and.w	r3, r3, #31
 800289e:	e00a      	b.n	80028b6 <HAL_ADC_ConfigChannel+0x1ae>
 80028a0:	683b      	ldr	r3, [r7, #0]
 80028a2:	681b      	ldr	r3, [r3, #0]
 80028a4:	67bb      	str	r3, [r7, #120]	; 0x78
   __ASM volatile ("rbit %0, %1" : "=r" (result) : "r" (value) );
 80028a6:	6fbb      	ldr	r3, [r7, #120]	; 0x78
 80028a8:	fa93 f3a3 	rbit	r3, r3
 80028ac:	677b      	str	r3, [r7, #116]	; 0x74
  return result;
 80028ae:	6f7b      	ldr	r3, [r7, #116]	; 0x74
 80028b0:	fab3 f383 	clz	r3, r3
 80028b4:	b2db      	uxtb	r3, r3
 80028b6:	429a      	cmp	r2, r3
 80028b8:	d106      	bne.n	80028c8 <HAL_ADC_ConfigChannel+0x1c0>
        {
          LL_ADC_SetOffsetState(hadc->Instance, LL_ADC_OFFSET_1, LL_ADC_OFFSET_DISABLE);
 80028ba:	687b      	ldr	r3, [r7, #4]
 80028bc:	681b      	ldr	r3, [r3, #0]
 80028be:	2200      	movs	r2, #0
 80028c0:	2100      	movs	r1, #0
 80028c2:	4618      	mov	r0, r3
 80028c4:	f7ff fc08 	bl	80020d8 <LL_ADC_SetOffsetState>
        }
        if(__LL_ADC_CHANNEL_TO_DECIMAL_NB(LL_ADC_GetOffsetChannel(hadc->Instance, LL_ADC_OFFSET_2)) == __LL_ADC_CHANNEL_TO_DECIMAL_NB(sConfig->Channel))
 80028c8:	687b      	ldr	r3, [r7, #4]
 80028ca:	681b      	ldr	r3, [r3, #0]
 80028cc:	2101      	movs	r1, #1
 80028ce:	4618      	mov	r0, r3
 80028d0:	f7ff fbee 	bl	80020b0 <LL_ADC_GetOffsetChannel>
 80028d4:	4603      	mov	r3, r0
 80028d6:	f3c3 0312 	ubfx	r3, r3, #0, #19
 80028da:	2b00      	cmp	r3, #0
 80028dc:	d10a      	bne.n	80028f4 <HAL_ADC_ConfigChannel+0x1ec>
 80028de:	687b      	ldr	r3, [r7, #4]
 80028e0:	681b      	ldr	r3, [r3, #0]
 80028e2:	2101      	movs	r1, #1
 80028e4:	4618      	mov	r0, r3
 80028e6:	f7ff fbe3 	bl	80020b0 <LL_ADC_GetOffsetChannel>
 80028ea:	4603      	mov	r3, r0
 80028ec:	0e9b      	lsrs	r3, r3, #26
 80028ee:	f003 021f 	and.w	r2, r3, #31
 80028f2:	e010      	b.n	8002916 <HAL_ADC_ConfigChannel+0x20e>
 80028f4:	687b      	ldr	r3, [r7, #4]
 80028f6:	681b      	ldr	r3, [r3, #0]
 80028f8:	2101      	movs	r1, #1
 80028fa:	4618      	mov	r0, r3
 80028fc:	f7ff fbd8 	bl	80020b0 <LL_ADC_GetOffsetChannel>
 8002900:	4603      	mov	r3, r0
 8002902:	673b      	str	r3, [r7, #112]	; 0x70
   __ASM volatile ("rbit %0, %1" : "=r" (result) : "r" (value) );
 8002904:	6f3b      	ldr	r3, [r7, #112]	; 0x70
 8002906:	fa93 f3a3 	rbit	r3, r3
 800290a:	66fb      	str	r3, [r7, #108]	; 0x6c
  return result;
 800290c:	6efb      	ldr	r3, [r7, #108]	; 0x6c
 800290e:	fab3 f383 	clz	r3, r3
 8002912:	b2db      	uxtb	r3, r3
 8002914:	461a      	mov	r2, r3
 8002916:	683b      	ldr	r3, [r7, #0]
 8002918:	681b      	ldr	r3, [r3, #0]
 800291a:	f3c3 0312 	ubfx	r3, r3, #0, #19
 800291e:	2b00      	cmp	r3, #0
 8002920:	d105      	bne.n	800292e <HAL_ADC_ConfigChannel+0x226>
 8002922:	683b      	ldr	r3, [r7, #0]
 8002924:	681b      	ldr	r3, [r3, #0]
 8002926:	0e9b      	lsrs	r3, r3, #26
 8002928:	f003 031f 	and.w	r3, r3, #31
 800292c:	e00a      	b.n	8002944 <HAL_ADC_ConfigChannel+0x23c>
 800292e:	683b      	ldr	r3, [r7, #0]
 8002930:	681b      	ldr	r3, [r3, #0]
 8002932:	66bb      	str	r3, [r7, #104]	; 0x68
   __ASM volatile ("rbit %0, %1" : "=r" (result) : "r" (value) );
 8002934:	6ebb      	ldr	r3, [r7, #104]	; 0x68
 8002936:	fa93 f3a3 	rbit	r3, r3
 800293a:	667b      	str	r3, [r7, #100]	; 0x64
  return result;
 800293c:	6e7b      	ldr	r3, [r7, #100]	; 0x64
 800293e:	fab3 f383 	clz	r3, r3
 8002942:	b2db      	uxtb	r3, r3
 8002944:	429a      	cmp	r2, r3
 8002946:	d106      	bne.n	8002956 <HAL_ADC_ConfigChannel+0x24e>
        {
          LL_ADC_SetOffsetState(hadc->Instance, LL_ADC_OFFSET_2, LL_ADC_OFFSET_DISABLE);
 8002948:	687b      	ldr	r3, [r7, #4]
 800294a:	681b      	ldr	r3, [r3, #0]
 800294c:	2200      	movs	r2, #0
 800294e:	2101      	movs	r1, #1
 8002950:	4618      	mov	r0, r3
 8002952:	f7ff fbc1 	bl	80020d8 <LL_ADC_SetOffsetState>
        }
        if(__LL_ADC_CHANNEL_TO_DECIMAL_NB(LL_ADC_GetOffsetChannel(hadc->Instance, LL_ADC_OFFSET_3)) == __LL_ADC_CHANNEL_TO_DECIMAL_NB(sConfig->Channel))
 8002956:	687b      	ldr	r3, [r7, #4]
 8002958:	681b      	ldr	r3, [r3, #0]
 800295a:	2102      	movs	r1, #2
 800295c:	4618      	mov	r0, r3
 800295e:	f7ff fba7 	bl	80020b0 <LL_ADC_GetOffsetChannel>
 8002962:	4603      	mov	r3, r0
 8002964:	f3c3 0312 	ubfx	r3, r3, #0, #19
 8002968:	2b00      	cmp	r3, #0
 800296a:	d10a      	bne.n	8002982 <HAL_ADC_ConfigChannel+0x27a>
 800296c:	687b      	ldr	r3, [r7, #4]
 800296e:	681b      	ldr	r3, [r3, #0]
 8002970:	2102      	movs	r1, #2
 8002972:	4618      	mov	r0, r3
 8002974:	f7ff fb9c 	bl	80020b0 <LL_ADC_GetOffsetChannel>
 8002978:	4603      	mov	r3, r0
 800297a:	0e9b      	lsrs	r3, r3, #26
 800297c:	f003 021f 	and.w	r2, r3, #31
 8002980:	e010      	b.n	80029a4 <HAL_ADC_ConfigChannel+0x29c>
 8002982:	687b      	ldr	r3, [r7, #4]
 8002984:	681b      	ldr	r3, [r3, #0]
 8002986:	2102      	movs	r1, #2
 8002988:	4618      	mov	r0, r3
 800298a:	f7ff fb91 	bl	80020b0 <LL_ADC_GetOffsetChannel>
 800298e:	4603      	mov	r3, r0
 8002990:	663b      	str	r3, [r7, #96]	; 0x60
   __ASM volatile ("rbit %0, %1" : "=r" (result) : "r" (value) );
 8002992:	6e3b      	ldr	r3, [r7, #96]	; 0x60
 8002994:	fa93 f3a3 	rbit	r3, r3
 8002998:	65fb      	str	r3, [r7, #92]	; 0x5c
  return result;
 800299a:	6dfb      	ldr	r3, [r7, #92]	; 0x5c
 800299c:	fab3 f383 	clz	r3, r3
 80029a0:	b2db      	uxtb	r3, r3
 80029a2:	461a      	mov	r2, r3
 80029a4:	683b      	ldr	r3, [r7, #0]
 80029a6:	681b      	ldr	r3, [r3, #0]
 80029a8:	f3c3 0312 	ubfx	r3, r3, #0, #19
 80029ac:	2b00      	cmp	r3, #0
 80029ae:	d105      	bne.n	80029bc <HAL_ADC_ConfigChannel+0x2b4>
 80029b0:	683b      	ldr	r3, [r7, #0]
 80029b2:	681b      	ldr	r3, [r3, #0]
 80029b4:	0e9b      	lsrs	r3, r3, #26
 80029b6:	f003 031f 	and.w	r3, r3, #31
 80029ba:	e00a      	b.n	80029d2 <HAL_ADC_ConfigChannel+0x2ca>
 80029bc:	683b      	ldr	r3, [r7, #0]
 80029be:	681b      	ldr	r3, [r3, #0]
 80029c0:	65bb      	str	r3, [r7, #88]	; 0x58
   __ASM volatile ("rbit %0, %1" : "=r" (result) : "r" (value) );
 80029c2:	6dbb      	ldr	r3, [r7, #88]	; 0x58
 80029c4:	fa93 f3a3 	rbit	r3, r3
 80029c8:	657b      	str	r3, [r7, #84]	; 0x54
  return result;
 80029ca:	6d7b      	ldr	r3, [r7, #84]	; 0x54
 80029cc:	fab3 f383 	clz	r3, r3
 80029d0:	b2db      	uxtb	r3, r3
 80029d2:	429a      	cmp	r2, r3
 80029d4:	d106      	bne.n	80029e4 <HAL_ADC_ConfigChannel+0x2dc>
        {
          LL_ADC_SetOffsetState(hadc->Instance, LL_ADC_OFFSET_3, LL_ADC_OFFSET_DISABLE);
 80029d6:	687b      	ldr	r3, [r7, #4]
 80029d8:	681b      	ldr	r3, [r3, #0]
 80029da:	2200      	movs	r2, #0
 80029dc:	2102      	movs	r1, #2
 80029de:	4618      	mov	r0, r3
 80029e0:	f7ff fb7a 	bl	80020d8 <LL_ADC_SetOffsetState>
        }
        if(__LL_ADC_CHANNEL_TO_DECIMAL_NB(LL_ADC_GetOffsetChannel(hadc->Instance, LL_ADC_OFFSET_4)) == __LL_ADC_CHANNEL_TO_DECIMAL_NB(sConfig->Channel))
 80029e4:	687b      	ldr	r3, [r7, #4]
 80029e6:	681b      	ldr	r3, [r3, #0]
 80029e8:	2103      	movs	r1, #3
 80029ea:	4618      	mov	r0, r3
 80029ec:	f7ff fb60 	bl	80020b0 <LL_ADC_GetOffsetChannel>
 80029f0:	4603      	mov	r3, r0
 80029f2:	f3c3 0312 	ubfx	r3, r3, #0, #19
 80029f6:	2b00      	cmp	r3, #0
 80029f8:	d10a      	bne.n	8002a10 <HAL_ADC_ConfigChannel+0x308>
 80029fa:	687b      	ldr	r3, [r7, #4]
 80029fc:	681b      	ldr	r3, [r3, #0]
 80029fe:	2103      	movs	r1, #3
 8002a00:	4618      	mov	r0, r3
 8002a02:	f7ff fb55 	bl	80020b0 <LL_ADC_GetOffsetChannel>
 8002a06:	4603      	mov	r3, r0
 8002a08:	0e9b      	lsrs	r3, r3, #26
 8002a0a:	f003 021f 	and.w	r2, r3, #31
 8002a0e:	e010      	b.n	8002a32 <HAL_ADC_ConfigChannel+0x32a>
 8002a10:	687b      	ldr	r3, [r7, #4]
 8002a12:	681b      	ldr	r3, [r3, #0]
 8002a14:	2103      	movs	r1, #3
 8002a16:	4618      	mov	r0, r3
 8002a18:	f7ff fb4a 	bl	80020b0 <LL_ADC_GetOffsetChannel>
 8002a1c:	4603      	mov	r3, r0
 8002a1e:	653b      	str	r3, [r7, #80]	; 0x50
   __ASM volatile ("rbit %0, %1" : "=r" (result) : "r" (value) );
 8002a20:	6d3b      	ldr	r3, [r7, #80]	; 0x50
 8002a22:	fa93 f3a3 	rbit	r3, r3
 8002a26:	64fb      	str	r3, [r7, #76]	; 0x4c
  return result;
 8002a28:	6cfb      	ldr	r3, [r7, #76]	; 0x4c
 8002a2a:	fab3 f383 	clz	r3, r3
 8002a2e:	b2db      	uxtb	r3, r3
 8002a30:	461a      	mov	r2, r3
 8002a32:	683b      	ldr	r3, [r7, #0]
 8002a34:	681b      	ldr	r3, [r3, #0]
 8002a36:	f3c3 0312 	ubfx	r3, r3, #0, #19
 8002a3a:	2b00      	cmp	r3, #0
 8002a3c:	d105      	bne.n	8002a4a <HAL_ADC_ConfigChannel+0x342>
 8002a3e:	683b      	ldr	r3, [r7, #0]
 8002a40:	681b      	ldr	r3, [r3, #0]
 8002a42:	0e9b      	lsrs	r3, r3, #26
 8002a44:	f003 031f 	and.w	r3, r3, #31
 8002a48:	e00a      	b.n	8002a60 <HAL_ADC_ConfigChannel+0x358>
 8002a4a:	683b      	ldr	r3, [r7, #0]
 8002a4c:	681b      	ldr	r3, [r3, #0]
 8002a4e:	64bb      	str	r3, [r7, #72]	; 0x48
   __ASM volatile ("rbit %0, %1" : "=r" (result) : "r" (value) );
 8002a50:	6cbb      	ldr	r3, [r7, #72]	; 0x48
 8002a52:	fa93 f3a3 	rbit	r3, r3
 8002a56:	647b      	str	r3, [r7, #68]	; 0x44
  return result;
 8002a58:	6c7b      	ldr	r3, [r7, #68]	; 0x44
 8002a5a:	fab3 f383 	clz	r3, r3
 8002a5e:	b2db      	uxtb	r3, r3
 8002a60:	429a      	cmp	r2, r3
 8002a62:	d106      	bne.n	8002a72 <HAL_ADC_ConfigChannel+0x36a>
        {
          LL_ADC_SetOffsetState(hadc->Instance, LL_ADC_OFFSET_4, LL_ADC_OFFSET_DISABLE);
 8002a64:	687b      	ldr	r3, [r7, #4]
 8002a66:	681b      	ldr	r3, [r3, #0]
 8002a68:	2200      	movs	r2, #0
 8002a6a:	2103      	movs	r1, #3
 8002a6c:	4618      	mov	r0, r3
 8002a6e:	f7ff fb33 	bl	80020d8 <LL_ADC_SetOffsetState>
    }

    /* Parameters update conditioned to ADC state:                              */
    /* Parameters that can be updated only when ADC is disabled:                */
    /*  - Single or differential mode                                           */
    if (LL_ADC_IsEnabled(hadc->Instance) == 0UL)
 8002a72:	687b      	ldr	r3, [r7, #4]
 8002a74:	681b      	ldr	r3, [r3, #0]
 8002a76:	4618      	mov	r0, r3
 8002a78:	f7ff fc4c 	bl	8002314 <LL_ADC_IsEnabled>
 8002a7c:	4603      	mov	r3, r0
 8002a7e:	2b00      	cmp	r3, #0
 8002a80:	f040 810c 	bne.w	8002c9c <HAL_ADC_ConfigChannel+0x594>
    {
      /* Set mode single-ended or differential input of the selected ADC channel */
      LL_ADC_SetChannelSingleDiff(hadc->Instance, sConfig->Channel, sConfig->SingleDiff);
 8002a84:	687b      	ldr	r3, [r7, #4]
 8002a86:	6818      	ldr	r0, [r3, #0]
 8002a88:	683b      	ldr	r3, [r7, #0]
 8002a8a:	6819      	ldr	r1, [r3, #0]
 8002a8c:	683b      	ldr	r3, [r7, #0]
 8002a8e:	68db      	ldr	r3, [r3, #12]
 8002a90:	461a      	mov	r2, r3
 8002a92:	f7ff fbcd 	bl	8002230 <LL_ADC_SetChannelSingleDiff>

      /* Configuration of differential mode */
      if (sConfig->SingleDiff == ADC_DIFFERENTIAL_ENDED)
 8002a96:	683b      	ldr	r3, [r7, #0]
 8002a98:	68db      	ldr	r3, [r3, #12]
 8002a9a:	4aaf      	ldr	r2, [pc, #700]	; (8002d58 <HAL_ADC_ConfigChannel+0x650>)
 8002a9c:	4293      	cmp	r3, r2
 8002a9e:	f040 80fd 	bne.w	8002c9c <HAL_ADC_ConfigChannel+0x594>
      {
        /* Set sampling time of the selected ADC channel */
        /* Note: ADC channel number masked with value "0x1F" to ensure shift value within 32 bits range */
        LL_ADC_SetChannelSamplingTime(hadc->Instance,
 8002aa2:	687b      	ldr	r3, [r7, #4]
 8002aa4:	6818      	ldr	r0, [r3, #0]
                                      (uint32_t)(__LL_ADC_DECIMAL_NB_TO_CHANNEL((__LL_ADC_CHANNEL_TO_DECIMAL_NB((uint32_t)sConfig->Channel) + 1UL) & 0x1FUL)),
 8002aa6:	683b      	ldr	r3, [r7, #0]
 8002aa8:	681b      	ldr	r3, [r3, #0]
 8002aaa:	f3c3 0312 	ubfx	r3, r3, #0, #19
 8002aae:	2b00      	cmp	r3, #0
 8002ab0:	d10b      	bne.n	8002aca <HAL_ADC_ConfigChannel+0x3c2>
 8002ab2:	683b      	ldr	r3, [r7, #0]
 8002ab4:	681b      	ldr	r3, [r3, #0]
 8002ab6:	0e9b      	lsrs	r3, r3, #26
 8002ab8:	3301      	adds	r3, #1
 8002aba:	f003 031f 	and.w	r3, r3, #31
 8002abe:	2b09      	cmp	r3, #9
 8002ac0:	bf94      	ite	ls
 8002ac2:	2301      	movls	r3, #1
 8002ac4:	2300      	movhi	r3, #0
 8002ac6:	b2db      	uxtb	r3, r3
 8002ac8:	e012      	b.n	8002af0 <HAL_ADC_ConfigChannel+0x3e8>
 8002aca:	683b      	ldr	r3, [r7, #0]
 8002acc:	681b      	ldr	r3, [r3, #0]
 8002ace:	643b      	str	r3, [r7, #64]	; 0x40
   __ASM volatile ("rbit %0, %1" : "=r" (result) : "r" (value) );
 8002ad0:	6c3b      	ldr	r3, [r7, #64]	; 0x40
 8002ad2:	fa93 f3a3 	rbit	r3, r3
 8002ad6:	63fb      	str	r3, [r7, #60]	; 0x3c
  return result;
 8002ad8:	6bfb      	ldr	r3, [r7, #60]	; 0x3c
 8002ada:	fab3 f383 	clz	r3, r3
 8002ade:	b2db      	uxtb	r3, r3
 8002ae0:	3301      	adds	r3, #1
 8002ae2:	f003 031f 	and.w	r3, r3, #31
 8002ae6:	2b09      	cmp	r3, #9
 8002ae8:	bf94      	ite	ls
 8002aea:	2301      	movls	r3, #1
 8002aec:	2300      	movhi	r3, #0
 8002aee:	b2db      	uxtb	r3, r3
        LL_ADC_SetChannelSamplingTime(hadc->Instance,
 8002af0:	2b00      	cmp	r3, #0
 8002af2:	d064      	beq.n	8002bbe <HAL_ADC_ConfigChannel+0x4b6>
                                      (uint32_t)(__LL_ADC_DECIMAL_NB_TO_CHANNEL((__LL_ADC_CHANNEL_TO_DECIMAL_NB((uint32_t)sConfig->Channel) + 1UL) & 0x1FUL)),
 8002af4:	683b      	ldr	r3, [r7, #0]
 8002af6:	681b      	ldr	r3, [r3, #0]
 8002af8:	f3c3 0312 	ubfx	r3, r3, #0, #19
 8002afc:	2b00      	cmp	r3, #0
 8002afe:	d107      	bne.n	8002b10 <HAL_ADC_ConfigChannel+0x408>
 8002b00:	683b      	ldr	r3, [r7, #0]
 8002b02:	681b      	ldr	r3, [r3, #0]
 8002b04:	0e9b      	lsrs	r3, r3, #26
 8002b06:	3301      	adds	r3, #1
 8002b08:	069b      	lsls	r3, r3, #26
 8002b0a:	f003 42f8 	and.w	r2, r3, #2080374784	; 0x7c000000
 8002b0e:	e00e      	b.n	8002b2e <HAL_ADC_ConfigChannel+0x426>
 8002b10:	683b      	ldr	r3, [r7, #0]
 8002b12:	681b      	ldr	r3, [r3, #0]
 8002b14:	63bb      	str	r3, [r7, #56]	; 0x38
   __ASM volatile ("rbit %0, %1" : "=r" (result) : "r" (value) );
 8002b16:	6bbb      	ldr	r3, [r7, #56]	; 0x38
 8002b18:	fa93 f3a3 	rbit	r3, r3
 8002b1c:	637b      	str	r3, [r7, #52]	; 0x34
  return result;
 8002b1e:	6b7b      	ldr	r3, [r7, #52]	; 0x34
 8002b20:	fab3 f383 	clz	r3, r3
 8002b24:	b2db      	uxtb	r3, r3
 8002b26:	3301      	adds	r3, #1
 8002b28:	069b      	lsls	r3, r3, #26
 8002b2a:	f003 42f8 	and.w	r2, r3, #2080374784	; 0x7c000000
 8002b2e:	683b      	ldr	r3, [r7, #0]
 8002b30:	681b      	ldr	r3, [r3, #0]
 8002b32:	f3c3 0312 	ubfx	r3, r3, #0, #19
 8002b36:	2b00      	cmp	r3, #0
 8002b38:	d109      	bne.n	8002b4e <HAL_ADC_ConfigChannel+0x446>
 8002b3a:	683b      	ldr	r3, [r7, #0]
 8002b3c:	681b      	ldr	r3, [r3, #0]
 8002b3e:	0e9b      	lsrs	r3, r3, #26
 8002b40:	3301      	adds	r3, #1
 8002b42:	f003 031f 	and.w	r3, r3, #31
 8002b46:	2101      	movs	r1, #1
 8002b48:	fa01 f303 	lsl.w	r3, r1, r3
 8002b4c:	e010      	b.n	8002b70 <HAL_ADC_ConfigChannel+0x468>
 8002b4e:	683b      	ldr	r3, [r7, #0]
 8002b50:	681b      	ldr	r3, [r3, #0]
 8002b52:	633b      	str	r3, [r7, #48]	; 0x30
   __ASM volatile ("rbit %0, %1" : "=r" (result) : "r" (value) );
 8002b54:	6b3b      	ldr	r3, [r7, #48]	; 0x30
 8002b56:	fa93 f3a3 	rbit	r3, r3
 8002b5a:	62fb      	str	r3, [r7, #44]	; 0x2c
  return result;
 8002b5c:	6afb      	ldr	r3, [r7, #44]	; 0x2c
 8002b5e:	fab3 f383 	clz	r3, r3
 8002b62:	b2db      	uxtb	r3, r3
 8002b64:	3301      	adds	r3, #1
 8002b66:	f003 031f 	and.w	r3, r3, #31
 8002b6a:	2101      	movs	r1, #1
 8002b6c:	fa01 f303 	lsl.w	r3, r1, r3
 8002b70:	ea42 0103 	orr.w	r1, r2, r3
 8002b74:	683b      	ldr	r3, [r7, #0]
 8002b76:	681b      	ldr	r3, [r3, #0]
 8002b78:	f3c3 0312 	ubfx	r3, r3, #0, #19
 8002b7c:	2b00      	cmp	r3, #0
 8002b7e:	d10a      	bne.n	8002b96 <HAL_ADC_ConfigChannel+0x48e>
 8002b80:	683b      	ldr	r3, [r7, #0]
 8002b82:	681b      	ldr	r3, [r3, #0]
 8002b84:	0e9b      	lsrs	r3, r3, #26
 8002b86:	3301      	adds	r3, #1
 8002b88:	f003 021f 	and.w	r2, r3, #31
 8002b8c:	4613      	mov	r3, r2
 8002b8e:	005b      	lsls	r3, r3, #1
 8002b90:	4413      	add	r3, r2
 8002b92:	051b      	lsls	r3, r3, #20
 8002b94:	e011      	b.n	8002bba <HAL_ADC_ConfigChannel+0x4b2>
 8002b96:	683b      	ldr	r3, [r7, #0]
 8002b98:	681b      	ldr	r3, [r3, #0]
 8002b9a:	62bb      	str	r3, [r7, #40]	; 0x28
   __ASM volatile ("rbit %0, %1" : "=r" (result) : "r" (value) );
 8002b9c:	6abb      	ldr	r3, [r7, #40]	; 0x28
 8002b9e:	fa93 f3a3 	rbit	r3, r3
 8002ba2:	627b      	str	r3, [r7, #36]	; 0x24
  return result;
 8002ba4:	6a7b      	ldr	r3, [r7, #36]	; 0x24
 8002ba6:	fab3 f383 	clz	r3, r3
 8002baa:	b2db      	uxtb	r3, r3
 8002bac:	3301      	adds	r3, #1
 8002bae:	f003 021f 	and.w	r2, r3, #31
 8002bb2:	4613      	mov	r3, r2
 8002bb4:	005b      	lsls	r3, r3, #1
 8002bb6:	4413      	add	r3, r2
 8002bb8:	051b      	lsls	r3, r3, #20
        LL_ADC_SetChannelSamplingTime(hadc->Instance,
 8002bba:	430b      	orrs	r3, r1
 8002bbc:	e069      	b.n	8002c92 <HAL_ADC_ConfigChannel+0x58a>
                                      (uint32_t)(__LL_ADC_DECIMAL_NB_TO_CHANNEL((__LL_ADC_CHANNEL_TO_DECIMAL_NB((uint32_t)sConfig->Channel) + 1UL) & 0x1FUL)),
 8002bbe:	683b      	ldr	r3, [r7, #0]
 8002bc0:	681b      	ldr	r3, [r3, #0]
 8002bc2:	f3c3 0312 	ubfx	r3, r3, #0, #19
 8002bc6:	2b00      	cmp	r3, #0
 8002bc8:	d107      	bne.n	8002bda <HAL_ADC_ConfigChannel+0x4d2>
 8002bca:	683b      	ldr	r3, [r7, #0]
 8002bcc:	681b      	ldr	r3, [r3, #0]
 8002bce:	0e9b      	lsrs	r3, r3, #26
 8002bd0:	3301      	adds	r3, #1
 8002bd2:	069b      	lsls	r3, r3, #26
 8002bd4:	f003 42f8 	and.w	r2, r3, #2080374784	; 0x7c000000
 8002bd8:	e00e      	b.n	8002bf8 <HAL_ADC_ConfigChannel+0x4f0>
 8002bda:	683b      	ldr	r3, [r7, #0]
 8002bdc:	681b      	ldr	r3, [r3, #0]
 8002bde:	623b      	str	r3, [r7, #32]
   __ASM volatile ("rbit %0, %1" : "=r" (result) : "r" (value) );
 8002be0:	6a3b      	ldr	r3, [r7, #32]
 8002be2:	fa93 f3a3 	rbit	r3, r3
 8002be6:	61fb      	str	r3, [r7, #28]
  return result;
 8002be8:	69fb      	ldr	r3, [r7, #28]
 8002bea:	fab3 f383 	clz	r3, r3
 8002bee:	b2db      	uxtb	r3, r3
 8002bf0:	3301      	adds	r3, #1
 8002bf2:	069b      	lsls	r3, r3, #26
 8002bf4:	f003 42f8 	and.w	r2, r3, #2080374784	; 0x7c000000
 8002bf8:	683b      	ldr	r3, [r7, #0]
 8002bfa:	681b      	ldr	r3, [r3, #0]
 8002bfc:	f3c3 0312 	ubfx	r3, r3, #0, #19
 8002c00:	2b00      	cmp	r3, #0
 8002c02:	d109      	bne.n	8002c18 <HAL_ADC_ConfigChannel+0x510>
 8002c04:	683b      	ldr	r3, [r7, #0]
 8002c06:	681b      	ldr	r3, [r3, #0]
 8002c08:	0e9b      	lsrs	r3, r3, #26
 8002c0a:	3301      	adds	r3, #1
 8002c0c:	f003 031f 	and.w	r3, r3, #31
 8002c10:	2101      	movs	r1, #1
 8002c12:	fa01 f303 	lsl.w	r3, r1, r3
 8002c16:	e010      	b.n	8002c3a <HAL_ADC_ConfigChannel+0x532>
 8002c18:	683b      	ldr	r3, [r7, #0]
 8002c1a:	681b      	ldr	r3, [r3, #0]
 8002c1c:	61bb      	str	r3, [r7, #24]
   __ASM volatile ("rbit %0, %1" : "=r" (result) : "r" (value) );
 8002c1e:	69bb      	ldr	r3, [r7, #24]
 8002c20:	fa93 f3a3 	rbit	r3, r3
 8002c24:	617b      	str	r3, [r7, #20]
  return result;
 8002c26:	697b      	ldr	r3, [r7, #20]
 8002c28:	fab3 f383 	clz	r3, r3
 8002c2c:	b2db      	uxtb	r3, r3
 8002c2e:	3301      	adds	r3, #1
 8002c30:	f003 031f 	and.w	r3, r3, #31
 8002c34:	2101      	movs	r1, #1
 8002c36:	fa01 f303 	lsl.w	r3, r1, r3
 8002c3a:	ea42 0103 	orr.w	r1, r2, r3
 8002c3e:	683b      	ldr	r3, [r7, #0]
 8002c40:	681b      	ldr	r3, [r3, #0]
 8002c42:	f3c3 0312 	ubfx	r3, r3, #0, #19
 8002c46:	2b00      	cmp	r3, #0
 8002c48:	d10d      	bne.n	8002c66 <HAL_ADC_ConfigChannel+0x55e>
 8002c4a:	683b      	ldr	r3, [r7, #0]
 8002c4c:	681b      	ldr	r3, [r3, #0]
 8002c4e:	0e9b      	lsrs	r3, r3, #26
 8002c50:	3301      	adds	r3, #1
 8002c52:	f003 021f 	and.w	r2, r3, #31
 8002c56:	4613      	mov	r3, r2
 8002c58:	005b      	lsls	r3, r3, #1
 8002c5a:	4413      	add	r3, r2
 8002c5c:	3b1e      	subs	r3, #30
 8002c5e:	051b      	lsls	r3, r3, #20
 8002c60:	f043 7300 	orr.w	r3, r3, #33554432	; 0x2000000
 8002c64:	e014      	b.n	8002c90 <HAL_ADC_ConfigChannel+0x588>
 8002c66:	683b      	ldr	r3, [r7, #0]
 8002c68:	681b      	ldr	r3, [r3, #0]
 8002c6a:	613b      	str	r3, [r7, #16]
   __ASM volatile ("rbit %0, %1" : "=r" (result) : "r" (value) );
 8002c6c:	693b      	ldr	r3, [r7, #16]
 8002c6e:	fa93 f3a3 	rbit	r3, r3
 8002c72:	60fb      	str	r3, [r7, #12]
  return result;
 8002c74:	68fb      	ldr	r3, [r7, #12]
 8002c76:	fab3 f383 	clz	r3, r3
 8002c7a:	b2db      	uxtb	r3, r3
 8002c7c:	3301      	adds	r3, #1
 8002c7e:	f003 021f 	and.w	r2, r3, #31
 8002c82:	4613      	mov	r3, r2
 8002c84:	005b      	lsls	r3, r3, #1
 8002c86:	4413      	add	r3, r2
 8002c88:	3b1e      	subs	r3, #30
 8002c8a:	051b      	lsls	r3, r3, #20
 8002c8c:	f043 7300 	orr.w	r3, r3, #33554432	; 0x2000000
        LL_ADC_SetChannelSamplingTime(hadc->Instance,
 8002c90:	430b      	orrs	r3, r1
 8002c92:	683a      	ldr	r2, [r7, #0]
 8002c94:	6892      	ldr	r2, [r2, #8]
 8002c96:	4619      	mov	r1, r3
 8002c98:	f7ff faa2 	bl	80021e0 <LL_ADC_SetChannelSamplingTime>
    /* If internal channel selected, enable dedicated internal buffers and    */
    /* paths.                                                                 */
    /* Note: these internal measurement paths can be disabled using           */
    /* HAL_ADC_DeInit().                                                      */

    if (__LL_ADC_IS_CHANNEL_INTERNAL(sConfig->Channel))
 8002c9c:	683b      	ldr	r3, [r7, #0]
 8002c9e:	681a      	ldr	r2, [r3, #0]
 8002ca0:	4b2e      	ldr	r3, [pc, #184]	; (8002d5c <HAL_ADC_ConfigChannel+0x654>)
 8002ca2:	4013      	ands	r3, r2
 8002ca4:	2b00      	cmp	r3, #0
 8002ca6:	f000 80c9 	beq.w	8002e3c <HAL_ADC_ConfigChannel+0x734>
    {
      tmp_config_internal_channel = LL_ADC_GetCommonPathInternalCh(__LL_ADC_COMMON_INSTANCE(hadc->Instance));
 8002caa:	687b      	ldr	r3, [r7, #4]
 8002cac:	681b      	ldr	r3, [r3, #0]
 8002cae:	f1b3 4fa0 	cmp.w	r3, #1342177280	; 0x50000000
 8002cb2:	d004      	beq.n	8002cbe <HAL_ADC_ConfigChannel+0x5b6>
 8002cb4:	687b      	ldr	r3, [r7, #4]
 8002cb6:	681b      	ldr	r3, [r3, #0]
 8002cb8:	4a29      	ldr	r2, [pc, #164]	; (8002d60 <HAL_ADC_ConfigChannel+0x658>)
 8002cba:	4293      	cmp	r3, r2
 8002cbc:	d101      	bne.n	8002cc2 <HAL_ADC_ConfigChannel+0x5ba>
 8002cbe:	4b29      	ldr	r3, [pc, #164]	; (8002d64 <HAL_ADC_ConfigChannel+0x65c>)
 8002cc0:	e000      	b.n	8002cc4 <HAL_ADC_ConfigChannel+0x5bc>
 8002cc2:	4b29      	ldr	r3, [pc, #164]	; (8002d68 <HAL_ADC_ConfigChannel+0x660>)
 8002cc4:	4618      	mov	r0, r3
 8002cc6:	f7ff f9c3 	bl	8002050 <LL_ADC_GetCommonPathInternalCh>
 8002cca:	f8c7 0084 	str.w	r0, [r7, #132]	; 0x84

      /* If the requested internal measurement path has already been enabled, */
      /* bypass the configuration processing.                                 */
      if (((sConfig->Channel == ADC_CHANNEL_TEMPSENSOR_ADC1) || (sConfig->Channel == ADC_CHANNEL_TEMPSENSOR_ADC5))
 8002cce:	683b      	ldr	r3, [r7, #0]
 8002cd0:	681b      	ldr	r3, [r3, #0]
 8002cd2:	4a26      	ldr	r2, [pc, #152]	; (8002d6c <HAL_ADC_ConfigChannel+0x664>)
 8002cd4:	4293      	cmp	r3, r2
 8002cd6:	d004      	beq.n	8002ce2 <HAL_ADC_ConfigChannel+0x5da>
 8002cd8:	683b      	ldr	r3, [r7, #0]
 8002cda:	681b      	ldr	r3, [r3, #0]
 8002cdc:	4a24      	ldr	r2, [pc, #144]	; (8002d70 <HAL_ADC_ConfigChannel+0x668>)
 8002cde:	4293      	cmp	r3, r2
 8002ce0:	d14e      	bne.n	8002d80 <HAL_ADC_ConfigChannel+0x678>
          && ((tmp_config_internal_channel & LL_ADC_PATH_INTERNAL_TEMPSENSOR) == 0UL))
 8002ce2:	f8d7 3084 	ldr.w	r3, [r7, #132]	; 0x84
 8002ce6:	f403 0300 	and.w	r3, r3, #8388608	; 0x800000
 8002cea:	2b00      	cmp	r3, #0
 8002cec:	d148      	bne.n	8002d80 <HAL_ADC_ConfigChannel+0x678>
      {
        if (ADC_TEMPERATURE_SENSOR_INSTANCE(hadc))
 8002cee:	687b      	ldr	r3, [r7, #4]
 8002cf0:	681b      	ldr	r3, [r3, #0]
 8002cf2:	f1b3 4fa0 	cmp.w	r3, #1342177280	; 0x50000000
 8002cf6:	d005      	beq.n	8002d04 <HAL_ADC_ConfigChannel+0x5fc>
 8002cf8:	687b      	ldr	r3, [r7, #4]
 8002cfa:	681b      	ldr	r3, [r3, #0]
 8002cfc:	4a1d      	ldr	r2, [pc, #116]	; (8002d74 <HAL_ADC_ConfigChannel+0x66c>)
 8002cfe:	4293      	cmp	r3, r2
 8002d00:	f040 8099 	bne.w	8002e36 <HAL_ADC_ConfigChannel+0x72e>
        {
          LL_ADC_SetCommonPathInternalCh(__LL_ADC_COMMON_INSTANCE(hadc->Instance),
 8002d04:	687b      	ldr	r3, [r7, #4]
 8002d06:	681b      	ldr	r3, [r3, #0]
 8002d08:	f1b3 4fa0 	cmp.w	r3, #1342177280	; 0x50000000
 8002d0c:	d004      	beq.n	8002d18 <HAL_ADC_ConfigChannel+0x610>
 8002d0e:	687b      	ldr	r3, [r7, #4]
 8002d10:	681b      	ldr	r3, [r3, #0]
 8002d12:	4a13      	ldr	r2, [pc, #76]	; (8002d60 <HAL_ADC_ConfigChannel+0x658>)
 8002d14:	4293      	cmp	r3, r2
 8002d16:	d101      	bne.n	8002d1c <HAL_ADC_ConfigChannel+0x614>
 8002d18:	4a12      	ldr	r2, [pc, #72]	; (8002d64 <HAL_ADC_ConfigChannel+0x65c>)
 8002d1a:	e000      	b.n	8002d1e <HAL_ADC_ConfigChannel+0x616>
 8002d1c:	4a12      	ldr	r2, [pc, #72]	; (8002d68 <HAL_ADC_ConfigChannel+0x660>)
 8002d1e:	f8d7 3084 	ldr.w	r3, [r7, #132]	; 0x84
 8002d22:	f443 0300 	orr.w	r3, r3, #8388608	; 0x800000
 8002d26:	4619      	mov	r1, r3
 8002d28:	4610      	mov	r0, r2
 8002d2a:	f7ff f97e 	bl	800202a <LL_ADC_SetCommonPathInternalCh>
          /* Delay for temperature sensor stabilization time */
          /* Wait loop initialization and execution */
          /* Note: Variable divided by 2 to compensate partially              */
          /*       CPU processing cycles, scaling in us split to not          */
          /*       exceed 32 bits register capacity and handle low frequency. */
          wait_loop_index = ((LL_ADC_DELAY_TEMPSENSOR_STAB_US / 10UL) * (SystemCoreClock / (100000UL * 2UL)));
 8002d2e:	4b12      	ldr	r3, [pc, #72]	; (8002d78 <HAL_ADC_ConfigChannel+0x670>)
 8002d30:	681b      	ldr	r3, [r3, #0]
 8002d32:	099b      	lsrs	r3, r3, #6
 8002d34:	4a11      	ldr	r2, [pc, #68]	; (8002d7c <HAL_ADC_ConfigChannel+0x674>)
 8002d36:	fba2 2303 	umull	r2, r3, r2, r3
 8002d3a:	099a      	lsrs	r2, r3, #6
 8002d3c:	4613      	mov	r3, r2
 8002d3e:	005b      	lsls	r3, r3, #1
 8002d40:	4413      	add	r3, r2
 8002d42:	009b      	lsls	r3, r3, #2
 8002d44:	60bb      	str	r3, [r7, #8]
          while (wait_loop_index != 0UL)
 8002d46:	e002      	b.n	8002d4e <HAL_ADC_ConfigChannel+0x646>
          {
            wait_loop_index--;
 8002d48:	68bb      	ldr	r3, [r7, #8]
 8002d4a:	3b01      	subs	r3, #1
 8002d4c:	60bb      	str	r3, [r7, #8]
          while (wait_loop_index != 0UL)
 8002d4e:	68bb      	ldr	r3, [r7, #8]
 8002d50:	2b00      	cmp	r3, #0
 8002d52:	d1f9      	bne.n	8002d48 <HAL_ADC_ConfigChannel+0x640>
        if (ADC_TEMPERATURE_SENSOR_INSTANCE(hadc))
 8002d54:	e06f      	b.n	8002e36 <HAL_ADC_ConfigChannel+0x72e>
 8002d56:	bf00      	nop
 8002d58:	407f0000 	.word	0x407f0000
 8002d5c:	80080000 	.word	0x80080000
 8002d60:	50000100 	.word	0x50000100
 8002d64:	50000300 	.word	0x50000300
 8002d68:	50000700 	.word	0x50000700
 8002d6c:	c3210000 	.word	0xc3210000
 8002d70:	90c00010 	.word	0x90c00010
 8002d74:	50000600 	.word	0x50000600
 8002d78:	200003cc 	.word	0x200003cc
 8002d7c:	053e2d63 	.word	0x053e2d63
          }
        }
      }
      else if ((sConfig->Channel == ADC_CHANNEL_VBAT) && ((tmp_config_internal_channel & LL_ADC_PATH_INTERNAL_VBAT) == 0UL))
 8002d80:	683b      	ldr	r3, [r7, #0]
 8002d82:	681b      	ldr	r3, [r3, #0]
 8002d84:	4a32      	ldr	r2, [pc, #200]	; (8002e50 <HAL_ADC_ConfigChannel+0x748>)
 8002d86:	4293      	cmp	r3, r2
 8002d88:	d125      	bne.n	8002dd6 <HAL_ADC_ConfigChannel+0x6ce>
 8002d8a:	f8d7 3084 	ldr.w	r3, [r7, #132]	; 0x84
 8002d8e:	f003 7380 	and.w	r3, r3, #16777216	; 0x1000000
 8002d92:	2b00      	cmp	r3, #0
 8002d94:	d11f      	bne.n	8002dd6 <HAL_ADC_ConfigChannel+0x6ce>
      {
        if (ADC_BATTERY_VOLTAGE_INSTANCE(hadc))
 8002d96:	687b      	ldr	r3, [r7, #4]
 8002d98:	681b      	ldr	r3, [r3, #0]
 8002d9a:	4a2e      	ldr	r2, [pc, #184]	; (8002e54 <HAL_ADC_ConfigChannel+0x74c>)
 8002d9c:	4293      	cmp	r3, r2
 8002d9e:	d104      	bne.n	8002daa <HAL_ADC_ConfigChannel+0x6a2>
 8002da0:	687b      	ldr	r3, [r7, #4]
 8002da2:	681b      	ldr	r3, [r3, #0]
 8002da4:	4a2c      	ldr	r2, [pc, #176]	; (8002e58 <HAL_ADC_ConfigChannel+0x750>)
 8002da6:	4293      	cmp	r3, r2
 8002da8:	d047      	beq.n	8002e3a <HAL_ADC_ConfigChannel+0x732>
        {
          LL_ADC_SetCommonPathInternalCh(__LL_ADC_COMMON_INSTANCE(hadc->Instance),
 8002daa:	687b      	ldr	r3, [r7, #4]
 8002dac:	681b      	ldr	r3, [r3, #0]
 8002dae:	f1b3 4fa0 	cmp.w	r3, #1342177280	; 0x50000000
 8002db2:	d004      	beq.n	8002dbe <HAL_ADC_ConfigChannel+0x6b6>
 8002db4:	687b      	ldr	r3, [r7, #4]
 8002db6:	681b      	ldr	r3, [r3, #0]
 8002db8:	4a26      	ldr	r2, [pc, #152]	; (8002e54 <HAL_ADC_ConfigChannel+0x74c>)
 8002dba:	4293      	cmp	r3, r2
 8002dbc:	d101      	bne.n	8002dc2 <HAL_ADC_ConfigChannel+0x6ba>
 8002dbe:	4a27      	ldr	r2, [pc, #156]	; (8002e5c <HAL_ADC_ConfigChannel+0x754>)
 8002dc0:	e000      	b.n	8002dc4 <HAL_ADC_ConfigChannel+0x6bc>
 8002dc2:	4a27      	ldr	r2, [pc, #156]	; (8002e60 <HAL_ADC_ConfigChannel+0x758>)
 8002dc4:	f8d7 3084 	ldr.w	r3, [r7, #132]	; 0x84
 8002dc8:	f043 7380 	orr.w	r3, r3, #16777216	; 0x1000000
 8002dcc:	4619      	mov	r1, r3
 8002dce:	4610      	mov	r0, r2
 8002dd0:	f7ff f92b 	bl	800202a <LL_ADC_SetCommonPathInternalCh>
        if (ADC_BATTERY_VOLTAGE_INSTANCE(hadc))
 8002dd4:	e031      	b.n	8002e3a <HAL_ADC_ConfigChannel+0x732>
                                         LL_ADC_PATH_INTERNAL_VBAT | tmp_config_internal_channel);
        }
      }
      else if ((sConfig->Channel == ADC_CHANNEL_VREFINT)
 8002dd6:	683b      	ldr	r3, [r7, #0]
 8002dd8:	681b      	ldr	r3, [r3, #0]
 8002dda:	4a22      	ldr	r2, [pc, #136]	; (8002e64 <HAL_ADC_ConfigChannel+0x75c>)
 8002ddc:	4293      	cmp	r3, r2
 8002dde:	d12d      	bne.n	8002e3c <HAL_ADC_ConfigChannel+0x734>
               && ((tmp_config_internal_channel & LL_ADC_PATH_INTERNAL_VREFINT) == 0UL))
 8002de0:	f8d7 3084 	ldr.w	r3, [r7, #132]	; 0x84
 8002de4:	f403 0380 	and.w	r3, r3, #4194304	; 0x400000
 8002de8:	2b00      	cmp	r3, #0
 8002dea:	d127      	bne.n	8002e3c <HAL_ADC_ConfigChannel+0x734>
      {
        if (ADC_VREFINT_INSTANCE(hadc))
 8002dec:	687b      	ldr	r3, [r7, #4]
 8002dee:	681b      	ldr	r3, [r3, #0]
 8002df0:	4a18      	ldr	r2, [pc, #96]	; (8002e54 <HAL_ADC_ConfigChannel+0x74c>)
 8002df2:	4293      	cmp	r3, r2
 8002df4:	d022      	beq.n	8002e3c <HAL_ADC_ConfigChannel+0x734>
        {
          LL_ADC_SetCommonPathInternalCh(__LL_ADC_COMMON_INSTANCE(hadc->Instance),
 8002df6:	687b      	ldr	r3, [r7, #4]
 8002df8:	681b      	ldr	r3, [r3, #0]
 8002dfa:	f1b3 4fa0 	cmp.w	r3, #1342177280	; 0x50000000
 8002dfe:	d004      	beq.n	8002e0a <HAL_ADC_ConfigChannel+0x702>
 8002e00:	687b      	ldr	r3, [r7, #4]
 8002e02:	681b      	ldr	r3, [r3, #0]
 8002e04:	4a13      	ldr	r2, [pc, #76]	; (8002e54 <HAL_ADC_ConfigChannel+0x74c>)
 8002e06:	4293      	cmp	r3, r2
 8002e08:	d101      	bne.n	8002e0e <HAL_ADC_ConfigChannel+0x706>
 8002e0a:	4a14      	ldr	r2, [pc, #80]	; (8002e5c <HAL_ADC_ConfigChannel+0x754>)
 8002e0c:	e000      	b.n	8002e10 <HAL_ADC_ConfigChannel+0x708>
 8002e0e:	4a14      	ldr	r2, [pc, #80]	; (8002e60 <HAL_ADC_ConfigChannel+0x758>)
 8002e10:	f8d7 3084 	ldr.w	r3, [r7, #132]	; 0x84
 8002e14:	f443 0380 	orr.w	r3, r3, #4194304	; 0x400000
 8002e18:	4619      	mov	r1, r3
 8002e1a:	4610      	mov	r0, r2
 8002e1c:	f7ff f905 	bl	800202a <LL_ADC_SetCommonPathInternalCh>
 8002e20:	e00c      	b.n	8002e3c <HAL_ADC_ConfigChannel+0x734>
  /* channel could be done on neither of the channel configuration structure  */
  /* parameters.                                                              */
  else
  {
    /* Update ADC state machine to error */
    SET_BIT(hadc->State, HAL_ADC_STATE_ERROR_CONFIG);
 8002e22:	687b      	ldr	r3, [r7, #4]
 8002e24:	6ddb      	ldr	r3, [r3, #92]	; 0x5c
 8002e26:	f043 0220 	orr.w	r2, r3, #32
 8002e2a:	687b      	ldr	r3, [r7, #4]
 8002e2c:	65da      	str	r2, [r3, #92]	; 0x5c

    tmp_hal_status = HAL_ERROR;
 8002e2e:	2301      	movs	r3, #1
 8002e30:	f887 3097 	strb.w	r3, [r7, #151]	; 0x97
 8002e34:	e002      	b.n	8002e3c <HAL_ADC_ConfigChannel+0x734>
        if (ADC_TEMPERATURE_SENSOR_INSTANCE(hadc))
 8002e36:	bf00      	nop
 8002e38:	e000      	b.n	8002e3c <HAL_ADC_ConfigChannel+0x734>
        if (ADC_BATTERY_VOLTAGE_INSTANCE(hadc))
 8002e3a:	bf00      	nop
  }

  /* Process unlocked */
  __HAL_UNLOCK(hadc);
 8002e3c:	687b      	ldr	r3, [r7, #4]
 8002e3e:	2200      	movs	r2, #0
 8002e40:	f883 2058 	strb.w	r2, [r3, #88]	; 0x58

  /* Return function status */
  return tmp_hal_status;
 8002e44:	f897 3097 	ldrb.w	r3, [r7, #151]	; 0x97
}
 8002e48:	4618      	mov	r0, r3
 8002e4a:	3798      	adds	r7, #152	; 0x98
 8002e4c:	46bd      	mov	sp, r7
 8002e4e:	bd80      	pop	{r7, pc}
 8002e50:	c7520000 	.word	0xc7520000
 8002e54:	50000100 	.word	0x50000100
 8002e58:	50000500 	.word	0x50000500
 8002e5c:	50000300 	.word	0x50000300
 8002e60:	50000700 	.word	0x50000700
 8002e64:	cb840000 	.word	0xcb840000

08002e68 <LL_ADC_IsEnabled>:
{
 8002e68:	b480      	push	{r7}
 8002e6a:	b083      	sub	sp, #12
 8002e6c:	af00      	add	r7, sp, #0
 8002e6e:	6078      	str	r0, [r7, #4]
  return ((READ_BIT(ADCx->CR, ADC_CR_ADEN) == (ADC_CR_ADEN)) ? 1UL : 0UL);
 8002e70:	687b      	ldr	r3, [r7, #4]
 8002e72:	689b      	ldr	r3, [r3, #8]
 8002e74:	f003 0301 	and.w	r3, r3, #1
 8002e78:	2b01      	cmp	r3, #1
 8002e7a:	d101      	bne.n	8002e80 <LL_ADC_IsEnabled+0x18>
 8002e7c:	2301      	movs	r3, #1
 8002e7e:	e000      	b.n	8002e82 <LL_ADC_IsEnabled+0x1a>
 8002e80:	2300      	movs	r3, #0
}
 8002e82:	4618      	mov	r0, r3
 8002e84:	370c      	adds	r7, #12
 8002e86:	46bd      	mov	sp, r7
 8002e88:	f85d 7b04 	ldr.w	r7, [sp], #4
 8002e8c:	4770      	bx	lr

08002e8e <LL_ADC_REG_IsConversionOngoing>:
{
 8002e8e:	b480      	push	{r7}
 8002e90:	b083      	sub	sp, #12
 8002e92:	af00      	add	r7, sp, #0
 8002e94:	6078      	str	r0, [r7, #4]
  return ((READ_BIT(ADCx->CR, ADC_CR_ADSTART) == (ADC_CR_ADSTART)) ? 1UL : 0UL);
 8002e96:	687b      	ldr	r3, [r7, #4]
 8002e98:	689b      	ldr	r3, [r3, #8]
 8002e9a:	f003 0304 	and.w	r3, r3, #4
 8002e9e:	2b04      	cmp	r3, #4
 8002ea0:	d101      	bne.n	8002ea6 <LL_ADC_REG_IsConversionOngoing+0x18>
 8002ea2:	2301      	movs	r3, #1
 8002ea4:	e000      	b.n	8002ea8 <LL_ADC_REG_IsConversionOngoing+0x1a>
 8002ea6:	2300      	movs	r3, #0
}
 8002ea8:	4618      	mov	r0, r3
 8002eaa:	370c      	adds	r7, #12
 8002eac:	46bd      	mov	sp, r7
 8002eae:	f85d 7b04 	ldr.w	r7, [sp], #4
 8002eb2:	4770      	bx	lr

08002eb4 <HAL_ADCEx_MultiModeConfigChannel>:
  * @param hadc Master ADC handle
  * @param multimode Structure of ADC multimode configuration
  * @retval HAL status
  */
HAL_StatusTypeDef HAL_ADCEx_MultiModeConfigChannel(ADC_HandleTypeDef *hadc, ADC_MultiModeTypeDef *multimode)
{
 8002eb4:	b590      	push	{r4, r7, lr}
 8002eb6:	b0a1      	sub	sp, #132	; 0x84
 8002eb8:	af00      	add	r7, sp, #0
 8002eba:	6078      	str	r0, [r7, #4]
 8002ebc:	6039      	str	r1, [r7, #0]
  HAL_StatusTypeDef tmp_hal_status = HAL_OK;
 8002ebe:	2300      	movs	r3, #0
 8002ec0:	f887 307f 	strb.w	r3, [r7, #127]	; 0x7f
    assert_param(IS_ADC_DMA_ACCESS_MULTIMODE(multimode->DMAAccessMode));
    assert_param(IS_ADC_SAMPLING_DELAY(multimode->TwoSamplingDelay));
  }

  /* Process locked */
  __HAL_LOCK(hadc);
 8002ec4:	687b      	ldr	r3, [r7, #4]
 8002ec6:	f893 3058 	ldrb.w	r3, [r3, #88]	; 0x58
 8002eca:	2b01      	cmp	r3, #1
 8002ecc:	d101      	bne.n	8002ed2 <HAL_ADCEx_MultiModeConfigChannel+0x1e>
 8002ece:	2302      	movs	r3, #2
 8002ed0:	e0e3      	b.n	800309a <HAL_ADCEx_MultiModeConfigChannel+0x1e6>
 8002ed2:	687b      	ldr	r3, [r7, #4]
 8002ed4:	2201      	movs	r2, #1
 8002ed6:	f883 2058 	strb.w	r2, [r3, #88]	; 0x58

  ADC_MULTI_SLAVE(hadc, &tmphadcSlave);
 8002eda:	687b      	ldr	r3, [r7, #4]
 8002edc:	681b      	ldr	r3, [r3, #0]
 8002ede:	f1b3 4fa0 	cmp.w	r3, #1342177280	; 0x50000000
 8002ee2:	d102      	bne.n	8002eea <HAL_ADCEx_MultiModeConfigChannel+0x36>
 8002ee4:	4b6f      	ldr	r3, [pc, #444]	; (80030a4 <HAL_ADCEx_MultiModeConfigChannel+0x1f0>)
 8002ee6:	60bb      	str	r3, [r7, #8]
 8002ee8:	e009      	b.n	8002efe <HAL_ADCEx_MultiModeConfigChannel+0x4a>
 8002eea:	687b      	ldr	r3, [r7, #4]
 8002eec:	681b      	ldr	r3, [r3, #0]
 8002eee:	4a6e      	ldr	r2, [pc, #440]	; (80030a8 <HAL_ADCEx_MultiModeConfigChannel+0x1f4>)
 8002ef0:	4293      	cmp	r3, r2
 8002ef2:	d102      	bne.n	8002efa <HAL_ADCEx_MultiModeConfigChannel+0x46>
 8002ef4:	4b6d      	ldr	r3, [pc, #436]	; (80030ac <HAL_ADCEx_MultiModeConfigChannel+0x1f8>)
 8002ef6:	60bb      	str	r3, [r7, #8]
 8002ef8:	e001      	b.n	8002efe <HAL_ADCEx_MultiModeConfigChannel+0x4a>
 8002efa:	2300      	movs	r3, #0
 8002efc:	60bb      	str	r3, [r7, #8]

  if (tmphadcSlave.Instance == NULL)
 8002efe:	68bb      	ldr	r3, [r7, #8]
 8002f00:	2b00      	cmp	r3, #0
 8002f02:	d10b      	bne.n	8002f1c <HAL_ADCEx_MultiModeConfigChannel+0x68>
  {
    /* Update ADC state machine to error */
    SET_BIT(hadc->State, HAL_ADC_STATE_ERROR_CONFIG);
 8002f04:	687b      	ldr	r3, [r7, #4]
 8002f06:	6ddb      	ldr	r3, [r3, #92]	; 0x5c
 8002f08:	f043 0220 	orr.w	r2, r3, #32
 8002f0c:	687b      	ldr	r3, [r7, #4]
 8002f0e:	65da      	str	r2, [r3, #92]	; 0x5c

    /* Process unlocked */
    __HAL_UNLOCK(hadc);
 8002f10:	687b      	ldr	r3, [r7, #4]
 8002f12:	2200      	movs	r2, #0
 8002f14:	f883 2058 	strb.w	r2, [r3, #88]	; 0x58

    return HAL_ERROR;
 8002f18:	2301      	movs	r3, #1
 8002f1a:	e0be      	b.n	800309a <HAL_ADCEx_MultiModeConfigChannel+0x1e6>
  /* Parameters update conditioned to ADC state:                              */
  /* Parameters that can be updated when ADC is disabled or enabled without   */
  /* conversion on going on regular group:                                    */
  /*  - Multimode DMA configuration                                           */
  /*  - Multimode DMA mode                                                    */
  tmphadcSlave_conversion_on_going = LL_ADC_REG_IsConversionOngoing((&tmphadcSlave)->Instance);
 8002f1c:	68bb      	ldr	r3, [r7, #8]
 8002f1e:	4618      	mov	r0, r3
 8002f20:	f7ff ffb5 	bl	8002e8e <LL_ADC_REG_IsConversionOngoing>
 8002f24:	67b8      	str	r0, [r7, #120]	; 0x78
  if ((LL_ADC_REG_IsConversionOngoing(hadc->Instance) == 0UL)
 8002f26:	687b      	ldr	r3, [r7, #4]
 8002f28:	681b      	ldr	r3, [r3, #0]
 8002f2a:	4618      	mov	r0, r3
 8002f2c:	f7ff ffaf 	bl	8002e8e <LL_ADC_REG_IsConversionOngoing>
 8002f30:	4603      	mov	r3, r0
 8002f32:	2b00      	cmp	r3, #0
 8002f34:	f040 80a0 	bne.w	8003078 <HAL_ADCEx_MultiModeConfigChannel+0x1c4>
      && (tmphadcSlave_conversion_on_going == 0UL))
 8002f38:	6fbb      	ldr	r3, [r7, #120]	; 0x78
 8002f3a:	2b00      	cmp	r3, #0
 8002f3c:	f040 809c 	bne.w	8003078 <HAL_ADCEx_MultiModeConfigChannel+0x1c4>
  {
    /* Pointer to the common control register */
    tmpADC_Common = __LL_ADC_COMMON_INSTANCE(hadc->Instance);
 8002f40:	687b      	ldr	r3, [r7, #4]
 8002f42:	681b      	ldr	r3, [r3, #0]
 8002f44:	f1b3 4fa0 	cmp.w	r3, #1342177280	; 0x50000000
 8002f48:	d004      	beq.n	8002f54 <HAL_ADCEx_MultiModeConfigChannel+0xa0>
 8002f4a:	687b      	ldr	r3, [r7, #4]
 8002f4c:	681b      	ldr	r3, [r3, #0]
 8002f4e:	4a55      	ldr	r2, [pc, #340]	; (80030a4 <HAL_ADCEx_MultiModeConfigChannel+0x1f0>)
 8002f50:	4293      	cmp	r3, r2
 8002f52:	d101      	bne.n	8002f58 <HAL_ADCEx_MultiModeConfigChannel+0xa4>
 8002f54:	4b56      	ldr	r3, [pc, #344]	; (80030b0 <HAL_ADCEx_MultiModeConfigChannel+0x1fc>)
 8002f56:	e000      	b.n	8002f5a <HAL_ADCEx_MultiModeConfigChannel+0xa6>
 8002f58:	4b56      	ldr	r3, [pc, #344]	; (80030b4 <HAL_ADCEx_MultiModeConfigChannel+0x200>)
 8002f5a:	677b      	str	r3, [r7, #116]	; 0x74

    /* If multimode is selected, configure all multimode parameters.          */
    /* Otherwise, reset multimode parameters (can be used in case of          */
    /* transition from multimode to independent mode).                        */
    if (multimode->Mode != ADC_MODE_INDEPENDENT)
 8002f5c:	683b      	ldr	r3, [r7, #0]
 8002f5e:	681b      	ldr	r3, [r3, #0]
 8002f60:	2b00      	cmp	r3, #0
 8002f62:	d04b      	beq.n	8002ffc <HAL_ADCEx_MultiModeConfigChannel+0x148>
    {
      MODIFY_REG(tmpADC_Common->CCR, ADC_CCR_MDMA | ADC_CCR_DMACFG,
 8002f64:	6f7b      	ldr	r3, [r7, #116]	; 0x74
 8002f66:	689b      	ldr	r3, [r3, #8]
 8002f68:	f423 4260 	bic.w	r2, r3, #57344	; 0xe000
 8002f6c:	683b      	ldr	r3, [r7, #0]
 8002f6e:	6859      	ldr	r1, [r3, #4]
 8002f70:	687b      	ldr	r3, [r7, #4]
 8002f72:	f893 3038 	ldrb.w	r3, [r3, #56]	; 0x38
 8002f76:	035b      	lsls	r3, r3, #13
 8002f78:	430b      	orrs	r3, r1
 8002f7a:	431a      	orrs	r2, r3
 8002f7c:	6f7b      	ldr	r3, [r7, #116]	; 0x74
 8002f7e:	609a      	str	r2, [r3, #8]
      /*      from 1 to 10 clock cycles for 10 bits,                              */
      /*      from 1 to 8 clock cycles for 8 bits                                 */
      /*      from 1 to 6 clock cycles for 6 bits                                 */
      /*    If a higher delay is selected, it will be clipped to maximum delay    */
      /*    range                                                                 */
      if (__LL_ADC_IS_ENABLED_ALL_COMMON_INSTANCE(__LL_ADC_COMMON_INSTANCE(hadc->Instance)) == 0UL)
 8002f80:	687b      	ldr	r3, [r7, #4]
 8002f82:	681b      	ldr	r3, [r3, #0]
 8002f84:	f1b3 4fa0 	cmp.w	r3, #1342177280	; 0x50000000
 8002f88:	d004      	beq.n	8002f94 <HAL_ADCEx_MultiModeConfigChannel+0xe0>
 8002f8a:	687b      	ldr	r3, [r7, #4]
 8002f8c:	681b      	ldr	r3, [r3, #0]
 8002f8e:	4a45      	ldr	r2, [pc, #276]	; (80030a4 <HAL_ADCEx_MultiModeConfigChannel+0x1f0>)
 8002f90:	4293      	cmp	r3, r2
 8002f92:	d10f      	bne.n	8002fb4 <HAL_ADCEx_MultiModeConfigChannel+0x100>
 8002f94:	f04f 40a0 	mov.w	r0, #1342177280	; 0x50000000
 8002f98:	f7ff ff66 	bl	8002e68 <LL_ADC_IsEnabled>
 8002f9c:	4604      	mov	r4, r0
 8002f9e:	4841      	ldr	r0, [pc, #260]	; (80030a4 <HAL_ADCEx_MultiModeConfigChannel+0x1f0>)
 8002fa0:	f7ff ff62 	bl	8002e68 <LL_ADC_IsEnabled>
 8002fa4:	4603      	mov	r3, r0
 8002fa6:	4323      	orrs	r3, r4
 8002fa8:	2b00      	cmp	r3, #0
 8002faa:	bf0c      	ite	eq
 8002fac:	2301      	moveq	r3, #1
 8002fae:	2300      	movne	r3, #0
 8002fb0:	b2db      	uxtb	r3, r3
 8002fb2:	e012      	b.n	8002fda <HAL_ADCEx_MultiModeConfigChannel+0x126>
 8002fb4:	483c      	ldr	r0, [pc, #240]	; (80030a8 <HAL_ADCEx_MultiModeConfigChannel+0x1f4>)
 8002fb6:	f7ff ff57 	bl	8002e68 <LL_ADC_IsEnabled>
 8002fba:	4604      	mov	r4, r0
 8002fbc:	483b      	ldr	r0, [pc, #236]	; (80030ac <HAL_ADCEx_MultiModeConfigChannel+0x1f8>)
 8002fbe:	f7ff ff53 	bl	8002e68 <LL_ADC_IsEnabled>
 8002fc2:	4603      	mov	r3, r0
 8002fc4:	431c      	orrs	r4, r3
 8002fc6:	483c      	ldr	r0, [pc, #240]	; (80030b8 <HAL_ADCEx_MultiModeConfigChannel+0x204>)
 8002fc8:	f7ff ff4e 	bl	8002e68 <LL_ADC_IsEnabled>
 8002fcc:	4603      	mov	r3, r0
 8002fce:	4323      	orrs	r3, r4
 8002fd0:	2b00      	cmp	r3, #0
 8002fd2:	bf0c      	ite	eq
 8002fd4:	2301      	moveq	r3, #1
 8002fd6:	2300      	movne	r3, #0
 8002fd8:	b2db      	uxtb	r3, r3
 8002fda:	2b00      	cmp	r3, #0
 8002fdc:	d056      	beq.n	800308c <HAL_ADCEx_MultiModeConfigChannel+0x1d8>
      {
        MODIFY_REG(tmpADC_Common->CCR,
 8002fde:	6f7b      	ldr	r3, [r7, #116]	; 0x74
 8002fe0:	689b      	ldr	r3, [r3, #8]
 8002fe2:	f423 6371 	bic.w	r3, r3, #3856	; 0xf10
 8002fe6:	f023 030f 	bic.w	r3, r3, #15
 8002fea:	683a      	ldr	r2, [r7, #0]
 8002fec:	6811      	ldr	r1, [r2, #0]
 8002fee:	683a      	ldr	r2, [r7, #0]
 8002ff0:	6892      	ldr	r2, [r2, #8]
 8002ff2:	430a      	orrs	r2, r1
 8002ff4:	431a      	orrs	r2, r3
 8002ff6:	6f7b      	ldr	r3, [r7, #116]	; 0x74
 8002ff8:	609a      	str	r2, [r3, #8]
    if (multimode->Mode != ADC_MODE_INDEPENDENT)
 8002ffa:	e047      	b.n	800308c <HAL_ADCEx_MultiModeConfigChannel+0x1d8>
                  );
      }
    }
    else /* ADC_MODE_INDEPENDENT */
    {
      CLEAR_BIT(tmpADC_Common->CCR, ADC_CCR_MDMA | ADC_CCR_DMACFG);
 8002ffc:	6f7b      	ldr	r3, [r7, #116]	; 0x74
 8002ffe:	689b      	ldr	r3, [r3, #8]
 8003000:	f423 4260 	bic.w	r2, r3, #57344	; 0xe000
 8003004:	6f7b      	ldr	r3, [r7, #116]	; 0x74
 8003006:	609a      	str	r2, [r3, #8]

      /* Parameters that can be updated only when ADC is disabled:                */
      /*  - Multimode mode selection                                              */
      /*  - Multimode delay                                                       */
      if (__LL_ADC_IS_ENABLED_ALL_COMMON_INSTANCE(__LL_ADC_COMMON_INSTANCE(hadc->Instance)) == 0UL)
 8003008:	687b      	ldr	r3, [r7, #4]
 800300a:	681b      	ldr	r3, [r3, #0]
 800300c:	f1b3 4fa0 	cmp.w	r3, #1342177280	; 0x50000000
 8003010:	d004      	beq.n	800301c <HAL_ADCEx_MultiModeConfigChannel+0x168>
 8003012:	687b      	ldr	r3, [r7, #4]
 8003014:	681b      	ldr	r3, [r3, #0]
 8003016:	4a23      	ldr	r2, [pc, #140]	; (80030a4 <HAL_ADCEx_MultiModeConfigChannel+0x1f0>)
 8003018:	4293      	cmp	r3, r2
 800301a:	d10f      	bne.n	800303c <HAL_ADCEx_MultiModeConfigChannel+0x188>
 800301c:	f04f 40a0 	mov.w	r0, #1342177280	; 0x50000000
 8003020:	f7ff ff22 	bl	8002e68 <LL_ADC_IsEnabled>
 8003024:	4604      	mov	r4, r0
 8003026:	481f      	ldr	r0, [pc, #124]	; (80030a4 <HAL_ADCEx_MultiModeConfigChannel+0x1f0>)
 8003028:	f7ff ff1e 	bl	8002e68 <LL_ADC_IsEnabled>
 800302c:	4603      	mov	r3, r0
 800302e:	4323      	orrs	r3, r4
 8003030:	2b00      	cmp	r3, #0
 8003032:	bf0c      	ite	eq
 8003034:	2301      	moveq	r3, #1
 8003036:	2300      	movne	r3, #0
 8003038:	b2db      	uxtb	r3, r3
 800303a:	e012      	b.n	8003062 <HAL_ADCEx_MultiModeConfigChannel+0x1ae>
 800303c:	481a      	ldr	r0, [pc, #104]	; (80030a8 <HAL_ADCEx_MultiModeConfigChannel+0x1f4>)
 800303e:	f7ff ff13 	bl	8002e68 <LL_ADC_IsEnabled>
 8003042:	4604      	mov	r4, r0
 8003044:	4819      	ldr	r0, [pc, #100]	; (80030ac <HAL_ADCEx_MultiModeConfigChannel+0x1f8>)
 8003046:	f7ff ff0f 	bl	8002e68 <LL_ADC_IsEnabled>
 800304a:	4603      	mov	r3, r0
 800304c:	431c      	orrs	r4, r3
 800304e:	481a      	ldr	r0, [pc, #104]	; (80030b8 <HAL_ADCEx_MultiModeConfigChannel+0x204>)
 8003050:	f7ff ff0a 	bl	8002e68 <LL_ADC_IsEnabled>
 8003054:	4603      	mov	r3, r0
 8003056:	4323      	orrs	r3, r4
 8003058:	2b00      	cmp	r3, #0
 800305a:	bf0c      	ite	eq
 800305c:	2301      	moveq	r3, #1
 800305e:	2300      	movne	r3, #0
 8003060:	b2db      	uxtb	r3, r3
 8003062:	2b00      	cmp	r3, #0
 8003064:	d012      	beq.n	800308c <HAL_ADCEx_MultiModeConfigChannel+0x1d8>
      {
        CLEAR_BIT(tmpADC_Common->CCR, ADC_CCR_DUAL | ADC_CCR_DELAY);
 8003066:	6f7b      	ldr	r3, [r7, #116]	; 0x74
 8003068:	689b      	ldr	r3, [r3, #8]
 800306a:	f423 6371 	bic.w	r3, r3, #3856	; 0xf10
 800306e:	f023 030f 	bic.w	r3, r3, #15
 8003072:	6f7a      	ldr	r2, [r7, #116]	; 0x74
 8003074:	6093      	str	r3, [r2, #8]
    if (multimode->Mode != ADC_MODE_INDEPENDENT)
 8003076:	e009      	b.n	800308c <HAL_ADCEx_MultiModeConfigChannel+0x1d8>
  /* If one of the ADC sharing the same common group is enabled, no update    */
  /* could be done on neither of the multimode structure parameters.          */
  else
  {
    /* Update ADC state machine to error */
    SET_BIT(hadc->State, HAL_ADC_STATE_ERROR_CONFIG);
 8003078:	687b      	ldr	r3, [r7, #4]
 800307a:	6ddb      	ldr	r3, [r3, #92]	; 0x5c
 800307c:	f043 0220 	orr.w	r2, r3, #32
 8003080:	687b      	ldr	r3, [r7, #4]
 8003082:	65da      	str	r2, [r3, #92]	; 0x5c

    tmp_hal_status = HAL_ERROR;
 8003084:	2301      	movs	r3, #1
 8003086:	f887 307f 	strb.w	r3, [r7, #127]	; 0x7f
 800308a:	e000      	b.n	800308e <HAL_ADCEx_MultiModeConfigChannel+0x1da>
    if (multimode->Mode != ADC_MODE_INDEPENDENT)
 800308c:	bf00      	nop
  }

  /* Process unlocked */
  __HAL_UNLOCK(hadc);
 800308e:	687b      	ldr	r3, [r7, #4]
 8003090:	2200      	movs	r2, #0
 8003092:	f883 2058 	strb.w	r2, [r3, #88]	; 0x58

  /* Return function status */
  return tmp_hal_status;
 8003096:	f897 307f 	ldrb.w	r3, [r7, #127]	; 0x7f
}
 800309a:	4618      	mov	r0, r3
 800309c:	3784      	adds	r7, #132	; 0x84
 800309e:	46bd      	mov	sp, r7
 80030a0:	bd90      	pop	{r4, r7, pc}
 80030a2:	bf00      	nop
 80030a4:	50000100 	.word	0x50000100
 80030a8:	50000400 	.word	0x50000400
 80030ac:	50000500 	.word	0x50000500
 80030b0:	50000300 	.word	0x50000300
 80030b4:	50000700 	.word	0x50000700
 80030b8:	50000600 	.word	0x50000600

080030bc <LL_EXTI_EnableIT_0_31>:
{
 80030bc:	b480      	push	{r7}
 80030be:	b083      	sub	sp, #12
 80030c0:	af00      	add	r7, sp, #0
 80030c2:	6078      	str	r0, [r7, #4]
  SET_BIT(EXTI->IMR1, ExtiLine);
 80030c4:	4b05      	ldr	r3, [pc, #20]	; (80030dc <LL_EXTI_EnableIT_0_31+0x20>)
 80030c6:	681a      	ldr	r2, [r3, #0]
 80030c8:	4904      	ldr	r1, [pc, #16]	; (80030dc <LL_EXTI_EnableIT_0_31+0x20>)
 80030ca:	687b      	ldr	r3, [r7, #4]
 80030cc:	4313      	orrs	r3, r2
 80030ce:	600b      	str	r3, [r1, #0]
}
 80030d0:	bf00      	nop
 80030d2:	370c      	adds	r7, #12
 80030d4:	46bd      	mov	sp, r7
 80030d6:	f85d 7b04 	ldr.w	r7, [sp], #4
 80030da:	4770      	bx	lr
 80030dc:	40010400 	.word	0x40010400

080030e0 <LL_EXTI_EnableIT_32_63>:
{
 80030e0:	b480      	push	{r7}
 80030e2:	b083      	sub	sp, #12
 80030e4:	af00      	add	r7, sp, #0
 80030e6:	6078      	str	r0, [r7, #4]
  SET_BIT(EXTI->IMR2, ExtiLine);
 80030e8:	4b05      	ldr	r3, [pc, #20]	; (8003100 <LL_EXTI_EnableIT_32_63+0x20>)
 80030ea:	6a1a      	ldr	r2, [r3, #32]
 80030ec:	4904      	ldr	r1, [pc, #16]	; (8003100 <LL_EXTI_EnableIT_32_63+0x20>)
 80030ee:	687b      	ldr	r3, [r7, #4]
 80030f0:	4313      	orrs	r3, r2
 80030f2:	620b      	str	r3, [r1, #32]
}
 80030f4:	bf00      	nop
 80030f6:	370c      	adds	r7, #12
 80030f8:	46bd      	mov	sp, r7
 80030fa:	f85d 7b04 	ldr.w	r7, [sp], #4
 80030fe:	4770      	bx	lr
 8003100:	40010400 	.word	0x40010400

08003104 <LL_EXTI_DisableIT_0_31>:
{
 8003104:	b480      	push	{r7}
 8003106:	b083      	sub	sp, #12
 8003108:	af00      	add	r7, sp, #0
 800310a:	6078      	str	r0, [r7, #4]
  CLEAR_BIT(EXTI->IMR1, ExtiLine);
 800310c:	4b06      	ldr	r3, [pc, #24]	; (8003128 <LL_EXTI_DisableIT_0_31+0x24>)
 800310e:	681a      	ldr	r2, [r3, #0]
 8003110:	687b      	ldr	r3, [r7, #4]
 8003112:	43db      	mvns	r3, r3
 8003114:	4904      	ldr	r1, [pc, #16]	; (8003128 <LL_EXTI_DisableIT_0_31+0x24>)
 8003116:	4013      	ands	r3, r2
 8003118:	600b      	str	r3, [r1, #0]
}
 800311a:	bf00      	nop
 800311c:	370c      	adds	r7, #12
 800311e:	46bd      	mov	sp, r7
 8003120:	f85d 7b04 	ldr.w	r7, [sp], #4
 8003124:	4770      	bx	lr
 8003126:	bf00      	nop
 8003128:	40010400 	.word	0x40010400

0800312c <LL_EXTI_DisableIT_32_63>:
{
 800312c:	b480      	push	{r7}
 800312e:	b083      	sub	sp, #12
 8003130:	af00      	add	r7, sp, #0
 8003132:	6078      	str	r0, [r7, #4]
  CLEAR_BIT(EXTI->IMR2, ExtiLine);
 8003134:	4b06      	ldr	r3, [pc, #24]	; (8003150 <LL_EXTI_DisableIT_32_63+0x24>)
 8003136:	6a1a      	ldr	r2, [r3, #32]
 8003138:	687b      	ldr	r3, [r7, #4]
 800313a:	43db      	mvns	r3, r3
 800313c:	4904      	ldr	r1, [pc, #16]	; (8003150 <LL_EXTI_DisableIT_32_63+0x24>)
 800313e:	4013      	ands	r3, r2
 8003140:	620b      	str	r3, [r1, #32]
}
 8003142:	bf00      	nop
 8003144:	370c      	adds	r7, #12
 8003146:	46bd      	mov	sp, r7
 8003148:	f85d 7b04 	ldr.w	r7, [sp], #4
 800314c:	4770      	bx	lr
 800314e:	bf00      	nop
 8003150:	40010400 	.word	0x40010400

08003154 <LL_EXTI_EnableEvent_0_31>:
{
 8003154:	b480      	push	{r7}
 8003156:	b083      	sub	sp, #12
 8003158:	af00      	add	r7, sp, #0
 800315a:	6078      	str	r0, [r7, #4]
  SET_BIT(EXTI->EMR1, ExtiLine);
 800315c:	4b05      	ldr	r3, [pc, #20]	; (8003174 <LL_EXTI_EnableEvent_0_31+0x20>)
 800315e:	685a      	ldr	r2, [r3, #4]
 8003160:	4904      	ldr	r1, [pc, #16]	; (8003174 <LL_EXTI_EnableEvent_0_31+0x20>)
 8003162:	687b      	ldr	r3, [r7, #4]
 8003164:	4313      	orrs	r3, r2
 8003166:	604b      	str	r3, [r1, #4]
}
 8003168:	bf00      	nop
 800316a:	370c      	adds	r7, #12
 800316c:	46bd      	mov	sp, r7
 800316e:	f85d 7b04 	ldr.w	r7, [sp], #4
 8003172:	4770      	bx	lr
 8003174:	40010400 	.word	0x40010400

08003178 <LL_EXTI_EnableEvent_32_63>:
{
 8003178:	b480      	push	{r7}
 800317a:	b083      	sub	sp, #12
 800317c:	af00      	add	r7, sp, #0
 800317e:	6078      	str	r0, [r7, #4]
  SET_BIT(EXTI->EMR2, ExtiLine);
 8003180:	4b05      	ldr	r3, [pc, #20]	; (8003198 <LL_EXTI_EnableEvent_32_63+0x20>)
 8003182:	6a5a      	ldr	r2, [r3, #36]	; 0x24
 8003184:	4904      	ldr	r1, [pc, #16]	; (8003198 <LL_EXTI_EnableEvent_32_63+0x20>)
 8003186:	687b      	ldr	r3, [r7, #4]
 8003188:	4313      	orrs	r3, r2
 800318a:	624b      	str	r3, [r1, #36]	; 0x24
}
 800318c:	bf00      	nop
 800318e:	370c      	adds	r7, #12
 8003190:	46bd      	mov	sp, r7
 8003192:	f85d 7b04 	ldr.w	r7, [sp], #4
 8003196:	4770      	bx	lr
 8003198:	40010400 	.word	0x40010400

0800319c <LL_EXTI_DisableEvent_0_31>:
{
 800319c:	b480      	push	{r7}
 800319e:	b083      	sub	sp, #12
 80031a0:	af00      	add	r7, sp, #0
 80031a2:	6078      	str	r0, [r7, #4]
  CLEAR_BIT(EXTI->EMR1, ExtiLine);
 80031a4:	4b06      	ldr	r3, [pc, #24]	; (80031c0 <LL_EXTI_DisableEvent_0_31+0x24>)
 80031a6:	685a      	ldr	r2, [r3, #4]
 80031a8:	687b      	ldr	r3, [r7, #4]
 80031aa:	43db      	mvns	r3, r3
 80031ac:	4904      	ldr	r1, [pc, #16]	; (80031c0 <LL_EXTI_DisableEvent_0_31+0x24>)
 80031ae:	4013      	ands	r3, r2
 80031b0:	604b      	str	r3, [r1, #4]
}
 80031b2:	bf00      	nop
 80031b4:	370c      	adds	r7, #12
 80031b6:	46bd      	mov	sp, r7
 80031b8:	f85d 7b04 	ldr.w	r7, [sp], #4
 80031bc:	4770      	bx	lr
 80031be:	bf00      	nop
 80031c0:	40010400 	.word	0x40010400

080031c4 <LL_EXTI_DisableEvent_32_63>:
{
 80031c4:	b480      	push	{r7}
 80031c6:	b083      	sub	sp, #12
 80031c8:	af00      	add	r7, sp, #0
 80031ca:	6078      	str	r0, [r7, #4]
  CLEAR_BIT(EXTI->EMR2, ExtiLine);
 80031cc:	4b06      	ldr	r3, [pc, #24]	; (80031e8 <LL_EXTI_DisableEvent_32_63+0x24>)
 80031ce:	6a5a      	ldr	r2, [r3, #36]	; 0x24
 80031d0:	687b      	ldr	r3, [r7, #4]
 80031d2:	43db      	mvns	r3, r3
 80031d4:	4904      	ldr	r1, [pc, #16]	; (80031e8 <LL_EXTI_DisableEvent_32_63+0x24>)
 80031d6:	4013      	ands	r3, r2
 80031d8:	624b      	str	r3, [r1, #36]	; 0x24
}
 80031da:	bf00      	nop
 80031dc:	370c      	adds	r7, #12
 80031de:	46bd      	mov	sp, r7
 80031e0:	f85d 7b04 	ldr.w	r7, [sp], #4
 80031e4:	4770      	bx	lr
 80031e6:	bf00      	nop
 80031e8:	40010400 	.word	0x40010400

080031ec <LL_EXTI_EnableRisingTrig_0_31>:
{
 80031ec:	b480      	push	{r7}
 80031ee:	b083      	sub	sp, #12
 80031f0:	af00      	add	r7, sp, #0
 80031f2:	6078      	str	r0, [r7, #4]
  SET_BIT(EXTI->RTSR1, ExtiLine);
 80031f4:	4b05      	ldr	r3, [pc, #20]	; (800320c <LL_EXTI_EnableRisingTrig_0_31+0x20>)
 80031f6:	689a      	ldr	r2, [r3, #8]
 80031f8:	4904      	ldr	r1, [pc, #16]	; (800320c <LL_EXTI_EnableRisingTrig_0_31+0x20>)
 80031fa:	687b      	ldr	r3, [r7, #4]
 80031fc:	4313      	orrs	r3, r2
 80031fe:	608b      	str	r3, [r1, #8]
}
 8003200:	bf00      	nop
 8003202:	370c      	adds	r7, #12
 8003204:	46bd      	mov	sp, r7
 8003206:	f85d 7b04 	ldr.w	r7, [sp], #4
 800320a:	4770      	bx	lr
 800320c:	40010400 	.word	0x40010400

08003210 <LL_EXTI_EnableRisingTrig_32_63>:
{
 8003210:	b480      	push	{r7}
 8003212:	b083      	sub	sp, #12
 8003214:	af00      	add	r7, sp, #0
 8003216:	6078      	str	r0, [r7, #4]
  SET_BIT(EXTI->RTSR2, ExtiLine);
 8003218:	4b05      	ldr	r3, [pc, #20]	; (8003230 <LL_EXTI_EnableRisingTrig_32_63+0x20>)
 800321a:	6a9a      	ldr	r2, [r3, #40]	; 0x28
 800321c:	4904      	ldr	r1, [pc, #16]	; (8003230 <LL_EXTI_EnableRisingTrig_32_63+0x20>)
 800321e:	687b      	ldr	r3, [r7, #4]
 8003220:	4313      	orrs	r3, r2
 8003222:	628b      	str	r3, [r1, #40]	; 0x28
}
 8003224:	bf00      	nop
 8003226:	370c      	adds	r7, #12
 8003228:	46bd      	mov	sp, r7
 800322a:	f85d 7b04 	ldr.w	r7, [sp], #4
 800322e:	4770      	bx	lr
 8003230:	40010400 	.word	0x40010400

08003234 <LL_EXTI_DisableRisingTrig_0_31>:
{
 8003234:	b480      	push	{r7}
 8003236:	b083      	sub	sp, #12
 8003238:	af00      	add	r7, sp, #0
 800323a:	6078      	str	r0, [r7, #4]
  CLEAR_BIT(EXTI->RTSR1, ExtiLine);
 800323c:	4b06      	ldr	r3, [pc, #24]	; (8003258 <LL_EXTI_DisableRisingTrig_0_31+0x24>)
 800323e:	689a      	ldr	r2, [r3, #8]
 8003240:	687b      	ldr	r3, [r7, #4]
 8003242:	43db      	mvns	r3, r3
 8003244:	4904      	ldr	r1, [pc, #16]	; (8003258 <LL_EXTI_DisableRisingTrig_0_31+0x24>)
 8003246:	4013      	ands	r3, r2
 8003248:	608b      	str	r3, [r1, #8]
}
 800324a:	bf00      	nop
 800324c:	370c      	adds	r7, #12
 800324e:	46bd      	mov	sp, r7
 8003250:	f85d 7b04 	ldr.w	r7, [sp], #4
 8003254:	4770      	bx	lr
 8003256:	bf00      	nop
 8003258:	40010400 	.word	0x40010400

0800325c <LL_EXTI_DisableRisingTrig_32_63>:
{
 800325c:	b480      	push	{r7}
 800325e:	b083      	sub	sp, #12
 8003260:	af00      	add	r7, sp, #0
 8003262:	6078      	str	r0, [r7, #4]
  CLEAR_BIT(EXTI->RTSR2, ExtiLine);
 8003264:	4b06      	ldr	r3, [pc, #24]	; (8003280 <LL_EXTI_DisableRisingTrig_32_63+0x24>)
 8003266:	6a9a      	ldr	r2, [r3, #40]	; 0x28
 8003268:	687b      	ldr	r3, [r7, #4]
 800326a:	43db      	mvns	r3, r3
 800326c:	4904      	ldr	r1, [pc, #16]	; (8003280 <LL_EXTI_DisableRisingTrig_32_63+0x24>)
 800326e:	4013      	ands	r3, r2
 8003270:	628b      	str	r3, [r1, #40]	; 0x28
}
 8003272:	bf00      	nop
 8003274:	370c      	adds	r7, #12
 8003276:	46bd      	mov	sp, r7
 8003278:	f85d 7b04 	ldr.w	r7, [sp], #4
 800327c:	4770      	bx	lr
 800327e:	bf00      	nop
 8003280:	40010400 	.word	0x40010400

08003284 <LL_EXTI_EnableFallingTrig_0_31>:
{
 8003284:	b480      	push	{r7}
 8003286:	b083      	sub	sp, #12
 8003288:	af00      	add	r7, sp, #0
 800328a:	6078      	str	r0, [r7, #4]
  SET_BIT(EXTI->FTSR1, ExtiLine);
 800328c:	4b05      	ldr	r3, [pc, #20]	; (80032a4 <LL_EXTI_EnableFallingTrig_0_31+0x20>)
 800328e:	68da      	ldr	r2, [r3, #12]
 8003290:	4904      	ldr	r1, [pc, #16]	; (80032a4 <LL_EXTI_EnableFallingTrig_0_31+0x20>)
 8003292:	687b      	ldr	r3, [r7, #4]
 8003294:	4313      	orrs	r3, r2
 8003296:	60cb      	str	r3, [r1, #12]
}
 8003298:	bf00      	nop
 800329a:	370c      	adds	r7, #12
 800329c:	46bd      	mov	sp, r7
 800329e:	f85d 7b04 	ldr.w	r7, [sp], #4
 80032a2:	4770      	bx	lr
 80032a4:	40010400 	.word	0x40010400

080032a8 <LL_EXTI_EnableFallingTrig_32_63>:
{
 80032a8:	b480      	push	{r7}
 80032aa:	b083      	sub	sp, #12
 80032ac:	af00      	add	r7, sp, #0
 80032ae:	6078      	str	r0, [r7, #4]
  SET_BIT(EXTI->FTSR2, ExtiLine);
 80032b0:	4b05      	ldr	r3, [pc, #20]	; (80032c8 <LL_EXTI_EnableFallingTrig_32_63+0x20>)
 80032b2:	6ada      	ldr	r2, [r3, #44]	; 0x2c
 80032b4:	4904      	ldr	r1, [pc, #16]	; (80032c8 <LL_EXTI_EnableFallingTrig_32_63+0x20>)
 80032b6:	687b      	ldr	r3, [r7, #4]
 80032b8:	4313      	orrs	r3, r2
 80032ba:	62cb      	str	r3, [r1, #44]	; 0x2c
}
 80032bc:	bf00      	nop
 80032be:	370c      	adds	r7, #12
 80032c0:	46bd      	mov	sp, r7
 80032c2:	f85d 7b04 	ldr.w	r7, [sp], #4
 80032c6:	4770      	bx	lr
 80032c8:	40010400 	.word	0x40010400

080032cc <LL_EXTI_DisableFallingTrig_0_31>:
{
 80032cc:	b480      	push	{r7}
 80032ce:	b083      	sub	sp, #12
 80032d0:	af00      	add	r7, sp, #0
 80032d2:	6078      	str	r0, [r7, #4]
  CLEAR_BIT(EXTI->FTSR1, ExtiLine);
 80032d4:	4b06      	ldr	r3, [pc, #24]	; (80032f0 <LL_EXTI_DisableFallingTrig_0_31+0x24>)
 80032d6:	68da      	ldr	r2, [r3, #12]
 80032d8:	687b      	ldr	r3, [r7, #4]
 80032da:	43db      	mvns	r3, r3
 80032dc:	4904      	ldr	r1, [pc, #16]	; (80032f0 <LL_EXTI_DisableFallingTrig_0_31+0x24>)
 80032de:	4013      	ands	r3, r2
 80032e0:	60cb      	str	r3, [r1, #12]
}
 80032e2:	bf00      	nop
 80032e4:	370c      	adds	r7, #12
 80032e6:	46bd      	mov	sp, r7
 80032e8:	f85d 7b04 	ldr.w	r7, [sp], #4
 80032ec:	4770      	bx	lr
 80032ee:	bf00      	nop
 80032f0:	40010400 	.word	0x40010400

080032f4 <LL_EXTI_DisableFallingTrig_32_63>:
{
 80032f4:	b480      	push	{r7}
 80032f6:	b083      	sub	sp, #12
 80032f8:	af00      	add	r7, sp, #0
 80032fa:	6078      	str	r0, [r7, #4]
  CLEAR_BIT(EXTI->FTSR2, ExtiLine);
 80032fc:	4b06      	ldr	r3, [pc, #24]	; (8003318 <LL_EXTI_DisableFallingTrig_32_63+0x24>)
 80032fe:	6ada      	ldr	r2, [r3, #44]	; 0x2c
 8003300:	687b      	ldr	r3, [r7, #4]
 8003302:	43db      	mvns	r3, r3
 8003304:	4904      	ldr	r1, [pc, #16]	; (8003318 <LL_EXTI_DisableFallingTrig_32_63+0x24>)
 8003306:	4013      	ands	r3, r2
 8003308:	62cb      	str	r3, [r1, #44]	; 0x2c
}
 800330a:	bf00      	nop
 800330c:	370c      	adds	r7, #12
 800330e:	46bd      	mov	sp, r7
 8003310:	f85d 7b04 	ldr.w	r7, [sp], #4
 8003314:	4770      	bx	lr
 8003316:	bf00      	nop
 8003318:	40010400 	.word	0x40010400

0800331c <LL_EXTI_ClearFlag_0_31>:
{
 800331c:	b480      	push	{r7}
 800331e:	b083      	sub	sp, #12
 8003320:	af00      	add	r7, sp, #0
 8003322:	6078      	str	r0, [r7, #4]
  WRITE_REG(EXTI->PR1, ExtiLine);
 8003324:	4a04      	ldr	r2, [pc, #16]	; (8003338 <LL_EXTI_ClearFlag_0_31+0x1c>)
 8003326:	687b      	ldr	r3, [r7, #4]
 8003328:	6153      	str	r3, [r2, #20]
}
 800332a:	bf00      	nop
 800332c:	370c      	adds	r7, #12
 800332e:	46bd      	mov	sp, r7
 8003330:	f85d 7b04 	ldr.w	r7, [sp], #4
 8003334:	4770      	bx	lr
 8003336:	bf00      	nop
 8003338:	40010400 	.word	0x40010400

0800333c <LL_EXTI_ClearFlag_32_63>:
  *         @arg @ref LL_EXTI_LINE_41
  * @note   (*): Available in some devices
  * @retval None
  */
__STATIC_INLINE void LL_EXTI_ClearFlag_32_63(uint32_t ExtiLine)
{
 800333c:	b480      	push	{r7}
 800333e:	b083      	sub	sp, #12
 8003340:	af00      	add	r7, sp, #0
 8003342:	6078      	str	r0, [r7, #4]
  WRITE_REG(EXTI->PR2, ExtiLine);
 8003344:	4a04      	ldr	r2, [pc, #16]	; (8003358 <LL_EXTI_ClearFlag_32_63+0x1c>)
 8003346:	687b      	ldr	r3, [r7, #4]
 8003348:	6353      	str	r3, [r2, #52]	; 0x34
}
 800334a:	bf00      	nop
 800334c:	370c      	adds	r7, #12
 800334e:	46bd      	mov	sp, r7
 8003350:	f85d 7b04 	ldr.w	r7, [sp], #4
 8003354:	4770      	bx	lr
 8003356:	bf00      	nop
 8003358:	40010400 	.word	0x40010400

0800335c <HAL_COMP_Init>:
  *         To unlock the configuration, perform a system reset.
  * @param  hcomp  COMP handle
  * @retval HAL status
  */
HAL_StatusTypeDef HAL_COMP_Init(COMP_HandleTypeDef *hcomp)
{
 800335c:	b580      	push	{r7, lr}
 800335e:	b088      	sub	sp, #32
 8003360:	af00      	add	r7, sp, #0
 8003362:	6078      	str	r0, [r7, #4]
  uint32_t tmp_csr;
  uint32_t exti_line;
  uint32_t comp_voltage_scaler_initialized; /* Value "0" if comparator voltage scaler is not initialized */
  __IO uint32_t wait_loop_index = 0UL;
 8003364:	2300      	movs	r3, #0
 8003366:	60fb      	str	r3, [r7, #12]
  HAL_StatusTypeDef status = HAL_OK;
 8003368:	2300      	movs	r3, #0
 800336a:	77fb      	strb	r3, [r7, #31]

  /* Check the COMP handle allocation and lock status */
  if(hcomp == NULL)
 800336c:	687b      	ldr	r3, [r7, #4]
 800336e:	2b00      	cmp	r3, #0
 8003370:	d102      	bne.n	8003378 <HAL_COMP_Init+0x1c>
  {
    status = HAL_ERROR;
 8003372:	2301      	movs	r3, #1
 8003374:	77fb      	strb	r3, [r7, #31]
 8003376:	e180      	b.n	800367a <HAL_COMP_Init+0x31e>
  }
  else if(__HAL_COMP_IS_LOCKED(hcomp))
 8003378:	687b      	ldr	r3, [r7, #4]
 800337a:	681b      	ldr	r3, [r3, #0]
 800337c:	681b      	ldr	r3, [r3, #0]
 800337e:	f003 4300 	and.w	r3, r3, #2147483648	; 0x80000000
 8003382:	f1b3 4f00 	cmp.w	r3, #2147483648	; 0x80000000
 8003386:	d102      	bne.n	800338e <HAL_COMP_Init+0x32>
  {
    status = HAL_ERROR;
 8003388:	2301      	movs	r3, #1
 800338a:	77fb      	strb	r3, [r7, #31]
 800338c:	e175      	b.n	800367a <HAL_COMP_Init+0x31e>
    assert_param(IS_COMP_OUTPUTPOL(hcomp->Init.OutputPol));
    assert_param(IS_COMP_HYSTERESIS(hcomp->Init.Hysteresis));
    assert_param(IS_COMP_BLANKINGSRC_INSTANCE(hcomp->Instance, hcomp->Init.BlankingSrce));
    assert_param(IS_COMP_TRIGGERMODE(hcomp->Init.TriggerMode));

    if(hcomp->State == HAL_COMP_STATE_RESET)
 800338e:	687b      	ldr	r3, [r7, #4]
 8003390:	7f5b      	ldrb	r3, [r3, #29]
 8003392:	b2db      	uxtb	r3, r3
 8003394:	2b00      	cmp	r3, #0
 8003396:	d108      	bne.n	80033aa <HAL_COMP_Init+0x4e>
    {
      /* Allocate lock resource and initialize it */
      hcomp->Lock = HAL_UNLOCKED;
 8003398:	687b      	ldr	r3, [r7, #4]
 800339a:	2200      	movs	r2, #0
 800339c:	771a      	strb	r2, [r3, #28]

      /* Set COMP error code to none */
      COMP_CLEAR_ERRORCODE(hcomp);
 800339e:	687b      	ldr	r3, [r7, #4]
 80033a0:	2200      	movs	r2, #0
 80033a2:	621a      	str	r2, [r3, #32]
#else
      /* Init the low level hardware */
      /* Note: Internal control clock of the comparators must                 */
      /*       be enabled in "HAL_COMP_MspInit()"                             */
      /*       using "__HAL_RCC_SYSCFG_CLK_ENABLE()".                         */
      HAL_COMP_MspInit(hcomp);
 80033a4:	6878      	ldr	r0, [r7, #4]
 80033a6:	f7fd f8e5 	bl	8000574 <HAL_COMP_MspInit>
#endif /* USE_HAL_COMP_REGISTER_CALLBACKS */
    }

    /* Memorize voltage scaler state before initialization */
    comp_voltage_scaler_initialized = READ_BIT(hcomp->Instance->CSR, COMP_CSR_SCALEN);
 80033aa:	687b      	ldr	r3, [r7, #4]
 80033ac:	681b      	ldr	r3, [r3, #0]
 80033ae:	681b      	ldr	r3, [r3, #0]
 80033b0:	f403 0300 	and.w	r3, r3, #8388608	; 0x800000
 80033b4:	61bb      	str	r3, [r7, #24]

    /* Set COMP parameters */
    tmp_csr = (  hcomp->Init.InputMinus
 80033b6:	687b      	ldr	r3, [r7, #4]
 80033b8:	689a      	ldr	r2, [r3, #8]
               | hcomp->Init.InputPlus
 80033ba:	687b      	ldr	r3, [r7, #4]
 80033bc:	685b      	ldr	r3, [r3, #4]
 80033be:	431a      	orrs	r2, r3
               | hcomp->Init.BlankingSrce
 80033c0:	687b      	ldr	r3, [r7, #4]
 80033c2:	695b      	ldr	r3, [r3, #20]
 80033c4:	431a      	orrs	r2, r3
               | hcomp->Init.Hysteresis
 80033c6:	687b      	ldr	r3, [r7, #4]
 80033c8:	68db      	ldr	r3, [r3, #12]
 80033ca:	431a      	orrs	r2, r3
               | hcomp->Init.OutputPol
 80033cc:	687b      	ldr	r3, [r7, #4]
 80033ce:	691b      	ldr	r3, [r3, #16]
    tmp_csr = (  hcomp->Init.InputMinus
 80033d0:	4313      	orrs	r3, r2
 80033d2:	617b      	str	r3, [r7, #20]
              );

    /* Set parameters in COMP register */
    /* Note: Update all bits except read-only, lock and enable bits */
    MODIFY_REG(hcomp->Instance->CSR,
 80033d4:	687b      	ldr	r3, [r7, #4]
 80033d6:	681b      	ldr	r3, [r3, #0]
 80033d8:	681a      	ldr	r2, [r3, #0]
 80033da:	4b98      	ldr	r3, [pc, #608]	; (800363c <HAL_COMP_Init+0x2e0>)
 80033dc:	4013      	ands	r3, r2
 80033de:	687a      	ldr	r2, [r7, #4]
 80033e0:	6812      	ldr	r2, [r2, #0]
 80033e2:	6979      	ldr	r1, [r7, #20]
 80033e4:	430b      	orrs	r3, r1
 80033e6:	6013      	str	r3, [r2, #0]
               tmp_csr
              );

    /* Delay for COMP scaler bridge voltage stabilization */
    /* Apply the delay if voltage scaler bridge is required and not already enabled */
    if ((READ_BIT(hcomp->Instance->CSR, COMP_CSR_SCALEN) != 0UL) &&
 80033e8:	687b      	ldr	r3, [r7, #4]
 80033ea:	681b      	ldr	r3, [r3, #0]
 80033ec:	681b      	ldr	r3, [r3, #0]
 80033ee:	f403 0300 	and.w	r3, r3, #8388608	; 0x800000
 80033f2:	2b00      	cmp	r3, #0
 80033f4:	d015      	beq.n	8003422 <HAL_COMP_Init+0xc6>
 80033f6:	69bb      	ldr	r3, [r7, #24]
 80033f8:	2b00      	cmp	r3, #0
 80033fa:	d112      	bne.n	8003422 <HAL_COMP_Init+0xc6>
    {
      /* Wait loop initialization and execution */
      /* Note: Variable divided by 2 to compensate partially              */
      /*       CPU processing cycles, scaling in us split to not          */
      /*       exceed 32 bits register capacity and handle low frequency. */
      wait_loop_index = ((COMP_DELAY_VOLTAGE_SCALER_STAB_US / 10UL) * (SystemCoreClock / (100000UL * 2UL)));
 80033fc:	4b90      	ldr	r3, [pc, #576]	; (8003640 <HAL_COMP_Init+0x2e4>)
 80033fe:	681b      	ldr	r3, [r3, #0]
 8003400:	099b      	lsrs	r3, r3, #6
 8003402:	4a90      	ldr	r2, [pc, #576]	; (8003644 <HAL_COMP_Init+0x2e8>)
 8003404:	fba2 2303 	umull	r2, r3, r2, r3
 8003408:	099a      	lsrs	r2, r3, #6
 800340a:	4613      	mov	r3, r2
 800340c:	009b      	lsls	r3, r3, #2
 800340e:	4413      	add	r3, r2
 8003410:	009b      	lsls	r3, r3, #2
 8003412:	60fb      	str	r3, [r7, #12]
      while(wait_loop_index != 0UL)
 8003414:	e002      	b.n	800341c <HAL_COMP_Init+0xc0>
      {
        wait_loop_index--;
 8003416:	68fb      	ldr	r3, [r7, #12]
 8003418:	3b01      	subs	r3, #1
 800341a:	60fb      	str	r3, [r7, #12]
      while(wait_loop_index != 0UL)
 800341c:	68fb      	ldr	r3, [r7, #12]
 800341e:	2b00      	cmp	r3, #0
 8003420:	d1f9      	bne.n	8003416 <HAL_COMP_Init+0xba>
      }
    }

    /* Get the EXTI line corresponding to the selected COMP instance */
    exti_line = COMP_GET_EXTI_LINE(hcomp->Instance);
 8003422:	687b      	ldr	r3, [r7, #4]
 8003424:	681b      	ldr	r3, [r3, #0]
 8003426:	4a88      	ldr	r2, [pc, #544]	; (8003648 <HAL_COMP_Init+0x2ec>)
 8003428:	4293      	cmp	r3, r2
 800342a:	d028      	beq.n	800347e <HAL_COMP_Init+0x122>
 800342c:	687b      	ldr	r3, [r7, #4]
 800342e:	681b      	ldr	r3, [r3, #0]
 8003430:	4a86      	ldr	r2, [pc, #536]	; (800364c <HAL_COMP_Init+0x2f0>)
 8003432:	4293      	cmp	r3, r2
 8003434:	d020      	beq.n	8003478 <HAL_COMP_Init+0x11c>
 8003436:	687b      	ldr	r3, [r7, #4]
 8003438:	681b      	ldr	r3, [r3, #0]
 800343a:	4a85      	ldr	r2, [pc, #532]	; (8003650 <HAL_COMP_Init+0x2f4>)
 800343c:	4293      	cmp	r3, r2
 800343e:	d018      	beq.n	8003472 <HAL_COMP_Init+0x116>
 8003440:	687b      	ldr	r3, [r7, #4]
 8003442:	681b      	ldr	r3, [r3, #0]
 8003444:	4a83      	ldr	r2, [pc, #524]	; (8003654 <HAL_COMP_Init+0x2f8>)
 8003446:	4293      	cmp	r3, r2
 8003448:	d010      	beq.n	800346c <HAL_COMP_Init+0x110>
 800344a:	687b      	ldr	r3, [r7, #4]
 800344c:	681b      	ldr	r3, [r3, #0]
 800344e:	4a82      	ldr	r2, [pc, #520]	; (8003658 <HAL_COMP_Init+0x2fc>)
 8003450:	4293      	cmp	r3, r2
 8003452:	d008      	beq.n	8003466 <HAL_COMP_Init+0x10a>
 8003454:	687b      	ldr	r3, [r7, #4]
 8003456:	681b      	ldr	r3, [r3, #0]
 8003458:	4a80      	ldr	r2, [pc, #512]	; (800365c <HAL_COMP_Init+0x300>)
 800345a:	4293      	cmp	r3, r2
 800345c:	d101      	bne.n	8003462 <HAL_COMP_Init+0x106>
 800345e:	2301      	movs	r3, #1
 8003460:	e00f      	b.n	8003482 <HAL_COMP_Init+0x126>
 8003462:	2302      	movs	r3, #2
 8003464:	e00d      	b.n	8003482 <HAL_COMP_Init+0x126>
 8003466:	f04f 4300 	mov.w	r3, #2147483648	; 0x80000000
 800346a:	e00a      	b.n	8003482 <HAL_COMP_Init+0x126>
 800346c:	f04f 4380 	mov.w	r3, #1073741824	; 0x40000000
 8003470:	e007      	b.n	8003482 <HAL_COMP_Init+0x126>
 8003472:	f04f 5300 	mov.w	r3, #536870912	; 0x20000000
 8003476:	e004      	b.n	8003482 <HAL_COMP_Init+0x126>
 8003478:	f44f 0380 	mov.w	r3, #4194304	; 0x400000
 800347c:	e001      	b.n	8003482 <HAL_COMP_Init+0x126>
 800347e:	f44f 1300 	mov.w	r3, #2097152	; 0x200000
 8003482:	613b      	str	r3, [r7, #16]

    /* Manage EXTI settings */
    if((hcomp->Init.TriggerMode & (COMP_EXTI_IT | COMP_EXTI_EVENT)) != 0UL)
 8003484:	687b      	ldr	r3, [r7, #4]
 8003486:	699b      	ldr	r3, [r3, #24]
 8003488:	f003 0303 	and.w	r3, r3, #3
 800348c:	2b00      	cmp	r3, #0
 800348e:	f000 80b6 	beq.w	80035fe <HAL_COMP_Init+0x2a2>
    {
      /* Configure EXTI rising edge */
      if((hcomp->Init.TriggerMode & COMP_EXTI_RISING) != 0UL)
 8003492:	687b      	ldr	r3, [r7, #4]
 8003494:	699b      	ldr	r3, [r3, #24]
 8003496:	f003 0310 	and.w	r3, r3, #16
 800349a:	2b00      	cmp	r3, #0
 800349c:	d011      	beq.n	80034c2 <HAL_COMP_Init+0x166>
      {
#if defined(STM32G474xx) || defined(STM32G484xx) || defined(STM32G473xx) || defined(STM32G483xx)
        if((hcomp->Instance == COMP6) || (hcomp->Instance == COMP7))
 800349e:	687b      	ldr	r3, [r7, #4]
 80034a0:	681b      	ldr	r3, [r3, #0]
 80034a2:	4a6e      	ldr	r2, [pc, #440]	; (800365c <HAL_COMP_Init+0x300>)
 80034a4:	4293      	cmp	r3, r2
 80034a6:	d004      	beq.n	80034b2 <HAL_COMP_Init+0x156>
 80034a8:	687b      	ldr	r3, [r7, #4]
 80034aa:	681b      	ldr	r3, [r3, #0]
 80034ac:	4a6c      	ldr	r2, [pc, #432]	; (8003660 <HAL_COMP_Init+0x304>)
 80034ae:	4293      	cmp	r3, r2
 80034b0:	d103      	bne.n	80034ba <HAL_COMP_Init+0x15e>
        {
          LL_EXTI_EnableRisingTrig_32_63(exti_line);
 80034b2:	6938      	ldr	r0, [r7, #16]
 80034b4:	f7ff feac 	bl	8003210 <LL_EXTI_EnableRisingTrig_32_63>
 80034b8:	e014      	b.n	80034e4 <HAL_COMP_Init+0x188>
        }
        else
        {
          LL_EXTI_EnableRisingTrig_0_31(exti_line);
 80034ba:	6938      	ldr	r0, [r7, #16]
 80034bc:	f7ff fe96 	bl	80031ec <LL_EXTI_EnableRisingTrig_0_31>
 80034c0:	e010      	b.n	80034e4 <HAL_COMP_Init+0x188>
#endif
      }
      else
      {
#if defined(STM32G474xx) || defined(STM32G484xx) || defined(STM32G473xx) || defined(STM32G483xx)
        if((hcomp->Instance == COMP6) || (hcomp->Instance == COMP7))
 80034c2:	687b      	ldr	r3, [r7, #4]
 80034c4:	681b      	ldr	r3, [r3, #0]
 80034c6:	4a65      	ldr	r2, [pc, #404]	; (800365c <HAL_COMP_Init+0x300>)
 80034c8:	4293      	cmp	r3, r2
 80034ca:	d004      	beq.n	80034d6 <HAL_COMP_Init+0x17a>
 80034cc:	687b      	ldr	r3, [r7, #4]
 80034ce:	681b      	ldr	r3, [r3, #0]
 80034d0:	4a63      	ldr	r2, [pc, #396]	; (8003660 <HAL_COMP_Init+0x304>)
 80034d2:	4293      	cmp	r3, r2
 80034d4:	d103      	bne.n	80034de <HAL_COMP_Init+0x182>
        {
          LL_EXTI_DisableRisingTrig_32_63(exti_line);
 80034d6:	6938      	ldr	r0, [r7, #16]
 80034d8:	f7ff fec0 	bl	800325c <LL_EXTI_DisableRisingTrig_32_63>
 80034dc:	e002      	b.n	80034e4 <HAL_COMP_Init+0x188>
        }
        else
        {
          LL_EXTI_DisableRisingTrig_0_31(exti_line);
 80034de:	6938      	ldr	r0, [r7, #16]
 80034e0:	f7ff fea8 	bl	8003234 <LL_EXTI_DisableRisingTrig_0_31>
        LL_EXTI_DisableRisingTrig_0_31(exti_line);
#endif
      }

      /* Configure EXTI falling edge */
      if((hcomp->Init.TriggerMode & COMP_EXTI_FALLING) != 0UL)
 80034e4:	687b      	ldr	r3, [r7, #4]
 80034e6:	699b      	ldr	r3, [r3, #24]
 80034e8:	f003 0320 	and.w	r3, r3, #32
 80034ec:	2b00      	cmp	r3, #0
 80034ee:	d011      	beq.n	8003514 <HAL_COMP_Init+0x1b8>
      {
#if defined(STM32G474xx) || defined(STM32G484xx) || defined(STM32G473xx) || defined(STM32G483xx)
        if((hcomp->Instance == COMP6) || (hcomp->Instance == COMP7))
 80034f0:	687b      	ldr	r3, [r7, #4]
 80034f2:	681b      	ldr	r3, [r3, #0]
 80034f4:	4a59      	ldr	r2, [pc, #356]	; (800365c <HAL_COMP_Init+0x300>)
 80034f6:	4293      	cmp	r3, r2
 80034f8:	d004      	beq.n	8003504 <HAL_COMP_Init+0x1a8>
 80034fa:	687b      	ldr	r3, [r7, #4]
 80034fc:	681b      	ldr	r3, [r3, #0]
 80034fe:	4a58      	ldr	r2, [pc, #352]	; (8003660 <HAL_COMP_Init+0x304>)
 8003500:	4293      	cmp	r3, r2
 8003502:	d103      	bne.n	800350c <HAL_COMP_Init+0x1b0>
        {
          LL_EXTI_EnableFallingTrig_32_63(exti_line);
 8003504:	6938      	ldr	r0, [r7, #16]
 8003506:	f7ff fecf 	bl	80032a8 <LL_EXTI_EnableFallingTrig_32_63>
 800350a:	e014      	b.n	8003536 <HAL_COMP_Init+0x1da>
        }
        else
        {
          LL_EXTI_EnableFallingTrig_0_31(exti_line);
 800350c:	6938      	ldr	r0, [r7, #16]
 800350e:	f7ff feb9 	bl	8003284 <LL_EXTI_EnableFallingTrig_0_31>
 8003512:	e010      	b.n	8003536 <HAL_COMP_Init+0x1da>
#endif
      }
      else
      {
#if defined(STM32G474xx) || defined(STM32G484xx) || defined(STM32G473xx) || defined(STM32G483xx)
        if((hcomp->Instance == COMP6) || (hcomp->Instance == COMP7))
 8003514:	687b      	ldr	r3, [r7, #4]
 8003516:	681b      	ldr	r3, [r3, #0]
 8003518:	4a50      	ldr	r2, [pc, #320]	; (800365c <HAL_COMP_Init+0x300>)
 800351a:	4293      	cmp	r3, r2
 800351c:	d004      	beq.n	8003528 <HAL_COMP_Init+0x1cc>
 800351e:	687b      	ldr	r3, [r7, #4]
 8003520:	681b      	ldr	r3, [r3, #0]
 8003522:	4a4f      	ldr	r2, [pc, #316]	; (8003660 <HAL_COMP_Init+0x304>)
 8003524:	4293      	cmp	r3, r2
 8003526:	d103      	bne.n	8003530 <HAL_COMP_Init+0x1d4>
        {
          LL_EXTI_DisableFallingTrig_32_63(exti_line);
 8003528:	6938      	ldr	r0, [r7, #16]
 800352a:	f7ff fee3 	bl	80032f4 <LL_EXTI_DisableFallingTrig_32_63>
 800352e:	e002      	b.n	8003536 <HAL_COMP_Init+0x1da>
        }
        else
        {
          LL_EXTI_DisableFallingTrig_0_31(exti_line);
 8003530:	6938      	ldr	r0, [r7, #16]
 8003532:	f7ff fecb 	bl	80032cc <LL_EXTI_DisableFallingTrig_0_31>
#endif
      }

      /* Clear COMP EXTI pending bit (if any) */
#if defined(STM32G474xx) || defined(STM32G484xx) || defined(STM32G473xx) || defined(STM32G483xx)
      if((hcomp->Instance == COMP6) || (hcomp->Instance == COMP7))
 8003536:	687b      	ldr	r3, [r7, #4]
 8003538:	681b      	ldr	r3, [r3, #0]
 800353a:	4a48      	ldr	r2, [pc, #288]	; (800365c <HAL_COMP_Init+0x300>)
 800353c:	4293      	cmp	r3, r2
 800353e:	d004      	beq.n	800354a <HAL_COMP_Init+0x1ee>
 8003540:	687b      	ldr	r3, [r7, #4]
 8003542:	681b      	ldr	r3, [r3, #0]
 8003544:	4a46      	ldr	r2, [pc, #280]	; (8003660 <HAL_COMP_Init+0x304>)
 8003546:	4293      	cmp	r3, r2
 8003548:	d103      	bne.n	8003552 <HAL_COMP_Init+0x1f6>
      {
        LL_EXTI_ClearFlag_32_63(exti_line);
 800354a:	6938      	ldr	r0, [r7, #16]
 800354c:	f7ff fef6 	bl	800333c <LL_EXTI_ClearFlag_32_63>
 8003550:	e002      	b.n	8003558 <HAL_COMP_Init+0x1fc>
      }
      else
      {
        LL_EXTI_ClearFlag_0_31(exti_line);
 8003552:	6938      	ldr	r0, [r7, #16]
 8003554:	f7ff fee2 	bl	800331c <LL_EXTI_ClearFlag_0_31>
#else
      LL_EXTI_ClearFlag_0_31(exti_line);
#endif

      /* Configure EXTI event mode */
      if((hcomp->Init.TriggerMode & COMP_EXTI_EVENT) != 0UL)
 8003558:	687b      	ldr	r3, [r7, #4]
 800355a:	699b      	ldr	r3, [r3, #24]
 800355c:	f003 0302 	and.w	r3, r3, #2
 8003560:	2b00      	cmp	r3, #0
 8003562:	d011      	beq.n	8003588 <HAL_COMP_Init+0x22c>
      {
#if defined(STM32G474xx) || defined(STM32G484xx) || defined(STM32G473xx) || defined(STM32G483xx)
        if((hcomp->Instance == COMP6) || (hcomp->Instance == COMP7))
 8003564:	687b      	ldr	r3, [r7, #4]
 8003566:	681b      	ldr	r3, [r3, #0]
 8003568:	4a3c      	ldr	r2, [pc, #240]	; (800365c <HAL_COMP_Init+0x300>)
 800356a:	4293      	cmp	r3, r2
 800356c:	d004      	beq.n	8003578 <HAL_COMP_Init+0x21c>
 800356e:	687b      	ldr	r3, [r7, #4]
 8003570:	681b      	ldr	r3, [r3, #0]
 8003572:	4a3b      	ldr	r2, [pc, #236]	; (8003660 <HAL_COMP_Init+0x304>)
 8003574:	4293      	cmp	r3, r2
 8003576:	d103      	bne.n	8003580 <HAL_COMP_Init+0x224>
        {
          LL_EXTI_EnableEvent_32_63(exti_line);
 8003578:	6938      	ldr	r0, [r7, #16]
 800357a:	f7ff fdfd 	bl	8003178 <LL_EXTI_EnableEvent_32_63>
 800357e:	e014      	b.n	80035aa <HAL_COMP_Init+0x24e>
        }
        else
        {
          LL_EXTI_EnableEvent_0_31(exti_line);
 8003580:	6938      	ldr	r0, [r7, #16]
 8003582:	f7ff fde7 	bl	8003154 <LL_EXTI_EnableEvent_0_31>
 8003586:	e010      	b.n	80035aa <HAL_COMP_Init+0x24e>
#endif
      }
      else
      {
#if defined(STM32G474xx) || defined(STM32G484xx) || defined(STM32G473xx) || defined(STM32G483xx)
        if((hcomp->Instance == COMP6) || (hcomp->Instance == COMP7))
 8003588:	687b      	ldr	r3, [r7, #4]
 800358a:	681b      	ldr	r3, [r3, #0]
 800358c:	4a33      	ldr	r2, [pc, #204]	; (800365c <HAL_COMP_Init+0x300>)
 800358e:	4293      	cmp	r3, r2
 8003590:	d004      	beq.n	800359c <HAL_COMP_Init+0x240>
 8003592:	687b      	ldr	r3, [r7, #4]
 8003594:	681b      	ldr	r3, [r3, #0]
 8003596:	4a32      	ldr	r2, [pc, #200]	; (8003660 <HAL_COMP_Init+0x304>)
 8003598:	4293      	cmp	r3, r2
 800359a:	d103      	bne.n	80035a4 <HAL_COMP_Init+0x248>
        {
          LL_EXTI_DisableEvent_32_63(exti_line);
 800359c:	6938      	ldr	r0, [r7, #16]
 800359e:	f7ff fe11 	bl	80031c4 <LL_EXTI_DisableEvent_32_63>
 80035a2:	e002      	b.n	80035aa <HAL_COMP_Init+0x24e>
        }
        else
        {
          LL_EXTI_DisableEvent_0_31(exti_line);
 80035a4:	6938      	ldr	r0, [r7, #16]
 80035a6:	f7ff fdf9 	bl	800319c <LL_EXTI_DisableEvent_0_31>
        LL_EXTI_DisableEvent_0_31(exti_line);
#endif
      }

      /* Configure EXTI interrupt mode */
      if((hcomp->Init.TriggerMode & COMP_EXTI_IT) != 0UL)
 80035aa:	687b      	ldr	r3, [r7, #4]
 80035ac:	699b      	ldr	r3, [r3, #24]
 80035ae:	f003 0301 	and.w	r3, r3, #1
 80035b2:	2b00      	cmp	r3, #0
 80035b4:	d011      	beq.n	80035da <HAL_COMP_Init+0x27e>
      {
#if defined(STM32G474xx) || defined(STM32G484xx) || defined(STM32G473xx) || defined(STM32G483xx)
        if((hcomp->Instance == COMP6) || (hcomp->Instance == COMP7))
 80035b6:	687b      	ldr	r3, [r7, #4]
 80035b8:	681b      	ldr	r3, [r3, #0]
 80035ba:	4a28      	ldr	r2, [pc, #160]	; (800365c <HAL_COMP_Init+0x300>)
 80035bc:	4293      	cmp	r3, r2
 80035be:	d004      	beq.n	80035ca <HAL_COMP_Init+0x26e>
 80035c0:	687b      	ldr	r3, [r7, #4]
 80035c2:	681b      	ldr	r3, [r3, #0]
 80035c4:	4a26      	ldr	r2, [pc, #152]	; (8003660 <HAL_COMP_Init+0x304>)
 80035c6:	4293      	cmp	r3, r2
 80035c8:	d103      	bne.n	80035d2 <HAL_COMP_Init+0x276>
        {
          LL_EXTI_EnableIT_32_63(exti_line);
 80035ca:	6938      	ldr	r0, [r7, #16]
 80035cc:	f7ff fd88 	bl	80030e0 <LL_EXTI_EnableIT_32_63>
 80035d0:	e04b      	b.n	800366a <HAL_COMP_Init+0x30e>
        }
        else
        {
          LL_EXTI_EnableIT_0_31(exti_line);
 80035d2:	6938      	ldr	r0, [r7, #16]
 80035d4:	f7ff fd72 	bl	80030bc <LL_EXTI_EnableIT_0_31>
 80035d8:	e047      	b.n	800366a <HAL_COMP_Init+0x30e>
#endif
      }
      else
      {
#if defined(STM32G474xx) || defined(STM32G484xx) || defined(STM32G473xx) || defined(STM32G483xx)
        if((hcomp->Instance == COMP6) || (hcomp->Instance == COMP7))
 80035da:	687b      	ldr	r3, [r7, #4]
 80035dc:	681b      	ldr	r3, [r3, #0]
 80035de:	4a1f      	ldr	r2, [pc, #124]	; (800365c <HAL_COMP_Init+0x300>)
 80035e0:	4293      	cmp	r3, r2
 80035e2:	d004      	beq.n	80035ee <HAL_COMP_Init+0x292>
 80035e4:	687b      	ldr	r3, [r7, #4]
 80035e6:	681b      	ldr	r3, [r3, #0]
 80035e8:	4a1d      	ldr	r2, [pc, #116]	; (8003660 <HAL_COMP_Init+0x304>)
 80035ea:	4293      	cmp	r3, r2
 80035ec:	d103      	bne.n	80035f6 <HAL_COMP_Init+0x29a>
        {
          LL_EXTI_DisableIT_32_63(exti_line);
 80035ee:	6938      	ldr	r0, [r7, #16]
 80035f0:	f7ff fd9c 	bl	800312c <LL_EXTI_DisableIT_32_63>
 80035f4:	e039      	b.n	800366a <HAL_COMP_Init+0x30e>
        }
        else
        {
          LL_EXTI_DisableIT_0_31(exti_line);
 80035f6:	6938      	ldr	r0, [r7, #16]
 80035f8:	f7ff fd84 	bl	8003104 <LL_EXTI_DisableIT_0_31>
 80035fc:	e035      	b.n	800366a <HAL_COMP_Init+0x30e>
    }
    else
    {
      /* Disable EXTI event mode */
#if defined(STM32G474xx) || defined(STM32G484xx) || defined(STM32G473xx) || defined(STM32G483xx)
      if((hcomp->Instance == COMP6) || (hcomp->Instance == COMP7))
 80035fe:	687b      	ldr	r3, [r7, #4]
 8003600:	681b      	ldr	r3, [r3, #0]
 8003602:	4a16      	ldr	r2, [pc, #88]	; (800365c <HAL_COMP_Init+0x300>)
 8003604:	4293      	cmp	r3, r2
 8003606:	d004      	beq.n	8003612 <HAL_COMP_Init+0x2b6>
 8003608:	687b      	ldr	r3, [r7, #4]
 800360a:	681b      	ldr	r3, [r3, #0]
 800360c:	4a14      	ldr	r2, [pc, #80]	; (8003660 <HAL_COMP_Init+0x304>)
 800360e:	4293      	cmp	r3, r2
 8003610:	d103      	bne.n	800361a <HAL_COMP_Init+0x2be>
      {
        LL_EXTI_DisableEvent_32_63(exti_line);
 8003612:	6938      	ldr	r0, [r7, #16]
 8003614:	f7ff fdd6 	bl	80031c4 <LL_EXTI_DisableEvent_32_63>
 8003618:	e002      	b.n	8003620 <HAL_COMP_Init+0x2c4>
      }
      else
      {
        LL_EXTI_DisableEvent_0_31(exti_line);
 800361a:	6938      	ldr	r0, [r7, #16]
 800361c:	f7ff fdbe 	bl	800319c <LL_EXTI_DisableEvent_0_31>
      LL_EXTI_DisableEvent_0_31(exti_line);
#endif

      /* Disable EXTI interrupt mode */
#if defined(STM32G474xx) || defined(STM32G484xx) || defined(STM32G473xx) || defined(STM32G483xx)
      if((hcomp->Instance == COMP6) || (hcomp->Instance == COMP7))
 8003620:	687b      	ldr	r3, [r7, #4]
 8003622:	681b      	ldr	r3, [r3, #0]
 8003624:	4a0d      	ldr	r2, [pc, #52]	; (800365c <HAL_COMP_Init+0x300>)
 8003626:	4293      	cmp	r3, r2
 8003628:	d004      	beq.n	8003634 <HAL_COMP_Init+0x2d8>
 800362a:	687b      	ldr	r3, [r7, #4]
 800362c:	681b      	ldr	r3, [r3, #0]
 800362e:	4a0c      	ldr	r2, [pc, #48]	; (8003660 <HAL_COMP_Init+0x304>)
 8003630:	4293      	cmp	r3, r2
 8003632:	d117      	bne.n	8003664 <HAL_COMP_Init+0x308>
      {
        LL_EXTI_DisableIT_32_63(exti_line);
 8003634:	6938      	ldr	r0, [r7, #16]
 8003636:	f7ff fd79 	bl	800312c <LL_EXTI_DisableIT_32_63>
 800363a:	e016      	b.n	800366a <HAL_COMP_Init+0x30e>
 800363c:	ff007e0f 	.word	0xff007e0f
 8003640:	200003cc 	.word	0x200003cc
 8003644:	053e2d63 	.word	0x053e2d63
 8003648:	40010200 	.word	0x40010200
 800364c:	40010204 	.word	0x40010204
 8003650:	40010208 	.word	0x40010208
 8003654:	4001020c 	.word	0x4001020c
 8003658:	40010210 	.word	0x40010210
 800365c:	40010214 	.word	0x40010214
 8003660:	40010218 	.word	0x40010218
      }
      else
      {
        LL_EXTI_DisableIT_0_31(exti_line);
 8003664:	6938      	ldr	r0, [r7, #16]
 8003666:	f7ff fd4d 	bl	8003104 <LL_EXTI_DisableIT_0_31>
    }

    /* Set HAL COMP handle state */
    /* Note: Transition from state reset to state ready,                      */
    /*       otherwise (coming from state ready or busy) no state update.     */
    if (hcomp->State == HAL_COMP_STATE_RESET)
 800366a:	687b      	ldr	r3, [r7, #4]
 800366c:	7f5b      	ldrb	r3, [r3, #29]
 800366e:	b2db      	uxtb	r3, r3
 8003670:	2b00      	cmp	r3, #0
 8003672:	d102      	bne.n	800367a <HAL_COMP_Init+0x31e>
    {
      hcomp->State = HAL_COMP_STATE_READY;
 8003674:	687b      	ldr	r3, [r7, #4]
 8003676:	2201      	movs	r2, #1
 8003678:	775a      	strb	r2, [r3, #29]
    }
  }

  return status;
 800367a:	7ffb      	ldrb	r3, [r7, #31]
}
 800367c:	4618      	mov	r0, r3
 800367e:	3720      	adds	r7, #32
 8003680:	46bd      	mov	sp, r7
 8003682:	bd80      	pop	{r7, pc}

08003684 <__NVIC_SetPriorityGrouping>:
{
 8003684:	b480      	push	{r7}
 8003686:	b085      	sub	sp, #20
 8003688:	af00      	add	r7, sp, #0
 800368a:	6078      	str	r0, [r7, #4]
  uint32_t PriorityGroupTmp = (PriorityGroup & (uint32_t)0x07UL);             /* only values 0..7 are used          */
 800368c:	687b      	ldr	r3, [r7, #4]
 800368e:	f003 0307 	and.w	r3, r3, #7
 8003692:	60fb      	str	r3, [r7, #12]
  reg_value  =  SCB->AIRCR;                                                   /* read old register configuration    */
 8003694:	4b0c      	ldr	r3, [pc, #48]	; (80036c8 <__NVIC_SetPriorityGrouping+0x44>)
 8003696:	68db      	ldr	r3, [r3, #12]
 8003698:	60bb      	str	r3, [r7, #8]
  reg_value &= ~((uint32_t)(SCB_AIRCR_VECTKEY_Msk | SCB_AIRCR_PRIGROUP_Msk)); /* clear bits to change               */
 800369a:	68ba      	ldr	r2, [r7, #8]
 800369c:	f64f 03ff 	movw	r3, #63743	; 0xf8ff
 80036a0:	4013      	ands	r3, r2
 80036a2:	60bb      	str	r3, [r7, #8]
                (PriorityGroupTmp << SCB_AIRCR_PRIGROUP_Pos)  );              /* Insert write key and priority group */
 80036a4:	68fb      	ldr	r3, [r7, #12]
 80036a6:	021a      	lsls	r2, r3, #8
                ((uint32_t)0x5FAUL << SCB_AIRCR_VECTKEY_Pos) |
 80036a8:	68bb      	ldr	r3, [r7, #8]
 80036aa:	4313      	orrs	r3, r2
  reg_value  =  (reg_value                                   |
 80036ac:	f043 63bf 	orr.w	r3, r3, #100139008	; 0x5f80000
 80036b0:	f443 3300 	orr.w	r3, r3, #131072	; 0x20000
 80036b4:	60bb      	str	r3, [r7, #8]
  SCB->AIRCR =  reg_value;
 80036b6:	4a04      	ldr	r2, [pc, #16]	; (80036c8 <__NVIC_SetPriorityGrouping+0x44>)
 80036b8:	68bb      	ldr	r3, [r7, #8]
 80036ba:	60d3      	str	r3, [r2, #12]
}
 80036bc:	bf00      	nop
 80036be:	3714      	adds	r7, #20
 80036c0:	46bd      	mov	sp, r7
 80036c2:	f85d 7b04 	ldr.w	r7, [sp], #4
 80036c6:	4770      	bx	lr
 80036c8:	e000ed00 	.word	0xe000ed00

080036cc <__NVIC_GetPriorityGrouping>:
{
 80036cc:	b480      	push	{r7}
 80036ce:	af00      	add	r7, sp, #0
  return ((uint32_t)((SCB->AIRCR & SCB_AIRCR_PRIGROUP_Msk) >> SCB_AIRCR_PRIGROUP_Pos));
 80036d0:	4b04      	ldr	r3, [pc, #16]	; (80036e4 <__NVIC_GetPriorityGrouping+0x18>)
 80036d2:	68db      	ldr	r3, [r3, #12]
 80036d4:	0a1b      	lsrs	r3, r3, #8
 80036d6:	f003 0307 	and.w	r3, r3, #7
}
 80036da:	4618      	mov	r0, r3
 80036dc:	46bd      	mov	sp, r7
 80036de:	f85d 7b04 	ldr.w	r7, [sp], #4
 80036e2:	4770      	bx	lr
 80036e4:	e000ed00 	.word	0xe000ed00

080036e8 <__NVIC_EnableIRQ>:
{
 80036e8:	b480      	push	{r7}
 80036ea:	b083      	sub	sp, #12
 80036ec:	af00      	add	r7, sp, #0
 80036ee:	4603      	mov	r3, r0
 80036f0:	71fb      	strb	r3, [r7, #7]
  if ((int32_t)(IRQn) >= 0)
 80036f2:	f997 3007 	ldrsb.w	r3, [r7, #7]
 80036f6:	2b00      	cmp	r3, #0
 80036f8:	db0b      	blt.n	8003712 <__NVIC_EnableIRQ+0x2a>
    NVIC->ISER[(((uint32_t)IRQn) >> 5UL)] = (uint32_t)(1UL << (((uint32_t)IRQn) & 0x1FUL));
 80036fa:	79fb      	ldrb	r3, [r7, #7]
 80036fc:	f003 021f 	and.w	r2, r3, #31
 8003700:	4907      	ldr	r1, [pc, #28]	; (8003720 <__NVIC_EnableIRQ+0x38>)
 8003702:	f997 3007 	ldrsb.w	r3, [r7, #7]
 8003706:	095b      	lsrs	r3, r3, #5
 8003708:	2001      	movs	r0, #1
 800370a:	fa00 f202 	lsl.w	r2, r0, r2
 800370e:	f841 2023 	str.w	r2, [r1, r3, lsl #2]
}
 8003712:	bf00      	nop
 8003714:	370c      	adds	r7, #12
 8003716:	46bd      	mov	sp, r7
 8003718:	f85d 7b04 	ldr.w	r7, [sp], #4
 800371c:	4770      	bx	lr
 800371e:	bf00      	nop
 8003720:	e000e100 	.word	0xe000e100

08003724 <__NVIC_SetPriority>:
{
 8003724:	b480      	push	{r7}
 8003726:	b083      	sub	sp, #12
 8003728:	af00      	add	r7, sp, #0
 800372a:	4603      	mov	r3, r0
 800372c:	6039      	str	r1, [r7, #0]
 800372e:	71fb      	strb	r3, [r7, #7]
  if ((int32_t)(IRQn) >= 0)
 8003730:	f997 3007 	ldrsb.w	r3, [r7, #7]
 8003734:	2b00      	cmp	r3, #0
 8003736:	db0a      	blt.n	800374e <__NVIC_SetPriority+0x2a>
    NVIC->IP[((uint32_t)IRQn)]               = (uint8_t)((priority << (8U - __NVIC_PRIO_BITS)) & (uint32_t)0xFFUL);
 8003738:	683b      	ldr	r3, [r7, #0]
 800373a:	b2da      	uxtb	r2, r3
 800373c:	490c      	ldr	r1, [pc, #48]	; (8003770 <__NVIC_SetPriority+0x4c>)
 800373e:	f997 3007 	ldrsb.w	r3, [r7, #7]
 8003742:	0112      	lsls	r2, r2, #4
 8003744:	b2d2      	uxtb	r2, r2
 8003746:	440b      	add	r3, r1
 8003748:	f883 2300 	strb.w	r2, [r3, #768]	; 0x300
}
 800374c:	e00a      	b.n	8003764 <__NVIC_SetPriority+0x40>
    SCB->SHP[(((uint32_t)IRQn) & 0xFUL)-4UL] = (uint8_t)((priority << (8U - __NVIC_PRIO_BITS)) & (uint32_t)0xFFUL);
 800374e:	683b      	ldr	r3, [r7, #0]
 8003750:	b2da      	uxtb	r2, r3
 8003752:	4908      	ldr	r1, [pc, #32]	; (8003774 <__NVIC_SetPriority+0x50>)
 8003754:	79fb      	ldrb	r3, [r7, #7]
 8003756:	f003 030f 	and.w	r3, r3, #15
 800375a:	3b04      	subs	r3, #4
 800375c:	0112      	lsls	r2, r2, #4
 800375e:	b2d2      	uxtb	r2, r2
 8003760:	440b      	add	r3, r1
 8003762:	761a      	strb	r2, [r3, #24]
}
 8003764:	bf00      	nop
 8003766:	370c      	adds	r7, #12
 8003768:	46bd      	mov	sp, r7
 800376a:	f85d 7b04 	ldr.w	r7, [sp], #4
 800376e:	4770      	bx	lr
 8003770:	e000e100 	.word	0xe000e100
 8003774:	e000ed00 	.word	0xe000ed00

08003778 <NVIC_EncodePriority>:
{
 8003778:	b480      	push	{r7}
 800377a:	b089      	sub	sp, #36	; 0x24
 800377c:	af00      	add	r7, sp, #0
 800377e:	60f8      	str	r0, [r7, #12]
 8003780:	60b9      	str	r1, [r7, #8]
 8003782:	607a      	str	r2, [r7, #4]
  uint32_t PriorityGroupTmp = (PriorityGroup & (uint32_t)0x07UL);   /* only values 0..7 are used          */
 8003784:	68fb      	ldr	r3, [r7, #12]
 8003786:	f003 0307 	and.w	r3, r3, #7
 800378a:	61fb      	str	r3, [r7, #28]
  PreemptPriorityBits = ((7UL - PriorityGroupTmp) > (uint32_t)(__NVIC_PRIO_BITS)) ? (uint32_t)(__NVIC_PRIO_BITS) : (uint32_t)(7UL - PriorityGroupTmp);
 800378c:	69fb      	ldr	r3, [r7, #28]
 800378e:	f1c3 0307 	rsb	r3, r3, #7
 8003792:	2b04      	cmp	r3, #4
 8003794:	bf28      	it	cs
 8003796:	2304      	movcs	r3, #4
 8003798:	61bb      	str	r3, [r7, #24]
  SubPriorityBits     = ((PriorityGroupTmp + (uint32_t)(__NVIC_PRIO_BITS)) < (uint32_t)7UL) ? (uint32_t)0UL : (uint32_t)((PriorityGroupTmp - 7UL) + (uint32_t)(__NVIC_PRIO_BITS));
 800379a:	69fb      	ldr	r3, [r7, #28]
 800379c:	3304      	adds	r3, #4
 800379e:	2b06      	cmp	r3, #6
 80037a0:	d902      	bls.n	80037a8 <NVIC_EncodePriority+0x30>
 80037a2:	69fb      	ldr	r3, [r7, #28]
 80037a4:	3b03      	subs	r3, #3
 80037a6:	e000      	b.n	80037aa <NVIC_EncodePriority+0x32>
 80037a8:	2300      	movs	r3, #0
 80037aa:	617b      	str	r3, [r7, #20]
           ((PreemptPriority & (uint32_t)((1UL << (PreemptPriorityBits)) - 1UL)) << SubPriorityBits) |
 80037ac:	f04f 32ff 	mov.w	r2, #4294967295	; 0xffffffff
 80037b0:	69bb      	ldr	r3, [r7, #24]
 80037b2:	fa02 f303 	lsl.w	r3, r2, r3
 80037b6:	43da      	mvns	r2, r3
 80037b8:	68bb      	ldr	r3, [r7, #8]
 80037ba:	401a      	ands	r2, r3
 80037bc:	697b      	ldr	r3, [r7, #20]
 80037be:	409a      	lsls	r2, r3
           ((SubPriority     & (uint32_t)((1UL << (SubPriorityBits    )) - 1UL)))
 80037c0:	f04f 31ff 	mov.w	r1, #4294967295	; 0xffffffff
 80037c4:	697b      	ldr	r3, [r7, #20]
 80037c6:	fa01 f303 	lsl.w	r3, r1, r3
 80037ca:	43d9      	mvns	r1, r3
 80037cc:	687b      	ldr	r3, [r7, #4]
 80037ce:	400b      	ands	r3, r1
           ((PreemptPriority & (uint32_t)((1UL << (PreemptPriorityBits)) - 1UL)) << SubPriorityBits) |
 80037d0:	4313      	orrs	r3, r2
}
 80037d2:	4618      	mov	r0, r3
 80037d4:	3724      	adds	r7, #36	; 0x24
 80037d6:	46bd      	mov	sp, r7
 80037d8:	f85d 7b04 	ldr.w	r7, [sp], #4
 80037dc:	4770      	bx	lr
	...

080037e0 <SysTick_Config>:
{
 80037e0:	b580      	push	{r7, lr}
 80037e2:	b082      	sub	sp, #8
 80037e4:	af00      	add	r7, sp, #0
 80037e6:	6078      	str	r0, [r7, #4]
  if ((ticks - 1UL) > SysTick_LOAD_RELOAD_Msk)
 80037e8:	687b      	ldr	r3, [r7, #4]
 80037ea:	3b01      	subs	r3, #1
 80037ec:	f1b3 7f80 	cmp.w	r3, #16777216	; 0x1000000
 80037f0:	d301      	bcc.n	80037f6 <SysTick_Config+0x16>
    return (1UL);                                                   /* Reload value impossible */
 80037f2:	2301      	movs	r3, #1
 80037f4:	e00f      	b.n	8003816 <SysTick_Config+0x36>
  SysTick->LOAD  = (uint32_t)(ticks - 1UL);                         /* set reload register */
 80037f6:	4a0a      	ldr	r2, [pc, #40]	; (8003820 <SysTick_Config+0x40>)
 80037f8:	687b      	ldr	r3, [r7, #4]
 80037fa:	3b01      	subs	r3, #1
 80037fc:	6053      	str	r3, [r2, #4]
  NVIC_SetPriority (SysTick_IRQn, (1UL << __NVIC_PRIO_BITS) - 1UL); /* set Priority for Systick Interrupt */
 80037fe:	210f      	movs	r1, #15
 8003800:	f04f 30ff 	mov.w	r0, #4294967295	; 0xffffffff
 8003804:	f7ff ff8e 	bl	8003724 <__NVIC_SetPriority>
  SysTick->VAL   = 0UL;                                             /* Load the SysTick Counter Value */
 8003808:	4b05      	ldr	r3, [pc, #20]	; (8003820 <SysTick_Config+0x40>)
 800380a:	2200      	movs	r2, #0
 800380c:	609a      	str	r2, [r3, #8]
  SysTick->CTRL  = SysTick_CTRL_CLKSOURCE_Msk |
 800380e:	4b04      	ldr	r3, [pc, #16]	; (8003820 <SysTick_Config+0x40>)
 8003810:	2207      	movs	r2, #7
 8003812:	601a      	str	r2, [r3, #0]
  return (0UL);                                                     /* Function successful */
 8003814:	2300      	movs	r3, #0
}
 8003816:	4618      	mov	r0, r3
 8003818:	3708      	adds	r7, #8
 800381a:	46bd      	mov	sp, r7
 800381c:	bd80      	pop	{r7, pc}
 800381e:	bf00      	nop
 8003820:	e000e010 	.word	0xe000e010

08003824 <HAL_NVIC_SetPriorityGrouping>:
  * @note   When the NVIC_PriorityGroup_0 is selected, IRQ pre-emption is no more possible.
  *         The pending IRQ priority will be managed only by the subpriority.
  * @retval None
  */
void HAL_NVIC_SetPriorityGrouping(uint32_t PriorityGroup)
{
 8003824:	b580      	push	{r7, lr}
 8003826:	b082      	sub	sp, #8
 8003828:	af00      	add	r7, sp, #0
 800382a:	6078      	str	r0, [r7, #4]
  /* Check the parameters */
  assert_param(IS_NVIC_PRIORITY_GROUP(PriorityGroup));

  /* Set the PRIGROUP[10:8] bits according to the PriorityGroup parameter value */
  NVIC_SetPriorityGrouping(PriorityGroup);
 800382c:	6878      	ldr	r0, [r7, #4]
 800382e:	f7ff ff29 	bl	8003684 <__NVIC_SetPriorityGrouping>
}
 8003832:	bf00      	nop
 8003834:	3708      	adds	r7, #8
 8003836:	46bd      	mov	sp, r7
 8003838:	bd80      	pop	{r7, pc}

0800383a <HAL_NVIC_SetPriority>:
  *         This parameter can be a value between 0 and 15
  *         A lower priority value indicates a higher priority.
  * @retval None
  */
void HAL_NVIC_SetPriority(IRQn_Type IRQn, uint32_t PreemptPriority, uint32_t SubPriority)
{
 800383a:	b580      	push	{r7, lr}
 800383c:	b086      	sub	sp, #24
 800383e:	af00      	add	r7, sp, #0
 8003840:	4603      	mov	r3, r0
 8003842:	60b9      	str	r1, [r7, #8]
 8003844:	607a      	str	r2, [r7, #4]
 8003846:	73fb      	strb	r3, [r7, #15]

  /* Check the parameters */
  assert_param(IS_NVIC_SUB_PRIORITY(SubPriority));
  assert_param(IS_NVIC_PREEMPTION_PRIORITY(PreemptPriority));

  prioritygroup = NVIC_GetPriorityGrouping();
 8003848:	f7ff ff40 	bl	80036cc <__NVIC_GetPriorityGrouping>
 800384c:	6178      	str	r0, [r7, #20]

  NVIC_SetPriority(IRQn, NVIC_EncodePriority(prioritygroup, PreemptPriority, SubPriority));
 800384e:	687a      	ldr	r2, [r7, #4]
 8003850:	68b9      	ldr	r1, [r7, #8]
 8003852:	6978      	ldr	r0, [r7, #20]
 8003854:	f7ff ff90 	bl	8003778 <NVIC_EncodePriority>
 8003858:	4602      	mov	r2, r0
 800385a:	f997 300f 	ldrsb.w	r3, [r7, #15]
 800385e:	4611      	mov	r1, r2
 8003860:	4618      	mov	r0, r3
 8003862:	f7ff ff5f 	bl	8003724 <__NVIC_SetPriority>
}
 8003866:	bf00      	nop
 8003868:	3718      	adds	r7, #24
 800386a:	46bd      	mov	sp, r7
 800386c:	bd80      	pop	{r7, pc}

0800386e <HAL_NVIC_EnableIRQ>:
  *         This parameter can be an enumerator of IRQn_Type enumeration
  *         (For the complete STM32 Devices IRQ Channels list, please refer to the appropriate CMSIS device file (stm32g4xxxx.h))
  * @retval None
  */
void HAL_NVIC_EnableIRQ(IRQn_Type IRQn)
{
 800386e:	b580      	push	{r7, lr}
 8003870:	b082      	sub	sp, #8
 8003872:	af00      	add	r7, sp, #0
 8003874:	4603      	mov	r3, r0
 8003876:	71fb      	strb	r3, [r7, #7]
  /* Check the parameters */
  assert_param(IS_NVIC_DEVICE_IRQ(IRQn));
  
  /* Enable interrupt */
  NVIC_EnableIRQ(IRQn);
 8003878:	f997 3007 	ldrsb.w	r3, [r7, #7]
 800387c:	4618      	mov	r0, r3
 800387e:	f7ff ff33 	bl	80036e8 <__NVIC_EnableIRQ>
}
 8003882:	bf00      	nop
 8003884:	3708      	adds	r7, #8
 8003886:	46bd      	mov	sp, r7
 8003888:	bd80      	pop	{r7, pc}

0800388a <HAL_SYSTICK_Config>:
  * @param  TicksNumb: Specifies the ticks Number of ticks between two interrupts.
  * @retval status:  - 0  Function succeeded.
  *                  - 1  Function failed.
  */
uint32_t HAL_SYSTICK_Config(uint32_t TicksNumb)
{
 800388a:	b580      	push	{r7, lr}
 800388c:	b082      	sub	sp, #8
 800388e:	af00      	add	r7, sp, #0
 8003890:	6078      	str	r0, [r7, #4]
   return SysTick_Config(TicksNumb);
 8003892:	6878      	ldr	r0, [r7, #4]
 8003894:	f7ff ffa4 	bl	80037e0 <SysTick_Config>
 8003898:	4603      	mov	r3, r0
}
 800389a:	4618      	mov	r0, r3
 800389c:	3708      	adds	r7, #8
 800389e:	46bd      	mov	sp, r7
 80038a0:	bd80      	pop	{r7, pc}

080038a2 <HAL_DAC_Init>:
  * @param  hdac pointer to a DAC_HandleTypeDef structure that contains
  *         the configuration information for the specified DAC.
  * @retval HAL status
  */
HAL_StatusTypeDef HAL_DAC_Init(DAC_HandleTypeDef *hdac)
{
 80038a2:	b580      	push	{r7, lr}
 80038a4:	b082      	sub	sp, #8
 80038a6:	af00      	add	r7, sp, #0
 80038a8:	6078      	str	r0, [r7, #4]
  /* Check DAC handle */
  if (hdac == NULL)
 80038aa:	687b      	ldr	r3, [r7, #4]
 80038ac:	2b00      	cmp	r3, #0
 80038ae:	d101      	bne.n	80038b4 <HAL_DAC_Init+0x12>
  {
    return HAL_ERROR;
 80038b0:	2301      	movs	r3, #1
 80038b2:	e014      	b.n	80038de <HAL_DAC_Init+0x3c>
  }
  /* Check the parameters */
  assert_param(IS_DAC_ALL_INSTANCE(hdac->Instance));

  if (hdac->State == HAL_DAC_STATE_RESET)
 80038b4:	687b      	ldr	r3, [r7, #4]
 80038b6:	791b      	ldrb	r3, [r3, #4]
 80038b8:	b2db      	uxtb	r3, r3
 80038ba:	2b00      	cmp	r3, #0
 80038bc:	d105      	bne.n	80038ca <HAL_DAC_Init+0x28>
      hdac->MspInitCallback             = HAL_DAC_MspInit;
    }
#endif /* USE_HAL_DAC_REGISTER_CALLBACKS */

    /* Allocate lock resource and initialize it */
    hdac->Lock = HAL_UNLOCKED;
 80038be:	687b      	ldr	r3, [r7, #4]
 80038c0:	2200      	movs	r2, #0
 80038c2:	715a      	strb	r2, [r3, #5]
#if (USE_HAL_DAC_REGISTER_CALLBACKS == 1)
    /* Init the low level hardware */
    hdac->MspInitCallback(hdac);
#else
    /* Init the low level hardware */
    HAL_DAC_MspInit(hdac);
 80038c4:	6878      	ldr	r0, [r7, #4]
 80038c6:	f7fc ff0b 	bl	80006e0 <HAL_DAC_MspInit>
#endif /* USE_HAL_DAC_REGISTER_CALLBACKS */
  }

  /* Initialize the DAC state*/
  hdac->State = HAL_DAC_STATE_BUSY;
 80038ca:	687b      	ldr	r3, [r7, #4]
 80038cc:	2202      	movs	r2, #2
 80038ce:	711a      	strb	r2, [r3, #4]

  /* Set DAC error code to none */
  hdac->ErrorCode = HAL_DAC_ERROR_NONE;
 80038d0:	687b      	ldr	r3, [r7, #4]
 80038d2:	2200      	movs	r2, #0
 80038d4:	611a      	str	r2, [r3, #16]

  /* Initialize the DAC state*/
  hdac->State = HAL_DAC_STATE_READY;
 80038d6:	687b      	ldr	r3, [r7, #4]
 80038d8:	2201      	movs	r2, #1
 80038da:	711a      	strb	r2, [r3, #4]

  /* Return function status */
  return HAL_OK;
 80038dc:	2300      	movs	r3, #0
}
 80038de:	4618      	mov	r0, r3
 80038e0:	3708      	adds	r7, #8
 80038e2:	46bd      	mov	sp, r7
 80038e4:	bd80      	pop	{r7, pc}

080038e6 <HAL_DAC_Start>:
  *         (1) On this STM32 serie, parameter not available on all instances.
  *             Refer to device datasheet for channels availability.
  * @retval HAL status
  */
HAL_StatusTypeDef HAL_DAC_Start(DAC_HandleTypeDef *hdac, uint32_t Channel)
{
 80038e6:	b580      	push	{r7, lr}
 80038e8:	b082      	sub	sp, #8
 80038ea:	af00      	add	r7, sp, #0
 80038ec:	6078      	str	r0, [r7, #4]
 80038ee:	6039      	str	r1, [r7, #0]
  /* Check the parameters */
  assert_param(IS_DAC_CHANNEL(hdac->Instance, Channel));

  /* Process locked */
  __HAL_LOCK(hdac);
 80038f0:	687b      	ldr	r3, [r7, #4]
 80038f2:	795b      	ldrb	r3, [r3, #5]
 80038f4:	2b01      	cmp	r3, #1
 80038f6:	d101      	bne.n	80038fc <HAL_DAC_Start+0x16>
 80038f8:	2302      	movs	r3, #2
 80038fa:	e043      	b.n	8003984 <HAL_DAC_Start+0x9e>
 80038fc:	687b      	ldr	r3, [r7, #4]
 80038fe:	2201      	movs	r2, #1
 8003900:	715a      	strb	r2, [r3, #5]

  /* Change DAC state */
  hdac->State = HAL_DAC_STATE_BUSY;
 8003902:	687b      	ldr	r3, [r7, #4]
 8003904:	2202      	movs	r2, #2
 8003906:	711a      	strb	r2, [r3, #4]

  /* Enable the Peripheral */
  __HAL_DAC_ENABLE(hdac, Channel);
 8003908:	687b      	ldr	r3, [r7, #4]
 800390a:	681b      	ldr	r3, [r3, #0]
 800390c:	6819      	ldr	r1, [r3, #0]
 800390e:	683b      	ldr	r3, [r7, #0]
 8003910:	f003 0310 	and.w	r3, r3, #16
 8003914:	2201      	movs	r2, #1
 8003916:	409a      	lsls	r2, r3
 8003918:	687b      	ldr	r3, [r7, #4]
 800391a:	681b      	ldr	r3, [r3, #0]
 800391c:	430a      	orrs	r2, r1
 800391e:	601a      	str	r2, [r3, #0]
  /* Ensure minimum wait before using peripheral after enabling it */
  HAL_Delay(1);
 8003920:	2001      	movs	r0, #1
 8003922:	f7fe fb4d 	bl	8001fc0 <HAL_Delay>

  if (Channel == DAC_CHANNEL_1)
 8003926:	683b      	ldr	r3, [r7, #0]
 8003928:	2b00      	cmp	r3, #0
 800392a:	d10f      	bne.n	800394c <HAL_DAC_Start+0x66>
  {
    /* Check if software trigger enabled */
    if ((hdac->Instance->CR & (DAC_CR_TEN1 | DAC_CR_TSEL1)) == DAC_TRIGGER_SOFTWARE)
 800392c:	687b      	ldr	r3, [r7, #4]
 800392e:	681b      	ldr	r3, [r3, #0]
 8003930:	681b      	ldr	r3, [r3, #0]
 8003932:	f003 033e 	and.w	r3, r3, #62	; 0x3e
 8003936:	2b02      	cmp	r3, #2
 8003938:	d11d      	bne.n	8003976 <HAL_DAC_Start+0x90>
    {
      /* Enable the selected DAC software conversion */
      SET_BIT(hdac->Instance->SWTRIGR, DAC_SWTRIGR_SWTRIG1);
 800393a:	687b      	ldr	r3, [r7, #4]
 800393c:	681b      	ldr	r3, [r3, #0]
 800393e:	685a      	ldr	r2, [r3, #4]
 8003940:	687b      	ldr	r3, [r7, #4]
 8003942:	681b      	ldr	r3, [r3, #0]
 8003944:	f042 0201 	orr.w	r2, r2, #1
 8003948:	605a      	str	r2, [r3, #4]
 800394a:	e014      	b.n	8003976 <HAL_DAC_Start+0x90>
    }
  }
  else
  {
    /* Check if software trigger enabled */
    if ((hdac->Instance->CR & (DAC_CR_TEN2 | DAC_CR_TSEL2)) == (DAC_TRIGGER_SOFTWARE << (Channel & 0x10UL)))
 800394c:	687b      	ldr	r3, [r7, #4]
 800394e:	681b      	ldr	r3, [r3, #0]
 8003950:	681b      	ldr	r3, [r3, #0]
 8003952:	f403 1278 	and.w	r2, r3, #4063232	; 0x3e0000
 8003956:	683b      	ldr	r3, [r7, #0]
 8003958:	f003 0310 	and.w	r3, r3, #16
 800395c:	2102      	movs	r1, #2
 800395e:	fa01 f303 	lsl.w	r3, r1, r3
 8003962:	429a      	cmp	r2, r3
 8003964:	d107      	bne.n	8003976 <HAL_DAC_Start+0x90>
    {
      /* Enable the selected DAC software conversion*/
      SET_BIT(hdac->Instance->SWTRIGR, DAC_SWTRIGR_SWTRIG2);
 8003966:	687b      	ldr	r3, [r7, #4]
 8003968:	681b      	ldr	r3, [r3, #0]
 800396a:	685a      	ldr	r2, [r3, #4]
 800396c:	687b      	ldr	r3, [r7, #4]
 800396e:	681b      	ldr	r3, [r3, #0]
 8003970:	f042 0202 	orr.w	r2, r2, #2
 8003974:	605a      	str	r2, [r3, #4]
    }
  }

  /* Change DAC state */
  hdac->State = HAL_DAC_STATE_READY;
 8003976:	687b      	ldr	r3, [r7, #4]
 8003978:	2201      	movs	r2, #1
 800397a:	711a      	strb	r2, [r3, #4]

  /* Process unlocked */
  __HAL_UNLOCK(hdac);
 800397c:	687b      	ldr	r3, [r7, #4]
 800397e:	2200      	movs	r2, #0
 8003980:	715a      	strb	r2, [r3, #5]

  /* Return function status */
  return HAL_OK;
 8003982:	2300      	movs	r3, #0
}
 8003984:	4618      	mov	r0, r3
 8003986:	3708      	adds	r7, #8
 8003988:	46bd      	mov	sp, r7
 800398a:	bd80      	pop	{r7, pc}

0800398c <HAL_DAC_Start_DMA>:
  *            @arg DAC_ALIGN_12B_R: 12bit right data alignment selected
  * @retval HAL status
  */
HAL_StatusTypeDef HAL_DAC_Start_DMA(DAC_HandleTypeDef *hdac, uint32_t Channel, uint32_t *pData, uint32_t Length,
                                    uint32_t Alignment)
{
 800398c:	b580      	push	{r7, lr}
 800398e:	b086      	sub	sp, #24
 8003990:	af00      	add	r7, sp, #0
 8003992:	60f8      	str	r0, [r7, #12]
 8003994:	60b9      	str	r1, [r7, #8]
 8003996:	607a      	str	r2, [r7, #4]
 8003998:	603b      	str	r3, [r7, #0]
  HAL_StatusTypeDef status;
  uint32_t tmpreg = 0U;
 800399a:	2300      	movs	r3, #0
 800399c:	613b      	str	r3, [r7, #16]
  /* Check the parameters */
  assert_param(IS_DAC_CHANNEL(hdac->Instance, Channel));
  assert_param(IS_DAC_ALIGN(Alignment));

  /* Process locked */
  __HAL_LOCK(hdac);
 800399e:	68fb      	ldr	r3, [r7, #12]
 80039a0:	795b      	ldrb	r3, [r3, #5]
 80039a2:	2b01      	cmp	r3, #1
 80039a4:	d101      	bne.n	80039aa <HAL_DAC_Start_DMA+0x1e>
 80039a6:	2302      	movs	r3, #2
 80039a8:	e0a1      	b.n	8003aee <HAL_DAC_Start_DMA+0x162>
 80039aa:	68fb      	ldr	r3, [r7, #12]
 80039ac:	2201      	movs	r2, #1
 80039ae:	715a      	strb	r2, [r3, #5]

  /* Change DAC state */
  hdac->State = HAL_DAC_STATE_BUSY;
 80039b0:	68fb      	ldr	r3, [r7, #12]
 80039b2:	2202      	movs	r2, #2
 80039b4:	711a      	strb	r2, [r3, #4]

  if (Channel == DAC_CHANNEL_1)
 80039b6:	68bb      	ldr	r3, [r7, #8]
 80039b8:	2b00      	cmp	r3, #0
 80039ba:	d12a      	bne.n	8003a12 <HAL_DAC_Start_DMA+0x86>
  {
    /* Set the DMA transfer complete callback for channel1 */
    hdac->DMA_Handle1->XferCpltCallback = DAC_DMAConvCpltCh1;
 80039bc:	68fb      	ldr	r3, [r7, #12]
 80039be:	689b      	ldr	r3, [r3, #8]
 80039c0:	4a4d      	ldr	r2, [pc, #308]	; (8003af8 <HAL_DAC_Start_DMA+0x16c>)
 80039c2:	62da      	str	r2, [r3, #44]	; 0x2c

    /* Set the DMA half transfer complete callback for channel1 */
    hdac->DMA_Handle1->XferHalfCpltCallback = DAC_DMAHalfConvCpltCh1;
 80039c4:	68fb      	ldr	r3, [r7, #12]
 80039c6:	689b      	ldr	r3, [r3, #8]
 80039c8:	4a4c      	ldr	r2, [pc, #304]	; (8003afc <HAL_DAC_Start_DMA+0x170>)
 80039ca:	631a      	str	r2, [r3, #48]	; 0x30

    /* Set the DMA error callback for channel1 */
    hdac->DMA_Handle1->XferErrorCallback = DAC_DMAErrorCh1;
 80039cc:	68fb      	ldr	r3, [r7, #12]
 80039ce:	689b      	ldr	r3, [r3, #8]
 80039d0:	4a4b      	ldr	r2, [pc, #300]	; (8003b00 <HAL_DAC_Start_DMA+0x174>)
 80039d2:	635a      	str	r2, [r3, #52]	; 0x34

    /* Enable the selected DAC channel1 DMA request */
    SET_BIT(hdac->Instance->CR, DAC_CR_DMAEN1);
 80039d4:	68fb      	ldr	r3, [r7, #12]
 80039d6:	681b      	ldr	r3, [r3, #0]
 80039d8:	681a      	ldr	r2, [r3, #0]
 80039da:	68fb      	ldr	r3, [r7, #12]
 80039dc:	681b      	ldr	r3, [r3, #0]
 80039de:	f442 5280 	orr.w	r2, r2, #4096	; 0x1000
 80039e2:	601a      	str	r2, [r3, #0]

    /* Case of use of channel 1 */
    switch (Alignment)
 80039e4:	6a3b      	ldr	r3, [r7, #32]
 80039e6:	2b04      	cmp	r3, #4
 80039e8:	d009      	beq.n	80039fe <HAL_DAC_Start_DMA+0x72>
 80039ea:	2b08      	cmp	r3, #8
 80039ec:	d00c      	beq.n	8003a08 <HAL_DAC_Start_DMA+0x7c>
 80039ee:	2b00      	cmp	r3, #0
 80039f0:	d000      	beq.n	80039f4 <HAL_DAC_Start_DMA+0x68>
      case DAC_ALIGN_8B_R:
        /* Get DHR8R1 address */
        tmpreg = (uint32_t)&hdac->Instance->DHR8R1;
        break;
      default:
        break;
 80039f2:	e039      	b.n	8003a68 <HAL_DAC_Start_DMA+0xdc>
        tmpreg = (uint32_t)&hdac->Instance->DHR12R1;
 80039f4:	68fb      	ldr	r3, [r7, #12]
 80039f6:	681b      	ldr	r3, [r3, #0]
 80039f8:	3308      	adds	r3, #8
 80039fa:	613b      	str	r3, [r7, #16]
        break;
 80039fc:	e034      	b.n	8003a68 <HAL_DAC_Start_DMA+0xdc>
        tmpreg = (uint32_t)&hdac->Instance->DHR12L1;
 80039fe:	68fb      	ldr	r3, [r7, #12]
 8003a00:	681b      	ldr	r3, [r3, #0]
 8003a02:	330c      	adds	r3, #12
 8003a04:	613b      	str	r3, [r7, #16]
        break;
 8003a06:	e02f      	b.n	8003a68 <HAL_DAC_Start_DMA+0xdc>
        tmpreg = (uint32_t)&hdac->Instance->DHR8R1;
 8003a08:	68fb      	ldr	r3, [r7, #12]
 8003a0a:	681b      	ldr	r3, [r3, #0]
 8003a0c:	3310      	adds	r3, #16
 8003a0e:	613b      	str	r3, [r7, #16]
        break;
 8003a10:	e02a      	b.n	8003a68 <HAL_DAC_Start_DMA+0xdc>
    }
  }
  else
  {
    /* Set the DMA transfer complete callback for channel2 */
    hdac->DMA_Handle2->XferCpltCallback = DAC_DMAConvCpltCh2;
 8003a12:	68fb      	ldr	r3, [r7, #12]
 8003a14:	68db      	ldr	r3, [r3, #12]
 8003a16:	4a3b      	ldr	r2, [pc, #236]	; (8003b04 <HAL_DAC_Start_DMA+0x178>)
 8003a18:	62da      	str	r2, [r3, #44]	; 0x2c

    /* Set the DMA half transfer complete callback for channel2 */
    hdac->DMA_Handle2->XferHalfCpltCallback = DAC_DMAHalfConvCpltCh2;
 8003a1a:	68fb      	ldr	r3, [r7, #12]
 8003a1c:	68db      	ldr	r3, [r3, #12]
 8003a1e:	4a3a      	ldr	r2, [pc, #232]	; (8003b08 <HAL_DAC_Start_DMA+0x17c>)
 8003a20:	631a      	str	r2, [r3, #48]	; 0x30

    /* Set the DMA error callback for channel2 */
    hdac->DMA_Handle2->XferErrorCallback = DAC_DMAErrorCh2;
 8003a22:	68fb      	ldr	r3, [r7, #12]
 8003a24:	68db      	ldr	r3, [r3, #12]
 8003a26:	4a39      	ldr	r2, [pc, #228]	; (8003b0c <HAL_DAC_Start_DMA+0x180>)
 8003a28:	635a      	str	r2, [r3, #52]	; 0x34

    /* Enable the selected DAC channel2 DMA request */
    SET_BIT(hdac->Instance->CR, DAC_CR_DMAEN2);
 8003a2a:	68fb      	ldr	r3, [r7, #12]
 8003a2c:	681b      	ldr	r3, [r3, #0]
 8003a2e:	681a      	ldr	r2, [r3, #0]
 8003a30:	68fb      	ldr	r3, [r7, #12]
 8003a32:	681b      	ldr	r3, [r3, #0]
 8003a34:	f042 5280 	orr.w	r2, r2, #268435456	; 0x10000000
 8003a38:	601a      	str	r2, [r3, #0]

    /* Case of use of channel 2 */
    switch (Alignment)
 8003a3a:	6a3b      	ldr	r3, [r7, #32]
 8003a3c:	2b04      	cmp	r3, #4
 8003a3e:	d009      	beq.n	8003a54 <HAL_DAC_Start_DMA+0xc8>
 8003a40:	2b08      	cmp	r3, #8
 8003a42:	d00c      	beq.n	8003a5e <HAL_DAC_Start_DMA+0xd2>
 8003a44:	2b00      	cmp	r3, #0
 8003a46:	d000      	beq.n	8003a4a <HAL_DAC_Start_DMA+0xbe>
      case DAC_ALIGN_8B_R:
        /* Get DHR8R2 address */
        tmpreg = (uint32_t)&hdac->Instance->DHR8R2;
        break;
      default:
        break;
 8003a48:	e00e      	b.n	8003a68 <HAL_DAC_Start_DMA+0xdc>
        tmpreg = (uint32_t)&hdac->Instance->DHR12R2;
 8003a4a:	68fb      	ldr	r3, [r7, #12]
 8003a4c:	681b      	ldr	r3, [r3, #0]
 8003a4e:	3314      	adds	r3, #20
 8003a50:	613b      	str	r3, [r7, #16]
        break;
 8003a52:	e009      	b.n	8003a68 <HAL_DAC_Start_DMA+0xdc>
        tmpreg = (uint32_t)&hdac->Instance->DHR12L2;
 8003a54:	68fb      	ldr	r3, [r7, #12]
 8003a56:	681b      	ldr	r3, [r3, #0]
 8003a58:	3318      	adds	r3, #24
 8003a5a:	613b      	str	r3, [r7, #16]
        break;
 8003a5c:	e004      	b.n	8003a68 <HAL_DAC_Start_DMA+0xdc>
        tmpreg = (uint32_t)&hdac->Instance->DHR8R2;
 8003a5e:	68fb      	ldr	r3, [r7, #12]
 8003a60:	681b      	ldr	r3, [r3, #0]
 8003a62:	331c      	adds	r3, #28
 8003a64:	613b      	str	r3, [r7, #16]
        break;
 8003a66:	bf00      	nop
    }
  }

  /* Enable the DMA channel */
  if (Channel == DAC_CHANNEL_1)
 8003a68:	68bb      	ldr	r3, [r7, #8]
 8003a6a:	2b00      	cmp	r3, #0
 8003a6c:	d111      	bne.n	8003a92 <HAL_DAC_Start_DMA+0x106>
  {
    /* Enable the DAC DMA underrun interrupt */
    __HAL_DAC_ENABLE_IT(hdac, DAC_IT_DMAUDR1);
 8003a6e:	68fb      	ldr	r3, [r7, #12]
 8003a70:	681b      	ldr	r3, [r3, #0]
 8003a72:	681a      	ldr	r2, [r3, #0]
 8003a74:	68fb      	ldr	r3, [r7, #12]
 8003a76:	681b      	ldr	r3, [r3, #0]
 8003a78:	f442 5200 	orr.w	r2, r2, #8192	; 0x2000
 8003a7c:	601a      	str	r2, [r3, #0]

    /* Enable the DMA channel */
    status = HAL_DMA_Start_IT(hdac->DMA_Handle1, (uint32_t)pData, tmpreg, Length);
 8003a7e:	68fb      	ldr	r3, [r7, #12]
 8003a80:	6898      	ldr	r0, [r3, #8]
 8003a82:	6879      	ldr	r1, [r7, #4]
 8003a84:	683b      	ldr	r3, [r7, #0]
 8003a86:	693a      	ldr	r2, [r7, #16]
 8003a88:	f000 fb66 	bl	8004158 <HAL_DMA_Start_IT>
 8003a8c:	4603      	mov	r3, r0
 8003a8e:	75fb      	strb	r3, [r7, #23]
 8003a90:	e010      	b.n	8003ab4 <HAL_DAC_Start_DMA+0x128>
  }
  else
  {
    /* Enable the DAC DMA underrun interrupt */
    __HAL_DAC_ENABLE_IT(hdac, DAC_IT_DMAUDR2);
 8003a92:	68fb      	ldr	r3, [r7, #12]
 8003a94:	681b      	ldr	r3, [r3, #0]
 8003a96:	681a      	ldr	r2, [r3, #0]
 8003a98:	68fb      	ldr	r3, [r7, #12]
 8003a9a:	681b      	ldr	r3, [r3, #0]
 8003a9c:	f042 5200 	orr.w	r2, r2, #536870912	; 0x20000000
 8003aa0:	601a      	str	r2, [r3, #0]

    /* Enable the DMA channel */
    status = HAL_DMA_Start_IT(hdac->DMA_Handle2, (uint32_t)pData, tmpreg, Length);
 8003aa2:	68fb      	ldr	r3, [r7, #12]
 8003aa4:	68d8      	ldr	r0, [r3, #12]
 8003aa6:	6879      	ldr	r1, [r7, #4]
 8003aa8:	683b      	ldr	r3, [r7, #0]
 8003aaa:	693a      	ldr	r2, [r7, #16]
 8003aac:	f000 fb54 	bl	8004158 <HAL_DMA_Start_IT>
 8003ab0:	4603      	mov	r3, r0
 8003ab2:	75fb      	strb	r3, [r7, #23]
  }

  /* Process Unlocked */
  __HAL_UNLOCK(hdac);
 8003ab4:	68fb      	ldr	r3, [r7, #12]
 8003ab6:	2200      	movs	r2, #0
 8003ab8:	715a      	strb	r2, [r3, #5]

  if (status == HAL_OK)
 8003aba:	7dfb      	ldrb	r3, [r7, #23]
 8003abc:	2b00      	cmp	r3, #0
 8003abe:	d10f      	bne.n	8003ae0 <HAL_DAC_Start_DMA+0x154>
  {
    /* Enable the Peripheral */
    __HAL_DAC_ENABLE(hdac, Channel);
 8003ac0:	68fb      	ldr	r3, [r7, #12]
 8003ac2:	681b      	ldr	r3, [r3, #0]
 8003ac4:	6819      	ldr	r1, [r3, #0]
 8003ac6:	68bb      	ldr	r3, [r7, #8]
 8003ac8:	f003 0310 	and.w	r3, r3, #16
 8003acc:	2201      	movs	r2, #1
 8003ace:	409a      	lsls	r2, r3
 8003ad0:	68fb      	ldr	r3, [r7, #12]
 8003ad2:	681b      	ldr	r3, [r3, #0]
 8003ad4:	430a      	orrs	r2, r1
 8003ad6:	601a      	str	r2, [r3, #0]
    /* Ensure minimum wait before using peripheral after enabling it */
    HAL_Delay(1);
 8003ad8:	2001      	movs	r0, #1
 8003ada:	f7fe fa71 	bl	8001fc0 <HAL_Delay>
 8003ade:	e005      	b.n	8003aec <HAL_DAC_Start_DMA+0x160>
  }
  else
  {
    hdac->ErrorCode |= HAL_DAC_ERROR_DMA;
 8003ae0:	68fb      	ldr	r3, [r7, #12]
 8003ae2:	691b      	ldr	r3, [r3, #16]
 8003ae4:	f043 0204 	orr.w	r2, r3, #4
 8003ae8:	68fb      	ldr	r3, [r7, #12]
 8003aea:	611a      	str	r2, [r3, #16]
  }

  /* Return function status */
  return status;
 8003aec:	7dfb      	ldrb	r3, [r7, #23]
}
 8003aee:	4618      	mov	r0, r3
 8003af0:	3718      	adds	r7, #24
 8003af2:	46bd      	mov	sp, r7
 8003af4:	bd80      	pop	{r7, pc}
 8003af6:	bf00      	nop
 8003af8:	08003ef5 	.word	0x08003ef5
 8003afc:	08003f17 	.word	0x08003f17
 8003b00:	08003f33 	.word	0x08003f33
 8003b04:	08003f9d 	.word	0x08003f9d
 8003b08:	08003fbf 	.word	0x08003fbf
 8003b0c:	08003fdb 	.word	0x08003fdb

08003b10 <HAL_DAC_SetValue>:
  *            @arg DAC_ALIGN_12B_R: 12bit right data alignment selected
  * @param  Data Data to be loaded in the selected data holding register.
  * @retval HAL status
  */
HAL_StatusTypeDef HAL_DAC_SetValue(DAC_HandleTypeDef *hdac, uint32_t Channel, uint32_t Alignment, uint32_t Data)
{
 8003b10:	b480      	push	{r7}
 8003b12:	b087      	sub	sp, #28
 8003b14:	af00      	add	r7, sp, #0
 8003b16:	60f8      	str	r0, [r7, #12]
 8003b18:	60b9      	str	r1, [r7, #8]
 8003b1a:	607a      	str	r2, [r7, #4]
 8003b1c:	603b      	str	r3, [r7, #0]
  __IO uint32_t tmp = 0;
 8003b1e:	2300      	movs	r3, #0
 8003b20:	617b      	str	r3, [r7, #20]

  /* Check the parameters */
  assert_param(IS_DAC_CHANNEL(hdac->Instance, Channel));
  assert_param(IS_DAC_ALIGN(Alignment));
  /* In case DMA Double data mode is activated, DATA range is almost full uin32_t one: no check */
  if ((hdac->Instance->MCR & (DAC_MCR_DMADOUBLE1 << (Channel & 0x10UL))) == 0UL)
 8003b22:	68fb      	ldr	r3, [r7, #12]
 8003b24:	681b      	ldr	r3, [r3, #0]
 8003b26:	6bdb      	ldr	r3, [r3, #60]	; 0x3c
  {
    assert_param(IS_DAC_DATA(Data));
  }

  tmp = (uint32_t)hdac->Instance;
 8003b28:	68fb      	ldr	r3, [r7, #12]
 8003b2a:	681b      	ldr	r3, [r3, #0]
 8003b2c:	617b      	str	r3, [r7, #20]
  if (Channel == DAC_CHANNEL_1)
 8003b2e:	68bb      	ldr	r3, [r7, #8]
 8003b30:	2b00      	cmp	r3, #0
 8003b32:	d105      	bne.n	8003b40 <HAL_DAC_SetValue+0x30>
  {
    tmp += DAC_DHR12R1_ALIGNMENT(Alignment);
 8003b34:	697a      	ldr	r2, [r7, #20]
 8003b36:	687b      	ldr	r3, [r7, #4]
 8003b38:	4413      	add	r3, r2
 8003b3a:	3308      	adds	r3, #8
 8003b3c:	617b      	str	r3, [r7, #20]
 8003b3e:	e004      	b.n	8003b4a <HAL_DAC_SetValue+0x3a>
  }
  else
  {
    tmp += DAC_DHR12R2_ALIGNMENT(Alignment);
 8003b40:	697a      	ldr	r2, [r7, #20]
 8003b42:	687b      	ldr	r3, [r7, #4]
 8003b44:	4413      	add	r3, r2
 8003b46:	3314      	adds	r3, #20
 8003b48:	617b      	str	r3, [r7, #20]
  }

  /* Set the DAC channel selected data holding register */
  *(__IO uint32_t *) tmp = Data;
 8003b4a:	697b      	ldr	r3, [r7, #20]
 8003b4c:	461a      	mov	r2, r3
 8003b4e:	683b      	ldr	r3, [r7, #0]
 8003b50:	6013      	str	r3, [r2, #0]

  /* Return function status */
  return HAL_OK;
 8003b52:	2300      	movs	r3, #0
}
 8003b54:	4618      	mov	r0, r3
 8003b56:	371c      	adds	r7, #28
 8003b58:	46bd      	mov	sp, r7
 8003b5a:	f85d 7b04 	ldr.w	r7, [sp], #4
 8003b5e:	4770      	bx	lr

08003b60 <HAL_DAC_ConvCpltCallbackCh1>:
  * @param  hdac pointer to a DAC_HandleTypeDef structure that contains
  *         the configuration information for the specified DAC.
  * @retval None
  */
__weak void HAL_DAC_ConvCpltCallbackCh1(DAC_HandleTypeDef *hdac)
{
 8003b60:	b480      	push	{r7}
 8003b62:	b083      	sub	sp, #12
 8003b64:	af00      	add	r7, sp, #0
 8003b66:	6078      	str	r0, [r7, #4]
  UNUSED(hdac);

  /* NOTE : This function should not be modified, when the callback is needed,
            the HAL_DAC_ConvCpltCallbackCh1 could be implemented in the user file
   */
}
 8003b68:	bf00      	nop
 8003b6a:	370c      	adds	r7, #12
 8003b6c:	46bd      	mov	sp, r7
 8003b6e:	f85d 7b04 	ldr.w	r7, [sp], #4
 8003b72:	4770      	bx	lr

08003b74 <HAL_DAC_ConvHalfCpltCallbackCh1>:
  * @param  hdac pointer to a DAC_HandleTypeDef structure that contains
  *         the configuration information for the specified DAC.
  * @retval None
  */
__weak void HAL_DAC_ConvHalfCpltCallbackCh1(DAC_HandleTypeDef *hdac)
{
 8003b74:	b480      	push	{r7}
 8003b76:	b083      	sub	sp, #12
 8003b78:	af00      	add	r7, sp, #0
 8003b7a:	6078      	str	r0, [r7, #4]
  UNUSED(hdac);

  /* NOTE : This function should not be modified, when the callback is needed,
            the HAL_DAC_ConvHalfCpltCallbackCh1 could be implemented in the user file
   */
}
 8003b7c:	bf00      	nop
 8003b7e:	370c      	adds	r7, #12
 8003b80:	46bd      	mov	sp, r7
 8003b82:	f85d 7b04 	ldr.w	r7, [sp], #4
 8003b86:	4770      	bx	lr

08003b88 <HAL_DAC_ErrorCallbackCh1>:
  * @param  hdac pointer to a DAC_HandleTypeDef structure that contains
  *         the configuration information for the specified DAC.
  * @retval None
  */
__weak void HAL_DAC_ErrorCallbackCh1(DAC_HandleTypeDef *hdac)
{
 8003b88:	b480      	push	{r7}
 8003b8a:	b083      	sub	sp, #12
 8003b8c:	af00      	add	r7, sp, #0
 8003b8e:	6078      	str	r0, [r7, #4]
  UNUSED(hdac);

  /* NOTE : This function should not be modified, when the callback is needed,
            the HAL_DAC_ErrorCallbackCh1 could be implemented in the user file
   */
}
 8003b90:	bf00      	nop
 8003b92:	370c      	adds	r7, #12
 8003b94:	46bd      	mov	sp, r7
 8003b96:	f85d 7b04 	ldr.w	r7, [sp], #4
 8003b9a:	4770      	bx	lr

08003b9c <HAL_DAC_ConfigChannel>:
  *         (1) On this STM32 serie, parameter not available on all instances.
  *             Refer to device datasheet for channels availability.
  * @retval HAL status
  */
HAL_StatusTypeDef HAL_DAC_ConfigChannel(DAC_HandleTypeDef *hdac, DAC_ChannelConfTypeDef *sConfig, uint32_t Channel)
{
 8003b9c:	b580      	push	{r7, lr}
 8003b9e:	b08a      	sub	sp, #40	; 0x28
 8003ba0:	af00      	add	r7, sp, #0
 8003ba2:	60f8      	str	r0, [r7, #12]
 8003ba4:	60b9      	str	r1, [r7, #8]
 8003ba6:	607a      	str	r2, [r7, #4]
  uint32_t tmpreg1;
  uint32_t tmpreg2;
  uint32_t tickstart = 0U;
 8003ba8:	2300      	movs	r3, #0
 8003baa:	61fb      	str	r3, [r7, #28]
  assert_param(IS_DAC_CHANNEL(hdac->Instance, Channel));
  assert_param(IS_FUNCTIONAL_STATE(sConfig->DAC_DMADoubleDataMode));
  assert_param(IS_FUNCTIONAL_STATE(sConfig->DAC_SignedFormat));

  /* Process locked */
  __HAL_LOCK(hdac);
 8003bac:	68fb      	ldr	r3, [r7, #12]
 8003bae:	795b      	ldrb	r3, [r3, #5]
 8003bb0:	2b01      	cmp	r3, #1
 8003bb2:	d101      	bne.n	8003bb8 <HAL_DAC_ConfigChannel+0x1c>
 8003bb4:	2302      	movs	r3, #2
 8003bb6:	e194      	b.n	8003ee2 <HAL_DAC_ConfigChannel+0x346>
 8003bb8:	68fb      	ldr	r3, [r7, #12]
 8003bba:	2201      	movs	r2, #1
 8003bbc:	715a      	strb	r2, [r3, #5]

  /* Change DAC state */
  hdac->State = HAL_DAC_STATE_BUSY;
 8003bbe:	68fb      	ldr	r3, [r7, #12]
 8003bc0:	2202      	movs	r2, #2
 8003bc2:	711a      	strb	r2, [r3, #4]

  if (sConfig->DAC_SampleAndHold == DAC_SAMPLEANDHOLD_ENABLE)
 8003bc4:	68bb      	ldr	r3, [r7, #8]
 8003bc6:	689b      	ldr	r3, [r3, #8]
 8003bc8:	2b04      	cmp	r3, #4
 8003bca:	d174      	bne.n	8003cb6 <HAL_DAC_ConfigChannel+0x11a>
    /* Sample on old configuration */
  {
    /* SampleTime */
    if (Channel == DAC_CHANNEL_1)
 8003bcc:	687b      	ldr	r3, [r7, #4]
 8003bce:	2b00      	cmp	r3, #0
 8003bd0:	d137      	bne.n	8003c42 <HAL_DAC_ConfigChannel+0xa6>
    {
      /* Get timeout */
      tickstart = HAL_GetTick();
 8003bd2:	f7fe f9e9 	bl	8001fa8 <HAL_GetTick>
 8003bd6:	61f8      	str	r0, [r7, #28]

      /* SHSR1 can be written when BWST1 is cleared */
      while (((hdac->Instance->SR) & DAC_SR_BWST1) != 0UL)
 8003bd8:	e011      	b.n	8003bfe <HAL_DAC_ConfigChannel+0x62>
      {
        /* Check for the Timeout */
        if ((HAL_GetTick() - tickstart) > TIMEOUT_DAC_CALIBCONFIG)
 8003bda:	f7fe f9e5 	bl	8001fa8 <HAL_GetTick>
 8003bde:	4602      	mov	r2, r0
 8003be0:	69fb      	ldr	r3, [r7, #28]
 8003be2:	1ad3      	subs	r3, r2, r3
 8003be4:	2b01      	cmp	r3, #1
 8003be6:	d90a      	bls.n	8003bfe <HAL_DAC_ConfigChannel+0x62>
        {
          /* Update error code */
          SET_BIT(hdac->ErrorCode, HAL_DAC_ERROR_TIMEOUT);
 8003be8:	68fb      	ldr	r3, [r7, #12]
 8003bea:	691b      	ldr	r3, [r3, #16]
 8003bec:	f043 0208 	orr.w	r2, r3, #8
 8003bf0:	68fb      	ldr	r3, [r7, #12]
 8003bf2:	611a      	str	r2, [r3, #16]

          /* Change the DMA state */
          hdac->State = HAL_DAC_STATE_TIMEOUT;
 8003bf4:	68fb      	ldr	r3, [r7, #12]
 8003bf6:	2203      	movs	r2, #3
 8003bf8:	711a      	strb	r2, [r3, #4]

          return HAL_TIMEOUT;
 8003bfa:	2303      	movs	r3, #3
 8003bfc:	e171      	b.n	8003ee2 <HAL_DAC_ConfigChannel+0x346>
      while (((hdac->Instance->SR) & DAC_SR_BWST1) != 0UL)
 8003bfe:	68fb      	ldr	r3, [r7, #12]
 8003c00:	681b      	ldr	r3, [r3, #0]
 8003c02:	6b5b      	ldr	r3, [r3, #52]	; 0x34
 8003c04:	f403 4300 	and.w	r3, r3, #32768	; 0x8000
 8003c08:	2b00      	cmp	r3, #0
 8003c0a:	d1e6      	bne.n	8003bda <HAL_DAC_ConfigChannel+0x3e>
        }
      }
      HAL_Delay(1);
 8003c0c:	2001      	movs	r0, #1
 8003c0e:	f7fe f9d7 	bl	8001fc0 <HAL_Delay>
      hdac->Instance->SHSR1 = sConfig->DAC_SampleAndHoldConfig.DAC_SampleTime;
 8003c12:	68fb      	ldr	r3, [r7, #12]
 8003c14:	681b      	ldr	r3, [r3, #0]
 8003c16:	68ba      	ldr	r2, [r7, #8]
 8003c18:	6a52      	ldr	r2, [r2, #36]	; 0x24
 8003c1a:	641a      	str	r2, [r3, #64]	; 0x40
 8003c1c:	e01e      	b.n	8003c5c <HAL_DAC_ConfigChannel+0xc0>
      /* SHSR2 can be written when BWST2 is cleared */

      while (((hdac->Instance->SR) & DAC_SR_BWST2) != 0UL)
      {
        /* Check for the Timeout */
        if ((HAL_GetTick() - tickstart) > TIMEOUT_DAC_CALIBCONFIG)
 8003c1e:	f7fe f9c3 	bl	8001fa8 <HAL_GetTick>
 8003c22:	4602      	mov	r2, r0
 8003c24:	69fb      	ldr	r3, [r7, #28]
 8003c26:	1ad3      	subs	r3, r2, r3
 8003c28:	2b01      	cmp	r3, #1
 8003c2a:	d90a      	bls.n	8003c42 <HAL_DAC_ConfigChannel+0xa6>
        {
          /* Update error code */
          SET_BIT(hdac->ErrorCode, HAL_DAC_ERROR_TIMEOUT);
 8003c2c:	68fb      	ldr	r3, [r7, #12]
 8003c2e:	691b      	ldr	r3, [r3, #16]
 8003c30:	f043 0208 	orr.w	r2, r3, #8
 8003c34:	68fb      	ldr	r3, [r7, #12]
 8003c36:	611a      	str	r2, [r3, #16]

          /* Change the DMA state */
          hdac->State = HAL_DAC_STATE_TIMEOUT;
 8003c38:	68fb      	ldr	r3, [r7, #12]
 8003c3a:	2203      	movs	r2, #3
 8003c3c:	711a      	strb	r2, [r3, #4]

          return HAL_TIMEOUT;
 8003c3e:	2303      	movs	r3, #3
 8003c40:	e14f      	b.n	8003ee2 <HAL_DAC_ConfigChannel+0x346>
      while (((hdac->Instance->SR) & DAC_SR_BWST2) != 0UL)
 8003c42:	68fb      	ldr	r3, [r7, #12]
 8003c44:	681b      	ldr	r3, [r3, #0]
 8003c46:	6b5b      	ldr	r3, [r3, #52]	; 0x34
 8003c48:	2b00      	cmp	r3, #0
 8003c4a:	dbe8      	blt.n	8003c1e <HAL_DAC_ConfigChannel+0x82>
        }
      }
      HAL_Delay(1U);
 8003c4c:	2001      	movs	r0, #1
 8003c4e:	f7fe f9b7 	bl	8001fc0 <HAL_Delay>
      hdac->Instance->SHSR2 = sConfig->DAC_SampleAndHoldConfig.DAC_SampleTime;
 8003c52:	68fb      	ldr	r3, [r7, #12]
 8003c54:	681b      	ldr	r3, [r3, #0]
 8003c56:	68ba      	ldr	r2, [r7, #8]
 8003c58:	6a52      	ldr	r2, [r2, #36]	; 0x24
 8003c5a:	645a      	str	r2, [r3, #68]	; 0x44
    }

    /* HoldTime */
    MODIFY_REG(hdac->Instance->SHHR, DAC_SHHR_THOLD1 << (Channel & 0x10UL), (sConfig->DAC_SampleAndHoldConfig.DAC_HoldTime) << (Channel & 0x10UL));
 8003c5c:	68fb      	ldr	r3, [r7, #12]
 8003c5e:	681b      	ldr	r3, [r3, #0]
 8003c60:	6c9a      	ldr	r2, [r3, #72]	; 0x48
 8003c62:	687b      	ldr	r3, [r7, #4]
 8003c64:	f003 0310 	and.w	r3, r3, #16
 8003c68:	f240 31ff 	movw	r1, #1023	; 0x3ff
 8003c6c:	fa01 f303 	lsl.w	r3, r1, r3
 8003c70:	43db      	mvns	r3, r3
 8003c72:	ea02 0103 	and.w	r1, r2, r3
 8003c76:	68bb      	ldr	r3, [r7, #8]
 8003c78:	6a9a      	ldr	r2, [r3, #40]	; 0x28
 8003c7a:	687b      	ldr	r3, [r7, #4]
 8003c7c:	f003 0310 	and.w	r3, r3, #16
 8003c80:	409a      	lsls	r2, r3
 8003c82:	68fb      	ldr	r3, [r7, #12]
 8003c84:	681b      	ldr	r3, [r3, #0]
 8003c86:	430a      	orrs	r2, r1
 8003c88:	649a      	str	r2, [r3, #72]	; 0x48
    /* RefreshTime */
    MODIFY_REG(hdac->Instance->SHRR, DAC_SHRR_TREFRESH1 << (Channel & 0x10UL), (sConfig->DAC_SampleAndHoldConfig.DAC_RefreshTime) << (Channel & 0x10UL));
 8003c8a:	68fb      	ldr	r3, [r7, #12]
 8003c8c:	681b      	ldr	r3, [r3, #0]
 8003c8e:	6cda      	ldr	r2, [r3, #76]	; 0x4c
 8003c90:	687b      	ldr	r3, [r7, #4]
 8003c92:	f003 0310 	and.w	r3, r3, #16
 8003c96:	21ff      	movs	r1, #255	; 0xff
 8003c98:	fa01 f303 	lsl.w	r3, r1, r3
 8003c9c:	43db      	mvns	r3, r3
 8003c9e:	ea02 0103 	and.w	r1, r2, r3
 8003ca2:	68bb      	ldr	r3, [r7, #8]
 8003ca4:	6ada      	ldr	r2, [r3, #44]	; 0x2c
 8003ca6:	687b      	ldr	r3, [r7, #4]
 8003ca8:	f003 0310 	and.w	r3, r3, #16
 8003cac:	409a      	lsls	r2, r3
 8003cae:	68fb      	ldr	r3, [r7, #12]
 8003cb0:	681b      	ldr	r3, [r3, #0]
 8003cb2:	430a      	orrs	r2, r1
 8003cb4:	64da      	str	r2, [r3, #76]	; 0x4c
  }

  if (sConfig->DAC_UserTrimming == DAC_TRIMMING_USER)
 8003cb6:	68bb      	ldr	r3, [r7, #8]
 8003cb8:	69db      	ldr	r3, [r3, #28]
 8003cba:	2b01      	cmp	r3, #1
 8003cbc:	d11d      	bne.n	8003cfa <HAL_DAC_ConfigChannel+0x15e>
    /* USER TRIMMING */
  {
    /* Get the DAC CCR value */
    tmpreg1 = hdac->Instance->CCR;
 8003cbe:	68fb      	ldr	r3, [r7, #12]
 8003cc0:	681b      	ldr	r3, [r3, #0]
 8003cc2:	6b9b      	ldr	r3, [r3, #56]	; 0x38
 8003cc4:	627b      	str	r3, [r7, #36]	; 0x24
    /* Clear trimming value */
    tmpreg1 &= ~(((uint32_t)(DAC_CCR_OTRIM1)) << (Channel & 0x10UL));
 8003cc6:	687b      	ldr	r3, [r7, #4]
 8003cc8:	f003 0310 	and.w	r3, r3, #16
 8003ccc:	221f      	movs	r2, #31
 8003cce:	fa02 f303 	lsl.w	r3, r2, r3
 8003cd2:	43db      	mvns	r3, r3
 8003cd4:	6a7a      	ldr	r2, [r7, #36]	; 0x24
 8003cd6:	4013      	ands	r3, r2
 8003cd8:	627b      	str	r3, [r7, #36]	; 0x24
    /* Configure for the selected trimming offset */
    tmpreg2 = sConfig->DAC_TrimmingValue;
 8003cda:	68bb      	ldr	r3, [r7, #8]
 8003cdc:	6a1b      	ldr	r3, [r3, #32]
 8003cde:	61bb      	str	r3, [r7, #24]
    /* Calculate CCR register value depending on DAC_Channel */
    tmpreg1 |= tmpreg2 << (Channel & 0x10UL);
 8003ce0:	687b      	ldr	r3, [r7, #4]
 8003ce2:	f003 0310 	and.w	r3, r3, #16
 8003ce6:	69ba      	ldr	r2, [r7, #24]
 8003ce8:	fa02 f303 	lsl.w	r3, r2, r3
 8003cec:	6a7a      	ldr	r2, [r7, #36]	; 0x24
 8003cee:	4313      	orrs	r3, r2
 8003cf0:	627b      	str	r3, [r7, #36]	; 0x24
    /* Write to DAC CCR */
    hdac->Instance->CCR = tmpreg1;
 8003cf2:	68fb      	ldr	r3, [r7, #12]
 8003cf4:	681b      	ldr	r3, [r3, #0]
 8003cf6:	6a7a      	ldr	r2, [r7, #36]	; 0x24
 8003cf8:	639a      	str	r2, [r3, #56]	; 0x38
  }
  /* else factory trimming is used (factory setting are available at reset)*/
  /* SW Nothing has nothing to do */

  /* Get the DAC MCR value */
  tmpreg1 = hdac->Instance->MCR;
 8003cfa:	68fb      	ldr	r3, [r7, #12]
 8003cfc:	681b      	ldr	r3, [r3, #0]
 8003cfe:	6bdb      	ldr	r3, [r3, #60]	; 0x3c
 8003d00:	627b      	str	r3, [r7, #36]	; 0x24
  /* Clear DAC_MCR_MODEx bits */
  tmpreg1 &= ~(((uint32_t)(DAC_MCR_MODE1)) << (Channel & 0x10UL));
 8003d02:	687b      	ldr	r3, [r7, #4]
 8003d04:	f003 0310 	and.w	r3, r3, #16
 8003d08:	2207      	movs	r2, #7
 8003d0a:	fa02 f303 	lsl.w	r3, r2, r3
 8003d0e:	43db      	mvns	r3, r3
 8003d10:	6a7a      	ldr	r2, [r7, #36]	; 0x24
 8003d12:	4013      	ands	r3, r2
 8003d14:	627b      	str	r3, [r7, #36]	; 0x24
  /* Configure for the selected DAC channel: mode, buffer output & on chip peripheral connect */
  if ((sConfig->DAC_ConnectOnChipPeripheral & DAC_CHIPCONNECT_EXTERNAL) == DAC_CHIPCONNECT_EXTERNAL)
 8003d16:	68bb      	ldr	r3, [r7, #8]
 8003d18:	699b      	ldr	r3, [r3, #24]
 8003d1a:	f003 0301 	and.w	r3, r3, #1
 8003d1e:	2b00      	cmp	r3, #0
 8003d20:	d002      	beq.n	8003d28 <HAL_DAC_ConfigChannel+0x18c>
  {
    connectOnChip = 0x00000000UL;
 8003d22:	2300      	movs	r3, #0
 8003d24:	623b      	str	r3, [r7, #32]
 8003d26:	e011      	b.n	8003d4c <HAL_DAC_ConfigChannel+0x1b0>
  }
  else if ((sConfig->DAC_ConnectOnChipPeripheral & DAC_CHIPCONNECT_INTERNAL) == DAC_CHIPCONNECT_INTERNAL)
 8003d28:	68bb      	ldr	r3, [r7, #8]
 8003d2a:	699b      	ldr	r3, [r3, #24]
 8003d2c:	f003 0302 	and.w	r3, r3, #2
 8003d30:	2b00      	cmp	r3, #0
 8003d32:	d002      	beq.n	8003d3a <HAL_DAC_ConfigChannel+0x19e>
  {
    connectOnChip = DAC_MCR_MODE1_0;
 8003d34:	2301      	movs	r3, #1
 8003d36:	623b      	str	r3, [r7, #32]
 8003d38:	e008      	b.n	8003d4c <HAL_DAC_ConfigChannel+0x1b0>
  }
  else /* (sConfig->DAC_ConnectOnChipPeripheral & DAC_CHIPCONNECT_BOTH) == DAC_CHIPCONNECT_BOTH */
  {
    if (sConfig->DAC_OutputBuffer == DAC_OUTPUTBUFFER_ENABLE)
 8003d3a:	68bb      	ldr	r3, [r7, #8]
 8003d3c:	695b      	ldr	r3, [r3, #20]
 8003d3e:	2b00      	cmp	r3, #0
 8003d40:	d102      	bne.n	8003d48 <HAL_DAC_ConfigChannel+0x1ac>
    {
      connectOnChip = DAC_MCR_MODE1_0;
 8003d42:	2301      	movs	r3, #1
 8003d44:	623b      	str	r3, [r7, #32]
 8003d46:	e001      	b.n	8003d4c <HAL_DAC_ConfigChannel+0x1b0>
    }
    else
    {
      connectOnChip = 0x00000000UL;
 8003d48:	2300      	movs	r3, #0
 8003d4a:	623b      	str	r3, [r7, #32]
    }
  }
  tmpreg2 = (sConfig->DAC_SampleAndHold | sConfig->DAC_OutputBuffer | connectOnChip);
 8003d4c:	68bb      	ldr	r3, [r7, #8]
 8003d4e:	689a      	ldr	r2, [r3, #8]
 8003d50:	68bb      	ldr	r3, [r7, #8]
 8003d52:	695b      	ldr	r3, [r3, #20]
 8003d54:	4313      	orrs	r3, r2
 8003d56:	6a3a      	ldr	r2, [r7, #32]
 8003d58:	4313      	orrs	r3, r2
 8003d5a:	61bb      	str	r3, [r7, #24]
  /* Clear DAC_MCR_DMADOUBLEx */
  tmpreg1 &= ~(((uint32_t)(DAC_MCR_DMADOUBLE1)) << (Channel & 0x10UL));
 8003d5c:	687b      	ldr	r3, [r7, #4]
 8003d5e:	f003 0310 	and.w	r3, r3, #16
 8003d62:	f44f 7280 	mov.w	r2, #256	; 0x100
 8003d66:	fa02 f303 	lsl.w	r3, r2, r3
 8003d6a:	43db      	mvns	r3, r3
 8003d6c:	6a7a      	ldr	r2, [r7, #36]	; 0x24
 8003d6e:	4013      	ands	r3, r2
 8003d70:	627b      	str	r3, [r7, #36]	; 0x24
  /* Configure for the selected DAC channel: DMA double data mode */
  tmpreg2 |= (sConfig->DAC_DMADoubleDataMode == ENABLE) ? DAC_MCR_DMADOUBLE1 : 0UL;
 8003d72:	68bb      	ldr	r3, [r7, #8]
 8003d74:	791b      	ldrb	r3, [r3, #4]
 8003d76:	2b01      	cmp	r3, #1
 8003d78:	d102      	bne.n	8003d80 <HAL_DAC_ConfigChannel+0x1e4>
 8003d7a:	f44f 7380 	mov.w	r3, #256	; 0x100
 8003d7e:	e000      	b.n	8003d82 <HAL_DAC_ConfigChannel+0x1e6>
 8003d80:	2300      	movs	r3, #0
 8003d82:	69ba      	ldr	r2, [r7, #24]
 8003d84:	4313      	orrs	r3, r2
 8003d86:	61bb      	str	r3, [r7, #24]
  /* Clear DAC_MCR_SINFORMATx */
  tmpreg1 &= ~(((uint32_t)(DAC_MCR_SINFORMAT1)) << (Channel & 0x10UL));
 8003d88:	687b      	ldr	r3, [r7, #4]
 8003d8a:	f003 0310 	and.w	r3, r3, #16
 8003d8e:	f44f 7200 	mov.w	r2, #512	; 0x200
 8003d92:	fa02 f303 	lsl.w	r3, r2, r3
 8003d96:	43db      	mvns	r3, r3
 8003d98:	6a7a      	ldr	r2, [r7, #36]	; 0x24
 8003d9a:	4013      	ands	r3, r2
 8003d9c:	627b      	str	r3, [r7, #36]	; 0x24
  /* Configure for the selected DAC channel: Signed format */
  tmpreg2 |= (sConfig->DAC_SignedFormat == ENABLE) ? DAC_MCR_SINFORMAT1 : 0UL;
 8003d9e:	68bb      	ldr	r3, [r7, #8]
 8003da0:	795b      	ldrb	r3, [r3, #5]
 8003da2:	2b01      	cmp	r3, #1
 8003da4:	d102      	bne.n	8003dac <HAL_DAC_ConfigChannel+0x210>
 8003da6:	f44f 7300 	mov.w	r3, #512	; 0x200
 8003daa:	e000      	b.n	8003dae <HAL_DAC_ConfigChannel+0x212>
 8003dac:	2300      	movs	r3, #0
 8003dae:	69ba      	ldr	r2, [r7, #24]
 8003db0:	4313      	orrs	r3, r2
 8003db2:	61bb      	str	r3, [r7, #24]
  /* Clear DAC_MCR_HFSEL bits */
  tmpreg1 &= ~(DAC_MCR_HFSEL);
 8003db4:	6a7b      	ldr	r3, [r7, #36]	; 0x24
 8003db6:	f423 4340 	bic.w	r3, r3, #49152	; 0xc000
 8003dba:	627b      	str	r3, [r7, #36]	; 0x24
  /* Configure for both DAC channels: high frequency mode */
  if (DAC_HIGH_FREQUENCY_INTERFACE_MODE_AUTOMATIC == sConfig->DAC_HighFrequency)
 8003dbc:	68bb      	ldr	r3, [r7, #8]
 8003dbe:	681b      	ldr	r3, [r3, #0]
 8003dc0:	2b02      	cmp	r3, #2
 8003dc2:	d114      	bne.n	8003dee <HAL_DAC_ConfigChannel+0x252>
  {
    hclkfreq = HAL_RCC_GetHCLKFreq();
 8003dc4:	f001 fa9e 	bl	8005304 <HAL_RCC_GetHCLKFreq>
 8003dc8:	6178      	str	r0, [r7, #20]
    if (hclkfreq > HFSEL_ENABLE_THRESHOLD_160MHZ)
 8003dca:	697b      	ldr	r3, [r7, #20]
 8003dcc:	4a47      	ldr	r2, [pc, #284]	; (8003eec <HAL_DAC_ConfigChannel+0x350>)
 8003dce:	4293      	cmp	r3, r2
 8003dd0:	d904      	bls.n	8003ddc <HAL_DAC_ConfigChannel+0x240>
    {
      tmpreg1 |= DAC_HIGH_FREQUENCY_INTERFACE_MODE_ABOVE_160MHZ;
 8003dd2:	6a7b      	ldr	r3, [r7, #36]	; 0x24
 8003dd4:	f443 4300 	orr.w	r3, r3, #32768	; 0x8000
 8003dd8:	627b      	str	r3, [r7, #36]	; 0x24
 8003dda:	e00d      	b.n	8003df8 <HAL_DAC_ConfigChannel+0x25c>
    }
    else if (hclkfreq > HFSEL_ENABLE_THRESHOLD_80MHZ)
 8003ddc:	697b      	ldr	r3, [r7, #20]
 8003dde:	4a44      	ldr	r2, [pc, #272]	; (8003ef0 <HAL_DAC_ConfigChannel+0x354>)
 8003de0:	4293      	cmp	r3, r2
 8003de2:	d909      	bls.n	8003df8 <HAL_DAC_ConfigChannel+0x25c>
    {
      tmpreg1 |= DAC_HIGH_FREQUENCY_INTERFACE_MODE_ABOVE_80MHZ;
 8003de4:	6a7b      	ldr	r3, [r7, #36]	; 0x24
 8003de6:	f443 4380 	orr.w	r3, r3, #16384	; 0x4000
 8003dea:	627b      	str	r3, [r7, #36]	; 0x24
 8003dec:	e004      	b.n	8003df8 <HAL_DAC_ConfigChannel+0x25c>
      tmpreg1 |= DAC_HIGH_FREQUENCY_INTERFACE_MODE_DISABLE;
    }
  }
  else
  {
    tmpreg1 |= sConfig->DAC_HighFrequency;
 8003dee:	68bb      	ldr	r3, [r7, #8]
 8003df0:	681b      	ldr	r3, [r3, #0]
 8003df2:	6a7a      	ldr	r2, [r7, #36]	; 0x24
 8003df4:	4313      	orrs	r3, r2
 8003df6:	627b      	str	r3, [r7, #36]	; 0x24
  }
  /* Calculate MCR register value depending on DAC_Channel */
  tmpreg1 |= tmpreg2 << (Channel & 0x10UL);
 8003df8:	687b      	ldr	r3, [r7, #4]
 8003dfa:	f003 0310 	and.w	r3, r3, #16
 8003dfe:	69ba      	ldr	r2, [r7, #24]
 8003e00:	fa02 f303 	lsl.w	r3, r2, r3
 8003e04:	6a7a      	ldr	r2, [r7, #36]	; 0x24
 8003e06:	4313      	orrs	r3, r2
 8003e08:	627b      	str	r3, [r7, #36]	; 0x24
  /* Write to DAC MCR */
  hdac->Instance->MCR = tmpreg1;
 8003e0a:	68fb      	ldr	r3, [r7, #12]
 8003e0c:	681b      	ldr	r3, [r3, #0]
 8003e0e:	6a7a      	ldr	r2, [r7, #36]	; 0x24
 8003e10:	63da      	str	r2, [r3, #60]	; 0x3c

  /* DAC in normal operating mode hence clear DAC_CR_CENx bit */
  CLEAR_BIT(hdac->Instance->CR, DAC_CR_CEN1 << (Channel & 0x10UL));
 8003e12:	68fb      	ldr	r3, [r7, #12]
 8003e14:	681b      	ldr	r3, [r3, #0]
 8003e16:	6819      	ldr	r1, [r3, #0]
 8003e18:	687b      	ldr	r3, [r7, #4]
 8003e1a:	f003 0310 	and.w	r3, r3, #16
 8003e1e:	f44f 4280 	mov.w	r2, #16384	; 0x4000
 8003e22:	fa02 f303 	lsl.w	r3, r2, r3
 8003e26:	43da      	mvns	r2, r3
 8003e28:	68fb      	ldr	r3, [r7, #12]
 8003e2a:	681b      	ldr	r3, [r3, #0]
 8003e2c:	400a      	ands	r2, r1
 8003e2e:	601a      	str	r2, [r3, #0]

  /* Get the DAC CR value */
  tmpreg1 = hdac->Instance->CR;
 8003e30:	68fb      	ldr	r3, [r7, #12]
 8003e32:	681b      	ldr	r3, [r3, #0]
 8003e34:	681b      	ldr	r3, [r3, #0]
 8003e36:	627b      	str	r3, [r7, #36]	; 0x24
  /* Clear TENx, TSELx, WAVEx and MAMPx bits */
  tmpreg1 &= ~(((uint32_t)(DAC_CR_MAMP1 | DAC_CR_WAVE1 | DAC_CR_TSEL1 | DAC_CR_TEN1)) << (Channel & 0x10UL));
 8003e38:	687b      	ldr	r3, [r7, #4]
 8003e3a:	f003 0310 	and.w	r3, r3, #16
 8003e3e:	f640 72fe 	movw	r2, #4094	; 0xffe
 8003e42:	fa02 f303 	lsl.w	r3, r2, r3
 8003e46:	43db      	mvns	r3, r3
 8003e48:	6a7a      	ldr	r2, [r7, #36]	; 0x24
 8003e4a:	4013      	ands	r3, r2
 8003e4c:	627b      	str	r3, [r7, #36]	; 0x24
  /* Configure for the selected DAC channel: trigger */
  /* Set TSELx and TENx bits according to DAC_Trigger value */
  tmpreg2 = sConfig->DAC_Trigger;
 8003e4e:	68bb      	ldr	r3, [r7, #8]
 8003e50:	68db      	ldr	r3, [r3, #12]
 8003e52:	61bb      	str	r3, [r7, #24]
  /* Calculate CR register value depending on DAC_Channel */
  tmpreg1 |= tmpreg2 << (Channel & 0x10UL);
 8003e54:	687b      	ldr	r3, [r7, #4]
 8003e56:	f003 0310 	and.w	r3, r3, #16
 8003e5a:	69ba      	ldr	r2, [r7, #24]
 8003e5c:	fa02 f303 	lsl.w	r3, r2, r3
 8003e60:	6a7a      	ldr	r2, [r7, #36]	; 0x24
 8003e62:	4313      	orrs	r3, r2
 8003e64:	627b      	str	r3, [r7, #36]	; 0x24
  /* Write to DAC CR */
  hdac->Instance->CR = tmpreg1;
 8003e66:	68fb      	ldr	r3, [r7, #12]
 8003e68:	681b      	ldr	r3, [r3, #0]
 8003e6a:	6a7a      	ldr	r2, [r7, #36]	; 0x24
 8003e6c:	601a      	str	r2, [r3, #0]
  /* Disable wave generation */
  hdac->Instance->CR &= ~(DAC_CR_WAVE1 << (Channel & 0x10UL));
 8003e6e:	68fb      	ldr	r3, [r7, #12]
 8003e70:	681b      	ldr	r3, [r3, #0]
 8003e72:	6819      	ldr	r1, [r3, #0]
 8003e74:	687b      	ldr	r3, [r7, #4]
 8003e76:	f003 0310 	and.w	r3, r3, #16
 8003e7a:	22c0      	movs	r2, #192	; 0xc0
 8003e7c:	fa02 f303 	lsl.w	r3, r2, r3
 8003e80:	43da      	mvns	r2, r3
 8003e82:	68fb      	ldr	r3, [r7, #12]
 8003e84:	681b      	ldr	r3, [r3, #0]
 8003e86:	400a      	ands	r2, r1
 8003e88:	601a      	str	r2, [r3, #0]

  /* Set STRSTTRIGSELx and STINCTRIGSELx bits according to DAC_Trigger & DAC_Trigger2 values */
  tmpreg2 = ((sConfig->DAC_Trigger & DAC_CR_TSEL1) >> DAC_CR_TSEL1_Pos) << DAC_STMODR_STRSTTRIGSEL1_Pos;
 8003e8a:	68bb      	ldr	r3, [r7, #8]
 8003e8c:	68db      	ldr	r3, [r3, #12]
 8003e8e:	089b      	lsrs	r3, r3, #2
 8003e90:	f003 030f 	and.w	r3, r3, #15
 8003e94:	61bb      	str	r3, [r7, #24]
  tmpreg2 |= ((sConfig->DAC_Trigger2 & DAC_CR_TSEL1) >> DAC_CR_TSEL1_Pos) << DAC_STMODR_STINCTRIGSEL1_Pos;
 8003e96:	68bb      	ldr	r3, [r7, #8]
 8003e98:	691b      	ldr	r3, [r3, #16]
 8003e9a:	089b      	lsrs	r3, r3, #2
 8003e9c:	021b      	lsls	r3, r3, #8
 8003e9e:	f403 6370 	and.w	r3, r3, #3840	; 0xf00
 8003ea2:	69ba      	ldr	r2, [r7, #24]
 8003ea4:	4313      	orrs	r3, r2
 8003ea6:	61bb      	str	r3, [r7, #24]
  /* Modify STMODR register value depending on DAC_Channel */
  MODIFY_REG(hdac->Instance->STMODR, (DAC_STMODR_STINCTRIGSEL1 | DAC_STMODR_STRSTTRIGSEL1) << (Channel & 0x10UL), tmpreg2 << (Channel & 0x10UL));
 8003ea8:	68fb      	ldr	r3, [r7, #12]
 8003eaa:	681b      	ldr	r3, [r3, #0]
 8003eac:	6e1a      	ldr	r2, [r3, #96]	; 0x60
 8003eae:	687b      	ldr	r3, [r7, #4]
 8003eb0:	f003 0310 	and.w	r3, r3, #16
 8003eb4:	f640 710f 	movw	r1, #3855	; 0xf0f
 8003eb8:	fa01 f303 	lsl.w	r3, r1, r3
 8003ebc:	43db      	mvns	r3, r3
 8003ebe:	ea02 0103 	and.w	r1, r2, r3
 8003ec2:	687b      	ldr	r3, [r7, #4]
 8003ec4:	f003 0310 	and.w	r3, r3, #16
 8003ec8:	69ba      	ldr	r2, [r7, #24]
 8003eca:	409a      	lsls	r2, r3
 8003ecc:	68fb      	ldr	r3, [r7, #12]
 8003ece:	681b      	ldr	r3, [r3, #0]
 8003ed0:	430a      	orrs	r2, r1
 8003ed2:	661a      	str	r2, [r3, #96]	; 0x60
  /* Change DAC state */
  hdac->State = HAL_DAC_STATE_READY;
 8003ed4:	68fb      	ldr	r3, [r7, #12]
 8003ed6:	2201      	movs	r2, #1
 8003ed8:	711a      	strb	r2, [r3, #4]

  /* Process unlocked */
  __HAL_UNLOCK(hdac);
 8003eda:	68fb      	ldr	r3, [r7, #12]
 8003edc:	2200      	movs	r2, #0
 8003ede:	715a      	strb	r2, [r3, #5]

  /* Return function status */
  return HAL_OK;
 8003ee0:	2300      	movs	r3, #0
}
 8003ee2:	4618      	mov	r0, r3
 8003ee4:	3728      	adds	r7, #40	; 0x28
 8003ee6:	46bd      	mov	sp, r7
 8003ee8:	bd80      	pop	{r7, pc}
 8003eea:	bf00      	nop
 8003eec:	09896800 	.word	0x09896800
 8003ef0:	04c4b400 	.word	0x04c4b400

08003ef4 <DAC_DMAConvCpltCh1>:
  * @param  hdma pointer to a DMA_HandleTypeDef structure that contains
  *                the configuration information for the specified DMA module.
  * @retval None
  */
void DAC_DMAConvCpltCh1(DMA_HandleTypeDef *hdma)
{
 8003ef4:	b580      	push	{r7, lr}
 8003ef6:	b084      	sub	sp, #16
 8003ef8:	af00      	add	r7, sp, #0
 8003efa:	6078      	str	r0, [r7, #4]
  DAC_HandleTypeDef *hdac = (DAC_HandleTypeDef *)((DMA_HandleTypeDef *)hdma)->Parent;
 8003efc:	687b      	ldr	r3, [r7, #4]
 8003efe:	6a9b      	ldr	r3, [r3, #40]	; 0x28
 8003f00:	60fb      	str	r3, [r7, #12]

#if (USE_HAL_DAC_REGISTER_CALLBACKS == 1)
  hdac->ConvCpltCallbackCh1(hdac);
#else
  HAL_DAC_ConvCpltCallbackCh1(hdac);
 8003f02:	68f8      	ldr	r0, [r7, #12]
 8003f04:	f7ff fe2c 	bl	8003b60 <HAL_DAC_ConvCpltCallbackCh1>
#endif /* USE_HAL_DAC_REGISTER_CALLBACKS */

  hdac->State = HAL_DAC_STATE_READY;
 8003f08:	68fb      	ldr	r3, [r7, #12]
 8003f0a:	2201      	movs	r2, #1
 8003f0c:	711a      	strb	r2, [r3, #4]
}
 8003f0e:	bf00      	nop
 8003f10:	3710      	adds	r7, #16
 8003f12:	46bd      	mov	sp, r7
 8003f14:	bd80      	pop	{r7, pc}

08003f16 <DAC_DMAHalfConvCpltCh1>:
  * @param  hdma pointer to a DMA_HandleTypeDef structure that contains
  *                the configuration information for the specified DMA module.
  * @retval None
  */
void DAC_DMAHalfConvCpltCh1(DMA_HandleTypeDef *hdma)
{
 8003f16:	b580      	push	{r7, lr}
 8003f18:	b084      	sub	sp, #16
 8003f1a:	af00      	add	r7, sp, #0
 8003f1c:	6078      	str	r0, [r7, #4]
  DAC_HandleTypeDef *hdac = (DAC_HandleTypeDef *)((DMA_HandleTypeDef *)hdma)->Parent;
 8003f1e:	687b      	ldr	r3, [r7, #4]
 8003f20:	6a9b      	ldr	r3, [r3, #40]	; 0x28
 8003f22:	60fb      	str	r3, [r7, #12]
  /* Conversion complete callback */
#if (USE_HAL_DAC_REGISTER_CALLBACKS == 1)
  hdac->ConvHalfCpltCallbackCh1(hdac);
#else
  HAL_DAC_ConvHalfCpltCallbackCh1(hdac);
 8003f24:	68f8      	ldr	r0, [r7, #12]
 8003f26:	f7ff fe25 	bl	8003b74 <HAL_DAC_ConvHalfCpltCallbackCh1>
#endif  /* USE_HAL_DAC_REGISTER_CALLBACKS */
}
 8003f2a:	bf00      	nop
 8003f2c:	3710      	adds	r7, #16
 8003f2e:	46bd      	mov	sp, r7
 8003f30:	bd80      	pop	{r7, pc}

08003f32 <DAC_DMAErrorCh1>:
  * @param  hdma pointer to a DMA_HandleTypeDef structure that contains
  *                the configuration information for the specified DMA module.
  * @retval None
  */
void DAC_DMAErrorCh1(DMA_HandleTypeDef *hdma)
{
 8003f32:	b580      	push	{r7, lr}
 8003f34:	b084      	sub	sp, #16
 8003f36:	af00      	add	r7, sp, #0
 8003f38:	6078      	str	r0, [r7, #4]
  DAC_HandleTypeDef *hdac = (DAC_HandleTypeDef *)((DMA_HandleTypeDef *)hdma)->Parent;
 8003f3a:	687b      	ldr	r3, [r7, #4]
 8003f3c:	6a9b      	ldr	r3, [r3, #40]	; 0x28
 8003f3e:	60fb      	str	r3, [r7, #12]

  /* Set DAC error code to DMA error */
  hdac->ErrorCode |= HAL_DAC_ERROR_DMA;
 8003f40:	68fb      	ldr	r3, [r7, #12]
 8003f42:	691b      	ldr	r3, [r3, #16]
 8003f44:	f043 0204 	orr.w	r2, r3, #4
 8003f48:	68fb      	ldr	r3, [r7, #12]
 8003f4a:	611a      	str	r2, [r3, #16]

#if (USE_HAL_DAC_REGISTER_CALLBACKS == 1)
  hdac->ErrorCallbackCh1(hdac);
#else
  HAL_DAC_ErrorCallbackCh1(hdac);
 8003f4c:	68f8      	ldr	r0, [r7, #12]
 8003f4e:	f7ff fe1b 	bl	8003b88 <HAL_DAC_ErrorCallbackCh1>
#endif /* USE_HAL_DAC_REGISTER_CALLBACKS */

  hdac->State = HAL_DAC_STATE_READY;
 8003f52:	68fb      	ldr	r3, [r7, #12]
 8003f54:	2201      	movs	r2, #1
 8003f56:	711a      	strb	r2, [r3, #4]
}
 8003f58:	bf00      	nop
 8003f5a:	3710      	adds	r7, #16
 8003f5c:	46bd      	mov	sp, r7
 8003f5e:	bd80      	pop	{r7, pc}

08003f60 <HAL_DACEx_ConvCpltCallbackCh2>:
  * @param  hdac pointer to a DAC_HandleTypeDef structure that contains
  *         the configuration information for the specified DAC.
  * @retval None
  */
__weak void HAL_DACEx_ConvCpltCallbackCh2(DAC_HandleTypeDef *hdac)
{
 8003f60:	b480      	push	{r7}
 8003f62:	b083      	sub	sp, #12
 8003f64:	af00      	add	r7, sp, #0
 8003f66:	6078      	str	r0, [r7, #4]
  UNUSED(hdac);

  /* NOTE : This function should not be modified, when the callback is needed,
            the HAL_DACEx_ConvCpltCallbackCh2 could be implemented in the user file
   */
}
 8003f68:	bf00      	nop
 8003f6a:	370c      	adds	r7, #12
 8003f6c:	46bd      	mov	sp, r7
 8003f6e:	f85d 7b04 	ldr.w	r7, [sp], #4
 8003f72:	4770      	bx	lr

08003f74 <HAL_DACEx_ConvHalfCpltCallbackCh2>:
  * @param  hdac pointer to a DAC_HandleTypeDef structure that contains
  *         the configuration information for the specified DAC.
  * @retval None
  */
__weak void HAL_DACEx_ConvHalfCpltCallbackCh2(DAC_HandleTypeDef *hdac)
{
 8003f74:	b480      	push	{r7}
 8003f76:	b083      	sub	sp, #12
 8003f78:	af00      	add	r7, sp, #0
 8003f7a:	6078      	str	r0, [r7, #4]
  UNUSED(hdac);

  /* NOTE : This function should not be modified, when the callback is needed,
            the HAL_DACEx_ConvHalfCpltCallbackCh2 could be implemented in the user file
   */
}
 8003f7c:	bf00      	nop
 8003f7e:	370c      	adds	r7, #12
 8003f80:	46bd      	mov	sp, r7
 8003f82:	f85d 7b04 	ldr.w	r7, [sp], #4
 8003f86:	4770      	bx	lr

08003f88 <HAL_DACEx_ErrorCallbackCh2>:
  * @param  hdac pointer to a DAC_HandleTypeDef structure that contains
  *         the configuration information for the specified DAC.
  * @retval None
  */
__weak void HAL_DACEx_ErrorCallbackCh2(DAC_HandleTypeDef *hdac)
{
 8003f88:	b480      	push	{r7}
 8003f8a:	b083      	sub	sp, #12
 8003f8c:	af00      	add	r7, sp, #0
 8003f8e:	6078      	str	r0, [r7, #4]
  UNUSED(hdac);

  /* NOTE : This function should not be modified, when the callback is needed,
            the HAL_DACEx_ErrorCallbackCh2 could be implemented in the user file
   */
}
 8003f90:	bf00      	nop
 8003f92:	370c      	adds	r7, #12
 8003f94:	46bd      	mov	sp, r7
 8003f96:	f85d 7b04 	ldr.w	r7, [sp], #4
 8003f9a:	4770      	bx	lr

08003f9c <DAC_DMAConvCpltCh2>:
  * @param  hdma pointer to a DMA_HandleTypeDef structure that contains
  *                the configuration information for the specified DMA module.
  * @retval None
  */
void DAC_DMAConvCpltCh2(DMA_HandleTypeDef *hdma)
{
 8003f9c:	b580      	push	{r7, lr}
 8003f9e:	b084      	sub	sp, #16
 8003fa0:	af00      	add	r7, sp, #0
 8003fa2:	6078      	str	r0, [r7, #4]
  DAC_HandleTypeDef *hdac = (DAC_HandleTypeDef *)((DMA_HandleTypeDef *)hdma)->Parent;
 8003fa4:	687b      	ldr	r3, [r7, #4]
 8003fa6:	6a9b      	ldr	r3, [r3, #40]	; 0x28
 8003fa8:	60fb      	str	r3, [r7, #12]

#if (USE_HAL_DAC_REGISTER_CALLBACKS == 1)
  hdac->ConvCpltCallbackCh2(hdac);
#else
  HAL_DACEx_ConvCpltCallbackCh2(hdac);
 8003faa:	68f8      	ldr	r0, [r7, #12]
 8003fac:	f7ff ffd8 	bl	8003f60 <HAL_DACEx_ConvCpltCallbackCh2>
#endif /* USE_HAL_DAC_REGISTER_CALLBACKS */

  hdac->State = HAL_DAC_STATE_READY;
 8003fb0:	68fb      	ldr	r3, [r7, #12]
 8003fb2:	2201      	movs	r2, #1
 8003fb4:	711a      	strb	r2, [r3, #4]
}
 8003fb6:	bf00      	nop
 8003fb8:	3710      	adds	r7, #16
 8003fba:	46bd      	mov	sp, r7
 8003fbc:	bd80      	pop	{r7, pc}

08003fbe <DAC_DMAHalfConvCpltCh2>:
  * @param  hdma pointer to a DMA_HandleTypeDef structure that contains
  *                the configuration information for the specified DMA module.
  * @retval None
  */
void DAC_DMAHalfConvCpltCh2(DMA_HandleTypeDef *hdma)
{
 8003fbe:	b580      	push	{r7, lr}
 8003fc0:	b084      	sub	sp, #16
 8003fc2:	af00      	add	r7, sp, #0
 8003fc4:	6078      	str	r0, [r7, #4]
  DAC_HandleTypeDef *hdac = (DAC_HandleTypeDef *)((DMA_HandleTypeDef *)hdma)->Parent;
 8003fc6:	687b      	ldr	r3, [r7, #4]
 8003fc8:	6a9b      	ldr	r3, [r3, #40]	; 0x28
 8003fca:	60fb      	str	r3, [r7, #12]
  /* Conversion complete callback */
#if (USE_HAL_DAC_REGISTER_CALLBACKS == 1)
  hdac->ConvHalfCpltCallbackCh2(hdac);
#else
  HAL_DACEx_ConvHalfCpltCallbackCh2(hdac);
 8003fcc:	68f8      	ldr	r0, [r7, #12]
 8003fce:	f7ff ffd1 	bl	8003f74 <HAL_DACEx_ConvHalfCpltCallbackCh2>
#endif /* USE_HAL_DAC_REGISTER_CALLBACKS */
}
 8003fd2:	bf00      	nop
 8003fd4:	3710      	adds	r7, #16
 8003fd6:	46bd      	mov	sp, r7
 8003fd8:	bd80      	pop	{r7, pc}

08003fda <DAC_DMAErrorCh2>:
  * @param  hdma pointer to a DMA_HandleTypeDef structure that contains
  *                the configuration information for the specified DMA module.
  * @retval None
  */
void DAC_DMAErrorCh2(DMA_HandleTypeDef *hdma)
{
 8003fda:	b580      	push	{r7, lr}
 8003fdc:	b084      	sub	sp, #16
 8003fde:	af00      	add	r7, sp, #0
 8003fe0:	6078      	str	r0, [r7, #4]
  DAC_HandleTypeDef *hdac = (DAC_HandleTypeDef *)((DMA_HandleTypeDef *)hdma)->Parent;
 8003fe2:	687b      	ldr	r3, [r7, #4]
 8003fe4:	6a9b      	ldr	r3, [r3, #40]	; 0x28
 8003fe6:	60fb      	str	r3, [r7, #12]

  /* Set DAC error code to DMA error */
  hdac->ErrorCode |= HAL_DAC_ERROR_DMA;
 8003fe8:	68fb      	ldr	r3, [r7, #12]
 8003fea:	691b      	ldr	r3, [r3, #16]
 8003fec:	f043 0204 	orr.w	r2, r3, #4
 8003ff0:	68fb      	ldr	r3, [r7, #12]
 8003ff2:	611a      	str	r2, [r3, #16]

#if (USE_HAL_DAC_REGISTER_CALLBACKS == 1)
  hdac->ErrorCallbackCh2(hdac);
#else
  HAL_DACEx_ErrorCallbackCh2(hdac);
 8003ff4:	68f8      	ldr	r0, [r7, #12]
 8003ff6:	f7ff ffc7 	bl	8003f88 <HAL_DACEx_ErrorCallbackCh2>
#endif /* USE_HAL_DAC_REGISTER_CALLBACKS */

  hdac->State = HAL_DAC_STATE_READY;
 8003ffa:	68fb      	ldr	r3, [r7, #12]
 8003ffc:	2201      	movs	r2, #1
 8003ffe:	711a      	strb	r2, [r3, #4]
}
 8004000:	bf00      	nop
 8004002:	3710      	adds	r7, #16
 8004004:	46bd      	mov	sp, r7
 8004006:	bd80      	pop	{r7, pc}

08004008 <HAL_DMA_Init>:
  * @param  hdma Pointer to a DMA_HandleTypeDef structure that contains
  *               the configuration information for the specified DMA Channel.
  * @retval HAL status
  */
HAL_StatusTypeDef HAL_DMA_Init(DMA_HandleTypeDef *hdma)
{
 8004008:	b580      	push	{r7, lr}
 800400a:	b084      	sub	sp, #16
 800400c:	af00      	add	r7, sp, #0
 800400e:	6078      	str	r0, [r7, #4]
  uint32_t tmp;

  /* Check the DMA handle allocation */
  if (hdma == NULL)
 8004010:	687b      	ldr	r3, [r7, #4]
 8004012:	2b00      	cmp	r3, #0
 8004014:	d101      	bne.n	800401a <HAL_DMA_Init+0x12>
  {
    return HAL_ERROR;
 8004016:	2301      	movs	r3, #1
 8004018:	e08d      	b.n	8004136 <HAL_DMA_Init+0x12e>
  assert_param(IS_DMA_PRIORITY(hdma->Init.Priority));

  assert_param(IS_DMA_ALL_REQUEST(hdma->Init.Request));

  /* Compute the channel index */
  if ((uint32_t)(hdma->Instance) < (uint32_t)(DMA2_Channel1))
 800401a:	687b      	ldr	r3, [r7, #4]
 800401c:	681b      	ldr	r3, [r3, #0]
 800401e:	461a      	mov	r2, r3
 8004020:	4b47      	ldr	r3, [pc, #284]	; (8004140 <HAL_DMA_Init+0x138>)
 8004022:	429a      	cmp	r2, r3
 8004024:	d80f      	bhi.n	8004046 <HAL_DMA_Init+0x3e>
  {
    /* DMA1 */
    hdma->ChannelIndex = (((uint32_t)hdma->Instance - (uint32_t)DMA1_Channel1) / ((uint32_t)DMA1_Channel2 - (uint32_t)DMA1_Channel1)) << 2;
 8004026:	687b      	ldr	r3, [r7, #4]
 8004028:	681b      	ldr	r3, [r3, #0]
 800402a:	461a      	mov	r2, r3
 800402c:	4b45      	ldr	r3, [pc, #276]	; (8004144 <HAL_DMA_Init+0x13c>)
 800402e:	4413      	add	r3, r2
 8004030:	4a45      	ldr	r2, [pc, #276]	; (8004148 <HAL_DMA_Init+0x140>)
 8004032:	fba2 2303 	umull	r2, r3, r2, r3
 8004036:	091b      	lsrs	r3, r3, #4
 8004038:	009a      	lsls	r2, r3, #2
 800403a:	687b      	ldr	r3, [r7, #4]
 800403c:	645a      	str	r2, [r3, #68]	; 0x44
    hdma->DmaBaseAddress = DMA1;
 800403e:	687b      	ldr	r3, [r7, #4]
 8004040:	4a42      	ldr	r2, [pc, #264]	; (800414c <HAL_DMA_Init+0x144>)
 8004042:	641a      	str	r2, [r3, #64]	; 0x40
 8004044:	e00e      	b.n	8004064 <HAL_DMA_Init+0x5c>
  }
  else
  {
    /* DMA2 */
    hdma->ChannelIndex = (((uint32_t)hdma->Instance - (uint32_t)DMA2_Channel1) / ((uint32_t)DMA2_Channel2 - (uint32_t)DMA2_Channel1)) << 2;
 8004046:	687b      	ldr	r3, [r7, #4]
 8004048:	681b      	ldr	r3, [r3, #0]
 800404a:	461a      	mov	r2, r3
 800404c:	4b40      	ldr	r3, [pc, #256]	; (8004150 <HAL_DMA_Init+0x148>)
 800404e:	4413      	add	r3, r2
 8004050:	4a3d      	ldr	r2, [pc, #244]	; (8004148 <HAL_DMA_Init+0x140>)
 8004052:	fba2 2303 	umull	r2, r3, r2, r3
 8004056:	091b      	lsrs	r3, r3, #4
 8004058:	009a      	lsls	r2, r3, #2
 800405a:	687b      	ldr	r3, [r7, #4]
 800405c:	645a      	str	r2, [r3, #68]	; 0x44
    hdma->DmaBaseAddress = DMA2;
 800405e:	687b      	ldr	r3, [r7, #4]
 8004060:	4a3c      	ldr	r2, [pc, #240]	; (8004154 <HAL_DMA_Init+0x14c>)
 8004062:	641a      	str	r2, [r3, #64]	; 0x40
  }

  /* Change DMA peripheral state */
  hdma->State = HAL_DMA_STATE_BUSY;
 8004064:	687b      	ldr	r3, [r7, #4]
 8004066:	2202      	movs	r2, #2
 8004068:	f883 2025 	strb.w	r2, [r3, #37]	; 0x25

  /* Get the CR register value */
  tmp = hdma->Instance->CCR;
 800406c:	687b      	ldr	r3, [r7, #4]
 800406e:	681b      	ldr	r3, [r3, #0]
 8004070:	681b      	ldr	r3, [r3, #0]
 8004072:	60fb      	str	r3, [r7, #12]

  /* Clear PL, MSIZE, PSIZE, MINC, PINC, CIRC, DIR and MEM2MEM bits */
  tmp &= ((uint32_t)~(DMA_CCR_PL    | DMA_CCR_MSIZE  | DMA_CCR_PSIZE  |
 8004074:	68fb      	ldr	r3, [r7, #12]
 8004076:	f423 43ff 	bic.w	r3, r3, #32640	; 0x7f80
 800407a:	f023 0370 	bic.w	r3, r3, #112	; 0x70
 800407e:	60fb      	str	r3, [r7, #12]
                      DMA_CCR_MINC  | DMA_CCR_PINC   | DMA_CCR_CIRC   |
                      DMA_CCR_DIR   | DMA_CCR_MEM2MEM));

  /* Prepare the DMA Channel configuration */
  tmp |=  hdma->Init.Direction        |
 8004080:	687b      	ldr	r3, [r7, #4]
 8004082:	689a      	ldr	r2, [r3, #8]
          hdma->Init.PeriphInc           | hdma->Init.MemInc           |
 8004084:	687b      	ldr	r3, [r7, #4]
 8004086:	68db      	ldr	r3, [r3, #12]
  tmp |=  hdma->Init.Direction        |
 8004088:	431a      	orrs	r2, r3
          hdma->Init.PeriphInc           | hdma->Init.MemInc           |
 800408a:	687b      	ldr	r3, [r7, #4]
 800408c:	691b      	ldr	r3, [r3, #16]
 800408e:	431a      	orrs	r2, r3
          hdma->Init.PeriphDataAlignment | hdma->Init.MemDataAlignment |
 8004090:	687b      	ldr	r3, [r7, #4]
 8004092:	695b      	ldr	r3, [r3, #20]
          hdma->Init.PeriphInc           | hdma->Init.MemInc           |
 8004094:	431a      	orrs	r2, r3
          hdma->Init.PeriphDataAlignment | hdma->Init.MemDataAlignment |
 8004096:	687b      	ldr	r3, [r7, #4]
 8004098:	699b      	ldr	r3, [r3, #24]
 800409a:	431a      	orrs	r2, r3
          hdma->Init.Mode                | hdma->Init.Priority;
 800409c:	687b      	ldr	r3, [r7, #4]
 800409e:	69db      	ldr	r3, [r3, #28]
          hdma->Init.PeriphDataAlignment | hdma->Init.MemDataAlignment |
 80040a0:	431a      	orrs	r2, r3
          hdma->Init.Mode                | hdma->Init.Priority;
 80040a2:	687b      	ldr	r3, [r7, #4]
 80040a4:	6a1b      	ldr	r3, [r3, #32]
 80040a6:	4313      	orrs	r3, r2
  tmp |=  hdma->Init.Direction        |
 80040a8:	68fa      	ldr	r2, [r7, #12]
 80040aa:	4313      	orrs	r3, r2
 80040ac:	60fb      	str	r3, [r7, #12]

  /* Write to DMA Channel CR register */
  hdma->Instance->CCR = tmp;
 80040ae:	687b      	ldr	r3, [r7, #4]
 80040b0:	681b      	ldr	r3, [r3, #0]
 80040b2:	68fa      	ldr	r2, [r7, #12]
 80040b4:	601a      	str	r2, [r3, #0]

  /* Initialize parameters for DMAMUX channel :
     DMAmuxChannel, DMAmuxChannelStatus and DMAmuxChannelStatusMask
  */
  DMA_CalcDMAMUXChannelBaseAndMask(hdma);
 80040b6:	6878      	ldr	r0, [r7, #4]
 80040b8:	f000 f9b6 	bl	8004428 <DMA_CalcDMAMUXChannelBaseAndMask>

  if (hdma->Init.Direction == DMA_MEMORY_TO_MEMORY)
 80040bc:	687b      	ldr	r3, [r7, #4]
 80040be:	689b      	ldr	r3, [r3, #8]
 80040c0:	f5b3 4f80 	cmp.w	r3, #16384	; 0x4000
 80040c4:	d102      	bne.n	80040cc <HAL_DMA_Init+0xc4>
  {
    /* if memory to memory force the request to 0*/
    hdma->Init.Request = DMA_REQUEST_MEM2MEM;
 80040c6:	687b      	ldr	r3, [r7, #4]
 80040c8:	2200      	movs	r2, #0
 80040ca:	605a      	str	r2, [r3, #4]
  }

  /* Set peripheral request  to DMAMUX channel */
  hdma->DMAmuxChannel->CCR = (hdma->Init.Request & DMAMUX_CxCR_DMAREQ_ID);
 80040cc:	687b      	ldr	r3, [r7, #4]
 80040ce:	685a      	ldr	r2, [r3, #4]
 80040d0:	687b      	ldr	r3, [r7, #4]
 80040d2:	6c9b      	ldr	r3, [r3, #72]	; 0x48
 80040d4:	b2d2      	uxtb	r2, r2
 80040d6:	601a      	str	r2, [r3, #0]

  /* Clear the DMAMUX synchro overrun flag */
  hdma->DMAmuxChannelStatus->CFR = hdma->DMAmuxChannelStatusMask;
 80040d8:	687b      	ldr	r3, [r7, #4]
 80040da:	6cdb      	ldr	r3, [r3, #76]	; 0x4c
 80040dc:	687a      	ldr	r2, [r7, #4]
 80040de:	6d12      	ldr	r2, [r2, #80]	; 0x50
 80040e0:	605a      	str	r2, [r3, #4]

  if (((hdma->Init.Request >  0U) && (hdma->Init.Request <= DMA_REQUEST_GENERATOR3)))
 80040e2:	687b      	ldr	r3, [r7, #4]
 80040e4:	685b      	ldr	r3, [r3, #4]
 80040e6:	2b00      	cmp	r3, #0
 80040e8:	d010      	beq.n	800410c <HAL_DMA_Init+0x104>
 80040ea:	687b      	ldr	r3, [r7, #4]
 80040ec:	685b      	ldr	r3, [r3, #4]
 80040ee:	2b04      	cmp	r3, #4
 80040f0:	d80c      	bhi.n	800410c <HAL_DMA_Init+0x104>
  {
    /* Initialize parameters for DMAMUX request generator :
       DMAmuxRequestGen, DMAmuxRequestGenStatus and DMAmuxRequestGenStatusMask
    */
    DMA_CalcDMAMUXRequestGenBaseAndMask(hdma);
 80040f2:	6878      	ldr	r0, [r7, #4]
 80040f4:	f000 f9d6 	bl	80044a4 <DMA_CalcDMAMUXRequestGenBaseAndMask>

    /* Reset the DMAMUX request generator register*/
    hdma->DMAmuxRequestGen->RGCR = 0U;
 80040f8:	687b      	ldr	r3, [r7, #4]
 80040fa:	6d5b      	ldr	r3, [r3, #84]	; 0x54
 80040fc:	2200      	movs	r2, #0
 80040fe:	601a      	str	r2, [r3, #0]

    /* Clear the DMAMUX request generator overrun flag */
    hdma->DMAmuxRequestGenStatus->RGCFR = hdma->DMAmuxRequestGenStatusMask;
 8004100:	687b      	ldr	r3, [r7, #4]
 8004102:	6d9b      	ldr	r3, [r3, #88]	; 0x58
 8004104:	687a      	ldr	r2, [r7, #4]
 8004106:	6dd2      	ldr	r2, [r2, #92]	; 0x5c
 8004108:	605a      	str	r2, [r3, #4]
 800410a:	e008      	b.n	800411e <HAL_DMA_Init+0x116>
  }
  else
  {
    hdma->DMAmuxRequestGen = 0U;
 800410c:	687b      	ldr	r3, [r7, #4]
 800410e:	2200      	movs	r2, #0
 8004110:	655a      	str	r2, [r3, #84]	; 0x54
    hdma->DMAmuxRequestGenStatus = 0U;
 8004112:	687b      	ldr	r3, [r7, #4]
 8004114:	2200      	movs	r2, #0
 8004116:	659a      	str	r2, [r3, #88]	; 0x58
    hdma->DMAmuxRequestGenStatusMask = 0U;
 8004118:	687b      	ldr	r3, [r7, #4]
 800411a:	2200      	movs	r2, #0
 800411c:	65da      	str	r2, [r3, #92]	; 0x5c
  }

  /* Initialize the error code */
  hdma->ErrorCode = HAL_DMA_ERROR_NONE;
 800411e:	687b      	ldr	r3, [r7, #4]
 8004120:	2200      	movs	r2, #0
 8004122:	63da      	str	r2, [r3, #60]	; 0x3c

  /* Initialize the DMA state*/
  hdma->State  = HAL_DMA_STATE_READY;
 8004124:	687b      	ldr	r3, [r7, #4]
 8004126:	2201      	movs	r2, #1
 8004128:	f883 2025 	strb.w	r2, [r3, #37]	; 0x25

  /* Allocate lock resource and initialize it */
  hdma->Lock = HAL_UNLOCKED;
 800412c:	687b      	ldr	r3, [r7, #4]
 800412e:	2200      	movs	r2, #0
 8004130:	f883 2024 	strb.w	r2, [r3, #36]	; 0x24

  return HAL_OK;
 8004134:	2300      	movs	r3, #0
}
 8004136:	4618      	mov	r0, r3
 8004138:	3710      	adds	r7, #16
 800413a:	46bd      	mov	sp, r7
 800413c:	bd80      	pop	{r7, pc}
 800413e:	bf00      	nop
 8004140:	40020407 	.word	0x40020407
 8004144:	bffdfff8 	.word	0xbffdfff8
 8004148:	cccccccd 	.word	0xcccccccd
 800414c:	40020000 	.word	0x40020000
 8004150:	bffdfbf8 	.word	0xbffdfbf8
 8004154:	40020400 	.word	0x40020400

08004158 <HAL_DMA_Start_IT>:
  * @param  DataLength The length of data to be transferred from source to destination (up to 256Kbytes-1)
  * @retval HAL status
  */
HAL_StatusTypeDef HAL_DMA_Start_IT(DMA_HandleTypeDef *hdma, uint32_t SrcAddress, uint32_t DstAddress,
                                   uint32_t DataLength)
{
 8004158:	b580      	push	{r7, lr}
 800415a:	b086      	sub	sp, #24
 800415c:	af00      	add	r7, sp, #0
 800415e:	60f8      	str	r0, [r7, #12]
 8004160:	60b9      	str	r1, [r7, #8]
 8004162:	607a      	str	r2, [r7, #4]
 8004164:	603b      	str	r3, [r7, #0]
  HAL_StatusTypeDef status = HAL_OK;
 8004166:	2300      	movs	r3, #0
 8004168:	75fb      	strb	r3, [r7, #23]

  /* Check the parameters */
  assert_param(IS_DMA_BUFFER_SIZE(DataLength));

  /* Process locked */
  __HAL_LOCK(hdma);
 800416a:	68fb      	ldr	r3, [r7, #12]
 800416c:	f893 3024 	ldrb.w	r3, [r3, #36]	; 0x24
 8004170:	2b01      	cmp	r3, #1
 8004172:	d101      	bne.n	8004178 <HAL_DMA_Start_IT+0x20>
 8004174:	2302      	movs	r3, #2
 8004176:	e066      	b.n	8004246 <HAL_DMA_Start_IT+0xee>
 8004178:	68fb      	ldr	r3, [r7, #12]
 800417a:	2201      	movs	r2, #1
 800417c:	f883 2024 	strb.w	r2, [r3, #36]	; 0x24

  if (HAL_DMA_STATE_READY == hdma->State)
 8004180:	68fb      	ldr	r3, [r7, #12]
 8004182:	f893 3025 	ldrb.w	r3, [r3, #37]	; 0x25
 8004186:	b2db      	uxtb	r3, r3
 8004188:	2b01      	cmp	r3, #1
 800418a:	d155      	bne.n	8004238 <HAL_DMA_Start_IT+0xe0>
  {
    /* Change DMA peripheral state */
    hdma->State = HAL_DMA_STATE_BUSY;
 800418c:	68fb      	ldr	r3, [r7, #12]
 800418e:	2202      	movs	r2, #2
 8004190:	f883 2025 	strb.w	r2, [r3, #37]	; 0x25
    hdma->ErrorCode = HAL_DMA_ERROR_NONE;
 8004194:	68fb      	ldr	r3, [r7, #12]
 8004196:	2200      	movs	r2, #0
 8004198:	63da      	str	r2, [r3, #60]	; 0x3c

    /* Disable the peripheral */
    __HAL_DMA_DISABLE(hdma);
 800419a:	68fb      	ldr	r3, [r7, #12]
 800419c:	681b      	ldr	r3, [r3, #0]
 800419e:	681a      	ldr	r2, [r3, #0]
 80041a0:	68fb      	ldr	r3, [r7, #12]
 80041a2:	681b      	ldr	r3, [r3, #0]
 80041a4:	f022 0201 	bic.w	r2, r2, #1
 80041a8:	601a      	str	r2, [r3, #0]

    /* Configure the source, destination address and the data length & clear flags*/
    DMA_SetConfig(hdma, SrcAddress, DstAddress, DataLength);
 80041aa:	683b      	ldr	r3, [r7, #0]
 80041ac:	687a      	ldr	r2, [r7, #4]
 80041ae:	68b9      	ldr	r1, [r7, #8]
 80041b0:	68f8      	ldr	r0, [r7, #12]
 80041b2:	f000 f8fb 	bl	80043ac <DMA_SetConfig>

    /* Enable the transfer complete interrupt */
    /* Enable the transfer Error interrupt */
    if (NULL != hdma->XferHalfCpltCallback)
 80041b6:	68fb      	ldr	r3, [r7, #12]
 80041b8:	6b1b      	ldr	r3, [r3, #48]	; 0x30
 80041ba:	2b00      	cmp	r3, #0
 80041bc:	d008      	beq.n	80041d0 <HAL_DMA_Start_IT+0x78>
    {
      /* Enable the Half transfer complete interrupt as well */
      __HAL_DMA_ENABLE_IT(hdma, (DMA_IT_TC | DMA_IT_HT | DMA_IT_TE));
 80041be:	68fb      	ldr	r3, [r7, #12]
 80041c0:	681b      	ldr	r3, [r3, #0]
 80041c2:	681a      	ldr	r2, [r3, #0]
 80041c4:	68fb      	ldr	r3, [r7, #12]
 80041c6:	681b      	ldr	r3, [r3, #0]
 80041c8:	f042 020e 	orr.w	r2, r2, #14
 80041cc:	601a      	str	r2, [r3, #0]
 80041ce:	e00f      	b.n	80041f0 <HAL_DMA_Start_IT+0x98>
    }
    else
    {
      __HAL_DMA_DISABLE_IT(hdma, DMA_IT_HT);
 80041d0:	68fb      	ldr	r3, [r7, #12]
 80041d2:	681b      	ldr	r3, [r3, #0]
 80041d4:	681a      	ldr	r2, [r3, #0]
 80041d6:	68fb      	ldr	r3, [r7, #12]
 80041d8:	681b      	ldr	r3, [r3, #0]
 80041da:	f022 0204 	bic.w	r2, r2, #4
 80041de:	601a      	str	r2, [r3, #0]
      __HAL_DMA_ENABLE_IT(hdma, (DMA_IT_TC | DMA_IT_TE));
 80041e0:	68fb      	ldr	r3, [r7, #12]
 80041e2:	681b      	ldr	r3, [r3, #0]
 80041e4:	681a      	ldr	r2, [r3, #0]
 80041e6:	68fb      	ldr	r3, [r7, #12]
 80041e8:	681b      	ldr	r3, [r3, #0]
 80041ea:	f042 020a 	orr.w	r2, r2, #10
 80041ee:	601a      	str	r2, [r3, #0]
    }

    /* Check if DMAMUX Synchronization is enabled*/
    if ((hdma->DMAmuxChannel->CCR & DMAMUX_CxCR_SE) != 0U)
 80041f0:	68fb      	ldr	r3, [r7, #12]
 80041f2:	6c9b      	ldr	r3, [r3, #72]	; 0x48
 80041f4:	681b      	ldr	r3, [r3, #0]
 80041f6:	f403 3380 	and.w	r3, r3, #65536	; 0x10000
 80041fa:	2b00      	cmp	r3, #0
 80041fc:	d007      	beq.n	800420e <HAL_DMA_Start_IT+0xb6>
    {
      /* Enable DMAMUX sync overrun IT*/
      hdma->DMAmuxChannel->CCR |= DMAMUX_CxCR_SOIE;
 80041fe:	68fb      	ldr	r3, [r7, #12]
 8004200:	6c9b      	ldr	r3, [r3, #72]	; 0x48
 8004202:	681a      	ldr	r2, [r3, #0]
 8004204:	68fb      	ldr	r3, [r7, #12]
 8004206:	6c9b      	ldr	r3, [r3, #72]	; 0x48
 8004208:	f442 7280 	orr.w	r2, r2, #256	; 0x100
 800420c:	601a      	str	r2, [r3, #0]
    }

    if (hdma->DMAmuxRequestGen != 0U)
 800420e:	68fb      	ldr	r3, [r7, #12]
 8004210:	6d5b      	ldr	r3, [r3, #84]	; 0x54
 8004212:	2b00      	cmp	r3, #0
 8004214:	d007      	beq.n	8004226 <HAL_DMA_Start_IT+0xce>
    {
      /* if using DMAMUX request generator, enable the DMAMUX request generator overrun IT*/
      /* enable the request gen overrun IT*/
      hdma->DMAmuxRequestGen->RGCR |= DMAMUX_RGxCR_OIE;
 8004216:	68fb      	ldr	r3, [r7, #12]
 8004218:	6d5b      	ldr	r3, [r3, #84]	; 0x54
 800421a:	681a      	ldr	r2, [r3, #0]
 800421c:	68fb      	ldr	r3, [r7, #12]
 800421e:	6d5b      	ldr	r3, [r3, #84]	; 0x54
 8004220:	f442 7280 	orr.w	r2, r2, #256	; 0x100
 8004224:	601a      	str	r2, [r3, #0]
    }

    /* Enable the Peripheral */
    __HAL_DMA_ENABLE(hdma);
 8004226:	68fb      	ldr	r3, [r7, #12]
 8004228:	681b      	ldr	r3, [r3, #0]
 800422a:	681a      	ldr	r2, [r3, #0]
 800422c:	68fb      	ldr	r3, [r7, #12]
 800422e:	681b      	ldr	r3, [r3, #0]
 8004230:	f042 0201 	orr.w	r2, r2, #1
 8004234:	601a      	str	r2, [r3, #0]
 8004236:	e005      	b.n	8004244 <HAL_DMA_Start_IT+0xec>
  }
  else
  {
    /* Process Unlocked */
    __HAL_UNLOCK(hdma);
 8004238:	68fb      	ldr	r3, [r7, #12]
 800423a:	2200      	movs	r2, #0
 800423c:	f883 2024 	strb.w	r2, [r3, #36]	; 0x24

    /* Remain BUSY */
    status = HAL_BUSY;
 8004240:	2302      	movs	r3, #2
 8004242:	75fb      	strb	r3, [r7, #23]
  }
  return status;
 8004244:	7dfb      	ldrb	r3, [r7, #23]
}
 8004246:	4618      	mov	r0, r3
 8004248:	3718      	adds	r7, #24
 800424a:	46bd      	mov	sp, r7
 800424c:	bd80      	pop	{r7, pc}

0800424e <HAL_DMA_IRQHandler>:
  * @param  hdma pointer to a DMA_HandleTypeDef structure that contains
  *               the configuration information for the specified DMA Channel.
  * @retval None
  */
void HAL_DMA_IRQHandler(DMA_HandleTypeDef *hdma)
{
 800424e:	b580      	push	{r7, lr}
 8004250:	b084      	sub	sp, #16
 8004252:	af00      	add	r7, sp, #0
 8004254:	6078      	str	r0, [r7, #4]
  uint32_t flag_it = hdma->DmaBaseAddress->ISR;
 8004256:	687b      	ldr	r3, [r7, #4]
 8004258:	6c1b      	ldr	r3, [r3, #64]	; 0x40
 800425a:	681b      	ldr	r3, [r3, #0]
 800425c:	60fb      	str	r3, [r7, #12]
  uint32_t source_it = hdma->Instance->CCR;
 800425e:	687b      	ldr	r3, [r7, #4]
 8004260:	681b      	ldr	r3, [r3, #0]
 8004262:	681b      	ldr	r3, [r3, #0]
 8004264:	60bb      	str	r3, [r7, #8]

  /* Half Transfer Complete Interrupt management ******************************/
  if ((0U != (flag_it & ((uint32_t)DMA_FLAG_HT1 << (hdma->ChannelIndex & 0x1FU)))) && (0U != (source_it & DMA_IT_HT)))
 8004266:	687b      	ldr	r3, [r7, #4]
 8004268:	6c5b      	ldr	r3, [r3, #68]	; 0x44
 800426a:	f003 031f 	and.w	r3, r3, #31
 800426e:	2204      	movs	r2, #4
 8004270:	409a      	lsls	r2, r3
 8004272:	68fb      	ldr	r3, [r7, #12]
 8004274:	4013      	ands	r3, r2
 8004276:	2b00      	cmp	r3, #0
 8004278:	d026      	beq.n	80042c8 <HAL_DMA_IRQHandler+0x7a>
 800427a:	68bb      	ldr	r3, [r7, #8]
 800427c:	f003 0304 	and.w	r3, r3, #4
 8004280:	2b00      	cmp	r3, #0
 8004282:	d021      	beq.n	80042c8 <HAL_DMA_IRQHandler+0x7a>
  {
    /* Disable the half transfer interrupt if the DMA mode is not CIRCULAR */
    if ((hdma->Instance->CCR & DMA_CCR_CIRC) == 0U)
 8004284:	687b      	ldr	r3, [r7, #4]
 8004286:	681b      	ldr	r3, [r3, #0]
 8004288:	681b      	ldr	r3, [r3, #0]
 800428a:	f003 0320 	and.w	r3, r3, #32
 800428e:	2b00      	cmp	r3, #0
 8004290:	d107      	bne.n	80042a2 <HAL_DMA_IRQHandler+0x54>
    {
      /* Disable the half transfer interrupt */
      __HAL_DMA_DISABLE_IT(hdma, DMA_IT_HT);
 8004292:	687b      	ldr	r3, [r7, #4]
 8004294:	681b      	ldr	r3, [r3, #0]
 8004296:	681a      	ldr	r2, [r3, #0]
 8004298:	687b      	ldr	r3, [r7, #4]
 800429a:	681b      	ldr	r3, [r3, #0]
 800429c:	f022 0204 	bic.w	r2, r2, #4
 80042a0:	601a      	str	r2, [r3, #0]
    }
    /* Clear the half transfer complete flag */
    hdma->DmaBaseAddress->IFCR = ((uint32_t)DMA_ISR_HTIF1 << (hdma->ChannelIndex & 0x1FU));
 80042a2:	687b      	ldr	r3, [r7, #4]
 80042a4:	6c5b      	ldr	r3, [r3, #68]	; 0x44
 80042a6:	f003 021f 	and.w	r2, r3, #31
 80042aa:	687b      	ldr	r3, [r7, #4]
 80042ac:	6c1b      	ldr	r3, [r3, #64]	; 0x40
 80042ae:	2104      	movs	r1, #4
 80042b0:	fa01 f202 	lsl.w	r2, r1, r2
 80042b4:	605a      	str	r2, [r3, #4]

    /* DMA peripheral state is not updated in Half Transfer */
    /* but in Transfer Complete case */

    if (hdma->XferHalfCpltCallback != NULL)
 80042b6:	687b      	ldr	r3, [r7, #4]
 80042b8:	6b1b      	ldr	r3, [r3, #48]	; 0x30
 80042ba:	2b00      	cmp	r3, #0
 80042bc:	d071      	beq.n	80043a2 <HAL_DMA_IRQHandler+0x154>
    {
      /* Half transfer callback */
      hdma->XferHalfCpltCallback(hdma);
 80042be:	687b      	ldr	r3, [r7, #4]
 80042c0:	6b1b      	ldr	r3, [r3, #48]	; 0x30
 80042c2:	6878      	ldr	r0, [r7, #4]
 80042c4:	4798      	blx	r3
    if (hdma->XferHalfCpltCallback != NULL)
 80042c6:	e06c      	b.n	80043a2 <HAL_DMA_IRQHandler+0x154>
    }
  }
  /* Transfer Complete Interrupt management ***********************************/
  else if ((0U != (flag_it & ((uint32_t)DMA_FLAG_TC1 << (hdma->ChannelIndex & 0x1FU))))
 80042c8:	687b      	ldr	r3, [r7, #4]
 80042ca:	6c5b      	ldr	r3, [r3, #68]	; 0x44
 80042cc:	f003 031f 	and.w	r3, r3, #31
 80042d0:	2202      	movs	r2, #2
 80042d2:	409a      	lsls	r2, r3
 80042d4:	68fb      	ldr	r3, [r7, #12]
 80042d6:	4013      	ands	r3, r2
 80042d8:	2b00      	cmp	r3, #0
 80042da:	d02e      	beq.n	800433a <HAL_DMA_IRQHandler+0xec>
           && (0U != (source_it & DMA_IT_TC)))
 80042dc:	68bb      	ldr	r3, [r7, #8]
 80042de:	f003 0302 	and.w	r3, r3, #2
 80042e2:	2b00      	cmp	r3, #0
 80042e4:	d029      	beq.n	800433a <HAL_DMA_IRQHandler+0xec>
  {
    if ((hdma->Instance->CCR & DMA_CCR_CIRC) == 0U)
 80042e6:	687b      	ldr	r3, [r7, #4]
 80042e8:	681b      	ldr	r3, [r3, #0]
 80042ea:	681b      	ldr	r3, [r3, #0]
 80042ec:	f003 0320 	and.w	r3, r3, #32
 80042f0:	2b00      	cmp	r3, #0
 80042f2:	d10b      	bne.n	800430c <HAL_DMA_IRQHandler+0xbe>
    {
      /* Disable the transfer complete and error interrupt */
      __HAL_DMA_DISABLE_IT(hdma, DMA_IT_TE | DMA_IT_TC);
 80042f4:	687b      	ldr	r3, [r7, #4]
 80042f6:	681b      	ldr	r3, [r3, #0]
 80042f8:	681a      	ldr	r2, [r3, #0]
 80042fa:	687b      	ldr	r3, [r7, #4]
 80042fc:	681b      	ldr	r3, [r3, #0]
 80042fe:	f022 020a 	bic.w	r2, r2, #10
 8004302:	601a      	str	r2, [r3, #0]

      /* Change the DMA state */
      hdma->State = HAL_DMA_STATE_READY;
 8004304:	687b      	ldr	r3, [r7, #4]
 8004306:	2201      	movs	r2, #1
 8004308:	f883 2025 	strb.w	r2, [r3, #37]	; 0x25
    }
    /* Clear the transfer complete flag */
    hdma->DmaBaseAddress->IFCR = ((uint32_t)DMA_ISR_TCIF1 << (hdma->ChannelIndex & 0x1FU));
 800430c:	687b      	ldr	r3, [r7, #4]
 800430e:	6c5b      	ldr	r3, [r3, #68]	; 0x44
 8004310:	f003 021f 	and.w	r2, r3, #31
 8004314:	687b      	ldr	r3, [r7, #4]
 8004316:	6c1b      	ldr	r3, [r3, #64]	; 0x40
 8004318:	2102      	movs	r1, #2
 800431a:	fa01 f202 	lsl.w	r2, r1, r2
 800431e:	605a      	str	r2, [r3, #4]

    /* Process Unlocked */
    __HAL_UNLOCK(hdma);
 8004320:	687b      	ldr	r3, [r7, #4]
 8004322:	2200      	movs	r2, #0
 8004324:	f883 2024 	strb.w	r2, [r3, #36]	; 0x24

    if (hdma->XferCpltCallback != NULL)
 8004328:	687b      	ldr	r3, [r7, #4]
 800432a:	6adb      	ldr	r3, [r3, #44]	; 0x2c
 800432c:	2b00      	cmp	r3, #0
 800432e:	d038      	beq.n	80043a2 <HAL_DMA_IRQHandler+0x154>
    {
      /* Transfer complete callback */
      hdma->XferCpltCallback(hdma);
 8004330:	687b      	ldr	r3, [r7, #4]
 8004332:	6adb      	ldr	r3, [r3, #44]	; 0x2c
 8004334:	6878      	ldr	r0, [r7, #4]
 8004336:	4798      	blx	r3
    if (hdma->XferCpltCallback != NULL)
 8004338:	e033      	b.n	80043a2 <HAL_DMA_IRQHandler+0x154>
    }
  }
  /* Transfer Error Interrupt management **************************************/
  else if ((0U != (flag_it & ((uint32_t)DMA_FLAG_TE1 << (hdma->ChannelIndex & 0x1FU))))
 800433a:	687b      	ldr	r3, [r7, #4]
 800433c:	6c5b      	ldr	r3, [r3, #68]	; 0x44
 800433e:	f003 031f 	and.w	r3, r3, #31
 8004342:	2208      	movs	r2, #8
 8004344:	409a      	lsls	r2, r3
 8004346:	68fb      	ldr	r3, [r7, #12]
 8004348:	4013      	ands	r3, r2
 800434a:	2b00      	cmp	r3, #0
 800434c:	d02a      	beq.n	80043a4 <HAL_DMA_IRQHandler+0x156>
           && (0U != (source_it & DMA_IT_TE)))
 800434e:	68bb      	ldr	r3, [r7, #8]
 8004350:	f003 0308 	and.w	r3, r3, #8
 8004354:	2b00      	cmp	r3, #0
 8004356:	d025      	beq.n	80043a4 <HAL_DMA_IRQHandler+0x156>
  {
    /* When a DMA transfer error occurs */
    /* A hardware clear of its EN bits is performed */
    /* Disable ALL DMA IT */
    __HAL_DMA_DISABLE_IT(hdma, (DMA_IT_TC | DMA_IT_HT | DMA_IT_TE));
 8004358:	687b      	ldr	r3, [r7, #4]
 800435a:	681b      	ldr	r3, [r3, #0]
 800435c:	681a      	ldr	r2, [r3, #0]
 800435e:	687b      	ldr	r3, [r7, #4]
 8004360:	681b      	ldr	r3, [r3, #0]
 8004362:	f022 020e 	bic.w	r2, r2, #14
 8004366:	601a      	str	r2, [r3, #0]

    /* Clear all flags */
    hdma->DmaBaseAddress->IFCR = ((uint32_t)DMA_ISR_GIF1 << (hdma->ChannelIndex & 0x1FU));
 8004368:	687b      	ldr	r3, [r7, #4]
 800436a:	6c5b      	ldr	r3, [r3, #68]	; 0x44
 800436c:	f003 021f 	and.w	r2, r3, #31
 8004370:	687b      	ldr	r3, [r7, #4]
 8004372:	6c1b      	ldr	r3, [r3, #64]	; 0x40
 8004374:	2101      	movs	r1, #1
 8004376:	fa01 f202 	lsl.w	r2, r1, r2
 800437a:	605a      	str	r2, [r3, #4]

    /* Update error code */
    hdma->ErrorCode = HAL_DMA_ERROR_TE;
 800437c:	687b      	ldr	r3, [r7, #4]
 800437e:	2201      	movs	r2, #1
 8004380:	63da      	str	r2, [r3, #60]	; 0x3c

    /* Change the DMA state */
    hdma->State = HAL_DMA_STATE_READY;
 8004382:	687b      	ldr	r3, [r7, #4]
 8004384:	2201      	movs	r2, #1
 8004386:	f883 2025 	strb.w	r2, [r3, #37]	; 0x25

    /* Process Unlocked */
    __HAL_UNLOCK(hdma);
 800438a:	687b      	ldr	r3, [r7, #4]
 800438c:	2200      	movs	r2, #0
 800438e:	f883 2024 	strb.w	r2, [r3, #36]	; 0x24

    if (hdma->XferErrorCallback != NULL)
 8004392:	687b      	ldr	r3, [r7, #4]
 8004394:	6b5b      	ldr	r3, [r3, #52]	; 0x34
 8004396:	2b00      	cmp	r3, #0
 8004398:	d004      	beq.n	80043a4 <HAL_DMA_IRQHandler+0x156>
    {
      /* Transfer error callback */
      hdma->XferErrorCallback(hdma);
 800439a:	687b      	ldr	r3, [r7, #4]
 800439c:	6b5b      	ldr	r3, [r3, #52]	; 0x34
 800439e:	6878      	ldr	r0, [r7, #4]
 80043a0:	4798      	blx	r3
  }
  else
  {
    /* Nothing To Do */
  }
  return;
 80043a2:	bf00      	nop
 80043a4:	bf00      	nop
}
 80043a6:	3710      	adds	r7, #16
 80043a8:	46bd      	mov	sp, r7
 80043aa:	bd80      	pop	{r7, pc}

080043ac <DMA_SetConfig>:
  * @param  DstAddress The destination memory Buffer address
  * @param  DataLength The length of data to be transferred from source to destination
  * @retval HAL status
  */
static void DMA_SetConfig(DMA_HandleTypeDef *hdma, uint32_t SrcAddress, uint32_t DstAddress, uint32_t DataLength)
{
 80043ac:	b480      	push	{r7}
 80043ae:	b085      	sub	sp, #20
 80043b0:	af00      	add	r7, sp, #0
 80043b2:	60f8      	str	r0, [r7, #12]
 80043b4:	60b9      	str	r1, [r7, #8]
 80043b6:	607a      	str	r2, [r7, #4]
 80043b8:	603b      	str	r3, [r7, #0]
  /* Clear the DMAMUX synchro overrun flag */
  hdma->DMAmuxChannelStatus->CFR = hdma->DMAmuxChannelStatusMask;
 80043ba:	68fb      	ldr	r3, [r7, #12]
 80043bc:	6cdb      	ldr	r3, [r3, #76]	; 0x4c
 80043be:	68fa      	ldr	r2, [r7, #12]
 80043c0:	6d12      	ldr	r2, [r2, #80]	; 0x50
 80043c2:	605a      	str	r2, [r3, #4]

  if (hdma->DMAmuxRequestGen != 0U)
 80043c4:	68fb      	ldr	r3, [r7, #12]
 80043c6:	6d5b      	ldr	r3, [r3, #84]	; 0x54
 80043c8:	2b00      	cmp	r3, #0
 80043ca:	d004      	beq.n	80043d6 <DMA_SetConfig+0x2a>
  {
    /* Clear the DMAMUX request generator overrun flag */
    hdma->DMAmuxRequestGenStatus->RGCFR = hdma->DMAmuxRequestGenStatusMask;
 80043cc:	68fb      	ldr	r3, [r7, #12]
 80043ce:	6d9b      	ldr	r3, [r3, #88]	; 0x58
 80043d0:	68fa      	ldr	r2, [r7, #12]
 80043d2:	6dd2      	ldr	r2, [r2, #92]	; 0x5c
 80043d4:	605a      	str	r2, [r3, #4]
  }

  /* Clear all flags */
  hdma->DmaBaseAddress->IFCR = (DMA_ISR_GIF1 << (hdma->ChannelIndex & 0x1FU));
 80043d6:	68fb      	ldr	r3, [r7, #12]
 80043d8:	6c5b      	ldr	r3, [r3, #68]	; 0x44
 80043da:	f003 021f 	and.w	r2, r3, #31
 80043de:	68fb      	ldr	r3, [r7, #12]
 80043e0:	6c1b      	ldr	r3, [r3, #64]	; 0x40
 80043e2:	2101      	movs	r1, #1
 80043e4:	fa01 f202 	lsl.w	r2, r1, r2
 80043e8:	605a      	str	r2, [r3, #4]

  /* Configure DMA Channel data length */
  hdma->Instance->CNDTR = DataLength;
 80043ea:	68fb      	ldr	r3, [r7, #12]
 80043ec:	681b      	ldr	r3, [r3, #0]
 80043ee:	683a      	ldr	r2, [r7, #0]
 80043f0:	605a      	str	r2, [r3, #4]

  /* Memory to Peripheral */
  if ((hdma->Init.Direction) == DMA_MEMORY_TO_PERIPH)
 80043f2:	68fb      	ldr	r3, [r7, #12]
 80043f4:	689b      	ldr	r3, [r3, #8]
 80043f6:	2b10      	cmp	r3, #16
 80043f8:	d108      	bne.n	800440c <DMA_SetConfig+0x60>
  {
    /* Configure DMA Channel destination address */
    hdma->Instance->CPAR = DstAddress;
 80043fa:	68fb      	ldr	r3, [r7, #12]
 80043fc:	681b      	ldr	r3, [r3, #0]
 80043fe:	687a      	ldr	r2, [r7, #4]
 8004400:	609a      	str	r2, [r3, #8]

    /* Configure DMA Channel source address */
    hdma->Instance->CMAR = SrcAddress;
 8004402:	68fb      	ldr	r3, [r7, #12]
 8004404:	681b      	ldr	r3, [r3, #0]
 8004406:	68ba      	ldr	r2, [r7, #8]
 8004408:	60da      	str	r2, [r3, #12]
    hdma->Instance->CPAR = SrcAddress;

    /* Configure DMA Channel destination address */
    hdma->Instance->CMAR = DstAddress;
  }
}
 800440a:	e007      	b.n	800441c <DMA_SetConfig+0x70>
    hdma->Instance->CPAR = SrcAddress;
 800440c:	68fb      	ldr	r3, [r7, #12]
 800440e:	681b      	ldr	r3, [r3, #0]
 8004410:	68ba      	ldr	r2, [r7, #8]
 8004412:	609a      	str	r2, [r3, #8]
    hdma->Instance->CMAR = DstAddress;
 8004414:	68fb      	ldr	r3, [r7, #12]
 8004416:	681b      	ldr	r3, [r3, #0]
 8004418:	687a      	ldr	r2, [r7, #4]
 800441a:	60da      	str	r2, [r3, #12]
}
 800441c:	bf00      	nop
 800441e:	3714      	adds	r7, #20
 8004420:	46bd      	mov	sp, r7
 8004422:	f85d 7b04 	ldr.w	r7, [sp], #4
 8004426:	4770      	bx	lr

08004428 <DMA_CalcDMAMUXChannelBaseAndMask>:
  * @param  hdma        pointer to a DMA_HandleTypeDef structure that contains
  *                     the configuration information for the specified DMA Stream.
  * @retval None
  */
static void DMA_CalcDMAMUXChannelBaseAndMask(DMA_HandleTypeDef *hdma)
{
 8004428:	b480      	push	{r7}
 800442a:	b087      	sub	sp, #28
 800442c:	af00      	add	r7, sp, #0
 800442e:	6078      	str	r0, [r7, #4]
  uint32_t dmamux_base_addr;
  uint32_t channel_number;
  DMAMUX_Channel_TypeDef *DMAMUX1_ChannelBase;

  /* check if instance is not outside the DMA channel range */
  if ((uint32_t)hdma->Instance < (uint32_t)DMA2_Channel1)
 8004430:	687b      	ldr	r3, [r7, #4]
 8004432:	681b      	ldr	r3, [r3, #0]
 8004434:	461a      	mov	r2, r3
 8004436:	4b16      	ldr	r3, [pc, #88]	; (8004490 <DMA_CalcDMAMUXChannelBaseAndMask+0x68>)
 8004438:	429a      	cmp	r2, r3
 800443a:	d802      	bhi.n	8004442 <DMA_CalcDMAMUXChannelBaseAndMask+0x1a>
  {
    /* DMA1 */
    DMAMUX1_ChannelBase = DMAMUX1_Channel0;
 800443c:	4b15      	ldr	r3, [pc, #84]	; (8004494 <DMA_CalcDMAMUXChannelBaseAndMask+0x6c>)
 800443e:	617b      	str	r3, [r7, #20]
 8004440:	e001      	b.n	8004446 <DMA_CalcDMAMUXChannelBaseAndMask+0x1e>
  }
  else
  {
    /* DMA2 */
#if defined (STM32G471xx) || defined (STM32G473xx) || defined (STM32G474xx) || defined (STM32G483xx) || defined (STM32G484xx)
    DMAMUX1_ChannelBase = DMAMUX1_Channel8;
 8004442:	4b15      	ldr	r3, [pc, #84]	; (8004498 <DMA_CalcDMAMUXChannelBaseAndMask+0x70>)
 8004444:	617b      	str	r3, [r7, #20]
    DMAMUX1_ChannelBase = DMAMUX1_Channel6;
#else
    DMAMUX1_ChannelBase = DMAMUX1_Channel7;
#endif /* STM32G4x1xx) */
  }
  dmamux_base_addr = (uint32_t)DMAMUX1_ChannelBase;
 8004446:	697b      	ldr	r3, [r7, #20]
 8004448:	613b      	str	r3, [r7, #16]
  channel_number = (((uint32_t)hdma->Instance & 0xFFU) - 8U) / 20U;
 800444a:	687b      	ldr	r3, [r7, #4]
 800444c:	681b      	ldr	r3, [r3, #0]
 800444e:	b2db      	uxtb	r3, r3
 8004450:	3b08      	subs	r3, #8
 8004452:	4a12      	ldr	r2, [pc, #72]	; (800449c <DMA_CalcDMAMUXChannelBaseAndMask+0x74>)
 8004454:	fba2 2303 	umull	r2, r3, r2, r3
 8004458:	091b      	lsrs	r3, r3, #4
 800445a:	60fb      	str	r3, [r7, #12]
  hdma->DMAmuxChannel = (DMAMUX_Channel_TypeDef *)(uint32_t)(dmamux_base_addr + ((hdma->ChannelIndex >> 2U) * ((uint32_t)DMAMUX1_Channel1 - (uint32_t)DMAMUX1_Channel0)));
 800445c:	687b      	ldr	r3, [r7, #4]
 800445e:	6c5b      	ldr	r3, [r3, #68]	; 0x44
 8004460:	089b      	lsrs	r3, r3, #2
 8004462:	009a      	lsls	r2, r3, #2
 8004464:	693b      	ldr	r3, [r7, #16]
 8004466:	4413      	add	r3, r2
 8004468:	461a      	mov	r2, r3
 800446a:	687b      	ldr	r3, [r7, #4]
 800446c:	649a      	str	r2, [r3, #72]	; 0x48
  hdma->DMAmuxChannelStatus = DMAMUX1_ChannelStatus;
 800446e:	687b      	ldr	r3, [r7, #4]
 8004470:	4a0b      	ldr	r2, [pc, #44]	; (80044a0 <DMA_CalcDMAMUXChannelBaseAndMask+0x78>)
 8004472:	64da      	str	r2, [r3, #76]	; 0x4c
  hdma->DMAmuxChannelStatusMask = 1UL << (channel_number & 0x1FU);
 8004474:	68fb      	ldr	r3, [r7, #12]
 8004476:	f003 031f 	and.w	r3, r3, #31
 800447a:	2201      	movs	r2, #1
 800447c:	409a      	lsls	r2, r3
 800447e:	687b      	ldr	r3, [r7, #4]
 8004480:	651a      	str	r2, [r3, #80]	; 0x50
}
 8004482:	bf00      	nop
 8004484:	371c      	adds	r7, #28
 8004486:	46bd      	mov	sp, r7
 8004488:	f85d 7b04 	ldr.w	r7, [sp], #4
 800448c:	4770      	bx	lr
 800448e:	bf00      	nop
 8004490:	40020407 	.word	0x40020407
 8004494:	40020800 	.word	0x40020800
 8004498:	40020820 	.word	0x40020820
 800449c:	cccccccd 	.word	0xcccccccd
 80044a0:	40020880 	.word	0x40020880

080044a4 <DMA_CalcDMAMUXRequestGenBaseAndMask>:
  *                     the configuration information for the specified DMA Channel.
  * @retval None
  */

static void DMA_CalcDMAMUXRequestGenBaseAndMask(DMA_HandleTypeDef *hdma)
{
 80044a4:	b480      	push	{r7}
 80044a6:	b085      	sub	sp, #20
 80044a8:	af00      	add	r7, sp, #0
 80044aa:	6078      	str	r0, [r7, #4]
  uint32_t request =  hdma->Init.Request & DMAMUX_CxCR_DMAREQ_ID;
 80044ac:	687b      	ldr	r3, [r7, #4]
 80044ae:	685b      	ldr	r3, [r3, #4]
 80044b0:	b2db      	uxtb	r3, r3
 80044b2:	60fb      	str	r3, [r7, #12]

  /* DMA Channels are connected to DMAMUX1 request generator blocks*/
  hdma->DMAmuxRequestGen = (DMAMUX_RequestGen_TypeDef *)((uint32_t)(((uint32_t)DMAMUX1_RequestGenerator0) + ((request - 1U) * 4U)));
 80044b4:	68fa      	ldr	r2, [r7, #12]
 80044b6:	4b0b      	ldr	r3, [pc, #44]	; (80044e4 <DMA_CalcDMAMUXRequestGenBaseAndMask+0x40>)
 80044b8:	4413      	add	r3, r2
 80044ba:	009b      	lsls	r3, r3, #2
 80044bc:	461a      	mov	r2, r3
 80044be:	687b      	ldr	r3, [r7, #4]
 80044c0:	655a      	str	r2, [r3, #84]	; 0x54

  hdma->DMAmuxRequestGenStatus = DMAMUX1_RequestGenStatus;
 80044c2:	687b      	ldr	r3, [r7, #4]
 80044c4:	4a08      	ldr	r2, [pc, #32]	; (80044e8 <DMA_CalcDMAMUXRequestGenBaseAndMask+0x44>)
 80044c6:	659a      	str	r2, [r3, #88]	; 0x58

  hdma->DMAmuxRequestGenStatusMask = 1UL << ((request - 1U) & 0x1FU);
 80044c8:	68fb      	ldr	r3, [r7, #12]
 80044ca:	3b01      	subs	r3, #1
 80044cc:	f003 031f 	and.w	r3, r3, #31
 80044d0:	2201      	movs	r2, #1
 80044d2:	409a      	lsls	r2, r3
 80044d4:	687b      	ldr	r3, [r7, #4]
 80044d6:	65da      	str	r2, [r3, #92]	; 0x5c
}
 80044d8:	bf00      	nop
 80044da:	3714      	adds	r7, #20
 80044dc:	46bd      	mov	sp, r7
 80044de:	f85d 7b04 	ldr.w	r7, [sp], #4
 80044e2:	4770      	bx	lr
 80044e4:	1000823f 	.word	0x1000823f
 80044e8:	40020940 	.word	0x40020940

080044ec <HAL_GPIO_Init>:
  * @param  GPIO_Init pointer to a GPIO_InitTypeDef structure that contains
  *         the configuration information for the specified GPIO peripheral.
  * @retval None
  */
void HAL_GPIO_Init(GPIO_TypeDef  *GPIOx, GPIO_InitTypeDef *GPIO_Init)
{
 80044ec:	b480      	push	{r7}
 80044ee:	b087      	sub	sp, #28
 80044f0:	af00      	add	r7, sp, #0
 80044f2:	6078      	str	r0, [r7, #4]
 80044f4:	6039      	str	r1, [r7, #0]
  uint32_t position = 0x00U;
 80044f6:	2300      	movs	r3, #0
 80044f8:	617b      	str	r3, [r7, #20]
  assert_param(IS_GPIO_PIN(GPIO_Init->Pin));
  assert_param(IS_GPIO_MODE(GPIO_Init->Mode));
  assert_param(IS_GPIO_PULL(GPIO_Init->Pull));

  /* Configure the port pins */
  while (((GPIO_Init->Pin) >> position) != 0U)
 80044fa:	e15a      	b.n	80047b2 <HAL_GPIO_Init+0x2c6>
  {
    /* Get current io position */
    iocurrent = (GPIO_Init->Pin) & (1UL << position);
 80044fc:	683b      	ldr	r3, [r7, #0]
 80044fe:	681a      	ldr	r2, [r3, #0]
 8004500:	2101      	movs	r1, #1
 8004502:	697b      	ldr	r3, [r7, #20]
 8004504:	fa01 f303 	lsl.w	r3, r1, r3
 8004508:	4013      	ands	r3, r2
 800450a:	60fb      	str	r3, [r7, #12]

    if (iocurrent != 0x00u)
 800450c:	68fb      	ldr	r3, [r7, #12]
 800450e:	2b00      	cmp	r3, #0
 8004510:	f000 814c 	beq.w	80047ac <HAL_GPIO_Init+0x2c0>
    {
      /*--------------------- GPIO Mode Configuration ------------------------*/
      /* In case of Output or Alternate function mode selection */
      if ((GPIO_Init->Mode == GPIO_MODE_OUTPUT_PP) || (GPIO_Init->Mode == GPIO_MODE_AF_PP) ||
 8004514:	683b      	ldr	r3, [r7, #0]
 8004516:	685b      	ldr	r3, [r3, #4]
 8004518:	2b01      	cmp	r3, #1
 800451a:	d00b      	beq.n	8004534 <HAL_GPIO_Init+0x48>
 800451c:	683b      	ldr	r3, [r7, #0]
 800451e:	685b      	ldr	r3, [r3, #4]
 8004520:	2b02      	cmp	r3, #2
 8004522:	d007      	beq.n	8004534 <HAL_GPIO_Init+0x48>
          (GPIO_Init->Mode == GPIO_MODE_OUTPUT_OD) || (GPIO_Init->Mode == GPIO_MODE_AF_OD))
 8004524:	683b      	ldr	r3, [r7, #0]
 8004526:	685b      	ldr	r3, [r3, #4]
      if ((GPIO_Init->Mode == GPIO_MODE_OUTPUT_PP) || (GPIO_Init->Mode == GPIO_MODE_AF_PP) ||
 8004528:	2b11      	cmp	r3, #17
 800452a:	d003      	beq.n	8004534 <HAL_GPIO_Init+0x48>
          (GPIO_Init->Mode == GPIO_MODE_OUTPUT_OD) || (GPIO_Init->Mode == GPIO_MODE_AF_OD))
 800452c:	683b      	ldr	r3, [r7, #0]
 800452e:	685b      	ldr	r3, [r3, #4]
 8004530:	2b12      	cmp	r3, #18
 8004532:	d130      	bne.n	8004596 <HAL_GPIO_Init+0xaa>
      {
        /* Check the Speed parameter */
        assert_param(IS_GPIO_SPEED(GPIO_Init->Speed));
        /* Configure the IO Speed */
        temp = GPIOx->OSPEEDR;
 8004534:	687b      	ldr	r3, [r7, #4]
 8004536:	689b      	ldr	r3, [r3, #8]
 8004538:	613b      	str	r3, [r7, #16]
        temp &= ~(GPIO_OSPEEDR_OSPEED0 << (position * 2U));
 800453a:	697b      	ldr	r3, [r7, #20]
 800453c:	005b      	lsls	r3, r3, #1
 800453e:	2203      	movs	r2, #3
 8004540:	fa02 f303 	lsl.w	r3, r2, r3
 8004544:	43db      	mvns	r3, r3
 8004546:	693a      	ldr	r2, [r7, #16]
 8004548:	4013      	ands	r3, r2
 800454a:	613b      	str	r3, [r7, #16]
        temp |= (GPIO_Init->Speed << (position * 2U));
 800454c:	683b      	ldr	r3, [r7, #0]
 800454e:	68da      	ldr	r2, [r3, #12]
 8004550:	697b      	ldr	r3, [r7, #20]
 8004552:	005b      	lsls	r3, r3, #1
 8004554:	fa02 f303 	lsl.w	r3, r2, r3
 8004558:	693a      	ldr	r2, [r7, #16]
 800455a:	4313      	orrs	r3, r2
 800455c:	613b      	str	r3, [r7, #16]
        GPIOx->OSPEEDR = temp;
 800455e:	687b      	ldr	r3, [r7, #4]
 8004560:	693a      	ldr	r2, [r7, #16]
 8004562:	609a      	str	r2, [r3, #8]

        /* Configure the IO Output Type */
        temp = GPIOx->OTYPER;
 8004564:	687b      	ldr	r3, [r7, #4]
 8004566:	685b      	ldr	r3, [r3, #4]
 8004568:	613b      	str	r3, [r7, #16]
        temp &= ~(GPIO_OTYPER_OT0 << position) ;
 800456a:	2201      	movs	r2, #1
 800456c:	697b      	ldr	r3, [r7, #20]
 800456e:	fa02 f303 	lsl.w	r3, r2, r3
 8004572:	43db      	mvns	r3, r3
 8004574:	693a      	ldr	r2, [r7, #16]
 8004576:	4013      	ands	r3, r2
 8004578:	613b      	str	r3, [r7, #16]
        temp |= (((GPIO_Init->Mode & GPIO_OUTPUT_TYPE) >> 4U) << position);
 800457a:	683b      	ldr	r3, [r7, #0]
 800457c:	685b      	ldr	r3, [r3, #4]
 800457e:	091b      	lsrs	r3, r3, #4
 8004580:	f003 0201 	and.w	r2, r3, #1
 8004584:	697b      	ldr	r3, [r7, #20]
 8004586:	fa02 f303 	lsl.w	r3, r2, r3
 800458a:	693a      	ldr	r2, [r7, #16]
 800458c:	4313      	orrs	r3, r2
 800458e:	613b      	str	r3, [r7, #16]
        GPIOx->OTYPER = temp;
 8004590:	687b      	ldr	r3, [r7, #4]
 8004592:	693a      	ldr	r2, [r7, #16]
 8004594:	605a      	str	r2, [r3, #4]
      }

      /* Activate the Pull-up or Pull down resistor for the current IO */
      temp = GPIOx->PUPDR;
 8004596:	687b      	ldr	r3, [r7, #4]
 8004598:	68db      	ldr	r3, [r3, #12]
 800459a:	613b      	str	r3, [r7, #16]
      temp &= ~(GPIO_PUPDR_PUPD0 << (position * 2U));
 800459c:	697b      	ldr	r3, [r7, #20]
 800459e:	005b      	lsls	r3, r3, #1
 80045a0:	2203      	movs	r2, #3
 80045a2:	fa02 f303 	lsl.w	r3, r2, r3
 80045a6:	43db      	mvns	r3, r3
 80045a8:	693a      	ldr	r2, [r7, #16]
 80045aa:	4013      	ands	r3, r2
 80045ac:	613b      	str	r3, [r7, #16]
      temp |= ((GPIO_Init->Pull) << (position * 2U));
 80045ae:	683b      	ldr	r3, [r7, #0]
 80045b0:	689a      	ldr	r2, [r3, #8]
 80045b2:	697b      	ldr	r3, [r7, #20]
 80045b4:	005b      	lsls	r3, r3, #1
 80045b6:	fa02 f303 	lsl.w	r3, r2, r3
 80045ba:	693a      	ldr	r2, [r7, #16]
 80045bc:	4313      	orrs	r3, r2
 80045be:	613b      	str	r3, [r7, #16]
      GPIOx->PUPDR = temp;
 80045c0:	687b      	ldr	r3, [r7, #4]
 80045c2:	693a      	ldr	r2, [r7, #16]
 80045c4:	60da      	str	r2, [r3, #12]

      /* In case of Alternate function mode selection */
      if ((GPIO_Init->Mode == GPIO_MODE_AF_PP) || (GPIO_Init->Mode == GPIO_MODE_AF_OD))
 80045c6:	683b      	ldr	r3, [r7, #0]
 80045c8:	685b      	ldr	r3, [r3, #4]
 80045ca:	2b02      	cmp	r3, #2
 80045cc:	d003      	beq.n	80045d6 <HAL_GPIO_Init+0xea>
 80045ce:	683b      	ldr	r3, [r7, #0]
 80045d0:	685b      	ldr	r3, [r3, #4]
 80045d2:	2b12      	cmp	r3, #18
 80045d4:	d123      	bne.n	800461e <HAL_GPIO_Init+0x132>
        /* Check the Alternate function parameters */
        assert_param(IS_GPIO_AF_INSTANCE(GPIOx));
        assert_param(IS_GPIO_AF(GPIO_Init->Alternate));

        /* Configure Alternate function mapped with the current IO */
        temp = GPIOx->AFR[position >> 3U];
 80045d6:	697b      	ldr	r3, [r7, #20]
 80045d8:	08da      	lsrs	r2, r3, #3
 80045da:	687b      	ldr	r3, [r7, #4]
 80045dc:	3208      	adds	r2, #8
 80045de:	f853 3022 	ldr.w	r3, [r3, r2, lsl #2]
 80045e2:	613b      	str	r3, [r7, #16]
        temp &= ~(0xFU << ((position & 0x07U) * 4U));
 80045e4:	697b      	ldr	r3, [r7, #20]
 80045e6:	f003 0307 	and.w	r3, r3, #7
 80045ea:	009b      	lsls	r3, r3, #2
 80045ec:	220f      	movs	r2, #15
 80045ee:	fa02 f303 	lsl.w	r3, r2, r3
 80045f2:	43db      	mvns	r3, r3
 80045f4:	693a      	ldr	r2, [r7, #16]
 80045f6:	4013      	ands	r3, r2
 80045f8:	613b      	str	r3, [r7, #16]
        temp |= ((GPIO_Init->Alternate) << ((position & 0x07U) * 4U));
 80045fa:	683b      	ldr	r3, [r7, #0]
 80045fc:	691a      	ldr	r2, [r3, #16]
 80045fe:	697b      	ldr	r3, [r7, #20]
 8004600:	f003 0307 	and.w	r3, r3, #7
 8004604:	009b      	lsls	r3, r3, #2
 8004606:	fa02 f303 	lsl.w	r3, r2, r3
 800460a:	693a      	ldr	r2, [r7, #16]
 800460c:	4313      	orrs	r3, r2
 800460e:	613b      	str	r3, [r7, #16]
        GPIOx->AFR[position >> 3U] = temp;
 8004610:	697b      	ldr	r3, [r7, #20]
 8004612:	08da      	lsrs	r2, r3, #3
 8004614:	687b      	ldr	r3, [r7, #4]
 8004616:	3208      	adds	r2, #8
 8004618:	6939      	ldr	r1, [r7, #16]
 800461a:	f843 1022 	str.w	r1, [r3, r2, lsl #2]
      }

      /* Configure IO Direction mode (Input, Output, Alternate or Analog) */
      temp = GPIOx->MODER;
 800461e:	687b      	ldr	r3, [r7, #4]
 8004620:	681b      	ldr	r3, [r3, #0]
 8004622:	613b      	str	r3, [r7, #16]
      temp &= ~(GPIO_MODER_MODE0 << (position * 2U));
 8004624:	697b      	ldr	r3, [r7, #20]
 8004626:	005b      	lsls	r3, r3, #1
 8004628:	2203      	movs	r2, #3
 800462a:	fa02 f303 	lsl.w	r3, r2, r3
 800462e:	43db      	mvns	r3, r3
 8004630:	693a      	ldr	r2, [r7, #16]
 8004632:	4013      	ands	r3, r2
 8004634:	613b      	str	r3, [r7, #16]
      temp |= ((GPIO_Init->Mode & GPIO_MODE) << (position * 2U));
 8004636:	683b      	ldr	r3, [r7, #0]
 8004638:	685b      	ldr	r3, [r3, #4]
 800463a:	f003 0203 	and.w	r2, r3, #3
 800463e:	697b      	ldr	r3, [r7, #20]
 8004640:	005b      	lsls	r3, r3, #1
 8004642:	fa02 f303 	lsl.w	r3, r2, r3
 8004646:	693a      	ldr	r2, [r7, #16]
 8004648:	4313      	orrs	r3, r2
 800464a:	613b      	str	r3, [r7, #16]
      GPIOx->MODER = temp;
 800464c:	687b      	ldr	r3, [r7, #4]
 800464e:	693a      	ldr	r2, [r7, #16]
 8004650:	601a      	str	r2, [r3, #0]

      /*--------------------- EXTI Mode Configuration ------------------------*/
      /* Configure the External Interrupt or event for the current IO */
      if ((GPIO_Init->Mode & EXTI_MODE) == EXTI_MODE)
 8004652:	683b      	ldr	r3, [r7, #0]
 8004654:	685b      	ldr	r3, [r3, #4]
 8004656:	f003 5380 	and.w	r3, r3, #268435456	; 0x10000000
 800465a:	2b00      	cmp	r3, #0
 800465c:	f000 80a6 	beq.w	80047ac <HAL_GPIO_Init+0x2c0>
      {
        /* Enable SYSCFG Clock */
        __HAL_RCC_SYSCFG_CLK_ENABLE();
 8004660:	4b5b      	ldr	r3, [pc, #364]	; (80047d0 <HAL_GPIO_Init+0x2e4>)
 8004662:	6e1b      	ldr	r3, [r3, #96]	; 0x60
 8004664:	4a5a      	ldr	r2, [pc, #360]	; (80047d0 <HAL_GPIO_Init+0x2e4>)
 8004666:	f043 0301 	orr.w	r3, r3, #1
 800466a:	6613      	str	r3, [r2, #96]	; 0x60
 800466c:	4b58      	ldr	r3, [pc, #352]	; (80047d0 <HAL_GPIO_Init+0x2e4>)
 800466e:	6e1b      	ldr	r3, [r3, #96]	; 0x60
 8004670:	f003 0301 	and.w	r3, r3, #1
 8004674:	60bb      	str	r3, [r7, #8]
 8004676:	68bb      	ldr	r3, [r7, #8]

        temp = SYSCFG->EXTICR[position >> 2U];
 8004678:	4a56      	ldr	r2, [pc, #344]	; (80047d4 <HAL_GPIO_Init+0x2e8>)
 800467a:	697b      	ldr	r3, [r7, #20]
 800467c:	089b      	lsrs	r3, r3, #2
 800467e:	3302      	adds	r3, #2
 8004680:	f852 3023 	ldr.w	r3, [r2, r3, lsl #2]
 8004684:	613b      	str	r3, [r7, #16]
        temp &= ~(0x0FUL << (4U * (position & 0x03U)));
 8004686:	697b      	ldr	r3, [r7, #20]
 8004688:	f003 0303 	and.w	r3, r3, #3
 800468c:	009b      	lsls	r3, r3, #2
 800468e:	220f      	movs	r2, #15
 8004690:	fa02 f303 	lsl.w	r3, r2, r3
 8004694:	43db      	mvns	r3, r3
 8004696:	693a      	ldr	r2, [r7, #16]
 8004698:	4013      	ands	r3, r2
 800469a:	613b      	str	r3, [r7, #16]
        temp |= (GPIO_GET_INDEX(GPIOx) << (4U * (position & 0x03U)));
 800469c:	687b      	ldr	r3, [r7, #4]
 800469e:	f1b3 4f90 	cmp.w	r3, #1207959552	; 0x48000000
 80046a2:	d01f      	beq.n	80046e4 <HAL_GPIO_Init+0x1f8>
 80046a4:	687b      	ldr	r3, [r7, #4]
 80046a6:	4a4c      	ldr	r2, [pc, #304]	; (80047d8 <HAL_GPIO_Init+0x2ec>)
 80046a8:	4293      	cmp	r3, r2
 80046aa:	d019      	beq.n	80046e0 <HAL_GPIO_Init+0x1f4>
 80046ac:	687b      	ldr	r3, [r7, #4]
 80046ae:	4a4b      	ldr	r2, [pc, #300]	; (80047dc <HAL_GPIO_Init+0x2f0>)
 80046b0:	4293      	cmp	r3, r2
 80046b2:	d013      	beq.n	80046dc <HAL_GPIO_Init+0x1f0>
 80046b4:	687b      	ldr	r3, [r7, #4]
 80046b6:	4a4a      	ldr	r2, [pc, #296]	; (80047e0 <HAL_GPIO_Init+0x2f4>)
 80046b8:	4293      	cmp	r3, r2
 80046ba:	d00d      	beq.n	80046d8 <HAL_GPIO_Init+0x1ec>
 80046bc:	687b      	ldr	r3, [r7, #4]
 80046be:	4a49      	ldr	r2, [pc, #292]	; (80047e4 <HAL_GPIO_Init+0x2f8>)
 80046c0:	4293      	cmp	r3, r2
 80046c2:	d007      	beq.n	80046d4 <HAL_GPIO_Init+0x1e8>
 80046c4:	687b      	ldr	r3, [r7, #4]
 80046c6:	4a48      	ldr	r2, [pc, #288]	; (80047e8 <HAL_GPIO_Init+0x2fc>)
 80046c8:	4293      	cmp	r3, r2
 80046ca:	d101      	bne.n	80046d0 <HAL_GPIO_Init+0x1e4>
 80046cc:	2305      	movs	r3, #5
 80046ce:	e00a      	b.n	80046e6 <HAL_GPIO_Init+0x1fa>
 80046d0:	2306      	movs	r3, #6
 80046d2:	e008      	b.n	80046e6 <HAL_GPIO_Init+0x1fa>
 80046d4:	2304      	movs	r3, #4
 80046d6:	e006      	b.n	80046e6 <HAL_GPIO_Init+0x1fa>
 80046d8:	2303      	movs	r3, #3
 80046da:	e004      	b.n	80046e6 <HAL_GPIO_Init+0x1fa>
 80046dc:	2302      	movs	r3, #2
 80046de:	e002      	b.n	80046e6 <HAL_GPIO_Init+0x1fa>
 80046e0:	2301      	movs	r3, #1
 80046e2:	e000      	b.n	80046e6 <HAL_GPIO_Init+0x1fa>
 80046e4:	2300      	movs	r3, #0
 80046e6:	697a      	ldr	r2, [r7, #20]
 80046e8:	f002 0203 	and.w	r2, r2, #3
 80046ec:	0092      	lsls	r2, r2, #2
 80046ee:	4093      	lsls	r3, r2
 80046f0:	693a      	ldr	r2, [r7, #16]
 80046f2:	4313      	orrs	r3, r2
 80046f4:	613b      	str	r3, [r7, #16]
        SYSCFG->EXTICR[position >> 2U] = temp;
 80046f6:	4937      	ldr	r1, [pc, #220]	; (80047d4 <HAL_GPIO_Init+0x2e8>)
 80046f8:	697b      	ldr	r3, [r7, #20]
 80046fa:	089b      	lsrs	r3, r3, #2
 80046fc:	3302      	adds	r3, #2
 80046fe:	693a      	ldr	r2, [r7, #16]
 8004700:	f841 2023 	str.w	r2, [r1, r3, lsl #2]

        /* Clear EXTI line configuration */
        temp = EXTI->IMR1;
 8004704:	4b39      	ldr	r3, [pc, #228]	; (80047ec <HAL_GPIO_Init+0x300>)
 8004706:	681b      	ldr	r3, [r3, #0]
 8004708:	613b      	str	r3, [r7, #16]
        temp &= ~(iocurrent);
 800470a:	68fb      	ldr	r3, [r7, #12]
 800470c:	43db      	mvns	r3, r3
 800470e:	693a      	ldr	r2, [r7, #16]
 8004710:	4013      	ands	r3, r2
 8004712:	613b      	str	r3, [r7, #16]
        if ((GPIO_Init->Mode & GPIO_MODE_IT) == GPIO_MODE_IT)
 8004714:	683b      	ldr	r3, [r7, #0]
 8004716:	685b      	ldr	r3, [r3, #4]
 8004718:	f403 3380 	and.w	r3, r3, #65536	; 0x10000
 800471c:	2b00      	cmp	r3, #0
 800471e:	d003      	beq.n	8004728 <HAL_GPIO_Init+0x23c>
        {
          temp |= iocurrent;
 8004720:	693a      	ldr	r2, [r7, #16]
 8004722:	68fb      	ldr	r3, [r7, #12]
 8004724:	4313      	orrs	r3, r2
 8004726:	613b      	str	r3, [r7, #16]
        }
        EXTI->IMR1 = temp;
 8004728:	4a30      	ldr	r2, [pc, #192]	; (80047ec <HAL_GPIO_Init+0x300>)
 800472a:	693b      	ldr	r3, [r7, #16]
 800472c:	6013      	str	r3, [r2, #0]

        temp = EXTI->EMR1;
 800472e:	4b2f      	ldr	r3, [pc, #188]	; (80047ec <HAL_GPIO_Init+0x300>)
 8004730:	685b      	ldr	r3, [r3, #4]
 8004732:	613b      	str	r3, [r7, #16]
        temp &= ~(iocurrent);
 8004734:	68fb      	ldr	r3, [r7, #12]
 8004736:	43db      	mvns	r3, r3
 8004738:	693a      	ldr	r2, [r7, #16]
 800473a:	4013      	ands	r3, r2
 800473c:	613b      	str	r3, [r7, #16]
        if ((GPIO_Init->Mode & GPIO_MODE_EVT) == GPIO_MODE_EVT)
 800473e:	683b      	ldr	r3, [r7, #0]
 8004740:	685b      	ldr	r3, [r3, #4]
 8004742:	f403 3300 	and.w	r3, r3, #131072	; 0x20000
 8004746:	2b00      	cmp	r3, #0
 8004748:	d003      	beq.n	8004752 <HAL_GPIO_Init+0x266>
        {
          temp |= iocurrent;
 800474a:	693a      	ldr	r2, [r7, #16]
 800474c:	68fb      	ldr	r3, [r7, #12]
 800474e:	4313      	orrs	r3, r2
 8004750:	613b      	str	r3, [r7, #16]
        }
        EXTI->EMR1 = temp;
 8004752:	4a26      	ldr	r2, [pc, #152]	; (80047ec <HAL_GPIO_Init+0x300>)
 8004754:	693b      	ldr	r3, [r7, #16]
 8004756:	6053      	str	r3, [r2, #4]

        /* Clear Rising Falling edge configuration */
        temp = EXTI->RTSR1;
 8004758:	4b24      	ldr	r3, [pc, #144]	; (80047ec <HAL_GPIO_Init+0x300>)
 800475a:	689b      	ldr	r3, [r3, #8]
 800475c:	613b      	str	r3, [r7, #16]
        temp &= ~(iocurrent);
 800475e:	68fb      	ldr	r3, [r7, #12]
 8004760:	43db      	mvns	r3, r3
 8004762:	693a      	ldr	r2, [r7, #16]
 8004764:	4013      	ands	r3, r2
 8004766:	613b      	str	r3, [r7, #16]
        if ((GPIO_Init->Mode & RISING_EDGE) == RISING_EDGE)
 8004768:	683b      	ldr	r3, [r7, #0]
 800476a:	685b      	ldr	r3, [r3, #4]
 800476c:	f403 1380 	and.w	r3, r3, #1048576	; 0x100000
 8004770:	2b00      	cmp	r3, #0
 8004772:	d003      	beq.n	800477c <HAL_GPIO_Init+0x290>
        {
          temp |= iocurrent;
 8004774:	693a      	ldr	r2, [r7, #16]
 8004776:	68fb      	ldr	r3, [r7, #12]
 8004778:	4313      	orrs	r3, r2
 800477a:	613b      	str	r3, [r7, #16]
        }
        EXTI->RTSR1 = temp;
 800477c:	4a1b      	ldr	r2, [pc, #108]	; (80047ec <HAL_GPIO_Init+0x300>)
 800477e:	693b      	ldr	r3, [r7, #16]
 8004780:	6093      	str	r3, [r2, #8]

        temp = EXTI->FTSR1;
 8004782:	4b1a      	ldr	r3, [pc, #104]	; (80047ec <HAL_GPIO_Init+0x300>)
 8004784:	68db      	ldr	r3, [r3, #12]
 8004786:	613b      	str	r3, [r7, #16]
        temp &= ~(iocurrent);
 8004788:	68fb      	ldr	r3, [r7, #12]
 800478a:	43db      	mvns	r3, r3
 800478c:	693a      	ldr	r2, [r7, #16]
 800478e:	4013      	ands	r3, r2
 8004790:	613b      	str	r3, [r7, #16]
        if ((GPIO_Init->Mode & FALLING_EDGE) == FALLING_EDGE)
 8004792:	683b      	ldr	r3, [r7, #0]
 8004794:	685b      	ldr	r3, [r3, #4]
 8004796:	f403 1300 	and.w	r3, r3, #2097152	; 0x200000
 800479a:	2b00      	cmp	r3, #0
 800479c:	d003      	beq.n	80047a6 <HAL_GPIO_Init+0x2ba>
        {
          temp |= iocurrent;
 800479e:	693a      	ldr	r2, [r7, #16]
 80047a0:	68fb      	ldr	r3, [r7, #12]
 80047a2:	4313      	orrs	r3, r2
 80047a4:	613b      	str	r3, [r7, #16]
        }
        EXTI->FTSR1 = temp;
 80047a6:	4a11      	ldr	r2, [pc, #68]	; (80047ec <HAL_GPIO_Init+0x300>)
 80047a8:	693b      	ldr	r3, [r7, #16]
 80047aa:	60d3      	str	r3, [r2, #12]
      }
    }

    position++;
 80047ac:	697b      	ldr	r3, [r7, #20]
 80047ae:	3301      	adds	r3, #1
 80047b0:	617b      	str	r3, [r7, #20]
  while (((GPIO_Init->Pin) >> position) != 0U)
 80047b2:	683b      	ldr	r3, [r7, #0]
 80047b4:	681a      	ldr	r2, [r3, #0]
 80047b6:	697b      	ldr	r3, [r7, #20]
 80047b8:	fa22 f303 	lsr.w	r3, r2, r3
 80047bc:	2b00      	cmp	r3, #0
 80047be:	f47f ae9d 	bne.w	80044fc <HAL_GPIO_Init+0x10>
  }
}
 80047c2:	bf00      	nop
 80047c4:	371c      	adds	r7, #28
 80047c6:	46bd      	mov	sp, r7
 80047c8:	f85d 7b04 	ldr.w	r7, [sp], #4
 80047cc:	4770      	bx	lr
 80047ce:	bf00      	nop
 80047d0:	40021000 	.word	0x40021000
 80047d4:	40010000 	.word	0x40010000
 80047d8:	48000400 	.word	0x48000400
 80047dc:	48000800 	.word	0x48000800
 80047e0:	48000c00 	.word	0x48000c00
 80047e4:	48001000 	.word	0x48001000
 80047e8:	48001400 	.word	0x48001400
 80047ec:	40010400 	.word	0x40010400

080047f0 <HAL_GPIO_ReadPin>:
  * @param  GPIO_Pin specifies the port bit to read.
  *         This parameter can be any combination of GPIO_PIN_x where x can be (0..15).
  * @retval The input port pin value.
  */
GPIO_PinState HAL_GPIO_ReadPin(GPIO_TypeDef *GPIOx, uint16_t GPIO_Pin)
{
 80047f0:	b480      	push	{r7}
 80047f2:	b085      	sub	sp, #20
 80047f4:	af00      	add	r7, sp, #0
 80047f6:	6078      	str	r0, [r7, #4]
 80047f8:	460b      	mov	r3, r1
 80047fa:	807b      	strh	r3, [r7, #2]
  GPIO_PinState bitstatus;

  /* Check the parameters */
  assert_param(IS_GPIO_PIN(GPIO_Pin));

  if ((GPIOx->IDR & GPIO_Pin) != 0x00U)
 80047fc:	687b      	ldr	r3, [r7, #4]
 80047fe:	691a      	ldr	r2, [r3, #16]
 8004800:	887b      	ldrh	r3, [r7, #2]
 8004802:	4013      	ands	r3, r2
 8004804:	2b00      	cmp	r3, #0
 8004806:	d002      	beq.n	800480e <HAL_GPIO_ReadPin+0x1e>
  {
    bitstatus = GPIO_PIN_SET;
 8004808:	2301      	movs	r3, #1
 800480a:	73fb      	strb	r3, [r7, #15]
 800480c:	e001      	b.n	8004812 <HAL_GPIO_ReadPin+0x22>
  }
  else
  {
    bitstatus = GPIO_PIN_RESET;
 800480e:	2300      	movs	r3, #0
 8004810:	73fb      	strb	r3, [r7, #15]
  }
  return bitstatus;
 8004812:	7bfb      	ldrb	r3, [r7, #15]
}
 8004814:	4618      	mov	r0, r3
 8004816:	3714      	adds	r7, #20
 8004818:	46bd      	mov	sp, r7
 800481a:	f85d 7b04 	ldr.w	r7, [sp], #4
 800481e:	4770      	bx	lr

08004820 <HAL_GPIO_WritePin>:
  *            @arg GPIO_PIN_RESET: to clear the port pin
  *            @arg GPIO_PIN_SET: to set the port pin
  * @retval None
  */
void HAL_GPIO_WritePin(GPIO_TypeDef *GPIOx, uint16_t GPIO_Pin, GPIO_PinState PinState)
{
 8004820:	b480      	push	{r7}
 8004822:	b083      	sub	sp, #12
 8004824:	af00      	add	r7, sp, #0
 8004826:	6078      	str	r0, [r7, #4]
 8004828:	460b      	mov	r3, r1
 800482a:	807b      	strh	r3, [r7, #2]
 800482c:	4613      	mov	r3, r2
 800482e:	707b      	strb	r3, [r7, #1]
  /* Check the parameters */
  assert_param(IS_GPIO_PIN(GPIO_Pin));
  assert_param(IS_GPIO_PIN_ACTION(PinState));

  if (PinState != GPIO_PIN_RESET)
 8004830:	787b      	ldrb	r3, [r7, #1]
 8004832:	2b00      	cmp	r3, #0
 8004834:	d003      	beq.n	800483e <HAL_GPIO_WritePin+0x1e>
  {
    GPIOx->BSRR = (uint32_t)GPIO_Pin;
 8004836:	887a      	ldrh	r2, [r7, #2]
 8004838:	687b      	ldr	r3, [r7, #4]
 800483a:	619a      	str	r2, [r3, #24]
  }
  else
  {
    GPIOx->BRR = (uint32_t)GPIO_Pin;
  }
}
 800483c:	e002      	b.n	8004844 <HAL_GPIO_WritePin+0x24>
    GPIOx->BRR = (uint32_t)GPIO_Pin;
 800483e:	887a      	ldrh	r2, [r7, #2]
 8004840:	687b      	ldr	r3, [r7, #4]
 8004842:	629a      	str	r2, [r3, #40]	; 0x28
}
 8004844:	bf00      	nop
 8004846:	370c      	adds	r7, #12
 8004848:	46bd      	mov	sp, r7
 800484a:	f85d 7b04 	ldr.w	r7, [sp], #4
 800484e:	4770      	bx	lr

08004850 <HAL_PWREx_ControlVoltageScaling>:
  *        cleared before returning the status. If the flag is not cleared within
  *        50 microseconds, HAL_TIMEOUT status is reported.
  * @retval HAL Status
  */
HAL_StatusTypeDef HAL_PWREx_ControlVoltageScaling(uint32_t VoltageScaling)
{
 8004850:	b480      	push	{r7}
 8004852:	b085      	sub	sp, #20
 8004854:	af00      	add	r7, sp, #0
 8004856:	6078      	str	r0, [r7, #4]
  uint32_t wait_loop_index;

  assert_param(IS_PWR_VOLTAGE_SCALING_RANGE(VoltageScaling));

  if (VoltageScaling == PWR_REGULATOR_VOLTAGE_SCALE1_BOOST)
 8004858:	687b      	ldr	r3, [r7, #4]
 800485a:	2b00      	cmp	r3, #0
 800485c:	d141      	bne.n	80048e2 <HAL_PWREx_ControlVoltageScaling+0x92>
  {
    /* If current range is range 2 */
    if (READ_BIT(PWR->CR1, PWR_CR1_VOS) == PWR_REGULATOR_VOLTAGE_SCALE2)
 800485e:	4b4b      	ldr	r3, [pc, #300]	; (800498c <HAL_PWREx_ControlVoltageScaling+0x13c>)
 8004860:	681b      	ldr	r3, [r3, #0]
 8004862:	f403 63c0 	and.w	r3, r3, #1536	; 0x600
 8004866:	f5b3 6f80 	cmp.w	r3, #1024	; 0x400
 800486a:	d131      	bne.n	80048d0 <HAL_PWREx_ControlVoltageScaling+0x80>
    {
      /* Make sure Range 1 Boost is enabled */
      CLEAR_BIT(PWR->CR5, PWR_CR5_R1MODE);
 800486c:	4b47      	ldr	r3, [pc, #284]	; (800498c <HAL_PWREx_ControlVoltageScaling+0x13c>)
 800486e:	f8d3 3080 	ldr.w	r3, [r3, #128]	; 0x80
 8004872:	4a46      	ldr	r2, [pc, #280]	; (800498c <HAL_PWREx_ControlVoltageScaling+0x13c>)
 8004874:	f423 7380 	bic.w	r3, r3, #256	; 0x100
 8004878:	f8c2 3080 	str.w	r3, [r2, #128]	; 0x80

      /* Set Range 1 */
      MODIFY_REG(PWR->CR1, PWR_CR1_VOS, PWR_REGULATOR_VOLTAGE_SCALE1);
 800487c:	4b43      	ldr	r3, [pc, #268]	; (800498c <HAL_PWREx_ControlVoltageScaling+0x13c>)
 800487e:	681b      	ldr	r3, [r3, #0]
 8004880:	f423 63c0 	bic.w	r3, r3, #1536	; 0x600
 8004884:	4a41      	ldr	r2, [pc, #260]	; (800498c <HAL_PWREx_ControlVoltageScaling+0x13c>)
 8004886:	f443 7300 	orr.w	r3, r3, #512	; 0x200
 800488a:	6013      	str	r3, [r2, #0]

      /* Wait until VOSF is cleared */
      wait_loop_index = ((PWR_FLAG_SETTING_DELAY_US * SystemCoreClock) / 1000000U) + 1U;
 800488c:	4b40      	ldr	r3, [pc, #256]	; (8004990 <HAL_PWREx_ControlVoltageScaling+0x140>)
 800488e:	681b      	ldr	r3, [r3, #0]
 8004890:	2232      	movs	r2, #50	; 0x32
 8004892:	fb02 f303 	mul.w	r3, r2, r3
 8004896:	4a3f      	ldr	r2, [pc, #252]	; (8004994 <HAL_PWREx_ControlVoltageScaling+0x144>)
 8004898:	fba2 2303 	umull	r2, r3, r2, r3
 800489c:	0c9b      	lsrs	r3, r3, #18
 800489e:	3301      	adds	r3, #1
 80048a0:	60fb      	str	r3, [r7, #12]
      while ((HAL_IS_BIT_SET(PWR->SR2, PWR_SR2_VOSF)) && (wait_loop_index != 0U))
 80048a2:	e002      	b.n	80048aa <HAL_PWREx_ControlVoltageScaling+0x5a>
      {
        wait_loop_index--;
 80048a4:	68fb      	ldr	r3, [r7, #12]
 80048a6:	3b01      	subs	r3, #1
 80048a8:	60fb      	str	r3, [r7, #12]
      while ((HAL_IS_BIT_SET(PWR->SR2, PWR_SR2_VOSF)) && (wait_loop_index != 0U))
 80048aa:	4b38      	ldr	r3, [pc, #224]	; (800498c <HAL_PWREx_ControlVoltageScaling+0x13c>)
 80048ac:	695b      	ldr	r3, [r3, #20]
 80048ae:	f403 6380 	and.w	r3, r3, #1024	; 0x400
 80048b2:	f5b3 6f80 	cmp.w	r3, #1024	; 0x400
 80048b6:	d102      	bne.n	80048be <HAL_PWREx_ControlVoltageScaling+0x6e>
 80048b8:	68fb      	ldr	r3, [r7, #12]
 80048ba:	2b00      	cmp	r3, #0
 80048bc:	d1f2      	bne.n	80048a4 <HAL_PWREx_ControlVoltageScaling+0x54>
      }
      if (HAL_IS_BIT_SET(PWR->SR2, PWR_SR2_VOSF))
 80048be:	4b33      	ldr	r3, [pc, #204]	; (800498c <HAL_PWREx_ControlVoltageScaling+0x13c>)
 80048c0:	695b      	ldr	r3, [r3, #20]
 80048c2:	f403 6380 	and.w	r3, r3, #1024	; 0x400
 80048c6:	f5b3 6f80 	cmp.w	r3, #1024	; 0x400
 80048ca:	d158      	bne.n	800497e <HAL_PWREx_ControlVoltageScaling+0x12e>
      {
        return HAL_TIMEOUT;
 80048cc:	2303      	movs	r3, #3
 80048ce:	e057      	b.n	8004980 <HAL_PWREx_ControlVoltageScaling+0x130>
    }
    /* If current range is range 1 normal or boost mode */
    else
    {
      /* Enable Range 1 Boost (no issue if bit already reset) */
      CLEAR_BIT(PWR->CR5, PWR_CR5_R1MODE);
 80048d0:	4b2e      	ldr	r3, [pc, #184]	; (800498c <HAL_PWREx_ControlVoltageScaling+0x13c>)
 80048d2:	f8d3 3080 	ldr.w	r3, [r3, #128]	; 0x80
 80048d6:	4a2d      	ldr	r2, [pc, #180]	; (800498c <HAL_PWREx_ControlVoltageScaling+0x13c>)
 80048d8:	f423 7380 	bic.w	r3, r3, #256	; 0x100
 80048dc:	f8c2 3080 	str.w	r3, [r2, #128]	; 0x80
 80048e0:	e04d      	b.n	800497e <HAL_PWREx_ControlVoltageScaling+0x12e>
    }
  }
  else if (VoltageScaling == PWR_REGULATOR_VOLTAGE_SCALE1)
 80048e2:	687b      	ldr	r3, [r7, #4]
 80048e4:	f5b3 7f00 	cmp.w	r3, #512	; 0x200
 80048e8:	d141      	bne.n	800496e <HAL_PWREx_ControlVoltageScaling+0x11e>
  {
    /* If current range is range 2 */
    if (READ_BIT(PWR->CR1, PWR_CR1_VOS) == PWR_REGULATOR_VOLTAGE_SCALE2)
 80048ea:	4b28      	ldr	r3, [pc, #160]	; (800498c <HAL_PWREx_ControlVoltageScaling+0x13c>)
 80048ec:	681b      	ldr	r3, [r3, #0]
 80048ee:	f403 63c0 	and.w	r3, r3, #1536	; 0x600
 80048f2:	f5b3 6f80 	cmp.w	r3, #1024	; 0x400
 80048f6:	d131      	bne.n	800495c <HAL_PWREx_ControlVoltageScaling+0x10c>
    {
      /* Make sure Range 1 Boost is disabled */
      SET_BIT(PWR->CR5, PWR_CR5_R1MODE);
 80048f8:	4b24      	ldr	r3, [pc, #144]	; (800498c <HAL_PWREx_ControlVoltageScaling+0x13c>)
 80048fa:	f8d3 3080 	ldr.w	r3, [r3, #128]	; 0x80
 80048fe:	4a23      	ldr	r2, [pc, #140]	; (800498c <HAL_PWREx_ControlVoltageScaling+0x13c>)
 8004900:	f443 7380 	orr.w	r3, r3, #256	; 0x100
 8004904:	f8c2 3080 	str.w	r3, [r2, #128]	; 0x80

      /* Set Range 1 */
      MODIFY_REG(PWR->CR1, PWR_CR1_VOS, PWR_REGULATOR_VOLTAGE_SCALE1);
 8004908:	4b20      	ldr	r3, [pc, #128]	; (800498c <HAL_PWREx_ControlVoltageScaling+0x13c>)
 800490a:	681b      	ldr	r3, [r3, #0]
 800490c:	f423 63c0 	bic.w	r3, r3, #1536	; 0x600
 8004910:	4a1e      	ldr	r2, [pc, #120]	; (800498c <HAL_PWREx_ControlVoltageScaling+0x13c>)
 8004912:	f443 7300 	orr.w	r3, r3, #512	; 0x200
 8004916:	6013      	str	r3, [r2, #0]

      /* Wait until VOSF is cleared */
      wait_loop_index = ((PWR_FLAG_SETTING_DELAY_US * SystemCoreClock) / 1000000U) + 1U;
 8004918:	4b1d      	ldr	r3, [pc, #116]	; (8004990 <HAL_PWREx_ControlVoltageScaling+0x140>)
 800491a:	681b      	ldr	r3, [r3, #0]
 800491c:	2232      	movs	r2, #50	; 0x32
 800491e:	fb02 f303 	mul.w	r3, r2, r3
 8004922:	4a1c      	ldr	r2, [pc, #112]	; (8004994 <HAL_PWREx_ControlVoltageScaling+0x144>)
 8004924:	fba2 2303 	umull	r2, r3, r2, r3
 8004928:	0c9b      	lsrs	r3, r3, #18
 800492a:	3301      	adds	r3, #1
 800492c:	60fb      	str	r3, [r7, #12]
      while ((HAL_IS_BIT_SET(PWR->SR2, PWR_SR2_VOSF)) && (wait_loop_index != 0U))
 800492e:	e002      	b.n	8004936 <HAL_PWREx_ControlVoltageScaling+0xe6>
      {
        wait_loop_index--;
 8004930:	68fb      	ldr	r3, [r7, #12]
 8004932:	3b01      	subs	r3, #1
 8004934:	60fb      	str	r3, [r7, #12]
      while ((HAL_IS_BIT_SET(PWR->SR2, PWR_SR2_VOSF)) && (wait_loop_index != 0U))
 8004936:	4b15      	ldr	r3, [pc, #84]	; (800498c <HAL_PWREx_ControlVoltageScaling+0x13c>)
 8004938:	695b      	ldr	r3, [r3, #20]
 800493a:	f403 6380 	and.w	r3, r3, #1024	; 0x400
 800493e:	f5b3 6f80 	cmp.w	r3, #1024	; 0x400
 8004942:	d102      	bne.n	800494a <HAL_PWREx_ControlVoltageScaling+0xfa>
 8004944:	68fb      	ldr	r3, [r7, #12]
 8004946:	2b00      	cmp	r3, #0
 8004948:	d1f2      	bne.n	8004930 <HAL_PWREx_ControlVoltageScaling+0xe0>
      }
      if (HAL_IS_BIT_SET(PWR->SR2, PWR_SR2_VOSF))
 800494a:	4b10      	ldr	r3, [pc, #64]	; (800498c <HAL_PWREx_ControlVoltageScaling+0x13c>)
 800494c:	695b      	ldr	r3, [r3, #20]
 800494e:	f403 6380 	and.w	r3, r3, #1024	; 0x400
 8004952:	f5b3 6f80 	cmp.w	r3, #1024	; 0x400
 8004956:	d112      	bne.n	800497e <HAL_PWREx_ControlVoltageScaling+0x12e>
      {
        return HAL_TIMEOUT;
 8004958:	2303      	movs	r3, #3
 800495a:	e011      	b.n	8004980 <HAL_PWREx_ControlVoltageScaling+0x130>
    }
     /* If current range is range 1 normal or boost mode */
    else
    {
      /* Disable Range 1 Boost (no issue if bit already set) */
      SET_BIT(PWR->CR5, PWR_CR5_R1MODE);
 800495c:	4b0b      	ldr	r3, [pc, #44]	; (800498c <HAL_PWREx_ControlVoltageScaling+0x13c>)
 800495e:	f8d3 3080 	ldr.w	r3, [r3, #128]	; 0x80
 8004962:	4a0a      	ldr	r2, [pc, #40]	; (800498c <HAL_PWREx_ControlVoltageScaling+0x13c>)
 8004964:	f443 7380 	orr.w	r3, r3, #256	; 0x100
 8004968:	f8c2 3080 	str.w	r3, [r2, #128]	; 0x80
 800496c:	e007      	b.n	800497e <HAL_PWREx_ControlVoltageScaling+0x12e>
    }
  }
  else
  {
    /* Set Range 2 */
    MODIFY_REG(PWR->CR1, PWR_CR1_VOS, PWR_REGULATOR_VOLTAGE_SCALE2);
 800496e:	4b07      	ldr	r3, [pc, #28]	; (800498c <HAL_PWREx_ControlVoltageScaling+0x13c>)
 8004970:	681b      	ldr	r3, [r3, #0]
 8004972:	f423 63c0 	bic.w	r3, r3, #1536	; 0x600
 8004976:	4a05      	ldr	r2, [pc, #20]	; (800498c <HAL_PWREx_ControlVoltageScaling+0x13c>)
 8004978:	f443 6380 	orr.w	r3, r3, #1024	; 0x400
 800497c:	6013      	str	r3, [r2, #0]
    /* No need to wait for VOSF to be cleared for this transition */
    /* PWR_CR5_R1MODE bit setting has no effect in Range 2        */
  }

  return HAL_OK;
 800497e:	2300      	movs	r3, #0
}
 8004980:	4618      	mov	r0, r3
 8004982:	3714      	adds	r7, #20
 8004984:	46bd      	mov	sp, r7
 8004986:	f85d 7b04 	ldr.w	r7, [sp], #4
 800498a:	4770      	bx	lr
 800498c:	40007000 	.word	0x40007000
 8004990:	200003cc 	.word	0x200003cc
 8004994:	431bde83 	.word	0x431bde83

08004998 <HAL_RCC_OscConfig>:
  *         supported by this macro. User should request a transition to HSE Off
  *         first and then HSE On or HSE Bypass.
  * @retval HAL status
  */
HAL_StatusTypeDef HAL_RCC_OscConfig(RCC_OscInitTypeDef  *RCC_OscInitStruct)
{
 8004998:	b580      	push	{r7, lr}
 800499a:	b088      	sub	sp, #32
 800499c:	af00      	add	r7, sp, #0
 800499e:	6078      	str	r0, [r7, #4]
  uint32_t tickstart;
  uint32_t temp_sysclksrc;
  uint32_t temp_pllckcfg;

  /* Check Null pointer */
  if (RCC_OscInitStruct == NULL)
 80049a0:	687b      	ldr	r3, [r7, #4]
 80049a2:	2b00      	cmp	r3, #0
 80049a4:	d101      	bne.n	80049aa <HAL_RCC_OscConfig+0x12>
  {
    return HAL_ERROR;
 80049a6:	2301      	movs	r3, #1
 80049a8:	e308      	b.n	8004fbc <HAL_RCC_OscConfig+0x624>

  /* Check the parameters */
  assert_param(IS_RCC_OSCILLATORTYPE(RCC_OscInitStruct->OscillatorType));

  /*------------------------------- HSE Configuration ------------------------*/
  if (((RCC_OscInitStruct->OscillatorType) & RCC_OSCILLATORTYPE_HSE) == RCC_OSCILLATORTYPE_HSE)
 80049aa:	687b      	ldr	r3, [r7, #4]
 80049ac:	681b      	ldr	r3, [r3, #0]
 80049ae:	f003 0301 	and.w	r3, r3, #1
 80049b2:	2b00      	cmp	r3, #0
 80049b4:	d075      	beq.n	8004aa2 <HAL_RCC_OscConfig+0x10a>
  {
    /* Check the parameters */
    assert_param(IS_RCC_HSE(RCC_OscInitStruct->HSEState));

    temp_sysclksrc = __HAL_RCC_GET_SYSCLK_SOURCE();
 80049b6:	4ba3      	ldr	r3, [pc, #652]	; (8004c44 <HAL_RCC_OscConfig+0x2ac>)
 80049b8:	689b      	ldr	r3, [r3, #8]
 80049ba:	f003 030c 	and.w	r3, r3, #12
 80049be:	61bb      	str	r3, [r7, #24]
    temp_pllckcfg = __HAL_RCC_GET_PLL_OSCSOURCE();
 80049c0:	4ba0      	ldr	r3, [pc, #640]	; (8004c44 <HAL_RCC_OscConfig+0x2ac>)
 80049c2:	68db      	ldr	r3, [r3, #12]
 80049c4:	f003 0303 	and.w	r3, r3, #3
 80049c8:	617b      	str	r3, [r7, #20]

    /* When the HSE is used as system clock or clock source for PLL in these cases it is not allowed to be disabled */
    if (((temp_sysclksrc == RCC_CFGR_SWS_PLL) && (temp_pllckcfg == RCC_PLLSOURCE_HSE)) || (temp_sysclksrc == RCC_CFGR_SWS_HSE))
 80049ca:	69bb      	ldr	r3, [r7, #24]
 80049cc:	2b0c      	cmp	r3, #12
 80049ce:	d102      	bne.n	80049d6 <HAL_RCC_OscConfig+0x3e>
 80049d0:	697b      	ldr	r3, [r7, #20]
 80049d2:	2b03      	cmp	r3, #3
 80049d4:	d002      	beq.n	80049dc <HAL_RCC_OscConfig+0x44>
 80049d6:	69bb      	ldr	r3, [r7, #24]
 80049d8:	2b08      	cmp	r3, #8
 80049da:	d10b      	bne.n	80049f4 <HAL_RCC_OscConfig+0x5c>
    {
      if ((READ_BIT(RCC->CR, RCC_CR_HSERDY) != 0U) && (RCC_OscInitStruct->HSEState == RCC_HSE_OFF))
 80049dc:	4b99      	ldr	r3, [pc, #612]	; (8004c44 <HAL_RCC_OscConfig+0x2ac>)
 80049de:	681b      	ldr	r3, [r3, #0]
 80049e0:	f403 3300 	and.w	r3, r3, #131072	; 0x20000
 80049e4:	2b00      	cmp	r3, #0
 80049e6:	d05b      	beq.n	8004aa0 <HAL_RCC_OscConfig+0x108>
 80049e8:	687b      	ldr	r3, [r7, #4]
 80049ea:	685b      	ldr	r3, [r3, #4]
 80049ec:	2b00      	cmp	r3, #0
 80049ee:	d157      	bne.n	8004aa0 <HAL_RCC_OscConfig+0x108>
      {
        return HAL_ERROR;
 80049f0:	2301      	movs	r3, #1
 80049f2:	e2e3      	b.n	8004fbc <HAL_RCC_OscConfig+0x624>
      }
    }
    else
    {
      /* Set the new HSE configuration ---------------------------------------*/
      __HAL_RCC_HSE_CONFIG(RCC_OscInitStruct->HSEState);
 80049f4:	687b      	ldr	r3, [r7, #4]
 80049f6:	685b      	ldr	r3, [r3, #4]
 80049f8:	f5b3 3f80 	cmp.w	r3, #65536	; 0x10000
 80049fc:	d106      	bne.n	8004a0c <HAL_RCC_OscConfig+0x74>
 80049fe:	4b91      	ldr	r3, [pc, #580]	; (8004c44 <HAL_RCC_OscConfig+0x2ac>)
 8004a00:	681b      	ldr	r3, [r3, #0]
 8004a02:	4a90      	ldr	r2, [pc, #576]	; (8004c44 <HAL_RCC_OscConfig+0x2ac>)
 8004a04:	f443 3380 	orr.w	r3, r3, #65536	; 0x10000
 8004a08:	6013      	str	r3, [r2, #0]
 8004a0a:	e01d      	b.n	8004a48 <HAL_RCC_OscConfig+0xb0>
 8004a0c:	687b      	ldr	r3, [r7, #4]
 8004a0e:	685b      	ldr	r3, [r3, #4]
 8004a10:	f5b3 2fa0 	cmp.w	r3, #327680	; 0x50000
 8004a14:	d10c      	bne.n	8004a30 <HAL_RCC_OscConfig+0x98>
 8004a16:	4b8b      	ldr	r3, [pc, #556]	; (8004c44 <HAL_RCC_OscConfig+0x2ac>)
 8004a18:	681b      	ldr	r3, [r3, #0]
 8004a1a:	4a8a      	ldr	r2, [pc, #552]	; (8004c44 <HAL_RCC_OscConfig+0x2ac>)
 8004a1c:	f443 2380 	orr.w	r3, r3, #262144	; 0x40000
 8004a20:	6013      	str	r3, [r2, #0]
 8004a22:	4b88      	ldr	r3, [pc, #544]	; (8004c44 <HAL_RCC_OscConfig+0x2ac>)
 8004a24:	681b      	ldr	r3, [r3, #0]
 8004a26:	4a87      	ldr	r2, [pc, #540]	; (8004c44 <HAL_RCC_OscConfig+0x2ac>)
 8004a28:	f443 3380 	orr.w	r3, r3, #65536	; 0x10000
 8004a2c:	6013      	str	r3, [r2, #0]
 8004a2e:	e00b      	b.n	8004a48 <HAL_RCC_OscConfig+0xb0>
 8004a30:	4b84      	ldr	r3, [pc, #528]	; (8004c44 <HAL_RCC_OscConfig+0x2ac>)
 8004a32:	681b      	ldr	r3, [r3, #0]
 8004a34:	4a83      	ldr	r2, [pc, #524]	; (8004c44 <HAL_RCC_OscConfig+0x2ac>)
 8004a36:	f423 3380 	bic.w	r3, r3, #65536	; 0x10000
 8004a3a:	6013      	str	r3, [r2, #0]
 8004a3c:	4b81      	ldr	r3, [pc, #516]	; (8004c44 <HAL_RCC_OscConfig+0x2ac>)
 8004a3e:	681b      	ldr	r3, [r3, #0]
 8004a40:	4a80      	ldr	r2, [pc, #512]	; (8004c44 <HAL_RCC_OscConfig+0x2ac>)
 8004a42:	f423 2380 	bic.w	r3, r3, #262144	; 0x40000
 8004a46:	6013      	str	r3, [r2, #0]

      /* Check the HSE State */
      if (RCC_OscInitStruct->HSEState != RCC_HSE_OFF)
 8004a48:	687b      	ldr	r3, [r7, #4]
 8004a4a:	685b      	ldr	r3, [r3, #4]
 8004a4c:	2b00      	cmp	r3, #0
 8004a4e:	d013      	beq.n	8004a78 <HAL_RCC_OscConfig+0xe0>
      {
        /* Get Start Tick*/
        tickstart = HAL_GetTick();
 8004a50:	f7fd faaa 	bl	8001fa8 <HAL_GetTick>
 8004a54:	6138      	str	r0, [r7, #16]

        /* Wait till HSE is ready */
        while (READ_BIT(RCC->CR, RCC_CR_HSERDY) == 0U)
 8004a56:	e008      	b.n	8004a6a <HAL_RCC_OscConfig+0xd2>
        {
          if ((HAL_GetTick() - tickstart) > HSE_TIMEOUT_VALUE)
 8004a58:	f7fd faa6 	bl	8001fa8 <HAL_GetTick>
 8004a5c:	4602      	mov	r2, r0
 8004a5e:	693b      	ldr	r3, [r7, #16]
 8004a60:	1ad3      	subs	r3, r2, r3
 8004a62:	2b64      	cmp	r3, #100	; 0x64
 8004a64:	d901      	bls.n	8004a6a <HAL_RCC_OscConfig+0xd2>
          {
            return HAL_TIMEOUT;
 8004a66:	2303      	movs	r3, #3
 8004a68:	e2a8      	b.n	8004fbc <HAL_RCC_OscConfig+0x624>
        while (READ_BIT(RCC->CR, RCC_CR_HSERDY) == 0U)
 8004a6a:	4b76      	ldr	r3, [pc, #472]	; (8004c44 <HAL_RCC_OscConfig+0x2ac>)
 8004a6c:	681b      	ldr	r3, [r3, #0]
 8004a6e:	f403 3300 	and.w	r3, r3, #131072	; 0x20000
 8004a72:	2b00      	cmp	r3, #0
 8004a74:	d0f0      	beq.n	8004a58 <HAL_RCC_OscConfig+0xc0>
 8004a76:	e014      	b.n	8004aa2 <HAL_RCC_OscConfig+0x10a>
        }
      }
      else
      {
        /* Get Start Tick*/
        tickstart = HAL_GetTick();
 8004a78:	f7fd fa96 	bl	8001fa8 <HAL_GetTick>
 8004a7c:	6138      	str	r0, [r7, #16]

        /* Wait till HSE is disabled */
        while (READ_BIT(RCC->CR, RCC_CR_HSERDY) != 0U)
 8004a7e:	e008      	b.n	8004a92 <HAL_RCC_OscConfig+0xfa>
        {
          if ((HAL_GetTick() - tickstart) > HSE_TIMEOUT_VALUE)
 8004a80:	f7fd fa92 	bl	8001fa8 <HAL_GetTick>
 8004a84:	4602      	mov	r2, r0
 8004a86:	693b      	ldr	r3, [r7, #16]
 8004a88:	1ad3      	subs	r3, r2, r3
 8004a8a:	2b64      	cmp	r3, #100	; 0x64
 8004a8c:	d901      	bls.n	8004a92 <HAL_RCC_OscConfig+0xfa>
          {
            return HAL_TIMEOUT;
 8004a8e:	2303      	movs	r3, #3
 8004a90:	e294      	b.n	8004fbc <HAL_RCC_OscConfig+0x624>
        while (READ_BIT(RCC->CR, RCC_CR_HSERDY) != 0U)
 8004a92:	4b6c      	ldr	r3, [pc, #432]	; (8004c44 <HAL_RCC_OscConfig+0x2ac>)
 8004a94:	681b      	ldr	r3, [r3, #0]
 8004a96:	f403 3300 	and.w	r3, r3, #131072	; 0x20000
 8004a9a:	2b00      	cmp	r3, #0
 8004a9c:	d1f0      	bne.n	8004a80 <HAL_RCC_OscConfig+0xe8>
 8004a9e:	e000      	b.n	8004aa2 <HAL_RCC_OscConfig+0x10a>
      if ((READ_BIT(RCC->CR, RCC_CR_HSERDY) != 0U) && (RCC_OscInitStruct->HSEState == RCC_HSE_OFF))
 8004aa0:	bf00      	nop
        }
      }
    }
  }
  /*----------------------------- HSI Configuration --------------------------*/
  if (((RCC_OscInitStruct->OscillatorType) & RCC_OSCILLATORTYPE_HSI) == RCC_OSCILLATORTYPE_HSI)
 8004aa2:	687b      	ldr	r3, [r7, #4]
 8004aa4:	681b      	ldr	r3, [r3, #0]
 8004aa6:	f003 0302 	and.w	r3, r3, #2
 8004aaa:	2b00      	cmp	r3, #0
 8004aac:	d075      	beq.n	8004b9a <HAL_RCC_OscConfig+0x202>
    /* Check the parameters */
    assert_param(IS_RCC_HSI(RCC_OscInitStruct->HSIState));
    assert_param(IS_RCC_HSI_CALIBRATION_VALUE(RCC_OscInitStruct->HSICalibrationValue));

    /* Check if HSI is used as system clock or as PLL source when PLL is selected as system clock */
    temp_sysclksrc = __HAL_RCC_GET_SYSCLK_SOURCE();
 8004aae:	4b65      	ldr	r3, [pc, #404]	; (8004c44 <HAL_RCC_OscConfig+0x2ac>)
 8004ab0:	689b      	ldr	r3, [r3, #8]
 8004ab2:	f003 030c 	and.w	r3, r3, #12
 8004ab6:	61bb      	str	r3, [r7, #24]
    temp_pllckcfg = __HAL_RCC_GET_PLL_OSCSOURCE();
 8004ab8:	4b62      	ldr	r3, [pc, #392]	; (8004c44 <HAL_RCC_OscConfig+0x2ac>)
 8004aba:	68db      	ldr	r3, [r3, #12]
 8004abc:	f003 0303 	and.w	r3, r3, #3
 8004ac0:	617b      	str	r3, [r7, #20]
    if (((temp_sysclksrc == RCC_CFGR_SWS_PLL) && (temp_pllckcfg == RCC_PLLSOURCE_HSI)) || (temp_sysclksrc == RCC_CFGR_SWS_HSI))
 8004ac2:	69bb      	ldr	r3, [r7, #24]
 8004ac4:	2b0c      	cmp	r3, #12
 8004ac6:	d102      	bne.n	8004ace <HAL_RCC_OscConfig+0x136>
 8004ac8:	697b      	ldr	r3, [r7, #20]
 8004aca:	2b02      	cmp	r3, #2
 8004acc:	d002      	beq.n	8004ad4 <HAL_RCC_OscConfig+0x13c>
 8004ace:	69bb      	ldr	r3, [r7, #24]
 8004ad0:	2b04      	cmp	r3, #4
 8004ad2:	d11f      	bne.n	8004b14 <HAL_RCC_OscConfig+0x17c>
    {
      /* When HSI is used as system clock it will not be disabled */
      if ((READ_BIT(RCC->CR, RCC_CR_HSIRDY) != 0U) && (RCC_OscInitStruct->HSIState == RCC_HSI_OFF))
 8004ad4:	4b5b      	ldr	r3, [pc, #364]	; (8004c44 <HAL_RCC_OscConfig+0x2ac>)
 8004ad6:	681b      	ldr	r3, [r3, #0]
 8004ad8:	f403 6380 	and.w	r3, r3, #1024	; 0x400
 8004adc:	2b00      	cmp	r3, #0
 8004ade:	d005      	beq.n	8004aec <HAL_RCC_OscConfig+0x154>
 8004ae0:	687b      	ldr	r3, [r7, #4]
 8004ae2:	68db      	ldr	r3, [r3, #12]
 8004ae4:	2b00      	cmp	r3, #0
 8004ae6:	d101      	bne.n	8004aec <HAL_RCC_OscConfig+0x154>
      {
        return HAL_ERROR;
 8004ae8:	2301      	movs	r3, #1
 8004aea:	e267      	b.n	8004fbc <HAL_RCC_OscConfig+0x624>
      }
      /* Otherwise, just the calibration is allowed */
      else
      {
        /* Adjusts the Internal High Speed oscillator (HSI) calibration value.*/
        __HAL_RCC_HSI_CALIBRATIONVALUE_ADJUST(RCC_OscInitStruct->HSICalibrationValue);
 8004aec:	4b55      	ldr	r3, [pc, #340]	; (8004c44 <HAL_RCC_OscConfig+0x2ac>)
 8004aee:	685b      	ldr	r3, [r3, #4]
 8004af0:	f023 42fe 	bic.w	r2, r3, #2130706432	; 0x7f000000
 8004af4:	687b      	ldr	r3, [r7, #4]
 8004af6:	691b      	ldr	r3, [r3, #16]
 8004af8:	061b      	lsls	r3, r3, #24
 8004afa:	4952      	ldr	r1, [pc, #328]	; (8004c44 <HAL_RCC_OscConfig+0x2ac>)
 8004afc:	4313      	orrs	r3, r2
 8004afe:	604b      	str	r3, [r1, #4]

        /* Adapt Systick interrupt period */
        if (HAL_InitTick(uwTickPrio) != HAL_OK)
 8004b00:	4b51      	ldr	r3, [pc, #324]	; (8004c48 <HAL_RCC_OscConfig+0x2b0>)
 8004b02:	681b      	ldr	r3, [r3, #0]
 8004b04:	4618      	mov	r0, r3
 8004b06:	f7fd fa03 	bl	8001f10 <HAL_InitTick>
 8004b0a:	4603      	mov	r3, r0
 8004b0c:	2b00      	cmp	r3, #0
 8004b0e:	d043      	beq.n	8004b98 <HAL_RCC_OscConfig+0x200>
        {
          return HAL_ERROR;
 8004b10:	2301      	movs	r3, #1
 8004b12:	e253      	b.n	8004fbc <HAL_RCC_OscConfig+0x624>
      }
    }
    else
    {
      /* Check the HSI State */
      if (RCC_OscInitStruct->HSIState != RCC_HSI_OFF)
 8004b14:	687b      	ldr	r3, [r7, #4]
 8004b16:	68db      	ldr	r3, [r3, #12]
 8004b18:	2b00      	cmp	r3, #0
 8004b1a:	d023      	beq.n	8004b64 <HAL_RCC_OscConfig+0x1cc>
      {
        /* Enable the Internal High Speed oscillator (HSI). */
        __HAL_RCC_HSI_ENABLE();
 8004b1c:	4b49      	ldr	r3, [pc, #292]	; (8004c44 <HAL_RCC_OscConfig+0x2ac>)
 8004b1e:	681b      	ldr	r3, [r3, #0]
 8004b20:	4a48      	ldr	r2, [pc, #288]	; (8004c44 <HAL_RCC_OscConfig+0x2ac>)
 8004b22:	f443 7380 	orr.w	r3, r3, #256	; 0x100
 8004b26:	6013      	str	r3, [r2, #0]

        /* Get Start Tick*/
        tickstart = HAL_GetTick();
 8004b28:	f7fd fa3e 	bl	8001fa8 <HAL_GetTick>
 8004b2c:	6138      	str	r0, [r7, #16]

        /* Wait till HSI is ready */
        while (READ_BIT(RCC->CR, RCC_CR_HSIRDY) == 0U)
 8004b2e:	e008      	b.n	8004b42 <HAL_RCC_OscConfig+0x1aa>
        {
          if ((HAL_GetTick() - tickstart) > HSI_TIMEOUT_VALUE)
 8004b30:	f7fd fa3a 	bl	8001fa8 <HAL_GetTick>
 8004b34:	4602      	mov	r2, r0
 8004b36:	693b      	ldr	r3, [r7, #16]
 8004b38:	1ad3      	subs	r3, r2, r3
 8004b3a:	2b02      	cmp	r3, #2
 8004b3c:	d901      	bls.n	8004b42 <HAL_RCC_OscConfig+0x1aa>
          {
            return HAL_TIMEOUT;
 8004b3e:	2303      	movs	r3, #3
 8004b40:	e23c      	b.n	8004fbc <HAL_RCC_OscConfig+0x624>
        while (READ_BIT(RCC->CR, RCC_CR_HSIRDY) == 0U)
 8004b42:	4b40      	ldr	r3, [pc, #256]	; (8004c44 <HAL_RCC_OscConfig+0x2ac>)
 8004b44:	681b      	ldr	r3, [r3, #0]
 8004b46:	f403 6380 	and.w	r3, r3, #1024	; 0x400
 8004b4a:	2b00      	cmp	r3, #0
 8004b4c:	d0f0      	beq.n	8004b30 <HAL_RCC_OscConfig+0x198>
          }
        }

        /* Adjusts the Internal High Speed oscillator (HSI) calibration value.*/
        __HAL_RCC_HSI_CALIBRATIONVALUE_ADJUST(RCC_OscInitStruct->HSICalibrationValue);
 8004b4e:	4b3d      	ldr	r3, [pc, #244]	; (8004c44 <HAL_RCC_OscConfig+0x2ac>)
 8004b50:	685b      	ldr	r3, [r3, #4]
 8004b52:	f023 42fe 	bic.w	r2, r3, #2130706432	; 0x7f000000
 8004b56:	687b      	ldr	r3, [r7, #4]
 8004b58:	691b      	ldr	r3, [r3, #16]
 8004b5a:	061b      	lsls	r3, r3, #24
 8004b5c:	4939      	ldr	r1, [pc, #228]	; (8004c44 <HAL_RCC_OscConfig+0x2ac>)
 8004b5e:	4313      	orrs	r3, r2
 8004b60:	604b      	str	r3, [r1, #4]
 8004b62:	e01a      	b.n	8004b9a <HAL_RCC_OscConfig+0x202>
      }
      else
      {
        /* Disable the Internal High Speed oscillator (HSI). */
        __HAL_RCC_HSI_DISABLE();
 8004b64:	4b37      	ldr	r3, [pc, #220]	; (8004c44 <HAL_RCC_OscConfig+0x2ac>)
 8004b66:	681b      	ldr	r3, [r3, #0]
 8004b68:	4a36      	ldr	r2, [pc, #216]	; (8004c44 <HAL_RCC_OscConfig+0x2ac>)
 8004b6a:	f423 7380 	bic.w	r3, r3, #256	; 0x100
 8004b6e:	6013      	str	r3, [r2, #0]

        /* Get Start Tick*/
        tickstart = HAL_GetTick();
 8004b70:	f7fd fa1a 	bl	8001fa8 <HAL_GetTick>
 8004b74:	6138      	str	r0, [r7, #16]

        /* Wait till HSI is disabled */
        while (READ_BIT(RCC->CR, RCC_CR_HSIRDY) != 0U)
 8004b76:	e008      	b.n	8004b8a <HAL_RCC_OscConfig+0x1f2>
        {
          if ((HAL_GetTick() - tickstart) > HSI_TIMEOUT_VALUE)
 8004b78:	f7fd fa16 	bl	8001fa8 <HAL_GetTick>
 8004b7c:	4602      	mov	r2, r0
 8004b7e:	693b      	ldr	r3, [r7, #16]
 8004b80:	1ad3      	subs	r3, r2, r3
 8004b82:	2b02      	cmp	r3, #2
 8004b84:	d901      	bls.n	8004b8a <HAL_RCC_OscConfig+0x1f2>
          {
            return HAL_TIMEOUT;
 8004b86:	2303      	movs	r3, #3
 8004b88:	e218      	b.n	8004fbc <HAL_RCC_OscConfig+0x624>
        while (READ_BIT(RCC->CR, RCC_CR_HSIRDY) != 0U)
 8004b8a:	4b2e      	ldr	r3, [pc, #184]	; (8004c44 <HAL_RCC_OscConfig+0x2ac>)
 8004b8c:	681b      	ldr	r3, [r3, #0]
 8004b8e:	f403 6380 	and.w	r3, r3, #1024	; 0x400
 8004b92:	2b00      	cmp	r3, #0
 8004b94:	d1f0      	bne.n	8004b78 <HAL_RCC_OscConfig+0x1e0>
 8004b96:	e000      	b.n	8004b9a <HAL_RCC_OscConfig+0x202>
      if ((READ_BIT(RCC->CR, RCC_CR_HSIRDY) != 0U) && (RCC_OscInitStruct->HSIState == RCC_HSI_OFF))
 8004b98:	bf00      	nop
        }
      }
    }
  }
  /*------------------------------ LSI Configuration -------------------------*/
  if (((RCC_OscInitStruct->OscillatorType) & RCC_OSCILLATORTYPE_LSI) == RCC_OSCILLATORTYPE_LSI)
 8004b9a:	687b      	ldr	r3, [r7, #4]
 8004b9c:	681b      	ldr	r3, [r3, #0]
 8004b9e:	f003 0308 	and.w	r3, r3, #8
 8004ba2:	2b00      	cmp	r3, #0
 8004ba4:	d03c      	beq.n	8004c20 <HAL_RCC_OscConfig+0x288>
  {
    /* Check the parameters */
    assert_param(IS_RCC_LSI(RCC_OscInitStruct->LSIState));

    /* Check the LSI State */
    if(RCC_OscInitStruct->LSIState != RCC_LSI_OFF)
 8004ba6:	687b      	ldr	r3, [r7, #4]
 8004ba8:	695b      	ldr	r3, [r3, #20]
 8004baa:	2b00      	cmp	r3, #0
 8004bac:	d01c      	beq.n	8004be8 <HAL_RCC_OscConfig+0x250>
    {
      /* Enable the Internal Low Speed oscillator (LSI). */
      __HAL_RCC_LSI_ENABLE();
 8004bae:	4b25      	ldr	r3, [pc, #148]	; (8004c44 <HAL_RCC_OscConfig+0x2ac>)
 8004bb0:	f8d3 3094 	ldr.w	r3, [r3, #148]	; 0x94
 8004bb4:	4a23      	ldr	r2, [pc, #140]	; (8004c44 <HAL_RCC_OscConfig+0x2ac>)
 8004bb6:	f043 0301 	orr.w	r3, r3, #1
 8004bba:	f8c2 3094 	str.w	r3, [r2, #148]	; 0x94

      /* Get Start Tick*/
      tickstart = HAL_GetTick();
 8004bbe:	f7fd f9f3 	bl	8001fa8 <HAL_GetTick>
 8004bc2:	6138      	str	r0, [r7, #16]

      /* Wait till LSI is ready */
      while (READ_BIT(RCC->CSR, RCC_CSR_LSIRDY) == 0U)
 8004bc4:	e008      	b.n	8004bd8 <HAL_RCC_OscConfig+0x240>
      {
        if ((HAL_GetTick() - tickstart) > LSI_TIMEOUT_VALUE)
 8004bc6:	f7fd f9ef 	bl	8001fa8 <HAL_GetTick>
 8004bca:	4602      	mov	r2, r0
 8004bcc:	693b      	ldr	r3, [r7, #16]
 8004bce:	1ad3      	subs	r3, r2, r3
 8004bd0:	2b02      	cmp	r3, #2
 8004bd2:	d901      	bls.n	8004bd8 <HAL_RCC_OscConfig+0x240>
        {
          return HAL_TIMEOUT;
 8004bd4:	2303      	movs	r3, #3
 8004bd6:	e1f1      	b.n	8004fbc <HAL_RCC_OscConfig+0x624>
      while (READ_BIT(RCC->CSR, RCC_CSR_LSIRDY) == 0U)
 8004bd8:	4b1a      	ldr	r3, [pc, #104]	; (8004c44 <HAL_RCC_OscConfig+0x2ac>)
 8004bda:	f8d3 3094 	ldr.w	r3, [r3, #148]	; 0x94
 8004bde:	f003 0302 	and.w	r3, r3, #2
 8004be2:	2b00      	cmp	r3, #0
 8004be4:	d0ef      	beq.n	8004bc6 <HAL_RCC_OscConfig+0x22e>
 8004be6:	e01b      	b.n	8004c20 <HAL_RCC_OscConfig+0x288>
      }
    }
    else
    {
      /* Disable the Internal Low Speed oscillator (LSI). */
      __HAL_RCC_LSI_DISABLE();
 8004be8:	4b16      	ldr	r3, [pc, #88]	; (8004c44 <HAL_RCC_OscConfig+0x2ac>)
 8004bea:	f8d3 3094 	ldr.w	r3, [r3, #148]	; 0x94
 8004bee:	4a15      	ldr	r2, [pc, #84]	; (8004c44 <HAL_RCC_OscConfig+0x2ac>)
 8004bf0:	f023 0301 	bic.w	r3, r3, #1
 8004bf4:	f8c2 3094 	str.w	r3, [r2, #148]	; 0x94

      /* Get Start Tick*/
      tickstart = HAL_GetTick();
 8004bf8:	f7fd f9d6 	bl	8001fa8 <HAL_GetTick>
 8004bfc:	6138      	str	r0, [r7, #16]

      /* Wait till LSI is disabled */
      while(READ_BIT(RCC->CSR, RCC_CSR_LSIRDY) != 0U)
 8004bfe:	e008      	b.n	8004c12 <HAL_RCC_OscConfig+0x27a>
      {
        if((HAL_GetTick() - tickstart) > LSI_TIMEOUT_VALUE)
 8004c00:	f7fd f9d2 	bl	8001fa8 <HAL_GetTick>
 8004c04:	4602      	mov	r2, r0
 8004c06:	693b      	ldr	r3, [r7, #16]
 8004c08:	1ad3      	subs	r3, r2, r3
 8004c0a:	2b02      	cmp	r3, #2
 8004c0c:	d901      	bls.n	8004c12 <HAL_RCC_OscConfig+0x27a>
        {
          return HAL_TIMEOUT;
 8004c0e:	2303      	movs	r3, #3
 8004c10:	e1d4      	b.n	8004fbc <HAL_RCC_OscConfig+0x624>
      while(READ_BIT(RCC->CSR, RCC_CSR_LSIRDY) != 0U)
 8004c12:	4b0c      	ldr	r3, [pc, #48]	; (8004c44 <HAL_RCC_OscConfig+0x2ac>)
 8004c14:	f8d3 3094 	ldr.w	r3, [r3, #148]	; 0x94
 8004c18:	f003 0302 	and.w	r3, r3, #2
 8004c1c:	2b00      	cmp	r3, #0
 8004c1e:	d1ef      	bne.n	8004c00 <HAL_RCC_OscConfig+0x268>
        }
      }
    }
  }
  /*------------------------------ LSE Configuration -------------------------*/
  if (((RCC_OscInitStruct->OscillatorType) & RCC_OSCILLATORTYPE_LSE) == RCC_OSCILLATORTYPE_LSE)
 8004c20:	687b      	ldr	r3, [r7, #4]
 8004c22:	681b      	ldr	r3, [r3, #0]
 8004c24:	f003 0304 	and.w	r3, r3, #4
 8004c28:	2b00      	cmp	r3, #0
 8004c2a:	f000 80ab 	beq.w	8004d84 <HAL_RCC_OscConfig+0x3ec>
  {
    FlagStatus       pwrclkchanged = RESET;
 8004c2e:	2300      	movs	r3, #0
 8004c30:	77fb      	strb	r3, [r7, #31]
    /* Check the parameters */
    assert_param(IS_RCC_LSE(RCC_OscInitStruct->LSEState));

    /* Update LSE configuration in Backup Domain control register    */
    /* Requires to enable write access to Backup Domain if necessary */
    if (__HAL_RCC_PWR_IS_CLK_DISABLED() != 0U)
 8004c32:	4b04      	ldr	r3, [pc, #16]	; (8004c44 <HAL_RCC_OscConfig+0x2ac>)
 8004c34:	6d9b      	ldr	r3, [r3, #88]	; 0x58
 8004c36:	f003 5380 	and.w	r3, r3, #268435456	; 0x10000000
 8004c3a:	2b00      	cmp	r3, #0
 8004c3c:	d106      	bne.n	8004c4c <HAL_RCC_OscConfig+0x2b4>
 8004c3e:	2301      	movs	r3, #1
 8004c40:	e005      	b.n	8004c4e <HAL_RCC_OscConfig+0x2b6>
 8004c42:	bf00      	nop
 8004c44:	40021000 	.word	0x40021000
 8004c48:	200003d0 	.word	0x200003d0
 8004c4c:	2300      	movs	r3, #0
 8004c4e:	2b00      	cmp	r3, #0
 8004c50:	d00d      	beq.n	8004c6e <HAL_RCC_OscConfig+0x2d6>
    {
      __HAL_RCC_PWR_CLK_ENABLE();
 8004c52:	4baf      	ldr	r3, [pc, #700]	; (8004f10 <HAL_RCC_OscConfig+0x578>)
 8004c54:	6d9b      	ldr	r3, [r3, #88]	; 0x58
 8004c56:	4aae      	ldr	r2, [pc, #696]	; (8004f10 <HAL_RCC_OscConfig+0x578>)
 8004c58:	f043 5380 	orr.w	r3, r3, #268435456	; 0x10000000
 8004c5c:	6593      	str	r3, [r2, #88]	; 0x58
 8004c5e:	4bac      	ldr	r3, [pc, #688]	; (8004f10 <HAL_RCC_OscConfig+0x578>)
 8004c60:	6d9b      	ldr	r3, [r3, #88]	; 0x58
 8004c62:	f003 5380 	and.w	r3, r3, #268435456	; 0x10000000
 8004c66:	60fb      	str	r3, [r7, #12]
 8004c68:	68fb      	ldr	r3, [r7, #12]
      pwrclkchanged = SET;
 8004c6a:	2301      	movs	r3, #1
 8004c6c:	77fb      	strb	r3, [r7, #31]
    }

    if (HAL_IS_BIT_CLR(PWR->CR1, PWR_CR1_DBP))
 8004c6e:	4ba9      	ldr	r3, [pc, #676]	; (8004f14 <HAL_RCC_OscConfig+0x57c>)
 8004c70:	681b      	ldr	r3, [r3, #0]
 8004c72:	f403 7380 	and.w	r3, r3, #256	; 0x100
 8004c76:	2b00      	cmp	r3, #0
 8004c78:	d118      	bne.n	8004cac <HAL_RCC_OscConfig+0x314>
    {
      /* Enable write access to Backup domain */
      SET_BIT(PWR->CR1, PWR_CR1_DBP);
 8004c7a:	4ba6      	ldr	r3, [pc, #664]	; (8004f14 <HAL_RCC_OscConfig+0x57c>)
 8004c7c:	681b      	ldr	r3, [r3, #0]
 8004c7e:	4aa5      	ldr	r2, [pc, #660]	; (8004f14 <HAL_RCC_OscConfig+0x57c>)
 8004c80:	f443 7380 	orr.w	r3, r3, #256	; 0x100
 8004c84:	6013      	str	r3, [r2, #0]

      /* Wait for Backup domain Write protection disable */
      tickstart = HAL_GetTick();
 8004c86:	f7fd f98f 	bl	8001fa8 <HAL_GetTick>
 8004c8a:	6138      	str	r0, [r7, #16]

      while (HAL_IS_BIT_CLR(PWR->CR1, PWR_CR1_DBP))
 8004c8c:	e008      	b.n	8004ca0 <HAL_RCC_OscConfig+0x308>
      {
        if ((HAL_GetTick() - tickstart) > RCC_DBP_TIMEOUT_VALUE)
 8004c8e:	f7fd f98b 	bl	8001fa8 <HAL_GetTick>
 8004c92:	4602      	mov	r2, r0
 8004c94:	693b      	ldr	r3, [r7, #16]
 8004c96:	1ad3      	subs	r3, r2, r3
 8004c98:	2b02      	cmp	r3, #2
 8004c9a:	d901      	bls.n	8004ca0 <HAL_RCC_OscConfig+0x308>
        {
          return HAL_TIMEOUT;
 8004c9c:	2303      	movs	r3, #3
 8004c9e:	e18d      	b.n	8004fbc <HAL_RCC_OscConfig+0x624>
      while (HAL_IS_BIT_CLR(PWR->CR1, PWR_CR1_DBP))
 8004ca0:	4b9c      	ldr	r3, [pc, #624]	; (8004f14 <HAL_RCC_OscConfig+0x57c>)
 8004ca2:	681b      	ldr	r3, [r3, #0]
 8004ca4:	f403 7380 	and.w	r3, r3, #256	; 0x100
 8004ca8:	2b00      	cmp	r3, #0
 8004caa:	d0f0      	beq.n	8004c8e <HAL_RCC_OscConfig+0x2f6>
        }
      }
    }

    /* Set the new LSE configuration -----------------------------------------*/
    __HAL_RCC_LSE_CONFIG(RCC_OscInitStruct->LSEState);
 8004cac:	687b      	ldr	r3, [r7, #4]
 8004cae:	689b      	ldr	r3, [r3, #8]
 8004cb0:	2b01      	cmp	r3, #1
 8004cb2:	d108      	bne.n	8004cc6 <HAL_RCC_OscConfig+0x32e>
 8004cb4:	4b96      	ldr	r3, [pc, #600]	; (8004f10 <HAL_RCC_OscConfig+0x578>)
 8004cb6:	f8d3 3090 	ldr.w	r3, [r3, #144]	; 0x90
 8004cba:	4a95      	ldr	r2, [pc, #596]	; (8004f10 <HAL_RCC_OscConfig+0x578>)
 8004cbc:	f043 0301 	orr.w	r3, r3, #1
 8004cc0:	f8c2 3090 	str.w	r3, [r2, #144]	; 0x90
 8004cc4:	e024      	b.n	8004d10 <HAL_RCC_OscConfig+0x378>
 8004cc6:	687b      	ldr	r3, [r7, #4]
 8004cc8:	689b      	ldr	r3, [r3, #8]
 8004cca:	2b05      	cmp	r3, #5
 8004ccc:	d110      	bne.n	8004cf0 <HAL_RCC_OscConfig+0x358>
 8004cce:	4b90      	ldr	r3, [pc, #576]	; (8004f10 <HAL_RCC_OscConfig+0x578>)
 8004cd0:	f8d3 3090 	ldr.w	r3, [r3, #144]	; 0x90
 8004cd4:	4a8e      	ldr	r2, [pc, #568]	; (8004f10 <HAL_RCC_OscConfig+0x578>)
 8004cd6:	f043 0304 	orr.w	r3, r3, #4
 8004cda:	f8c2 3090 	str.w	r3, [r2, #144]	; 0x90
 8004cde:	4b8c      	ldr	r3, [pc, #560]	; (8004f10 <HAL_RCC_OscConfig+0x578>)
 8004ce0:	f8d3 3090 	ldr.w	r3, [r3, #144]	; 0x90
 8004ce4:	4a8a      	ldr	r2, [pc, #552]	; (8004f10 <HAL_RCC_OscConfig+0x578>)
 8004ce6:	f043 0301 	orr.w	r3, r3, #1
 8004cea:	f8c2 3090 	str.w	r3, [r2, #144]	; 0x90
 8004cee:	e00f      	b.n	8004d10 <HAL_RCC_OscConfig+0x378>
 8004cf0:	4b87      	ldr	r3, [pc, #540]	; (8004f10 <HAL_RCC_OscConfig+0x578>)
 8004cf2:	f8d3 3090 	ldr.w	r3, [r3, #144]	; 0x90
 8004cf6:	4a86      	ldr	r2, [pc, #536]	; (8004f10 <HAL_RCC_OscConfig+0x578>)
 8004cf8:	f023 0301 	bic.w	r3, r3, #1
 8004cfc:	f8c2 3090 	str.w	r3, [r2, #144]	; 0x90
 8004d00:	4b83      	ldr	r3, [pc, #524]	; (8004f10 <HAL_RCC_OscConfig+0x578>)
 8004d02:	f8d3 3090 	ldr.w	r3, [r3, #144]	; 0x90
 8004d06:	4a82      	ldr	r2, [pc, #520]	; (8004f10 <HAL_RCC_OscConfig+0x578>)
 8004d08:	f023 0304 	bic.w	r3, r3, #4
 8004d0c:	f8c2 3090 	str.w	r3, [r2, #144]	; 0x90

    /* Check the LSE State */
    if (RCC_OscInitStruct->LSEState != RCC_LSE_OFF)
 8004d10:	687b      	ldr	r3, [r7, #4]
 8004d12:	689b      	ldr	r3, [r3, #8]
 8004d14:	2b00      	cmp	r3, #0
 8004d16:	d016      	beq.n	8004d46 <HAL_RCC_OscConfig+0x3ae>
    {
      /* Get Start Tick*/
      tickstart = HAL_GetTick();
 8004d18:	f7fd f946 	bl	8001fa8 <HAL_GetTick>
 8004d1c:	6138      	str	r0, [r7, #16]

      /* Wait till LSE is ready */
      while (READ_BIT(RCC->BDCR, RCC_BDCR_LSERDY) == 0U)
 8004d1e:	e00a      	b.n	8004d36 <HAL_RCC_OscConfig+0x39e>
      {
        if((HAL_GetTick() - tickstart) > RCC_LSE_TIMEOUT_VALUE)
 8004d20:	f7fd f942 	bl	8001fa8 <HAL_GetTick>
 8004d24:	4602      	mov	r2, r0
 8004d26:	693b      	ldr	r3, [r7, #16]
 8004d28:	1ad3      	subs	r3, r2, r3
 8004d2a:	f241 3288 	movw	r2, #5000	; 0x1388
 8004d2e:	4293      	cmp	r3, r2
 8004d30:	d901      	bls.n	8004d36 <HAL_RCC_OscConfig+0x39e>
        {
          return HAL_TIMEOUT;
 8004d32:	2303      	movs	r3, #3
 8004d34:	e142      	b.n	8004fbc <HAL_RCC_OscConfig+0x624>
      while (READ_BIT(RCC->BDCR, RCC_BDCR_LSERDY) == 0U)
 8004d36:	4b76      	ldr	r3, [pc, #472]	; (8004f10 <HAL_RCC_OscConfig+0x578>)
 8004d38:	f8d3 3090 	ldr.w	r3, [r3, #144]	; 0x90
 8004d3c:	f003 0302 	and.w	r3, r3, #2
 8004d40:	2b00      	cmp	r3, #0
 8004d42:	d0ed      	beq.n	8004d20 <HAL_RCC_OscConfig+0x388>
 8004d44:	e015      	b.n	8004d72 <HAL_RCC_OscConfig+0x3da>
      }
    }
    else
    {
      /* Get Start Tick*/
      tickstart = HAL_GetTick();
 8004d46:	f7fd f92f 	bl	8001fa8 <HAL_GetTick>
 8004d4a:	6138      	str	r0, [r7, #16]

      /* Wait till LSE is disabled */
      while (READ_BIT(RCC->BDCR, RCC_BDCR_LSERDY) != 0U)
 8004d4c:	e00a      	b.n	8004d64 <HAL_RCC_OscConfig+0x3cc>
      {
        if((HAL_GetTick() - tickstart) > RCC_LSE_TIMEOUT_VALUE)
 8004d4e:	f7fd f92b 	bl	8001fa8 <HAL_GetTick>
 8004d52:	4602      	mov	r2, r0
 8004d54:	693b      	ldr	r3, [r7, #16]
 8004d56:	1ad3      	subs	r3, r2, r3
 8004d58:	f241 3288 	movw	r2, #5000	; 0x1388
 8004d5c:	4293      	cmp	r3, r2
 8004d5e:	d901      	bls.n	8004d64 <HAL_RCC_OscConfig+0x3cc>
        {
          return HAL_TIMEOUT;
 8004d60:	2303      	movs	r3, #3
 8004d62:	e12b      	b.n	8004fbc <HAL_RCC_OscConfig+0x624>
      while (READ_BIT(RCC->BDCR, RCC_BDCR_LSERDY) != 0U)
 8004d64:	4b6a      	ldr	r3, [pc, #424]	; (8004f10 <HAL_RCC_OscConfig+0x578>)
 8004d66:	f8d3 3090 	ldr.w	r3, [r3, #144]	; 0x90
 8004d6a:	f003 0302 	and.w	r3, r3, #2
 8004d6e:	2b00      	cmp	r3, #0
 8004d70:	d1ed      	bne.n	8004d4e <HAL_RCC_OscConfig+0x3b6>
        }
      }
    }

    /* Restore clock configuration if changed */
    if (pwrclkchanged == SET)
 8004d72:	7ffb      	ldrb	r3, [r7, #31]
 8004d74:	2b01      	cmp	r3, #1
 8004d76:	d105      	bne.n	8004d84 <HAL_RCC_OscConfig+0x3ec>
    {
      __HAL_RCC_PWR_CLK_DISABLE();
 8004d78:	4b65      	ldr	r3, [pc, #404]	; (8004f10 <HAL_RCC_OscConfig+0x578>)
 8004d7a:	6d9b      	ldr	r3, [r3, #88]	; 0x58
 8004d7c:	4a64      	ldr	r2, [pc, #400]	; (8004f10 <HAL_RCC_OscConfig+0x578>)
 8004d7e:	f023 5380 	bic.w	r3, r3, #268435456	; 0x10000000
 8004d82:	6593      	str	r3, [r2, #88]	; 0x58
    }
  }

  /*------------------------------ HSI48 Configuration -----------------------*/
  if(((RCC_OscInitStruct->OscillatorType) & RCC_OSCILLATORTYPE_HSI48) == RCC_OSCILLATORTYPE_HSI48)
 8004d84:	687b      	ldr	r3, [r7, #4]
 8004d86:	681b      	ldr	r3, [r3, #0]
 8004d88:	f003 0320 	and.w	r3, r3, #32
 8004d8c:	2b00      	cmp	r3, #0
 8004d8e:	d03c      	beq.n	8004e0a <HAL_RCC_OscConfig+0x472>
  {
    /* Check the parameters */
    assert_param(IS_RCC_HSI48(RCC_OscInitStruct->HSI48State));

    /* Check the HSI48 State */
    if(RCC_OscInitStruct->HSI48State != RCC_HSI48_OFF)
 8004d90:	687b      	ldr	r3, [r7, #4]
 8004d92:	699b      	ldr	r3, [r3, #24]
 8004d94:	2b00      	cmp	r3, #0
 8004d96:	d01c      	beq.n	8004dd2 <HAL_RCC_OscConfig+0x43a>
    {
      /* Enable the Internal Low Speed oscillator (HSI48). */
      __HAL_RCC_HSI48_ENABLE();
 8004d98:	4b5d      	ldr	r3, [pc, #372]	; (8004f10 <HAL_RCC_OscConfig+0x578>)
 8004d9a:	f8d3 3098 	ldr.w	r3, [r3, #152]	; 0x98
 8004d9e:	4a5c      	ldr	r2, [pc, #368]	; (8004f10 <HAL_RCC_OscConfig+0x578>)
 8004da0:	f043 0301 	orr.w	r3, r3, #1
 8004da4:	f8c2 3098 	str.w	r3, [r2, #152]	; 0x98

      /* Get Start Tick*/
      tickstart = HAL_GetTick();
 8004da8:	f7fd f8fe 	bl	8001fa8 <HAL_GetTick>
 8004dac:	6138      	str	r0, [r7, #16]

      /* Wait till HSI48 is ready */
      while(READ_BIT(RCC->CRRCR, RCC_CRRCR_HSI48RDY) == 0U)
 8004dae:	e008      	b.n	8004dc2 <HAL_RCC_OscConfig+0x42a>
      {
        if((HAL_GetTick() - tickstart) > HSI48_TIMEOUT_VALUE)
 8004db0:	f7fd f8fa 	bl	8001fa8 <HAL_GetTick>
 8004db4:	4602      	mov	r2, r0
 8004db6:	693b      	ldr	r3, [r7, #16]
 8004db8:	1ad3      	subs	r3, r2, r3
 8004dba:	2b02      	cmp	r3, #2
 8004dbc:	d901      	bls.n	8004dc2 <HAL_RCC_OscConfig+0x42a>
        {
          return HAL_TIMEOUT;
 8004dbe:	2303      	movs	r3, #3
 8004dc0:	e0fc      	b.n	8004fbc <HAL_RCC_OscConfig+0x624>
      while(READ_BIT(RCC->CRRCR, RCC_CRRCR_HSI48RDY) == 0U)
 8004dc2:	4b53      	ldr	r3, [pc, #332]	; (8004f10 <HAL_RCC_OscConfig+0x578>)
 8004dc4:	f8d3 3098 	ldr.w	r3, [r3, #152]	; 0x98
 8004dc8:	f003 0302 	and.w	r3, r3, #2
 8004dcc:	2b00      	cmp	r3, #0
 8004dce:	d0ef      	beq.n	8004db0 <HAL_RCC_OscConfig+0x418>
 8004dd0:	e01b      	b.n	8004e0a <HAL_RCC_OscConfig+0x472>
      }
    }
    else
    {
      /* Disable the Internal Low Speed oscillator (HSI48). */
      __HAL_RCC_HSI48_DISABLE();
 8004dd2:	4b4f      	ldr	r3, [pc, #316]	; (8004f10 <HAL_RCC_OscConfig+0x578>)
 8004dd4:	f8d3 3098 	ldr.w	r3, [r3, #152]	; 0x98
 8004dd8:	4a4d      	ldr	r2, [pc, #308]	; (8004f10 <HAL_RCC_OscConfig+0x578>)
 8004dda:	f023 0301 	bic.w	r3, r3, #1
 8004dde:	f8c2 3098 	str.w	r3, [r2, #152]	; 0x98

      /* Get Start Tick*/
      tickstart = HAL_GetTick();
 8004de2:	f7fd f8e1 	bl	8001fa8 <HAL_GetTick>
 8004de6:	6138      	str	r0, [r7, #16]

      /* Wait till HSI48 is disabled */
      while(READ_BIT(RCC->CRRCR, RCC_CRRCR_HSI48RDY) != 0U)
 8004de8:	e008      	b.n	8004dfc <HAL_RCC_OscConfig+0x464>
      {
        if((HAL_GetTick() - tickstart) > HSI48_TIMEOUT_VALUE)
 8004dea:	f7fd f8dd 	bl	8001fa8 <HAL_GetTick>
 8004dee:	4602      	mov	r2, r0
 8004df0:	693b      	ldr	r3, [r7, #16]
 8004df2:	1ad3      	subs	r3, r2, r3
 8004df4:	2b02      	cmp	r3, #2
 8004df6:	d901      	bls.n	8004dfc <HAL_RCC_OscConfig+0x464>
        {
          return HAL_TIMEOUT;
 8004df8:	2303      	movs	r3, #3
 8004dfa:	e0df      	b.n	8004fbc <HAL_RCC_OscConfig+0x624>
      while(READ_BIT(RCC->CRRCR, RCC_CRRCR_HSI48RDY) != 0U)
 8004dfc:	4b44      	ldr	r3, [pc, #272]	; (8004f10 <HAL_RCC_OscConfig+0x578>)
 8004dfe:	f8d3 3098 	ldr.w	r3, [r3, #152]	; 0x98
 8004e02:	f003 0302 	and.w	r3, r3, #2
 8004e06:	2b00      	cmp	r3, #0
 8004e08:	d1ef      	bne.n	8004dea <HAL_RCC_OscConfig+0x452>

  /*-------------------------------- PLL Configuration -----------------------*/
  /* Check the parameters */
  assert_param(IS_RCC_PLL(RCC_OscInitStruct->PLL.PLLState));

  if (RCC_OscInitStruct->PLL.PLLState != RCC_PLL_NONE)
 8004e0a:	687b      	ldr	r3, [r7, #4]
 8004e0c:	69db      	ldr	r3, [r3, #28]
 8004e0e:	2b00      	cmp	r3, #0
 8004e10:	f000 80d3 	beq.w	8004fba <HAL_RCC_OscConfig+0x622>
  {
    /* Check if the PLL is used as system clock or not */
    if (__HAL_RCC_GET_SYSCLK_SOURCE() != RCC_CFGR_SWS_PLL)
 8004e14:	4b3e      	ldr	r3, [pc, #248]	; (8004f10 <HAL_RCC_OscConfig+0x578>)
 8004e16:	689b      	ldr	r3, [r3, #8]
 8004e18:	f003 030c 	and.w	r3, r3, #12
 8004e1c:	2b0c      	cmp	r3, #12
 8004e1e:	f000 808d 	beq.w	8004f3c <HAL_RCC_OscConfig+0x5a4>
    {
      if (RCC_OscInitStruct->PLL.PLLState == RCC_PLL_ON)
 8004e22:	687b      	ldr	r3, [r7, #4]
 8004e24:	69db      	ldr	r3, [r3, #28]
 8004e26:	2b02      	cmp	r3, #2
 8004e28:	d15a      	bne.n	8004ee0 <HAL_RCC_OscConfig+0x548>
        assert_param(IS_RCC_PLLP_VALUE(RCC_OscInitStruct->PLL.PLLP));
        assert_param(IS_RCC_PLLQ_VALUE(RCC_OscInitStruct->PLL.PLLQ));
        assert_param(IS_RCC_PLLR_VALUE(RCC_OscInitStruct->PLL.PLLR));

        /* Disable the main PLL. */
        __HAL_RCC_PLL_DISABLE();
 8004e2a:	4b39      	ldr	r3, [pc, #228]	; (8004f10 <HAL_RCC_OscConfig+0x578>)
 8004e2c:	681b      	ldr	r3, [r3, #0]
 8004e2e:	4a38      	ldr	r2, [pc, #224]	; (8004f10 <HAL_RCC_OscConfig+0x578>)
 8004e30:	f023 7380 	bic.w	r3, r3, #16777216	; 0x1000000
 8004e34:	6013      	str	r3, [r2, #0]

        /* Get Start Tick*/
        tickstart = HAL_GetTick();
 8004e36:	f7fd f8b7 	bl	8001fa8 <HAL_GetTick>
 8004e3a:	6138      	str	r0, [r7, #16]

        /* Wait till PLL is ready */
        while (READ_BIT(RCC->CR, RCC_CR_PLLRDY) != 0U)
 8004e3c:	e008      	b.n	8004e50 <HAL_RCC_OscConfig+0x4b8>
        {
          if ((HAL_GetTick() - tickstart) > PLL_TIMEOUT_VALUE)
 8004e3e:	f7fd f8b3 	bl	8001fa8 <HAL_GetTick>
 8004e42:	4602      	mov	r2, r0
 8004e44:	693b      	ldr	r3, [r7, #16]
 8004e46:	1ad3      	subs	r3, r2, r3
 8004e48:	2b02      	cmp	r3, #2
 8004e4a:	d901      	bls.n	8004e50 <HAL_RCC_OscConfig+0x4b8>
          {
            return HAL_TIMEOUT;
 8004e4c:	2303      	movs	r3, #3
 8004e4e:	e0b5      	b.n	8004fbc <HAL_RCC_OscConfig+0x624>
        while (READ_BIT(RCC->CR, RCC_CR_PLLRDY) != 0U)
 8004e50:	4b2f      	ldr	r3, [pc, #188]	; (8004f10 <HAL_RCC_OscConfig+0x578>)
 8004e52:	681b      	ldr	r3, [r3, #0]
 8004e54:	f003 7300 	and.w	r3, r3, #33554432	; 0x2000000
 8004e58:	2b00      	cmp	r3, #0
 8004e5a:	d1f0      	bne.n	8004e3e <HAL_RCC_OscConfig+0x4a6>
          }
        }

        /* Configure the main PLL clock source, multiplication and division factors. */
        __HAL_RCC_PLL_CONFIG(RCC_OscInitStruct->PLL.PLLSource,
 8004e5c:	4b2c      	ldr	r3, [pc, #176]	; (8004f10 <HAL_RCC_OscConfig+0x578>)
 8004e5e:	68da      	ldr	r2, [r3, #12]
 8004e60:	4b2d      	ldr	r3, [pc, #180]	; (8004f18 <HAL_RCC_OscConfig+0x580>)
 8004e62:	4013      	ands	r3, r2
 8004e64:	687a      	ldr	r2, [r7, #4]
 8004e66:	6a11      	ldr	r1, [r2, #32]
 8004e68:	687a      	ldr	r2, [r7, #4]
 8004e6a:	6a52      	ldr	r2, [r2, #36]	; 0x24
 8004e6c:	3a01      	subs	r2, #1
 8004e6e:	0112      	lsls	r2, r2, #4
 8004e70:	4311      	orrs	r1, r2
 8004e72:	687a      	ldr	r2, [r7, #4]
 8004e74:	6a92      	ldr	r2, [r2, #40]	; 0x28
 8004e76:	0212      	lsls	r2, r2, #8
 8004e78:	4311      	orrs	r1, r2
 8004e7a:	687a      	ldr	r2, [r7, #4]
 8004e7c:	6b12      	ldr	r2, [r2, #48]	; 0x30
 8004e7e:	0852      	lsrs	r2, r2, #1
 8004e80:	3a01      	subs	r2, #1
 8004e82:	0552      	lsls	r2, r2, #21
 8004e84:	4311      	orrs	r1, r2
 8004e86:	687a      	ldr	r2, [r7, #4]
 8004e88:	6b52      	ldr	r2, [r2, #52]	; 0x34
 8004e8a:	0852      	lsrs	r2, r2, #1
 8004e8c:	3a01      	subs	r2, #1
 8004e8e:	0652      	lsls	r2, r2, #25
 8004e90:	4311      	orrs	r1, r2
 8004e92:	687a      	ldr	r2, [r7, #4]
 8004e94:	6ad2      	ldr	r2, [r2, #44]	; 0x2c
 8004e96:	06d2      	lsls	r2, r2, #27
 8004e98:	430a      	orrs	r2, r1
 8004e9a:	491d      	ldr	r1, [pc, #116]	; (8004f10 <HAL_RCC_OscConfig+0x578>)
 8004e9c:	4313      	orrs	r3, r2
 8004e9e:	60cb      	str	r3, [r1, #12]
                             RCC_OscInitStruct->PLL.PLLP,
                             RCC_OscInitStruct->PLL.PLLQ,
                             RCC_OscInitStruct->PLL.PLLR);

        /* Enable the main PLL. */
        __HAL_RCC_PLL_ENABLE();
 8004ea0:	4b1b      	ldr	r3, [pc, #108]	; (8004f10 <HAL_RCC_OscConfig+0x578>)
 8004ea2:	681b      	ldr	r3, [r3, #0]
 8004ea4:	4a1a      	ldr	r2, [pc, #104]	; (8004f10 <HAL_RCC_OscConfig+0x578>)
 8004ea6:	f043 7380 	orr.w	r3, r3, #16777216	; 0x1000000
 8004eaa:	6013      	str	r3, [r2, #0]

        /* Enable PLL System Clock output. */
         __HAL_RCC_PLLCLKOUT_ENABLE(RCC_PLL_SYSCLK);
 8004eac:	4b18      	ldr	r3, [pc, #96]	; (8004f10 <HAL_RCC_OscConfig+0x578>)
 8004eae:	68db      	ldr	r3, [r3, #12]
 8004eb0:	4a17      	ldr	r2, [pc, #92]	; (8004f10 <HAL_RCC_OscConfig+0x578>)
 8004eb2:	f043 7380 	orr.w	r3, r3, #16777216	; 0x1000000
 8004eb6:	60d3      	str	r3, [r2, #12]

        /* Get Start Tick*/
        tickstart = HAL_GetTick();
 8004eb8:	f7fd f876 	bl	8001fa8 <HAL_GetTick>
 8004ebc:	6138      	str	r0, [r7, #16]

        /* Wait till PLL is ready */
        while (READ_BIT(RCC->CR, RCC_CR_PLLRDY) == 0U)
 8004ebe:	e008      	b.n	8004ed2 <HAL_RCC_OscConfig+0x53a>
        {
          if ((HAL_GetTick() - tickstart) > PLL_TIMEOUT_VALUE)
 8004ec0:	f7fd f872 	bl	8001fa8 <HAL_GetTick>
 8004ec4:	4602      	mov	r2, r0
 8004ec6:	693b      	ldr	r3, [r7, #16]
 8004ec8:	1ad3      	subs	r3, r2, r3
 8004eca:	2b02      	cmp	r3, #2
 8004ecc:	d901      	bls.n	8004ed2 <HAL_RCC_OscConfig+0x53a>
          {
            return HAL_TIMEOUT;
 8004ece:	2303      	movs	r3, #3
 8004ed0:	e074      	b.n	8004fbc <HAL_RCC_OscConfig+0x624>
        while (READ_BIT(RCC->CR, RCC_CR_PLLRDY) == 0U)
 8004ed2:	4b0f      	ldr	r3, [pc, #60]	; (8004f10 <HAL_RCC_OscConfig+0x578>)
 8004ed4:	681b      	ldr	r3, [r3, #0]
 8004ed6:	f003 7300 	and.w	r3, r3, #33554432	; 0x2000000
 8004eda:	2b00      	cmp	r3, #0
 8004edc:	d0f0      	beq.n	8004ec0 <HAL_RCC_OscConfig+0x528>
 8004ede:	e06c      	b.n	8004fba <HAL_RCC_OscConfig+0x622>
        }
      }
      else
      {
        /* Disable the main PLL. */
        __HAL_RCC_PLL_DISABLE();
 8004ee0:	4b0b      	ldr	r3, [pc, #44]	; (8004f10 <HAL_RCC_OscConfig+0x578>)
 8004ee2:	681b      	ldr	r3, [r3, #0]
 8004ee4:	4a0a      	ldr	r2, [pc, #40]	; (8004f10 <HAL_RCC_OscConfig+0x578>)
 8004ee6:	f023 7380 	bic.w	r3, r3, #16777216	; 0x1000000
 8004eea:	6013      	str	r3, [r2, #0]

        /* Disable all PLL outputs to save power if no PLLs on */
          MODIFY_REG(RCC->PLLCFGR, RCC_PLLCFGR_PLLSRC, RCC_PLLSOURCE_NONE);
 8004eec:	4b08      	ldr	r3, [pc, #32]	; (8004f10 <HAL_RCC_OscConfig+0x578>)
 8004eee:	68db      	ldr	r3, [r3, #12]
 8004ef0:	4a07      	ldr	r2, [pc, #28]	; (8004f10 <HAL_RCC_OscConfig+0x578>)
 8004ef2:	f023 0303 	bic.w	r3, r3, #3
 8004ef6:	60d3      	str	r3, [r2, #12]
        __HAL_RCC_PLLCLKOUT_DISABLE(RCC_PLL_SYSCLK | RCC_PLL_48M1CLK | RCC_PLL_ADCCLK);
 8004ef8:	4b05      	ldr	r3, [pc, #20]	; (8004f10 <HAL_RCC_OscConfig+0x578>)
 8004efa:	68db      	ldr	r3, [r3, #12]
 8004efc:	4a04      	ldr	r2, [pc, #16]	; (8004f10 <HAL_RCC_OscConfig+0x578>)
 8004efe:	f023 7388 	bic.w	r3, r3, #17825792	; 0x1100000
 8004f02:	f423 3380 	bic.w	r3, r3, #65536	; 0x10000
 8004f06:	60d3      	str	r3, [r2, #12]

        /* Get Start Tick*/
        tickstart = HAL_GetTick();
 8004f08:	f7fd f84e 	bl	8001fa8 <HAL_GetTick>
 8004f0c:	6138      	str	r0, [r7, #16]

        /* Wait till PLL is disabled */
        while (READ_BIT(RCC->CR, RCC_CR_PLLRDY) != 0U)
 8004f0e:	e00e      	b.n	8004f2e <HAL_RCC_OscConfig+0x596>
 8004f10:	40021000 	.word	0x40021000
 8004f14:	40007000 	.word	0x40007000
 8004f18:	019f800c 	.word	0x019f800c
        {
          if ((HAL_GetTick() - tickstart) > PLL_TIMEOUT_VALUE)
 8004f1c:	f7fd f844 	bl	8001fa8 <HAL_GetTick>
 8004f20:	4602      	mov	r2, r0
 8004f22:	693b      	ldr	r3, [r7, #16]
 8004f24:	1ad3      	subs	r3, r2, r3
 8004f26:	2b02      	cmp	r3, #2
 8004f28:	d901      	bls.n	8004f2e <HAL_RCC_OscConfig+0x596>
          {
            return HAL_TIMEOUT;
 8004f2a:	2303      	movs	r3, #3
 8004f2c:	e046      	b.n	8004fbc <HAL_RCC_OscConfig+0x624>
        while (READ_BIT(RCC->CR, RCC_CR_PLLRDY) != 0U)
 8004f2e:	4b25      	ldr	r3, [pc, #148]	; (8004fc4 <HAL_RCC_OscConfig+0x62c>)
 8004f30:	681b      	ldr	r3, [r3, #0]
 8004f32:	f003 7300 	and.w	r3, r3, #33554432	; 0x2000000
 8004f36:	2b00      	cmp	r3, #0
 8004f38:	d1f0      	bne.n	8004f1c <HAL_RCC_OscConfig+0x584>
 8004f3a:	e03e      	b.n	8004fba <HAL_RCC_OscConfig+0x622>
      }
    }
    else
    {
      /* Check if there is a request to disable the PLL used as System clock source */
      if((RCC_OscInitStruct->PLL.PLLState) == RCC_PLL_OFF)
 8004f3c:	687b      	ldr	r3, [r7, #4]
 8004f3e:	69db      	ldr	r3, [r3, #28]
 8004f40:	2b01      	cmp	r3, #1
 8004f42:	d101      	bne.n	8004f48 <HAL_RCC_OscConfig+0x5b0>
      {
        return HAL_ERROR;
 8004f44:	2301      	movs	r3, #1
 8004f46:	e039      	b.n	8004fbc <HAL_RCC_OscConfig+0x624>
      }
      else
      {
      /* Do not return HAL_ERROR if request repeats the current configuration */
      temp_pllckcfg = RCC->PLLCFGR;
 8004f48:	4b1e      	ldr	r3, [pc, #120]	; (8004fc4 <HAL_RCC_OscConfig+0x62c>)
 8004f4a:	68db      	ldr	r3, [r3, #12]
 8004f4c:	617b      	str	r3, [r7, #20]
      if((READ_BIT(temp_pllckcfg, RCC_PLLCFGR_PLLSRC) != RCC_OscInitStruct->PLL.PLLSource) ||
 8004f4e:	697b      	ldr	r3, [r7, #20]
 8004f50:	f003 0203 	and.w	r2, r3, #3
 8004f54:	687b      	ldr	r3, [r7, #4]
 8004f56:	6a1b      	ldr	r3, [r3, #32]
 8004f58:	429a      	cmp	r2, r3
 8004f5a:	d12c      	bne.n	8004fb6 <HAL_RCC_OscConfig+0x61e>
         (READ_BIT(temp_pllckcfg, RCC_PLLCFGR_PLLM) != (((RCC_OscInitStruct->PLL.PLLM) - 1U) << RCC_PLLCFGR_PLLM_Pos)) ||
 8004f5c:	697b      	ldr	r3, [r7, #20]
 8004f5e:	f003 02f0 	and.w	r2, r3, #240	; 0xf0
 8004f62:	687b      	ldr	r3, [r7, #4]
 8004f64:	6a5b      	ldr	r3, [r3, #36]	; 0x24
 8004f66:	3b01      	subs	r3, #1
 8004f68:	011b      	lsls	r3, r3, #4
      if((READ_BIT(temp_pllckcfg, RCC_PLLCFGR_PLLSRC) != RCC_OscInitStruct->PLL.PLLSource) ||
 8004f6a:	429a      	cmp	r2, r3
 8004f6c:	d123      	bne.n	8004fb6 <HAL_RCC_OscConfig+0x61e>
         (READ_BIT(temp_pllckcfg, RCC_PLLCFGR_PLLN) != ((RCC_OscInitStruct->PLL.PLLN) << RCC_PLLCFGR_PLLN_Pos)) ||
 8004f6e:	697b      	ldr	r3, [r7, #20]
 8004f70:	f403 42fe 	and.w	r2, r3, #32512	; 0x7f00
 8004f74:	687b      	ldr	r3, [r7, #4]
 8004f76:	6a9b      	ldr	r3, [r3, #40]	; 0x28
 8004f78:	021b      	lsls	r3, r3, #8
         (READ_BIT(temp_pllckcfg, RCC_PLLCFGR_PLLM) != (((RCC_OscInitStruct->PLL.PLLM) - 1U) << RCC_PLLCFGR_PLLM_Pos)) ||
 8004f7a:	429a      	cmp	r2, r3
 8004f7c:	d11b      	bne.n	8004fb6 <HAL_RCC_OscConfig+0x61e>
         (READ_BIT(temp_pllckcfg, RCC_PLLCFGR_PLLPDIV) != ((RCC_OscInitStruct->PLL.PLLP) << RCC_PLLCFGR_PLLPDIV_Pos)) ||
 8004f7e:	697b      	ldr	r3, [r7, #20]
 8004f80:	f003 4278 	and.w	r2, r3, #4160749568	; 0xf8000000
 8004f84:	687b      	ldr	r3, [r7, #4]
 8004f86:	6adb      	ldr	r3, [r3, #44]	; 0x2c
 8004f88:	06db      	lsls	r3, r3, #27
         (READ_BIT(temp_pllckcfg, RCC_PLLCFGR_PLLN) != ((RCC_OscInitStruct->PLL.PLLN) << RCC_PLLCFGR_PLLN_Pos)) ||
 8004f8a:	429a      	cmp	r2, r3
 8004f8c:	d113      	bne.n	8004fb6 <HAL_RCC_OscConfig+0x61e>
         (READ_BIT(temp_pllckcfg, RCC_PLLCFGR_PLLQ) != ((((RCC_OscInitStruct->PLL.PLLQ) >> 1U) - 1U) << RCC_PLLCFGR_PLLQ_Pos)) ||
 8004f8e:	697b      	ldr	r3, [r7, #20]
 8004f90:	f403 02c0 	and.w	r2, r3, #6291456	; 0x600000
 8004f94:	687b      	ldr	r3, [r7, #4]
 8004f96:	6b1b      	ldr	r3, [r3, #48]	; 0x30
 8004f98:	085b      	lsrs	r3, r3, #1
 8004f9a:	3b01      	subs	r3, #1
 8004f9c:	055b      	lsls	r3, r3, #21
         (READ_BIT(temp_pllckcfg, RCC_PLLCFGR_PLLPDIV) != ((RCC_OscInitStruct->PLL.PLLP) << RCC_PLLCFGR_PLLPDIV_Pos)) ||
 8004f9e:	429a      	cmp	r2, r3
 8004fa0:	d109      	bne.n	8004fb6 <HAL_RCC_OscConfig+0x61e>
         (READ_BIT(temp_pllckcfg, RCC_PLLCFGR_PLLR) != ((((RCC_OscInitStruct->PLL.PLLR) >> 1U) - 1U) << RCC_PLLCFGR_PLLR_Pos)))
 8004fa2:	697b      	ldr	r3, [r7, #20]
 8004fa4:	f003 62c0 	and.w	r2, r3, #100663296	; 0x6000000
 8004fa8:	687b      	ldr	r3, [r7, #4]
 8004faa:	6b5b      	ldr	r3, [r3, #52]	; 0x34
 8004fac:	085b      	lsrs	r3, r3, #1
 8004fae:	3b01      	subs	r3, #1
 8004fb0:	065b      	lsls	r3, r3, #25
         (READ_BIT(temp_pllckcfg, RCC_PLLCFGR_PLLQ) != ((((RCC_OscInitStruct->PLL.PLLQ) >> 1U) - 1U) << RCC_PLLCFGR_PLLQ_Pos)) ||
 8004fb2:	429a      	cmp	r2, r3
 8004fb4:	d001      	beq.n	8004fba <HAL_RCC_OscConfig+0x622>
      {
        return HAL_ERROR;
 8004fb6:	2301      	movs	r3, #1
 8004fb8:	e000      	b.n	8004fbc <HAL_RCC_OscConfig+0x624>
      }
    }
  }
  }

  return HAL_OK;
 8004fba:	2300      	movs	r3, #0
}
 8004fbc:	4618      	mov	r0, r3
 8004fbe:	3720      	adds	r7, #32
 8004fc0:	46bd      	mov	sp, r7
 8004fc2:	bd80      	pop	{r7, pc}
 8004fc4:	40021000 	.word	0x40021000

08004fc8 <HAL_RCC_ClockConfig>:
  *         HPRE[3:0] bits to ensure that HCLK not exceed the maximum allowed frequency
  *         (for more details refer to section above "Initialization/de-initialization functions")
  * @retval None
  */
HAL_StatusTypeDef HAL_RCC_ClockConfig(RCC_ClkInitTypeDef  *RCC_ClkInitStruct, uint32_t FLatency)
{
 8004fc8:	b580      	push	{r7, lr}
 8004fca:	b086      	sub	sp, #24
 8004fcc:	af00      	add	r7, sp, #0
 8004fce:	6078      	str	r0, [r7, #4]
 8004fd0:	6039      	str	r1, [r7, #0]
  uint32_t tickstart;
  uint32_t pllfreq;
  uint32_t hpre = RCC_SYSCLK_DIV1;
 8004fd2:	2300      	movs	r3, #0
 8004fd4:	617b      	str	r3, [r7, #20]

  /* Check Null pointer */
  if (RCC_ClkInitStruct == NULL)
 8004fd6:	687b      	ldr	r3, [r7, #4]
 8004fd8:	2b00      	cmp	r3, #0
 8004fda:	d101      	bne.n	8004fe0 <HAL_RCC_ClockConfig+0x18>
  {
    return HAL_ERROR;
 8004fdc:	2301      	movs	r3, #1
 8004fde:	e11e      	b.n	800521e <HAL_RCC_ClockConfig+0x256>
  /* To correctly read data from FLASH memory, the number of wait states (LATENCY)
    must be correctly programmed according to the frequency of the CPU clock
    (HCLK) and the supply voltage of the device. */

  /* Increasing the number of wait states because of higher CPU frequency */
  if (FLatency > __HAL_FLASH_GET_LATENCY())
 8004fe0:	4b91      	ldr	r3, [pc, #580]	; (8005228 <HAL_RCC_ClockConfig+0x260>)
 8004fe2:	681b      	ldr	r3, [r3, #0]
 8004fe4:	f003 030f 	and.w	r3, r3, #15
 8004fe8:	683a      	ldr	r2, [r7, #0]
 8004fea:	429a      	cmp	r2, r3
 8004fec:	d910      	bls.n	8005010 <HAL_RCC_ClockConfig+0x48>
  {
    /* Program the new number of wait states to the LATENCY bits in the FLASH_ACR register */
    __HAL_FLASH_SET_LATENCY(FLatency);
 8004fee:	4b8e      	ldr	r3, [pc, #568]	; (8005228 <HAL_RCC_ClockConfig+0x260>)
 8004ff0:	681b      	ldr	r3, [r3, #0]
 8004ff2:	f023 020f 	bic.w	r2, r3, #15
 8004ff6:	498c      	ldr	r1, [pc, #560]	; (8005228 <HAL_RCC_ClockConfig+0x260>)
 8004ff8:	683b      	ldr	r3, [r7, #0]
 8004ffa:	4313      	orrs	r3, r2
 8004ffc:	600b      	str	r3, [r1, #0]

    /* Check that the new number of wait states is taken into account to access the Flash
    memory by reading the FLASH_ACR register */
    if (__HAL_FLASH_GET_LATENCY() != FLatency)
 8004ffe:	4b8a      	ldr	r3, [pc, #552]	; (8005228 <HAL_RCC_ClockConfig+0x260>)
 8005000:	681b      	ldr	r3, [r3, #0]
 8005002:	f003 030f 	and.w	r3, r3, #15
 8005006:	683a      	ldr	r2, [r7, #0]
 8005008:	429a      	cmp	r2, r3
 800500a:	d001      	beq.n	8005010 <HAL_RCC_ClockConfig+0x48>
    {
      return HAL_ERROR;
 800500c:	2301      	movs	r3, #1
 800500e:	e106      	b.n	800521e <HAL_RCC_ClockConfig+0x256>
    }
  }

  /*------------------------- SYSCLK Configuration ---------------------------*/
  if(((RCC_ClkInitStruct->ClockType) & RCC_CLOCKTYPE_SYSCLK) == RCC_CLOCKTYPE_SYSCLK)
 8005010:	687b      	ldr	r3, [r7, #4]
 8005012:	681b      	ldr	r3, [r3, #0]
 8005014:	f003 0301 	and.w	r3, r3, #1
 8005018:	2b00      	cmp	r3, #0
 800501a:	d073      	beq.n	8005104 <HAL_RCC_ClockConfig+0x13c>
  {
    assert_param(IS_RCC_SYSCLKSOURCE(RCC_ClkInitStruct->SYSCLKSource));

    /* PLL is selected as System Clock Source */
    if (RCC_ClkInitStruct->SYSCLKSource == RCC_SYSCLKSOURCE_PLLCLK)
 800501c:	687b      	ldr	r3, [r7, #4]
 800501e:	685b      	ldr	r3, [r3, #4]
 8005020:	2b03      	cmp	r3, #3
 8005022:	d129      	bne.n	8005078 <HAL_RCC_ClockConfig+0xb0>
    {
      /* Check the PLL ready flag */
      if (READ_BIT(RCC->CR, RCC_CR_PLLRDY) == 0U)
 8005024:	4b81      	ldr	r3, [pc, #516]	; (800522c <HAL_RCC_ClockConfig+0x264>)
 8005026:	681b      	ldr	r3, [r3, #0]
 8005028:	f003 7300 	and.w	r3, r3, #33554432	; 0x2000000
 800502c:	2b00      	cmp	r3, #0
 800502e:	d101      	bne.n	8005034 <HAL_RCC_ClockConfig+0x6c>
      {
        return HAL_ERROR;
 8005030:	2301      	movs	r3, #1
 8005032:	e0f4      	b.n	800521e <HAL_RCC_ClockConfig+0x256>
      }
      /* Undershoot management when selection PLL as SYSCLK source and frequency above 80Mhz */
      /* Compute target PLL output frequency */
      pllfreq = RCC_GetSysClockFreqFromPLLSource();
 8005034:	f000 f972 	bl	800531c <RCC_GetSysClockFreqFromPLLSource>
 8005038:	6138      	str	r0, [r7, #16]

      /* Intermediate step with HCLK prescaler 2 necessary before to go over 80Mhz */
      if(pllfreq > 80000000U)
 800503a:	693b      	ldr	r3, [r7, #16]
 800503c:	4a7c      	ldr	r2, [pc, #496]	; (8005230 <HAL_RCC_ClockConfig+0x268>)
 800503e:	4293      	cmp	r3, r2
 8005040:	d93f      	bls.n	80050c2 <HAL_RCC_ClockConfig+0xfa>
      {
        if (((READ_BIT(RCC->CFGR, RCC_CFGR_HPRE) == RCC_SYSCLK_DIV1)) ||
 8005042:	4b7a      	ldr	r3, [pc, #488]	; (800522c <HAL_RCC_ClockConfig+0x264>)
 8005044:	689b      	ldr	r3, [r3, #8]
 8005046:	f003 03f0 	and.w	r3, r3, #240	; 0xf0
 800504a:	2b00      	cmp	r3, #0
 800504c:	d009      	beq.n	8005062 <HAL_RCC_ClockConfig+0x9a>
            (((((RCC_ClkInitStruct->ClockType) & RCC_CLOCKTYPE_HCLK) == RCC_CLOCKTYPE_HCLK) &&
 800504e:	687b      	ldr	r3, [r7, #4]
 8005050:	681b      	ldr	r3, [r3, #0]
 8005052:	f003 0302 	and.w	r3, r3, #2
        if (((READ_BIT(RCC->CFGR, RCC_CFGR_HPRE) == RCC_SYSCLK_DIV1)) ||
 8005056:	2b00      	cmp	r3, #0
 8005058:	d033      	beq.n	80050c2 <HAL_RCC_ClockConfig+0xfa>
              (RCC_ClkInitStruct->AHBCLKDivider == RCC_SYSCLK_DIV1))))
 800505a:	687b      	ldr	r3, [r7, #4]
 800505c:	689b      	ldr	r3, [r3, #8]
            (((((RCC_ClkInitStruct->ClockType) & RCC_CLOCKTYPE_HCLK) == RCC_CLOCKTYPE_HCLK) &&
 800505e:	2b00      	cmp	r3, #0
 8005060:	d12f      	bne.n	80050c2 <HAL_RCC_ClockConfig+0xfa>
        {
          MODIFY_REG(RCC->CFGR, RCC_CFGR_HPRE, RCC_SYSCLK_DIV2);
 8005062:	4b72      	ldr	r3, [pc, #456]	; (800522c <HAL_RCC_ClockConfig+0x264>)
 8005064:	689b      	ldr	r3, [r3, #8]
 8005066:	f023 03f0 	bic.w	r3, r3, #240	; 0xf0
 800506a:	4a70      	ldr	r2, [pc, #448]	; (800522c <HAL_RCC_ClockConfig+0x264>)
 800506c:	f043 0380 	orr.w	r3, r3, #128	; 0x80
 8005070:	6093      	str	r3, [r2, #8]
          hpre = RCC_SYSCLK_DIV2;
 8005072:	2380      	movs	r3, #128	; 0x80
 8005074:	617b      	str	r3, [r7, #20]
 8005076:	e024      	b.n	80050c2 <HAL_RCC_ClockConfig+0xfa>
      }
    }
    else
    {
      /* HSE is selected as System Clock Source */
      if (RCC_ClkInitStruct->SYSCLKSource == RCC_SYSCLKSOURCE_HSE)
 8005078:	687b      	ldr	r3, [r7, #4]
 800507a:	685b      	ldr	r3, [r3, #4]
 800507c:	2b02      	cmp	r3, #2
 800507e:	d107      	bne.n	8005090 <HAL_RCC_ClockConfig+0xc8>
      {
        /* Check the HSE ready flag */
        if(READ_BIT(RCC->CR, RCC_CR_HSERDY) == 0U)
 8005080:	4b6a      	ldr	r3, [pc, #424]	; (800522c <HAL_RCC_ClockConfig+0x264>)
 8005082:	681b      	ldr	r3, [r3, #0]
 8005084:	f403 3300 	and.w	r3, r3, #131072	; 0x20000
 8005088:	2b00      	cmp	r3, #0
 800508a:	d109      	bne.n	80050a0 <HAL_RCC_ClockConfig+0xd8>
        {
          return HAL_ERROR;
 800508c:	2301      	movs	r3, #1
 800508e:	e0c6      	b.n	800521e <HAL_RCC_ClockConfig+0x256>
      }
      /* HSI is selected as System Clock Source */
      else
      {
        /* Check the HSI ready flag */
        if(READ_BIT(RCC->CR, RCC_CR_HSIRDY) == 0U)
 8005090:	4b66      	ldr	r3, [pc, #408]	; (800522c <HAL_RCC_ClockConfig+0x264>)
 8005092:	681b      	ldr	r3, [r3, #0]
 8005094:	f403 6380 	and.w	r3, r3, #1024	; 0x400
 8005098:	2b00      	cmp	r3, #0
 800509a:	d101      	bne.n	80050a0 <HAL_RCC_ClockConfig+0xd8>
        {
          return HAL_ERROR;
 800509c:	2301      	movs	r3, #1
 800509e:	e0be      	b.n	800521e <HAL_RCC_ClockConfig+0x256>
        }
      }
      /* Overshoot management when going down from PLL as SYSCLK source and frequency above 80Mhz */
      pllfreq = HAL_RCC_GetSysClockFreq();
 80050a0:	f000 f8ce 	bl	8005240 <HAL_RCC_GetSysClockFreq>
 80050a4:	6138      	str	r0, [r7, #16]

      /* Intermediate step with HCLK prescaler 2 necessary before to go under 80Mhz */
      if(pllfreq > 80000000U)
 80050a6:	693b      	ldr	r3, [r7, #16]
 80050a8:	4a61      	ldr	r2, [pc, #388]	; (8005230 <HAL_RCC_ClockConfig+0x268>)
 80050aa:	4293      	cmp	r3, r2
 80050ac:	d909      	bls.n	80050c2 <HAL_RCC_ClockConfig+0xfa>
      {
        MODIFY_REG(RCC->CFGR, RCC_CFGR_HPRE, RCC_SYSCLK_DIV2);
 80050ae:	4b5f      	ldr	r3, [pc, #380]	; (800522c <HAL_RCC_ClockConfig+0x264>)
 80050b0:	689b      	ldr	r3, [r3, #8]
 80050b2:	f023 03f0 	bic.w	r3, r3, #240	; 0xf0
 80050b6:	4a5d      	ldr	r2, [pc, #372]	; (800522c <HAL_RCC_ClockConfig+0x264>)
 80050b8:	f043 0380 	orr.w	r3, r3, #128	; 0x80
 80050bc:	6093      	str	r3, [r2, #8]
        hpre = RCC_SYSCLK_DIV2;
 80050be:	2380      	movs	r3, #128	; 0x80
 80050c0:	617b      	str	r3, [r7, #20]
      }

    }

    MODIFY_REG(RCC->CFGR, RCC_CFGR_SW, RCC_ClkInitStruct->SYSCLKSource);
 80050c2:	4b5a      	ldr	r3, [pc, #360]	; (800522c <HAL_RCC_ClockConfig+0x264>)
 80050c4:	689b      	ldr	r3, [r3, #8]
 80050c6:	f023 0203 	bic.w	r2, r3, #3
 80050ca:	687b      	ldr	r3, [r7, #4]
 80050cc:	685b      	ldr	r3, [r3, #4]
 80050ce:	4957      	ldr	r1, [pc, #348]	; (800522c <HAL_RCC_ClockConfig+0x264>)
 80050d0:	4313      	orrs	r3, r2
 80050d2:	608b      	str	r3, [r1, #8]

    /* Get Start Tick*/
    tickstart = HAL_GetTick();
 80050d4:	f7fc ff68 	bl	8001fa8 <HAL_GetTick>
 80050d8:	60f8      	str	r0, [r7, #12]

    while (__HAL_RCC_GET_SYSCLK_SOURCE() != (RCC_ClkInitStruct->SYSCLKSource << RCC_CFGR_SWS_Pos))
 80050da:	e00a      	b.n	80050f2 <HAL_RCC_ClockConfig+0x12a>
    {
      if ((HAL_GetTick() - tickstart) > CLOCKSWITCH_TIMEOUT_VALUE)
 80050dc:	f7fc ff64 	bl	8001fa8 <HAL_GetTick>
 80050e0:	4602      	mov	r2, r0
 80050e2:	68fb      	ldr	r3, [r7, #12]
 80050e4:	1ad3      	subs	r3, r2, r3
 80050e6:	f241 3288 	movw	r2, #5000	; 0x1388
 80050ea:	4293      	cmp	r3, r2
 80050ec:	d901      	bls.n	80050f2 <HAL_RCC_ClockConfig+0x12a>
      {
        return HAL_TIMEOUT;
 80050ee:	2303      	movs	r3, #3
 80050f0:	e095      	b.n	800521e <HAL_RCC_ClockConfig+0x256>
    while (__HAL_RCC_GET_SYSCLK_SOURCE() != (RCC_ClkInitStruct->SYSCLKSource << RCC_CFGR_SWS_Pos))
 80050f2:	4b4e      	ldr	r3, [pc, #312]	; (800522c <HAL_RCC_ClockConfig+0x264>)
 80050f4:	689b      	ldr	r3, [r3, #8]
 80050f6:	f003 020c 	and.w	r2, r3, #12
 80050fa:	687b      	ldr	r3, [r7, #4]
 80050fc:	685b      	ldr	r3, [r3, #4]
 80050fe:	009b      	lsls	r3, r3, #2
 8005100:	429a      	cmp	r2, r3
 8005102:	d1eb      	bne.n	80050dc <HAL_RCC_ClockConfig+0x114>
      }
    }
  }

  /*-------------------------- HCLK Configuration --------------------------*/
  if (((RCC_ClkInitStruct->ClockType) & RCC_CLOCKTYPE_HCLK) == RCC_CLOCKTYPE_HCLK)
 8005104:	687b      	ldr	r3, [r7, #4]
 8005106:	681b      	ldr	r3, [r3, #0]
 8005108:	f003 0302 	and.w	r3, r3, #2
 800510c:	2b00      	cmp	r3, #0
 800510e:	d023      	beq.n	8005158 <HAL_RCC_ClockConfig+0x190>
  {
    /* Set the highest APB divider in order to ensure that we do not go through
       a non-spec phase whatever we decrease or increase HCLK. */
    if (((RCC_ClkInitStruct->ClockType) & RCC_CLOCKTYPE_PCLK1) == RCC_CLOCKTYPE_PCLK1)
 8005110:	687b      	ldr	r3, [r7, #4]
 8005112:	681b      	ldr	r3, [r3, #0]
 8005114:	f003 0304 	and.w	r3, r3, #4
 8005118:	2b00      	cmp	r3, #0
 800511a:	d005      	beq.n	8005128 <HAL_RCC_ClockConfig+0x160>
    {
      MODIFY_REG(RCC->CFGR, RCC_CFGR_PPRE1, RCC_HCLK_DIV16);
 800511c:	4b43      	ldr	r3, [pc, #268]	; (800522c <HAL_RCC_ClockConfig+0x264>)
 800511e:	689b      	ldr	r3, [r3, #8]
 8005120:	4a42      	ldr	r2, [pc, #264]	; (800522c <HAL_RCC_ClockConfig+0x264>)
 8005122:	f443 63e0 	orr.w	r3, r3, #1792	; 0x700
 8005126:	6093      	str	r3, [r2, #8]
    }
    if (((RCC_ClkInitStruct->ClockType) & RCC_CLOCKTYPE_PCLK2) == RCC_CLOCKTYPE_PCLK2)
 8005128:	687b      	ldr	r3, [r7, #4]
 800512a:	681b      	ldr	r3, [r3, #0]
 800512c:	f003 0308 	and.w	r3, r3, #8
 8005130:	2b00      	cmp	r3, #0
 8005132:	d007      	beq.n	8005144 <HAL_RCC_ClockConfig+0x17c>
    {
      MODIFY_REG(RCC->CFGR, RCC_CFGR_PPRE2, RCC_HCLK_DIV16);
 8005134:	4b3d      	ldr	r3, [pc, #244]	; (800522c <HAL_RCC_ClockConfig+0x264>)
 8005136:	689b      	ldr	r3, [r3, #8]
 8005138:	f423 537c 	bic.w	r3, r3, #16128	; 0x3f00
 800513c:	4a3b      	ldr	r2, [pc, #236]	; (800522c <HAL_RCC_ClockConfig+0x264>)
 800513e:	f443 63e0 	orr.w	r3, r3, #1792	; 0x700
 8005142:	6093      	str	r3, [r2, #8]
    }

    /* Set the new HCLK clock divider */
    assert_param(IS_RCC_HCLK(RCC_ClkInitStruct->AHBCLKDivider));
    MODIFY_REG(RCC->CFGR, RCC_CFGR_HPRE, RCC_ClkInitStruct->AHBCLKDivider);
 8005144:	4b39      	ldr	r3, [pc, #228]	; (800522c <HAL_RCC_ClockConfig+0x264>)
 8005146:	689b      	ldr	r3, [r3, #8]
 8005148:	f023 02f0 	bic.w	r2, r3, #240	; 0xf0
 800514c:	687b      	ldr	r3, [r7, #4]
 800514e:	689b      	ldr	r3, [r3, #8]
 8005150:	4936      	ldr	r1, [pc, #216]	; (800522c <HAL_RCC_ClockConfig+0x264>)
 8005152:	4313      	orrs	r3, r2
 8005154:	608b      	str	r3, [r1, #8]
 8005156:	e008      	b.n	800516a <HAL_RCC_ClockConfig+0x1a2>
  }
  else
  {
    /* Is intermediate HCLK prescaler 2 applied internally, complete with HCLK prescaler 1 */
    if(hpre == RCC_SYSCLK_DIV2)
 8005158:	697b      	ldr	r3, [r7, #20]
 800515a:	2b80      	cmp	r3, #128	; 0x80
 800515c:	d105      	bne.n	800516a <HAL_RCC_ClockConfig+0x1a2>
    {
      MODIFY_REG(RCC->CFGR, RCC_CFGR_HPRE, RCC_SYSCLK_DIV1);
 800515e:	4b33      	ldr	r3, [pc, #204]	; (800522c <HAL_RCC_ClockConfig+0x264>)
 8005160:	689b      	ldr	r3, [r3, #8]
 8005162:	4a32      	ldr	r2, [pc, #200]	; (800522c <HAL_RCC_ClockConfig+0x264>)
 8005164:	f023 03f0 	bic.w	r3, r3, #240	; 0xf0
 8005168:	6093      	str	r3, [r2, #8]
    }
  }

  /* Decreasing the number of wait states because of lower CPU frequency */
  if (FLatency < __HAL_FLASH_GET_LATENCY())
 800516a:	4b2f      	ldr	r3, [pc, #188]	; (8005228 <HAL_RCC_ClockConfig+0x260>)
 800516c:	681b      	ldr	r3, [r3, #0]
 800516e:	f003 030f 	and.w	r3, r3, #15
 8005172:	683a      	ldr	r2, [r7, #0]
 8005174:	429a      	cmp	r2, r3
 8005176:	d21d      	bcs.n	80051b4 <HAL_RCC_ClockConfig+0x1ec>
  {
    /* Program the new number of wait states to the LATENCY bits in the FLASH_ACR register */
    __HAL_FLASH_SET_LATENCY(FLatency);
 8005178:	4b2b      	ldr	r3, [pc, #172]	; (8005228 <HAL_RCC_ClockConfig+0x260>)
 800517a:	681b      	ldr	r3, [r3, #0]
 800517c:	f023 020f 	bic.w	r2, r3, #15
 8005180:	4929      	ldr	r1, [pc, #164]	; (8005228 <HAL_RCC_ClockConfig+0x260>)
 8005182:	683b      	ldr	r3, [r7, #0]
 8005184:	4313      	orrs	r3, r2
 8005186:	600b      	str	r3, [r1, #0]

    /* Check that the new number of wait states is taken into account to access the Flash
    memory by polling the FLASH_ACR register */
    tickstart = HAL_GetTick();
 8005188:	f7fc ff0e 	bl	8001fa8 <HAL_GetTick>
 800518c:	60f8      	str	r0, [r7, #12]

    while (__HAL_FLASH_GET_LATENCY() != FLatency)
 800518e:	e00a      	b.n	80051a6 <HAL_RCC_ClockConfig+0x1de>
    {
      if ((HAL_GetTick() - tickstart) > CLOCKSWITCH_TIMEOUT_VALUE)
 8005190:	f7fc ff0a 	bl	8001fa8 <HAL_GetTick>
 8005194:	4602      	mov	r2, r0
 8005196:	68fb      	ldr	r3, [r7, #12]
 8005198:	1ad3      	subs	r3, r2, r3
 800519a:	f241 3288 	movw	r2, #5000	; 0x1388
 800519e:	4293      	cmp	r3, r2
 80051a0:	d901      	bls.n	80051a6 <HAL_RCC_ClockConfig+0x1de>
      {
        return HAL_TIMEOUT;
 80051a2:	2303      	movs	r3, #3
 80051a4:	e03b      	b.n	800521e <HAL_RCC_ClockConfig+0x256>
    while (__HAL_FLASH_GET_LATENCY() != FLatency)
 80051a6:	4b20      	ldr	r3, [pc, #128]	; (8005228 <HAL_RCC_ClockConfig+0x260>)
 80051a8:	681b      	ldr	r3, [r3, #0]
 80051aa:	f003 030f 	and.w	r3, r3, #15
 80051ae:	683a      	ldr	r2, [r7, #0]
 80051b0:	429a      	cmp	r2, r3
 80051b2:	d1ed      	bne.n	8005190 <HAL_RCC_ClockConfig+0x1c8>
      }
    }
  }

  /*-------------------------- PCLK1 Configuration ---------------------------*/
  if (((RCC_ClkInitStruct->ClockType) & RCC_CLOCKTYPE_PCLK1) == RCC_CLOCKTYPE_PCLK1)
 80051b4:	687b      	ldr	r3, [r7, #4]
 80051b6:	681b      	ldr	r3, [r3, #0]
 80051b8:	f003 0304 	and.w	r3, r3, #4
 80051bc:	2b00      	cmp	r3, #0
 80051be:	d008      	beq.n	80051d2 <HAL_RCC_ClockConfig+0x20a>
  {
    assert_param(IS_RCC_PCLK(RCC_ClkInitStruct->APB1CLKDivider));
    MODIFY_REG(RCC->CFGR, RCC_CFGR_PPRE1, RCC_ClkInitStruct->APB1CLKDivider);
 80051c0:	4b1a      	ldr	r3, [pc, #104]	; (800522c <HAL_RCC_ClockConfig+0x264>)
 80051c2:	689b      	ldr	r3, [r3, #8]
 80051c4:	f423 62e0 	bic.w	r2, r3, #1792	; 0x700
 80051c8:	687b      	ldr	r3, [r7, #4]
 80051ca:	68db      	ldr	r3, [r3, #12]
 80051cc:	4917      	ldr	r1, [pc, #92]	; (800522c <HAL_RCC_ClockConfig+0x264>)
 80051ce:	4313      	orrs	r3, r2
 80051d0:	608b      	str	r3, [r1, #8]
  }

  /*-------------------------- PCLK2 Configuration ---------------------------*/
  if(((RCC_ClkInitStruct->ClockType) & RCC_CLOCKTYPE_PCLK2) == RCC_CLOCKTYPE_PCLK2)
 80051d2:	687b      	ldr	r3, [r7, #4]
 80051d4:	681b      	ldr	r3, [r3, #0]
 80051d6:	f003 0308 	and.w	r3, r3, #8
 80051da:	2b00      	cmp	r3, #0
 80051dc:	d009      	beq.n	80051f2 <HAL_RCC_ClockConfig+0x22a>
  {
    assert_param(IS_RCC_PCLK(RCC_ClkInitStruct->APB2CLKDivider));
    MODIFY_REG(RCC->CFGR, RCC_CFGR_PPRE2, ((RCC_ClkInitStruct->APB2CLKDivider) << 3U));
 80051de:	4b13      	ldr	r3, [pc, #76]	; (800522c <HAL_RCC_ClockConfig+0x264>)
 80051e0:	689b      	ldr	r3, [r3, #8]
 80051e2:	f423 5260 	bic.w	r2, r3, #14336	; 0x3800
 80051e6:	687b      	ldr	r3, [r7, #4]
 80051e8:	691b      	ldr	r3, [r3, #16]
 80051ea:	00db      	lsls	r3, r3, #3
 80051ec:	490f      	ldr	r1, [pc, #60]	; (800522c <HAL_RCC_ClockConfig+0x264>)
 80051ee:	4313      	orrs	r3, r2
 80051f0:	608b      	str	r3, [r1, #8]
  }

  /* Update the SystemCoreClock global variable */
  SystemCoreClock = HAL_RCC_GetSysClockFreq() >> (AHBPrescTable[READ_BIT(RCC->CFGR, RCC_CFGR_HPRE) >> RCC_CFGR_HPRE_Pos] & 0x1FU);
 80051f2:	f000 f825 	bl	8005240 <HAL_RCC_GetSysClockFreq>
 80051f6:	4601      	mov	r1, r0
 80051f8:	4b0c      	ldr	r3, [pc, #48]	; (800522c <HAL_RCC_ClockConfig+0x264>)
 80051fa:	689b      	ldr	r3, [r3, #8]
 80051fc:	091b      	lsrs	r3, r3, #4
 80051fe:	f003 030f 	and.w	r3, r3, #15
 8005202:	4a0c      	ldr	r2, [pc, #48]	; (8005234 <HAL_RCC_ClockConfig+0x26c>)
 8005204:	5cd3      	ldrb	r3, [r2, r3]
 8005206:	f003 031f 	and.w	r3, r3, #31
 800520a:	fa21 f303 	lsr.w	r3, r1, r3
 800520e:	4a0a      	ldr	r2, [pc, #40]	; (8005238 <HAL_RCC_ClockConfig+0x270>)
 8005210:	6013      	str	r3, [r2, #0]

  /* Configure the source of time base considering new system clocks settings*/
  return HAL_InitTick(uwTickPrio);
 8005212:	4b0a      	ldr	r3, [pc, #40]	; (800523c <HAL_RCC_ClockConfig+0x274>)
 8005214:	681b      	ldr	r3, [r3, #0]
 8005216:	4618      	mov	r0, r3
 8005218:	f7fc fe7a 	bl	8001f10 <HAL_InitTick>
 800521c:	4603      	mov	r3, r0
}
 800521e:	4618      	mov	r0, r3
 8005220:	3718      	adds	r7, #24
 8005222:	46bd      	mov	sp, r7
 8005224:	bd80      	pop	{r7, pc}
 8005226:	bf00      	nop
 8005228:	40022000 	.word	0x40022000
 800522c:	40021000 	.word	0x40021000
 8005230:	04c4b400 	.word	0x04c4b400
 8005234:	0800945c 	.word	0x0800945c
 8005238:	200003cc 	.word	0x200003cc
 800523c:	200003d0 	.word	0x200003d0

08005240 <HAL_RCC_GetSysClockFreq>:
  *
  *
  * @retval SYSCLK frequency
  */
uint32_t HAL_RCC_GetSysClockFreq(void)
{
 8005240:	b480      	push	{r7}
 8005242:	b087      	sub	sp, #28
 8005244:	af00      	add	r7, sp, #0
  uint32_t pllvco, pllsource, pllr, pllm;
  uint32_t sysclockfreq;

  if (__HAL_RCC_GET_SYSCLK_SOURCE() == RCC_CFGR_SWS_HSI)
 8005246:	4b2c      	ldr	r3, [pc, #176]	; (80052f8 <HAL_RCC_GetSysClockFreq+0xb8>)
 8005248:	689b      	ldr	r3, [r3, #8]
 800524a:	f003 030c 	and.w	r3, r3, #12
 800524e:	2b04      	cmp	r3, #4
 8005250:	d102      	bne.n	8005258 <HAL_RCC_GetSysClockFreq+0x18>
  {
    /* HSI used as system clock source */
    sysclockfreq = HSI_VALUE;
 8005252:	4b2a      	ldr	r3, [pc, #168]	; (80052fc <HAL_RCC_GetSysClockFreq+0xbc>)
 8005254:	613b      	str	r3, [r7, #16]
 8005256:	e047      	b.n	80052e8 <HAL_RCC_GetSysClockFreq+0xa8>
  }
  else if (__HAL_RCC_GET_SYSCLK_SOURCE() == RCC_CFGR_SWS_HSE)
 8005258:	4b27      	ldr	r3, [pc, #156]	; (80052f8 <HAL_RCC_GetSysClockFreq+0xb8>)
 800525a:	689b      	ldr	r3, [r3, #8]
 800525c:	f003 030c 	and.w	r3, r3, #12
 8005260:	2b08      	cmp	r3, #8
 8005262:	d102      	bne.n	800526a <HAL_RCC_GetSysClockFreq+0x2a>
  {
    /* HSE used as system clock source */
    sysclockfreq = HSE_VALUE;
 8005264:	4b26      	ldr	r3, [pc, #152]	; (8005300 <HAL_RCC_GetSysClockFreq+0xc0>)
 8005266:	613b      	str	r3, [r7, #16]
 8005268:	e03e      	b.n	80052e8 <HAL_RCC_GetSysClockFreq+0xa8>
  }
  else if (__HAL_RCC_GET_SYSCLK_SOURCE() == RCC_CFGR_SWS_PLL)
 800526a:	4b23      	ldr	r3, [pc, #140]	; (80052f8 <HAL_RCC_GetSysClockFreq+0xb8>)
 800526c:	689b      	ldr	r3, [r3, #8]
 800526e:	f003 030c 	and.w	r3, r3, #12
 8005272:	2b0c      	cmp	r3, #12
 8005274:	d136      	bne.n	80052e4 <HAL_RCC_GetSysClockFreq+0xa4>
    /* PLL used as system clock  source */

    /* PLL_VCO = ((HSE_VALUE or HSI_VALUE)/ PLLM) * PLLN
    SYSCLK = PLL_VCO / PLLR
    */
    pllsource = READ_BIT(RCC->PLLCFGR, RCC_PLLCFGR_PLLSRC);
 8005276:	4b20      	ldr	r3, [pc, #128]	; (80052f8 <HAL_RCC_GetSysClockFreq+0xb8>)
 8005278:	68db      	ldr	r3, [r3, #12]
 800527a:	f003 0303 	and.w	r3, r3, #3
 800527e:	60fb      	str	r3, [r7, #12]
    pllm = (READ_BIT(RCC->PLLCFGR, RCC_PLLCFGR_PLLM) >> RCC_PLLCFGR_PLLM_Pos) + 1U ;
 8005280:	4b1d      	ldr	r3, [pc, #116]	; (80052f8 <HAL_RCC_GetSysClockFreq+0xb8>)
 8005282:	68db      	ldr	r3, [r3, #12]
 8005284:	091b      	lsrs	r3, r3, #4
 8005286:	f003 030f 	and.w	r3, r3, #15
 800528a:	3301      	adds	r3, #1
 800528c:	60bb      	str	r3, [r7, #8]

    switch (pllsource)
 800528e:	68fb      	ldr	r3, [r7, #12]
 8005290:	2b03      	cmp	r3, #3
 8005292:	d10c      	bne.n	80052ae <HAL_RCC_GetSysClockFreq+0x6e>
    {
    case RCC_PLLSOURCE_HSE:  /* HSE used as PLL clock source */
      pllvco = (HSE_VALUE / pllm) * (READ_BIT(RCC->PLLCFGR, RCC_PLLCFGR_PLLN) >> RCC_PLLCFGR_PLLN_Pos);
 8005294:	4a1a      	ldr	r2, [pc, #104]	; (8005300 <HAL_RCC_GetSysClockFreq+0xc0>)
 8005296:	68bb      	ldr	r3, [r7, #8]
 8005298:	fbb2 f3f3 	udiv	r3, r2, r3
 800529c:	4a16      	ldr	r2, [pc, #88]	; (80052f8 <HAL_RCC_GetSysClockFreq+0xb8>)
 800529e:	68d2      	ldr	r2, [r2, #12]
 80052a0:	0a12      	lsrs	r2, r2, #8
 80052a2:	f002 027f 	and.w	r2, r2, #127	; 0x7f
 80052a6:	fb02 f303 	mul.w	r3, r2, r3
 80052aa:	617b      	str	r3, [r7, #20]
      break;
 80052ac:	e00c      	b.n	80052c8 <HAL_RCC_GetSysClockFreq+0x88>

    case RCC_PLLSOURCE_HSI:  /* HSI used as PLL clock source */
    default:
      pllvco = (HSI_VALUE / pllm) * (READ_BIT(RCC->PLLCFGR, RCC_PLLCFGR_PLLN) >> RCC_PLLCFGR_PLLN_Pos);
 80052ae:	4a13      	ldr	r2, [pc, #76]	; (80052fc <HAL_RCC_GetSysClockFreq+0xbc>)
 80052b0:	68bb      	ldr	r3, [r7, #8]
 80052b2:	fbb2 f3f3 	udiv	r3, r2, r3
 80052b6:	4a10      	ldr	r2, [pc, #64]	; (80052f8 <HAL_RCC_GetSysClockFreq+0xb8>)
 80052b8:	68d2      	ldr	r2, [r2, #12]
 80052ba:	0a12      	lsrs	r2, r2, #8
 80052bc:	f002 027f 	and.w	r2, r2, #127	; 0x7f
 80052c0:	fb02 f303 	mul.w	r3, r2, r3
 80052c4:	617b      	str	r3, [r7, #20]
      break;
 80052c6:	bf00      	nop
    }
    pllr = ((READ_BIT(RCC->PLLCFGR, RCC_PLLCFGR_PLLR) >> RCC_PLLCFGR_PLLR_Pos) + 1U ) * 2U;
 80052c8:	4b0b      	ldr	r3, [pc, #44]	; (80052f8 <HAL_RCC_GetSysClockFreq+0xb8>)
 80052ca:	68db      	ldr	r3, [r3, #12]
 80052cc:	0e5b      	lsrs	r3, r3, #25
 80052ce:	f003 0303 	and.w	r3, r3, #3
 80052d2:	3301      	adds	r3, #1
 80052d4:	005b      	lsls	r3, r3, #1
 80052d6:	607b      	str	r3, [r7, #4]
    sysclockfreq = pllvco/pllr;
 80052d8:	697a      	ldr	r2, [r7, #20]
 80052da:	687b      	ldr	r3, [r7, #4]
 80052dc:	fbb2 f3f3 	udiv	r3, r2, r3
 80052e0:	613b      	str	r3, [r7, #16]
 80052e2:	e001      	b.n	80052e8 <HAL_RCC_GetSysClockFreq+0xa8>
  }
  else
  {
    sysclockfreq = 0U;
 80052e4:	2300      	movs	r3, #0
 80052e6:	613b      	str	r3, [r7, #16]
  }

  return sysclockfreq;
 80052e8:	693b      	ldr	r3, [r7, #16]
}
 80052ea:	4618      	mov	r0, r3
 80052ec:	371c      	adds	r7, #28
 80052ee:	46bd      	mov	sp, r7
 80052f0:	f85d 7b04 	ldr.w	r7, [sp], #4
 80052f4:	4770      	bx	lr
 80052f6:	bf00      	nop
 80052f8:	40021000 	.word	0x40021000
 80052fc:	00f42400 	.word	0x00f42400
 8005300:	007a1200 	.word	0x007a1200

08005304 <HAL_RCC_GetHCLKFreq>:
  *
  * @note   The SystemCoreClock CMSIS variable is used to store System Clock Frequency.
  * @retval HCLK frequency in Hz
  */
uint32_t HAL_RCC_GetHCLKFreq(void)
{
 8005304:	b480      	push	{r7}
 8005306:	af00      	add	r7, sp, #0
  return SystemCoreClock;
 8005308:	4b03      	ldr	r3, [pc, #12]	; (8005318 <HAL_RCC_GetHCLKFreq+0x14>)
 800530a:	681b      	ldr	r3, [r3, #0]
}
 800530c:	4618      	mov	r0, r3
 800530e:	46bd      	mov	sp, r7
 8005310:	f85d 7b04 	ldr.w	r7, [sp], #4
 8005314:	4770      	bx	lr
 8005316:	bf00      	nop
 8005318:	200003cc 	.word	0x200003cc

0800531c <RCC_GetSysClockFreqFromPLLSource>:
/**
  * @brief  Compute SYSCLK frequency based on PLL SYSCLK source.
  * @retval SYSCLK frequency
  */
static uint32_t RCC_GetSysClockFreqFromPLLSource(void)
{
 800531c:	b480      	push	{r7}
 800531e:	b087      	sub	sp, #28
 8005320:	af00      	add	r7, sp, #0
  uint32_t sysclockfreq;

  /* PLL_VCO = (HSE_VALUE or HSI_VALUE/ PLLM) * PLLN
     SYSCLK = PLL_VCO / PLLR
   */
  pllsource = READ_BIT(RCC->PLLCFGR, RCC_PLLCFGR_PLLSRC);
 8005322:	4b1e      	ldr	r3, [pc, #120]	; (800539c <RCC_GetSysClockFreqFromPLLSource+0x80>)
 8005324:	68db      	ldr	r3, [r3, #12]
 8005326:	f003 0303 	and.w	r3, r3, #3
 800532a:	613b      	str	r3, [r7, #16]
  pllm = (READ_BIT(RCC->PLLCFGR, RCC_PLLCFGR_PLLM) >> RCC_PLLCFGR_PLLM_Pos) + 1U ;
 800532c:	4b1b      	ldr	r3, [pc, #108]	; (800539c <RCC_GetSysClockFreqFromPLLSource+0x80>)
 800532e:	68db      	ldr	r3, [r3, #12]
 8005330:	091b      	lsrs	r3, r3, #4
 8005332:	f003 030f 	and.w	r3, r3, #15
 8005336:	3301      	adds	r3, #1
 8005338:	60fb      	str	r3, [r7, #12]

  switch (pllsource)
 800533a:	693b      	ldr	r3, [r7, #16]
 800533c:	2b03      	cmp	r3, #3
 800533e:	d10c      	bne.n	800535a <RCC_GetSysClockFreqFromPLLSource+0x3e>
  {
  case RCC_PLLSOURCE_HSE:  /* HSE used as PLL clock source */
    pllvco = (HSE_VALUE / pllm) * (READ_BIT(RCC->PLLCFGR, RCC_PLLCFGR_PLLN) >> RCC_PLLCFGR_PLLN_Pos);
 8005340:	4a17      	ldr	r2, [pc, #92]	; (80053a0 <RCC_GetSysClockFreqFromPLLSource+0x84>)
 8005342:	68fb      	ldr	r3, [r7, #12]
 8005344:	fbb2 f3f3 	udiv	r3, r2, r3
 8005348:	4a14      	ldr	r2, [pc, #80]	; (800539c <RCC_GetSysClockFreqFromPLLSource+0x80>)
 800534a:	68d2      	ldr	r2, [r2, #12]
 800534c:	0a12      	lsrs	r2, r2, #8
 800534e:	f002 027f 	and.w	r2, r2, #127	; 0x7f
 8005352:	fb02 f303 	mul.w	r3, r2, r3
 8005356:	617b      	str	r3, [r7, #20]
    break;
 8005358:	e00c      	b.n	8005374 <RCC_GetSysClockFreqFromPLLSource+0x58>

  case RCC_PLLSOURCE_HSI:  /* HSI used as PLL clock source */
  default:
    pllvco = (HSI_VALUE / pllm) * (READ_BIT(RCC->PLLCFGR, RCC_PLLCFGR_PLLN) >> RCC_PLLCFGR_PLLN_Pos);
 800535a:	4a12      	ldr	r2, [pc, #72]	; (80053a4 <RCC_GetSysClockFreqFromPLLSource+0x88>)
 800535c:	68fb      	ldr	r3, [r7, #12]
 800535e:	fbb2 f3f3 	udiv	r3, r2, r3
 8005362:	4a0e      	ldr	r2, [pc, #56]	; (800539c <RCC_GetSysClockFreqFromPLLSource+0x80>)
 8005364:	68d2      	ldr	r2, [r2, #12]
 8005366:	0a12      	lsrs	r2, r2, #8
 8005368:	f002 027f 	and.w	r2, r2, #127	; 0x7f
 800536c:	fb02 f303 	mul.w	r3, r2, r3
 8005370:	617b      	str	r3, [r7, #20]
    break;
 8005372:	bf00      	nop
  }

  pllr = ((READ_BIT(RCC->PLLCFGR, RCC_PLLCFGR_PLLR) >> RCC_PLLCFGR_PLLR_Pos) + 1U ) * 2U;
 8005374:	4b09      	ldr	r3, [pc, #36]	; (800539c <RCC_GetSysClockFreqFromPLLSource+0x80>)
 8005376:	68db      	ldr	r3, [r3, #12]
 8005378:	0e5b      	lsrs	r3, r3, #25
 800537a:	f003 0303 	and.w	r3, r3, #3
 800537e:	3301      	adds	r3, #1
 8005380:	005b      	lsls	r3, r3, #1
 8005382:	60bb      	str	r3, [r7, #8]
  sysclockfreq = pllvco/pllr;
 8005384:	697a      	ldr	r2, [r7, #20]
 8005386:	68bb      	ldr	r3, [r7, #8]
 8005388:	fbb2 f3f3 	udiv	r3, r2, r3
 800538c:	607b      	str	r3, [r7, #4]

  return sysclockfreq;
 800538e:	687b      	ldr	r3, [r7, #4]
}
 8005390:	4618      	mov	r0, r3
 8005392:	371c      	adds	r7, #28
 8005394:	46bd      	mov	sp, r7
 8005396:	f85d 7b04 	ldr.w	r7, [sp], #4
 800539a:	4770      	bx	lr
 800539c:	40021000 	.word	0x40021000
 80053a0:	007a1200 	.word	0x007a1200
 80053a4:	00f42400 	.word	0x00f42400

080053a8 <HAL_RCCEx_PeriphCLKConfig>:
  *         the RTC clock source: in this case the access to Backup domain is enabled.
  *
  * @retval HAL status
  */
HAL_StatusTypeDef HAL_RCCEx_PeriphCLKConfig(RCC_PeriphCLKInitTypeDef  *PeriphClkInit)
{
 80053a8:	b580      	push	{r7, lr}
 80053aa:	b086      	sub	sp, #24
 80053ac:	af00      	add	r7, sp, #0
 80053ae:	6078      	str	r0, [r7, #4]
  uint32_t tmpregister;
  uint32_t tickstart;
  HAL_StatusTypeDef ret = HAL_OK;      /* Intermediate status */
 80053b0:	2300      	movs	r3, #0
 80053b2:	74fb      	strb	r3, [r7, #19]
  HAL_StatusTypeDef status = HAL_OK;   /* Final status */
 80053b4:	2300      	movs	r3, #0
 80053b6:	74bb      	strb	r3, [r7, #18]

  /* Check the parameters */
  assert_param(IS_RCC_PERIPHCLOCK(PeriphClkInit->PeriphClockSelection));

  /*-------------------------- RTC clock source configuration ----------------------*/
  if((PeriphClkInit->PeriphClockSelection & RCC_PERIPHCLK_RTC) == RCC_PERIPHCLK_RTC)
 80053b8:	687b      	ldr	r3, [r7, #4]
 80053ba:	681b      	ldr	r3, [r3, #0]
 80053bc:	f403 2300 	and.w	r3, r3, #524288	; 0x80000
 80053c0:	2b00      	cmp	r3, #0
 80053c2:	f000 8098 	beq.w	80054f6 <HAL_RCCEx_PeriphCLKConfig+0x14e>
  {
    FlagStatus       pwrclkchanged = RESET;
 80053c6:	2300      	movs	r3, #0
 80053c8:	747b      	strb	r3, [r7, #17]
    
    /* Check for RTC Parameters used to output RTCCLK */
    assert_param(IS_RCC_RTCCLKSOURCE(PeriphClkInit->RTCClockSelection));

    /* Enable Power Clock */
    if(__HAL_RCC_PWR_IS_CLK_DISABLED())
 80053ca:	4b43      	ldr	r3, [pc, #268]	; (80054d8 <HAL_RCCEx_PeriphCLKConfig+0x130>)
 80053cc:	6d9b      	ldr	r3, [r3, #88]	; 0x58
 80053ce:	f003 5380 	and.w	r3, r3, #268435456	; 0x10000000
 80053d2:	2b00      	cmp	r3, #0
 80053d4:	d10d      	bne.n	80053f2 <HAL_RCCEx_PeriphCLKConfig+0x4a>
    {
      __HAL_RCC_PWR_CLK_ENABLE();
 80053d6:	4b40      	ldr	r3, [pc, #256]	; (80054d8 <HAL_RCCEx_PeriphCLKConfig+0x130>)
 80053d8:	6d9b      	ldr	r3, [r3, #88]	; 0x58
 80053da:	4a3f      	ldr	r2, [pc, #252]	; (80054d8 <HAL_RCCEx_PeriphCLKConfig+0x130>)
 80053dc:	f043 5380 	orr.w	r3, r3, #268435456	; 0x10000000
 80053e0:	6593      	str	r3, [r2, #88]	; 0x58
 80053e2:	4b3d      	ldr	r3, [pc, #244]	; (80054d8 <HAL_RCCEx_PeriphCLKConfig+0x130>)
 80053e4:	6d9b      	ldr	r3, [r3, #88]	; 0x58
 80053e6:	f003 5380 	and.w	r3, r3, #268435456	; 0x10000000
 80053ea:	60bb      	str	r3, [r7, #8]
 80053ec:	68bb      	ldr	r3, [r7, #8]
      pwrclkchanged = SET;
 80053ee:	2301      	movs	r3, #1
 80053f0:	747b      	strb	r3, [r7, #17]
    }
      
    /* Enable write access to Backup domain */
    SET_BIT(PWR->CR1, PWR_CR1_DBP);
 80053f2:	4b3a      	ldr	r3, [pc, #232]	; (80054dc <HAL_RCCEx_PeriphCLKConfig+0x134>)
 80053f4:	681b      	ldr	r3, [r3, #0]
 80053f6:	4a39      	ldr	r2, [pc, #228]	; (80054dc <HAL_RCCEx_PeriphCLKConfig+0x134>)
 80053f8:	f443 7380 	orr.w	r3, r3, #256	; 0x100
 80053fc:	6013      	str	r3, [r2, #0]

    /* Wait for Backup domain Write protection disable */
    tickstart = HAL_GetTick();
 80053fe:	f7fc fdd3 	bl	8001fa8 <HAL_GetTick>
 8005402:	60f8      	str	r0, [r7, #12]

    while((PWR->CR1 & PWR_CR1_DBP) == 0U)
 8005404:	e009      	b.n	800541a <HAL_RCCEx_PeriphCLKConfig+0x72>
    {
      if((HAL_GetTick() - tickstart) > RCC_DBP_TIMEOUT_VALUE)
 8005406:	f7fc fdcf 	bl	8001fa8 <HAL_GetTick>
 800540a:	4602      	mov	r2, r0
 800540c:	68fb      	ldr	r3, [r7, #12]
 800540e:	1ad3      	subs	r3, r2, r3
 8005410:	2b02      	cmp	r3, #2
 8005412:	d902      	bls.n	800541a <HAL_RCCEx_PeriphCLKConfig+0x72>
      {
        ret = HAL_TIMEOUT;
 8005414:	2303      	movs	r3, #3
 8005416:	74fb      	strb	r3, [r7, #19]
        break;
 8005418:	e005      	b.n	8005426 <HAL_RCCEx_PeriphCLKConfig+0x7e>
    while((PWR->CR1 & PWR_CR1_DBP) == 0U)
 800541a:	4b30      	ldr	r3, [pc, #192]	; (80054dc <HAL_RCCEx_PeriphCLKConfig+0x134>)
 800541c:	681b      	ldr	r3, [r3, #0]
 800541e:	f403 7380 	and.w	r3, r3, #256	; 0x100
 8005422:	2b00      	cmp	r3, #0
 8005424:	d0ef      	beq.n	8005406 <HAL_RCCEx_PeriphCLKConfig+0x5e>
      }
    }

    if(ret == HAL_OK)
 8005426:	7cfb      	ldrb	r3, [r7, #19]
 8005428:	2b00      	cmp	r3, #0
 800542a:	d159      	bne.n	80054e0 <HAL_RCCEx_PeriphCLKConfig+0x138>
    { 
      /* Reset the Backup domain only if the RTC Clock source selection is modified from default */
      tmpregister = READ_BIT(RCC->BDCR, RCC_BDCR_RTCSEL);
 800542c:	4b2a      	ldr	r3, [pc, #168]	; (80054d8 <HAL_RCCEx_PeriphCLKConfig+0x130>)
 800542e:	f8d3 3090 	ldr.w	r3, [r3, #144]	; 0x90
 8005432:	f403 7340 	and.w	r3, r3, #768	; 0x300
 8005436:	617b      	str	r3, [r7, #20]
      
      if((tmpregister != RCC_RTCCLKSOURCE_NONE) && (tmpregister != PeriphClkInit->RTCClockSelection))
 8005438:	697b      	ldr	r3, [r7, #20]
 800543a:	2b00      	cmp	r3, #0
 800543c:	d01e      	beq.n	800547c <HAL_RCCEx_PeriphCLKConfig+0xd4>
 800543e:	687b      	ldr	r3, [r7, #4]
 8005440:	6d1b      	ldr	r3, [r3, #80]	; 0x50
 8005442:	697a      	ldr	r2, [r7, #20]
 8005444:	429a      	cmp	r2, r3
 8005446:	d019      	beq.n	800547c <HAL_RCCEx_PeriphCLKConfig+0xd4>
      {
        /* Store the content of BDCR register before the reset of Backup Domain */
        tmpregister = READ_BIT(RCC->BDCR, ~(RCC_BDCR_RTCSEL));
 8005448:	4b23      	ldr	r3, [pc, #140]	; (80054d8 <HAL_RCCEx_PeriphCLKConfig+0x130>)
 800544a:	f8d3 3090 	ldr.w	r3, [r3, #144]	; 0x90
 800544e:	f423 7340 	bic.w	r3, r3, #768	; 0x300
 8005452:	617b      	str	r3, [r7, #20]
        /* RTC Clock selection can be changed only if the Backup Domain is reset */
        __HAL_RCC_BACKUPRESET_FORCE();
 8005454:	4b20      	ldr	r3, [pc, #128]	; (80054d8 <HAL_RCCEx_PeriphCLKConfig+0x130>)
 8005456:	f8d3 3090 	ldr.w	r3, [r3, #144]	; 0x90
 800545a:	4a1f      	ldr	r2, [pc, #124]	; (80054d8 <HAL_RCCEx_PeriphCLKConfig+0x130>)
 800545c:	f443 3380 	orr.w	r3, r3, #65536	; 0x10000
 8005460:	f8c2 3090 	str.w	r3, [r2, #144]	; 0x90
        __HAL_RCC_BACKUPRESET_RELEASE();
 8005464:	4b1c      	ldr	r3, [pc, #112]	; (80054d8 <HAL_RCCEx_PeriphCLKConfig+0x130>)
 8005466:	f8d3 3090 	ldr.w	r3, [r3, #144]	; 0x90
 800546a:	4a1b      	ldr	r2, [pc, #108]	; (80054d8 <HAL_RCCEx_PeriphCLKConfig+0x130>)
 800546c:	f423 3380 	bic.w	r3, r3, #65536	; 0x10000
 8005470:	f8c2 3090 	str.w	r3, [r2, #144]	; 0x90
        /* Restore the Content of BDCR register */
        RCC->BDCR = tmpregister;
 8005474:	4a18      	ldr	r2, [pc, #96]	; (80054d8 <HAL_RCCEx_PeriphCLKConfig+0x130>)
 8005476:	697b      	ldr	r3, [r7, #20]
 8005478:	f8c2 3090 	str.w	r3, [r2, #144]	; 0x90
      }

      /* Wait for LSE reactivation if LSE was enable prior to Backup Domain reset */
      if (HAL_IS_BIT_SET(tmpregister, RCC_BDCR_LSEON))
 800547c:	697b      	ldr	r3, [r7, #20]
 800547e:	f003 0301 	and.w	r3, r3, #1
 8005482:	2b00      	cmp	r3, #0
 8005484:	d016      	beq.n	80054b4 <HAL_RCCEx_PeriphCLKConfig+0x10c>
      {
        /* Get Start Tick*/
        tickstart = HAL_GetTick();
 8005486:	f7fc fd8f 	bl	8001fa8 <HAL_GetTick>
 800548a:	60f8      	str	r0, [r7, #12]

        /* Wait till LSE is ready */
        while(READ_BIT(RCC->BDCR, RCC_BDCR_LSERDY) == 0U)
 800548c:	e00b      	b.n	80054a6 <HAL_RCCEx_PeriphCLKConfig+0xfe>
        {
          if((HAL_GetTick() - tickstart) > RCC_LSE_TIMEOUT_VALUE)
 800548e:	f7fc fd8b 	bl	8001fa8 <HAL_GetTick>
 8005492:	4602      	mov	r2, r0
 8005494:	68fb      	ldr	r3, [r7, #12]
 8005496:	1ad3      	subs	r3, r2, r3
 8005498:	f241 3288 	movw	r2, #5000	; 0x1388
 800549c:	4293      	cmp	r3, r2
 800549e:	d902      	bls.n	80054a6 <HAL_RCCEx_PeriphCLKConfig+0xfe>
          {
            ret = HAL_TIMEOUT;
 80054a0:	2303      	movs	r3, #3
 80054a2:	74fb      	strb	r3, [r7, #19]
            break;
 80054a4:	e006      	b.n	80054b4 <HAL_RCCEx_PeriphCLKConfig+0x10c>
        while(READ_BIT(RCC->BDCR, RCC_BDCR_LSERDY) == 0U)
 80054a6:	4b0c      	ldr	r3, [pc, #48]	; (80054d8 <HAL_RCCEx_PeriphCLKConfig+0x130>)
 80054a8:	f8d3 3090 	ldr.w	r3, [r3, #144]	; 0x90
 80054ac:	f003 0302 	and.w	r3, r3, #2
 80054b0:	2b00      	cmp	r3, #0
 80054b2:	d0ec      	beq.n	800548e <HAL_RCCEx_PeriphCLKConfig+0xe6>
          }
        }
      }
      
      if(ret == HAL_OK)
 80054b4:	7cfb      	ldrb	r3, [r7, #19]
 80054b6:	2b00      	cmp	r3, #0
 80054b8:	d10b      	bne.n	80054d2 <HAL_RCCEx_PeriphCLKConfig+0x12a>
      {
        /* Apply new RTC clock source selection */
        __HAL_RCC_RTC_CONFIG(PeriphClkInit->RTCClockSelection);
 80054ba:	4b07      	ldr	r3, [pc, #28]	; (80054d8 <HAL_RCCEx_PeriphCLKConfig+0x130>)
 80054bc:	f8d3 3090 	ldr.w	r3, [r3, #144]	; 0x90
 80054c0:	f423 7240 	bic.w	r2, r3, #768	; 0x300
 80054c4:	687b      	ldr	r3, [r7, #4]
 80054c6:	6d1b      	ldr	r3, [r3, #80]	; 0x50
 80054c8:	4903      	ldr	r1, [pc, #12]	; (80054d8 <HAL_RCCEx_PeriphCLKConfig+0x130>)
 80054ca:	4313      	orrs	r3, r2
 80054cc:	f8c1 3090 	str.w	r3, [r1, #144]	; 0x90
 80054d0:	e008      	b.n	80054e4 <HAL_RCCEx_PeriphCLKConfig+0x13c>
      }
      else
      {
        /* set overall return value */
        status = ret;
 80054d2:	7cfb      	ldrb	r3, [r7, #19]
 80054d4:	74bb      	strb	r3, [r7, #18]
 80054d6:	e005      	b.n	80054e4 <HAL_RCCEx_PeriphCLKConfig+0x13c>
 80054d8:	40021000 	.word	0x40021000
 80054dc:	40007000 	.word	0x40007000
      }
    }
    else
    {
      /* set overall return value */
      status = ret;
 80054e0:	7cfb      	ldrb	r3, [r7, #19]
 80054e2:	74bb      	strb	r3, [r7, #18]
    }

    /* Restore clock configuration if changed */
    if(pwrclkchanged == SET)
 80054e4:	7c7b      	ldrb	r3, [r7, #17]
 80054e6:	2b01      	cmp	r3, #1
 80054e8:	d105      	bne.n	80054f6 <HAL_RCCEx_PeriphCLKConfig+0x14e>
    {
      __HAL_RCC_PWR_CLK_DISABLE();
 80054ea:	4baf      	ldr	r3, [pc, #700]	; (80057a8 <HAL_RCCEx_PeriphCLKConfig+0x400>)
 80054ec:	6d9b      	ldr	r3, [r3, #88]	; 0x58
 80054ee:	4aae      	ldr	r2, [pc, #696]	; (80057a8 <HAL_RCCEx_PeriphCLKConfig+0x400>)
 80054f0:	f023 5380 	bic.w	r3, r3, #268435456	; 0x10000000
 80054f4:	6593      	str	r3, [r2, #88]	; 0x58
    }
  }

  /*-------------------------- USART1 clock source configuration -------------------*/
  if(((PeriphClkInit->PeriphClockSelection) & RCC_PERIPHCLK_USART1) == RCC_PERIPHCLK_USART1)
 80054f6:	687b      	ldr	r3, [r7, #4]
 80054f8:	681b      	ldr	r3, [r3, #0]
 80054fa:	f003 0301 	and.w	r3, r3, #1
 80054fe:	2b00      	cmp	r3, #0
 8005500:	d00a      	beq.n	8005518 <HAL_RCCEx_PeriphCLKConfig+0x170>
  {
    /* Check the parameters */
    assert_param(IS_RCC_USART1CLKSOURCE(PeriphClkInit->Usart1ClockSelection));

    /* Configure the USART1 clock source */
    __HAL_RCC_USART1_CONFIG(PeriphClkInit->Usart1ClockSelection);
 8005502:	4ba9      	ldr	r3, [pc, #676]	; (80057a8 <HAL_RCCEx_PeriphCLKConfig+0x400>)
 8005504:	f8d3 3088 	ldr.w	r3, [r3, #136]	; 0x88
 8005508:	f023 0203 	bic.w	r2, r3, #3
 800550c:	687b      	ldr	r3, [r7, #4]
 800550e:	685b      	ldr	r3, [r3, #4]
 8005510:	49a5      	ldr	r1, [pc, #660]	; (80057a8 <HAL_RCCEx_PeriphCLKConfig+0x400>)
 8005512:	4313      	orrs	r3, r2
 8005514:	f8c1 3088 	str.w	r3, [r1, #136]	; 0x88
  }

  /*-------------------------- USART2 clock source configuration -------------------*/
  if(((PeriphClkInit->PeriphClockSelection) & RCC_PERIPHCLK_USART2) == RCC_PERIPHCLK_USART2)
 8005518:	687b      	ldr	r3, [r7, #4]
 800551a:	681b      	ldr	r3, [r3, #0]
 800551c:	f003 0302 	and.w	r3, r3, #2
 8005520:	2b00      	cmp	r3, #0
 8005522:	d00a      	beq.n	800553a <HAL_RCCEx_PeriphCLKConfig+0x192>
  {
    /* Check the parameters */
    assert_param(IS_RCC_USART2CLKSOURCE(PeriphClkInit->Usart2ClockSelection));

    /* Configure the USART2 clock source */
    __HAL_RCC_USART2_CONFIG(PeriphClkInit->Usart2ClockSelection);
 8005524:	4ba0      	ldr	r3, [pc, #640]	; (80057a8 <HAL_RCCEx_PeriphCLKConfig+0x400>)
 8005526:	f8d3 3088 	ldr.w	r3, [r3, #136]	; 0x88
 800552a:	f023 020c 	bic.w	r2, r3, #12
 800552e:	687b      	ldr	r3, [r7, #4]
 8005530:	689b      	ldr	r3, [r3, #8]
 8005532:	499d      	ldr	r1, [pc, #628]	; (80057a8 <HAL_RCCEx_PeriphCLKConfig+0x400>)
 8005534:	4313      	orrs	r3, r2
 8005536:	f8c1 3088 	str.w	r3, [r1, #136]	; 0x88
  }

  /*-------------------------- USART3 clock source configuration -------------------*/
  if(((PeriphClkInit->PeriphClockSelection) & RCC_PERIPHCLK_USART3) == RCC_PERIPHCLK_USART3)
 800553a:	687b      	ldr	r3, [r7, #4]
 800553c:	681b      	ldr	r3, [r3, #0]
 800553e:	f003 0304 	and.w	r3, r3, #4
 8005542:	2b00      	cmp	r3, #0
 8005544:	d00a      	beq.n	800555c <HAL_RCCEx_PeriphCLKConfig+0x1b4>
  {
    /* Check the parameters */
    assert_param(IS_RCC_USART3CLKSOURCE(PeriphClkInit->Usart3ClockSelection));

    /* Configure the USART3 clock source */
    __HAL_RCC_USART3_CONFIG(PeriphClkInit->Usart3ClockSelection);
 8005546:	4b98      	ldr	r3, [pc, #608]	; (80057a8 <HAL_RCCEx_PeriphCLKConfig+0x400>)
 8005548:	f8d3 3088 	ldr.w	r3, [r3, #136]	; 0x88
 800554c:	f023 0230 	bic.w	r2, r3, #48	; 0x30
 8005550:	687b      	ldr	r3, [r7, #4]
 8005552:	68db      	ldr	r3, [r3, #12]
 8005554:	4994      	ldr	r1, [pc, #592]	; (80057a8 <HAL_RCCEx_PeriphCLKConfig+0x400>)
 8005556:	4313      	orrs	r3, r2
 8005558:	f8c1 3088 	str.w	r3, [r1, #136]	; 0x88
  }

#if defined(UART4)
  /*-------------------------- UART4 clock source configuration --------------------*/
  if(((PeriphClkInit->PeriphClockSelection) & RCC_PERIPHCLK_UART4) == RCC_PERIPHCLK_UART4)
 800555c:	687b      	ldr	r3, [r7, #4]
 800555e:	681b      	ldr	r3, [r3, #0]
 8005560:	f003 0308 	and.w	r3, r3, #8
 8005564:	2b00      	cmp	r3, #0
 8005566:	d00a      	beq.n	800557e <HAL_RCCEx_PeriphCLKConfig+0x1d6>
  {
    /* Check the parameters */
    assert_param(IS_RCC_UART4CLKSOURCE(PeriphClkInit->Uart4ClockSelection));

    /* Configure the UART4 clock source */
    __HAL_RCC_UART4_CONFIG(PeriphClkInit->Uart4ClockSelection);
 8005568:	4b8f      	ldr	r3, [pc, #572]	; (80057a8 <HAL_RCCEx_PeriphCLKConfig+0x400>)
 800556a:	f8d3 3088 	ldr.w	r3, [r3, #136]	; 0x88
 800556e:	f023 02c0 	bic.w	r2, r3, #192	; 0xc0
 8005572:	687b      	ldr	r3, [r7, #4]
 8005574:	691b      	ldr	r3, [r3, #16]
 8005576:	498c      	ldr	r1, [pc, #560]	; (80057a8 <HAL_RCCEx_PeriphCLKConfig+0x400>)
 8005578:	4313      	orrs	r3, r2
 800557a:	f8c1 3088 	str.w	r3, [r1, #136]	; 0x88
#endif /* UART4 */

#if defined(UART5)

  /*-------------------------- UART5 clock source configuration --------------------*/
  if(((PeriphClkInit->PeriphClockSelection) & RCC_PERIPHCLK_UART5) == RCC_PERIPHCLK_UART5)
 800557e:	687b      	ldr	r3, [r7, #4]
 8005580:	681b      	ldr	r3, [r3, #0]
 8005582:	f003 0310 	and.w	r3, r3, #16
 8005586:	2b00      	cmp	r3, #0
 8005588:	d00a      	beq.n	80055a0 <HAL_RCCEx_PeriphCLKConfig+0x1f8>
  {
    /* Check the parameters */
    assert_param(IS_RCC_UART5CLKSOURCE(PeriphClkInit->Uart5ClockSelection));

    /* Configure the UART5 clock source */
    __HAL_RCC_UART5_CONFIG(PeriphClkInit->Uart5ClockSelection);
 800558a:	4b87      	ldr	r3, [pc, #540]	; (80057a8 <HAL_RCCEx_PeriphCLKConfig+0x400>)
 800558c:	f8d3 3088 	ldr.w	r3, [r3, #136]	; 0x88
 8005590:	f423 7240 	bic.w	r2, r3, #768	; 0x300
 8005594:	687b      	ldr	r3, [r7, #4]
 8005596:	695b      	ldr	r3, [r3, #20]
 8005598:	4983      	ldr	r1, [pc, #524]	; (80057a8 <HAL_RCCEx_PeriphCLKConfig+0x400>)
 800559a:	4313      	orrs	r3, r2
 800559c:	f8c1 3088 	str.w	r3, [r1, #136]	; 0x88
  }

#endif /* UART5 */

  /*-------------------------- LPUART1 clock source configuration ------------------*/
  if(((PeriphClkInit->PeriphClockSelection) & RCC_PERIPHCLK_LPUART1) == RCC_PERIPHCLK_LPUART1)
 80055a0:	687b      	ldr	r3, [r7, #4]
 80055a2:	681b      	ldr	r3, [r3, #0]
 80055a4:	f003 0320 	and.w	r3, r3, #32
 80055a8:	2b00      	cmp	r3, #0
 80055aa:	d00a      	beq.n	80055c2 <HAL_RCCEx_PeriphCLKConfig+0x21a>
  {
    /* Check the parameters */
    assert_param(IS_RCC_LPUART1CLKSOURCE(PeriphClkInit->Lpuart1ClockSelection));

    /* Configure the LPUAR1 clock source */
    __HAL_RCC_LPUART1_CONFIG(PeriphClkInit->Lpuart1ClockSelection);
 80055ac:	4b7e      	ldr	r3, [pc, #504]	; (80057a8 <HAL_RCCEx_PeriphCLKConfig+0x400>)
 80055ae:	f8d3 3088 	ldr.w	r3, [r3, #136]	; 0x88
 80055b2:	f423 6240 	bic.w	r2, r3, #3072	; 0xc00
 80055b6:	687b      	ldr	r3, [r7, #4]
 80055b8:	699b      	ldr	r3, [r3, #24]
 80055ba:	497b      	ldr	r1, [pc, #492]	; (80057a8 <HAL_RCCEx_PeriphCLKConfig+0x400>)
 80055bc:	4313      	orrs	r3, r2
 80055be:	f8c1 3088 	str.w	r3, [r1, #136]	; 0x88
  }

  /*-------------------------- I2C1 clock source configuration ---------------------*/
  if(((PeriphClkInit->PeriphClockSelection) & RCC_PERIPHCLK_I2C1) == RCC_PERIPHCLK_I2C1)
 80055c2:	687b      	ldr	r3, [r7, #4]
 80055c4:	681b      	ldr	r3, [r3, #0]
 80055c6:	f003 0340 	and.w	r3, r3, #64	; 0x40
 80055ca:	2b00      	cmp	r3, #0
 80055cc:	d00a      	beq.n	80055e4 <HAL_RCCEx_PeriphCLKConfig+0x23c>
  {
    /* Check the parameters */
    assert_param(IS_RCC_I2C1CLKSOURCE(PeriphClkInit->I2c1ClockSelection));

    /* Configure the I2C1 clock source */
    __HAL_RCC_I2C1_CONFIG(PeriphClkInit->I2c1ClockSelection);
 80055ce:	4b76      	ldr	r3, [pc, #472]	; (80057a8 <HAL_RCCEx_PeriphCLKConfig+0x400>)
 80055d0:	f8d3 3088 	ldr.w	r3, [r3, #136]	; 0x88
 80055d4:	f423 5240 	bic.w	r2, r3, #12288	; 0x3000
 80055d8:	687b      	ldr	r3, [r7, #4]
 80055da:	69db      	ldr	r3, [r3, #28]
 80055dc:	4972      	ldr	r1, [pc, #456]	; (80057a8 <HAL_RCCEx_PeriphCLKConfig+0x400>)
 80055de:	4313      	orrs	r3, r2
 80055e0:	f8c1 3088 	str.w	r3, [r1, #136]	; 0x88
  }

  /*-------------------------- I2C2 clock source configuration ---------------------*/
  if(((PeriphClkInit->PeriphClockSelection) & RCC_PERIPHCLK_I2C2) == RCC_PERIPHCLK_I2C2)
 80055e4:	687b      	ldr	r3, [r7, #4]
 80055e6:	681b      	ldr	r3, [r3, #0]
 80055e8:	f003 0380 	and.w	r3, r3, #128	; 0x80
 80055ec:	2b00      	cmp	r3, #0
 80055ee:	d00a      	beq.n	8005606 <HAL_RCCEx_PeriphCLKConfig+0x25e>
  {
    /* Check the parameters */
    assert_param(IS_RCC_I2C2CLKSOURCE(PeriphClkInit->I2c2ClockSelection));

    /* Configure the I2C2 clock source */
    __HAL_RCC_I2C2_CONFIG(PeriphClkInit->I2c2ClockSelection);
 80055f0:	4b6d      	ldr	r3, [pc, #436]	; (80057a8 <HAL_RCCEx_PeriphCLKConfig+0x400>)
 80055f2:	f8d3 3088 	ldr.w	r3, [r3, #136]	; 0x88
 80055f6:	f423 4240 	bic.w	r2, r3, #49152	; 0xc000
 80055fa:	687b      	ldr	r3, [r7, #4]
 80055fc:	6a1b      	ldr	r3, [r3, #32]
 80055fe:	496a      	ldr	r1, [pc, #424]	; (80057a8 <HAL_RCCEx_PeriphCLKConfig+0x400>)
 8005600:	4313      	orrs	r3, r2
 8005602:	f8c1 3088 	str.w	r3, [r1, #136]	; 0x88
  }

  /*-------------------------- I2C3 clock source configuration ---------------------*/
  if(((PeriphClkInit->PeriphClockSelection) & RCC_PERIPHCLK_I2C3) == RCC_PERIPHCLK_I2C3)
 8005606:	687b      	ldr	r3, [r7, #4]
 8005608:	681b      	ldr	r3, [r3, #0]
 800560a:	f403 7380 	and.w	r3, r3, #256	; 0x100
 800560e:	2b00      	cmp	r3, #0
 8005610:	d00a      	beq.n	8005628 <HAL_RCCEx_PeriphCLKConfig+0x280>
  {
    /* Check the parameters */
    assert_param(IS_RCC_I2C3CLKSOURCE(PeriphClkInit->I2c3ClockSelection));

    /* Configure the I2C3 clock source */
    __HAL_RCC_I2C3_CONFIG(PeriphClkInit->I2c3ClockSelection);
 8005612:	4b65      	ldr	r3, [pc, #404]	; (80057a8 <HAL_RCCEx_PeriphCLKConfig+0x400>)
 8005614:	f8d3 3088 	ldr.w	r3, [r3, #136]	; 0x88
 8005618:	f423 3240 	bic.w	r2, r3, #196608	; 0x30000
 800561c:	687b      	ldr	r3, [r7, #4]
 800561e:	6a5b      	ldr	r3, [r3, #36]	; 0x24
 8005620:	4961      	ldr	r1, [pc, #388]	; (80057a8 <HAL_RCCEx_PeriphCLKConfig+0x400>)
 8005622:	4313      	orrs	r3, r2
 8005624:	f8c1 3088 	str.w	r3, [r1, #136]	; 0x88
  }

#if defined(I2C4)  

  /*-------------------------- I2C4 clock source configuration ---------------------*/
  if(((PeriphClkInit->PeriphClockSelection) & RCC_PERIPHCLK_I2C4) == RCC_PERIPHCLK_I2C4)
 8005628:	687b      	ldr	r3, [r7, #4]
 800562a:	681b      	ldr	r3, [r3, #0]
 800562c:	f403 3300 	and.w	r3, r3, #131072	; 0x20000
 8005630:	2b00      	cmp	r3, #0
 8005632:	d00a      	beq.n	800564a <HAL_RCCEx_PeriphCLKConfig+0x2a2>
  {
    /* Check the parameters */
    assert_param(IS_RCC_I2C4CLKSOURCE(PeriphClkInit->I2c4ClockSelection));

    /* Configure the I2C4 clock source */
    __HAL_RCC_I2C4_CONFIG(PeriphClkInit->I2c4ClockSelection);
 8005634:	4b5c      	ldr	r3, [pc, #368]	; (80057a8 <HAL_RCCEx_PeriphCLKConfig+0x400>)
 8005636:	f8d3 309c 	ldr.w	r3, [r3, #156]	; 0x9c
 800563a:	f023 0203 	bic.w	r2, r3, #3
 800563e:	687b      	ldr	r3, [r7, #4]
 8005640:	6a9b      	ldr	r3, [r3, #40]	; 0x28
 8005642:	4959      	ldr	r1, [pc, #356]	; (80057a8 <HAL_RCCEx_PeriphCLKConfig+0x400>)
 8005644:	4313      	orrs	r3, r2
 8005646:	f8c1 309c 	str.w	r3, [r1, #156]	; 0x9c
  }

#endif /* I2C4 */

  /*-------------------------- LPTIM1 clock source configuration ---------------------*/
  if(((PeriphClkInit->PeriphClockSelection) & RCC_PERIPHCLK_LPTIM1) == RCC_PERIPHCLK_LPTIM1)
 800564a:	687b      	ldr	r3, [r7, #4]
 800564c:	681b      	ldr	r3, [r3, #0]
 800564e:	f403 7300 	and.w	r3, r3, #512	; 0x200
 8005652:	2b00      	cmp	r3, #0
 8005654:	d00a      	beq.n	800566c <HAL_RCCEx_PeriphCLKConfig+0x2c4>
  {
    /* Check the parameters */
    assert_param(IS_RCC_LPTIM1CLKSOURCE(PeriphClkInit->Lptim1ClockSelection));

    /* Configure the LPTIM1 clock source */
    __HAL_RCC_LPTIM1_CONFIG(PeriphClkInit->Lptim1ClockSelection);
 8005656:	4b54      	ldr	r3, [pc, #336]	; (80057a8 <HAL_RCCEx_PeriphCLKConfig+0x400>)
 8005658:	f8d3 3088 	ldr.w	r3, [r3, #136]	; 0x88
 800565c:	f423 2240 	bic.w	r2, r3, #786432	; 0xc0000
 8005660:	687b      	ldr	r3, [r7, #4]
 8005662:	6adb      	ldr	r3, [r3, #44]	; 0x2c
 8005664:	4950      	ldr	r1, [pc, #320]	; (80057a8 <HAL_RCCEx_PeriphCLKConfig+0x400>)
 8005666:	4313      	orrs	r3, r2
 8005668:	f8c1 3088 	str.w	r3, [r1, #136]	; 0x88
  }

  /*-------------------------- SAI1 clock source configuration ---------------------*/
  if(((PeriphClkInit->PeriphClockSelection) & RCC_PERIPHCLK_SAI1) == RCC_PERIPHCLK_SAI1)
 800566c:	687b      	ldr	r3, [r7, #4]
 800566e:	681b      	ldr	r3, [r3, #0]
 8005670:	f403 6380 	and.w	r3, r3, #1024	; 0x400
 8005674:	2b00      	cmp	r3, #0
 8005676:	d015      	beq.n	80056a4 <HAL_RCCEx_PeriphCLKConfig+0x2fc>
  {
    /* Check the parameters */
    assert_param(IS_RCC_SAI1CLKSOURCE(PeriphClkInit->Sai1ClockSelection));

    /* Configure the SAI1 interface clock source */
    __HAL_RCC_SAI1_CONFIG(PeriphClkInit->Sai1ClockSelection);
 8005678:	4b4b      	ldr	r3, [pc, #300]	; (80057a8 <HAL_RCCEx_PeriphCLKConfig+0x400>)
 800567a:	f8d3 3088 	ldr.w	r3, [r3, #136]	; 0x88
 800567e:	f423 1240 	bic.w	r2, r3, #3145728	; 0x300000
 8005682:	687b      	ldr	r3, [r7, #4]
 8005684:	6b1b      	ldr	r3, [r3, #48]	; 0x30
 8005686:	4948      	ldr	r1, [pc, #288]	; (80057a8 <HAL_RCCEx_PeriphCLKConfig+0x400>)
 8005688:	4313      	orrs	r3, r2
 800568a:	f8c1 3088 	str.w	r3, [r1, #136]	; 0x88
    
    if(PeriphClkInit->Sai1ClockSelection == RCC_SAI1CLKSOURCE_PLL)
 800568e:	687b      	ldr	r3, [r7, #4]
 8005690:	6b1b      	ldr	r3, [r3, #48]	; 0x30
 8005692:	f5b3 1f80 	cmp.w	r3, #1048576	; 0x100000
 8005696:	d105      	bne.n	80056a4 <HAL_RCCEx_PeriphCLKConfig+0x2fc>
    {
      /* Enable PLL48M1CLK output */
      __HAL_RCC_PLLCLKOUT_ENABLE(RCC_PLL_48M1CLK);
 8005698:	4b43      	ldr	r3, [pc, #268]	; (80057a8 <HAL_RCCEx_PeriphCLKConfig+0x400>)
 800569a:	68db      	ldr	r3, [r3, #12]
 800569c:	4a42      	ldr	r2, [pc, #264]	; (80057a8 <HAL_RCCEx_PeriphCLKConfig+0x400>)
 800569e:	f443 1380 	orr.w	r3, r3, #1048576	; 0x100000
 80056a2:	60d3      	str	r3, [r2, #12]
    }
  }

  /*-------------------------- I2S clock source configuration ---------------------*/
  if(((PeriphClkInit->PeriphClockSelection) & RCC_PERIPHCLK_I2S) == RCC_PERIPHCLK_I2S)
 80056a4:	687b      	ldr	r3, [r7, #4]
 80056a6:	681b      	ldr	r3, [r3, #0]
 80056a8:	f403 6300 	and.w	r3, r3, #2048	; 0x800
 80056ac:	2b00      	cmp	r3, #0
 80056ae:	d015      	beq.n	80056dc <HAL_RCCEx_PeriphCLKConfig+0x334>
  {
    /* Check the parameters */
    assert_param(IS_RCC_I2SCLKSOURCE(PeriphClkInit->I2sClockSelection));

    /* Configure the I2S interface clock source */
    __HAL_RCC_I2S_CONFIG(PeriphClkInit->I2sClockSelection);
 80056b0:	4b3d      	ldr	r3, [pc, #244]	; (80057a8 <HAL_RCCEx_PeriphCLKConfig+0x400>)
 80056b2:	f8d3 3088 	ldr.w	r3, [r3, #136]	; 0x88
 80056b6:	f423 0240 	bic.w	r2, r3, #12582912	; 0xc00000
 80056ba:	687b      	ldr	r3, [r7, #4]
 80056bc:	6b5b      	ldr	r3, [r3, #52]	; 0x34
 80056be:	493a      	ldr	r1, [pc, #232]	; (80057a8 <HAL_RCCEx_PeriphCLKConfig+0x400>)
 80056c0:	4313      	orrs	r3, r2
 80056c2:	f8c1 3088 	str.w	r3, [r1, #136]	; 0x88
    
    if(PeriphClkInit->I2sClockSelection == RCC_I2SCLKSOURCE_PLL)
 80056c6:	687b      	ldr	r3, [r7, #4]
 80056c8:	6b5b      	ldr	r3, [r3, #52]	; 0x34
 80056ca:	f5b3 0f80 	cmp.w	r3, #4194304	; 0x400000
 80056ce:	d105      	bne.n	80056dc <HAL_RCCEx_PeriphCLKConfig+0x334>
    {
      /* Enable PLL48M1CLK output */
      __HAL_RCC_PLLCLKOUT_ENABLE(RCC_PLL_48M1CLK);
 80056d0:	4b35      	ldr	r3, [pc, #212]	; (80057a8 <HAL_RCCEx_PeriphCLKConfig+0x400>)
 80056d2:	68db      	ldr	r3, [r3, #12]
 80056d4:	4a34      	ldr	r2, [pc, #208]	; (80057a8 <HAL_RCCEx_PeriphCLKConfig+0x400>)
 80056d6:	f443 1380 	orr.w	r3, r3, #1048576	; 0x100000
 80056da:	60d3      	str	r3, [r2, #12]
    }
  }

#if defined(FDCAN1)
  /*-------------------------- FDCAN clock source configuration ---------------------*/
  if(((PeriphClkInit->PeriphClockSelection) & RCC_PERIPHCLK_FDCAN) == RCC_PERIPHCLK_FDCAN)
 80056dc:	687b      	ldr	r3, [r7, #4]
 80056de:	681b      	ldr	r3, [r3, #0]
 80056e0:	f403 5380 	and.w	r3, r3, #4096	; 0x1000
 80056e4:	2b00      	cmp	r3, #0
 80056e6:	d015      	beq.n	8005714 <HAL_RCCEx_PeriphCLKConfig+0x36c>
  {
    /* Check the parameters */
    assert_param(IS_RCC_FDCANCLKSOURCE(PeriphClkInit->FdcanClockSelection));

    /* Configure the FDCAN interface clock source */
    __HAL_RCC_FDCAN_CONFIG(PeriphClkInit->FdcanClockSelection);
 80056e8:	4b2f      	ldr	r3, [pc, #188]	; (80057a8 <HAL_RCCEx_PeriphCLKConfig+0x400>)
 80056ea:	f8d3 3088 	ldr.w	r3, [r3, #136]	; 0x88
 80056ee:	f023 7240 	bic.w	r2, r3, #50331648	; 0x3000000
 80056f2:	687b      	ldr	r3, [r7, #4]
 80056f4:	6b9b      	ldr	r3, [r3, #56]	; 0x38
 80056f6:	492c      	ldr	r1, [pc, #176]	; (80057a8 <HAL_RCCEx_PeriphCLKConfig+0x400>)
 80056f8:	4313      	orrs	r3, r2
 80056fa:	f8c1 3088 	str.w	r3, [r1, #136]	; 0x88
    
    if(PeriphClkInit->FdcanClockSelection == RCC_FDCANCLKSOURCE_PLL)
 80056fe:	687b      	ldr	r3, [r7, #4]
 8005700:	6b9b      	ldr	r3, [r3, #56]	; 0x38
 8005702:	f1b3 7f80 	cmp.w	r3, #16777216	; 0x1000000
 8005706:	d105      	bne.n	8005714 <HAL_RCCEx_PeriphCLKConfig+0x36c>
    {
      /* Enable PLL48M1CLK output */
      __HAL_RCC_PLLCLKOUT_ENABLE(RCC_PLL_48M1CLK);
 8005708:	4b27      	ldr	r3, [pc, #156]	; (80057a8 <HAL_RCCEx_PeriphCLKConfig+0x400>)
 800570a:	68db      	ldr	r3, [r3, #12]
 800570c:	4a26      	ldr	r2, [pc, #152]	; (80057a8 <HAL_RCCEx_PeriphCLKConfig+0x400>)
 800570e:	f443 1380 	orr.w	r3, r3, #1048576	; 0x100000
 8005712:	60d3      	str	r3, [r2, #12]
#endif /* FDCAN1 */

#if defined(USB)

  /*-------------------------- USB clock source configuration ----------------------*/
  if(((PeriphClkInit->PeriphClockSelection) & RCC_PERIPHCLK_USB) == (RCC_PERIPHCLK_USB))
 8005714:	687b      	ldr	r3, [r7, #4]
 8005716:	681b      	ldr	r3, [r3, #0]
 8005718:	f403 5300 	and.w	r3, r3, #8192	; 0x2000
 800571c:	2b00      	cmp	r3, #0
 800571e:	d015      	beq.n	800574c <HAL_RCCEx_PeriphCLKConfig+0x3a4>
  {
    assert_param(IS_RCC_USBCLKSOURCE(PeriphClkInit->UsbClockSelection));
    __HAL_RCC_USB_CONFIG(PeriphClkInit->UsbClockSelection);
 8005720:	4b21      	ldr	r3, [pc, #132]	; (80057a8 <HAL_RCCEx_PeriphCLKConfig+0x400>)
 8005722:	f8d3 3088 	ldr.w	r3, [r3, #136]	; 0x88
 8005726:	f023 6240 	bic.w	r2, r3, #201326592	; 0xc000000
 800572a:	687b      	ldr	r3, [r7, #4]
 800572c:	6bdb      	ldr	r3, [r3, #60]	; 0x3c
 800572e:	491e      	ldr	r1, [pc, #120]	; (80057a8 <HAL_RCCEx_PeriphCLKConfig+0x400>)
 8005730:	4313      	orrs	r3, r2
 8005732:	f8c1 3088 	str.w	r3, [r1, #136]	; 0x88

    if(PeriphClkInit->UsbClockSelection == RCC_USBCLKSOURCE_PLL)
 8005736:	687b      	ldr	r3, [r7, #4]
 8005738:	6bdb      	ldr	r3, [r3, #60]	; 0x3c
 800573a:	f1b3 6f00 	cmp.w	r3, #134217728	; 0x8000000
 800573e:	d105      	bne.n	800574c <HAL_RCCEx_PeriphCLKConfig+0x3a4>
    {
      /* Enable PLL48M1CLK output */
      __HAL_RCC_PLLCLKOUT_ENABLE(RCC_PLL_48M1CLK);
 8005740:	4b19      	ldr	r3, [pc, #100]	; (80057a8 <HAL_RCCEx_PeriphCLKConfig+0x400>)
 8005742:	68db      	ldr	r3, [r3, #12]
 8005744:	4a18      	ldr	r2, [pc, #96]	; (80057a8 <HAL_RCCEx_PeriphCLKConfig+0x400>)
 8005746:	f443 1380 	orr.w	r3, r3, #1048576	; 0x100000
 800574a:	60d3      	str	r3, [r2, #12]
  }

#endif /* USB */

  /*-------------------------- RNG clock source configuration ----------------------*/
  if(((PeriphClkInit->PeriphClockSelection) & RCC_PERIPHCLK_RNG) == (RCC_PERIPHCLK_RNG))
 800574c:	687b      	ldr	r3, [r7, #4]
 800574e:	681b      	ldr	r3, [r3, #0]
 8005750:	f403 4380 	and.w	r3, r3, #16384	; 0x4000
 8005754:	2b00      	cmp	r3, #0
 8005756:	d015      	beq.n	8005784 <HAL_RCCEx_PeriphCLKConfig+0x3dc>
  {
    assert_param(IS_RCC_RNGCLKSOURCE(PeriphClkInit->RngClockSelection));
    __HAL_RCC_RNG_CONFIG(PeriphClkInit->RngClockSelection);
 8005758:	4b13      	ldr	r3, [pc, #76]	; (80057a8 <HAL_RCCEx_PeriphCLKConfig+0x400>)
 800575a:	f8d3 3088 	ldr.w	r3, [r3, #136]	; 0x88
 800575e:	f023 6240 	bic.w	r2, r3, #201326592	; 0xc000000
 8005762:	687b      	ldr	r3, [r7, #4]
 8005764:	6c1b      	ldr	r3, [r3, #64]	; 0x40
 8005766:	4910      	ldr	r1, [pc, #64]	; (80057a8 <HAL_RCCEx_PeriphCLKConfig+0x400>)
 8005768:	4313      	orrs	r3, r2
 800576a:	f8c1 3088 	str.w	r3, [r1, #136]	; 0x88

    if(PeriphClkInit->RngClockSelection == RCC_RNGCLKSOURCE_PLL)
 800576e:	687b      	ldr	r3, [r7, #4]
 8005770:	6c1b      	ldr	r3, [r3, #64]	; 0x40
 8005772:	f1b3 6f00 	cmp.w	r3, #134217728	; 0x8000000
 8005776:	d105      	bne.n	8005784 <HAL_RCCEx_PeriphCLKConfig+0x3dc>
    {
      /* Enable PLL48M1CLK output */
      __HAL_RCC_PLLCLKOUT_ENABLE(RCC_PLL_48M1CLK);
 8005778:	4b0b      	ldr	r3, [pc, #44]	; (80057a8 <HAL_RCCEx_PeriphCLKConfig+0x400>)
 800577a:	68db      	ldr	r3, [r3, #12]
 800577c:	4a0a      	ldr	r2, [pc, #40]	; (80057a8 <HAL_RCCEx_PeriphCLKConfig+0x400>)
 800577e:	f443 1380 	orr.w	r3, r3, #1048576	; 0x100000
 8005782:	60d3      	str	r3, [r2, #12]
    }
  }

  /*-------------------------- ADC12 clock source configuration ----------------------*/
  if(((PeriphClkInit->PeriphClockSelection) & RCC_PERIPHCLK_ADC12) == RCC_PERIPHCLK_ADC12)
 8005784:	687b      	ldr	r3, [r7, #4]
 8005786:	681b      	ldr	r3, [r3, #0]
 8005788:	f403 4300 	and.w	r3, r3, #32768	; 0x8000
 800578c:	2b00      	cmp	r3, #0
 800578e:	d018      	beq.n	80057c2 <HAL_RCCEx_PeriphCLKConfig+0x41a>
  {
    /* Check the parameters */
    assert_param(IS_RCC_ADC12CLKSOURCE(PeriphClkInit->Adc12ClockSelection));

    /* Configure the ADC12 interface clock source */
    __HAL_RCC_ADC12_CONFIG(PeriphClkInit->Adc12ClockSelection);
 8005790:	4b05      	ldr	r3, [pc, #20]	; (80057a8 <HAL_RCCEx_PeriphCLKConfig+0x400>)
 8005792:	f8d3 3088 	ldr.w	r3, [r3, #136]	; 0x88
 8005796:	f023 5240 	bic.w	r2, r3, #805306368	; 0x30000000
 800579a:	687b      	ldr	r3, [r7, #4]
 800579c:	6c5b      	ldr	r3, [r3, #68]	; 0x44
 800579e:	4902      	ldr	r1, [pc, #8]	; (80057a8 <HAL_RCCEx_PeriphCLKConfig+0x400>)
 80057a0:	4313      	orrs	r3, r2
 80057a2:	f8c1 3088 	str.w	r3, [r1, #136]	; 0x88
 80057a6:	e001      	b.n	80057ac <HAL_RCCEx_PeriphCLKConfig+0x404>
 80057a8:	40021000 	.word	0x40021000
    
    if(PeriphClkInit->Adc12ClockSelection == RCC_ADC12CLKSOURCE_PLL)
 80057ac:	687b      	ldr	r3, [r7, #4]
 80057ae:	6c5b      	ldr	r3, [r3, #68]	; 0x44
 80057b0:	f1b3 5f80 	cmp.w	r3, #268435456	; 0x10000000
 80057b4:	d105      	bne.n	80057c2 <HAL_RCCEx_PeriphCLKConfig+0x41a>
    {
      /* Enable PLLADCCLK output */
      __HAL_RCC_PLLCLKOUT_ENABLE(RCC_PLL_ADCCLK);
 80057b6:	4b21      	ldr	r3, [pc, #132]	; (800583c <HAL_RCCEx_PeriphCLKConfig+0x494>)
 80057b8:	68db      	ldr	r3, [r3, #12]
 80057ba:	4a20      	ldr	r2, [pc, #128]	; (800583c <HAL_RCCEx_PeriphCLKConfig+0x494>)
 80057bc:	f443 3380 	orr.w	r3, r3, #65536	; 0x10000
 80057c0:	60d3      	str	r3, [r2, #12]
    }
  }
  
#if defined(ADC345_COMMON)
  /*-------------------------- ADC345 clock source configuration ----------------------*/
  if(((PeriphClkInit->PeriphClockSelection) & RCC_PERIPHCLK_ADC345) == RCC_PERIPHCLK_ADC345)
 80057c2:	687b      	ldr	r3, [r7, #4]
 80057c4:	681b      	ldr	r3, [r3, #0]
 80057c6:	f403 3380 	and.w	r3, r3, #65536	; 0x10000
 80057ca:	2b00      	cmp	r3, #0
 80057cc:	d015      	beq.n	80057fa <HAL_RCCEx_PeriphCLKConfig+0x452>
  {
    /* Check the parameters */
    assert_param(IS_RCC_ADC345CLKSOURCE(PeriphClkInit->Adc345ClockSelection));

    /* Configure the ADC345 interface clock source */
    __HAL_RCC_ADC345_CONFIG(PeriphClkInit->Adc345ClockSelection);
 80057ce:	4b1b      	ldr	r3, [pc, #108]	; (800583c <HAL_RCCEx_PeriphCLKConfig+0x494>)
 80057d0:	f8d3 3088 	ldr.w	r3, [r3, #136]	; 0x88
 80057d4:	f023 4240 	bic.w	r2, r3, #3221225472	; 0xc0000000
 80057d8:	687b      	ldr	r3, [r7, #4]
 80057da:	6c9b      	ldr	r3, [r3, #72]	; 0x48
 80057dc:	4917      	ldr	r1, [pc, #92]	; (800583c <HAL_RCCEx_PeriphCLKConfig+0x494>)
 80057de:	4313      	orrs	r3, r2
 80057e0:	f8c1 3088 	str.w	r3, [r1, #136]	; 0x88
    
    if(PeriphClkInit->Adc345ClockSelection == RCC_ADC345CLKSOURCE_PLL)
 80057e4:	687b      	ldr	r3, [r7, #4]
 80057e6:	6c9b      	ldr	r3, [r3, #72]	; 0x48
 80057e8:	f1b3 4f80 	cmp.w	r3, #1073741824	; 0x40000000
 80057ec:	d105      	bne.n	80057fa <HAL_RCCEx_PeriphCLKConfig+0x452>
    {
      /* Enable PLLADCCLK output */
      __HAL_RCC_PLLCLKOUT_ENABLE(RCC_PLL_ADCCLK);
 80057ee:	4b13      	ldr	r3, [pc, #76]	; (800583c <HAL_RCCEx_PeriphCLKConfig+0x494>)
 80057f0:	68db      	ldr	r3, [r3, #12]
 80057f2:	4a12      	ldr	r2, [pc, #72]	; (800583c <HAL_RCCEx_PeriphCLKConfig+0x494>)
 80057f4:	f443 3380 	orr.w	r3, r3, #65536	; 0x10000
 80057f8:	60d3      	str	r3, [r2, #12]
#endif /* ADC345_COMMON */

#if defined(QUADSPI)

  /*-------------------------- QuadSPIx clock source configuration ----------------*/
  if(((PeriphClkInit->PeriphClockSelection) & RCC_PERIPHCLK_QSPI) == RCC_PERIPHCLK_QSPI)
 80057fa:	687b      	ldr	r3, [r7, #4]
 80057fc:	681b      	ldr	r3, [r3, #0]
 80057fe:	f403 2380 	and.w	r3, r3, #262144	; 0x40000
 8005802:	2b00      	cmp	r3, #0
 8005804:	d015      	beq.n	8005832 <HAL_RCCEx_PeriphCLKConfig+0x48a>
  {
    /* Check the parameters */
    assert_param(IS_RCC_QSPICLKSOURCE(PeriphClkInit->QspiClockSelection));

    /* Configure the QuadSPI clock source */
    __HAL_RCC_QSPI_CONFIG(PeriphClkInit->QspiClockSelection);
 8005806:	4b0d      	ldr	r3, [pc, #52]	; (800583c <HAL_RCCEx_PeriphCLKConfig+0x494>)
 8005808:	f8d3 309c 	ldr.w	r3, [r3, #156]	; 0x9c
 800580c:	f423 1240 	bic.w	r2, r3, #3145728	; 0x300000
 8005810:	687b      	ldr	r3, [r7, #4]
 8005812:	6cdb      	ldr	r3, [r3, #76]	; 0x4c
 8005814:	4909      	ldr	r1, [pc, #36]	; (800583c <HAL_RCCEx_PeriphCLKConfig+0x494>)
 8005816:	4313      	orrs	r3, r2
 8005818:	f8c1 309c 	str.w	r3, [r1, #156]	; 0x9c

    if(PeriphClkInit->QspiClockSelection == RCC_QSPICLKSOURCE_PLL)
 800581c:	687b      	ldr	r3, [r7, #4]
 800581e:	6cdb      	ldr	r3, [r3, #76]	; 0x4c
 8005820:	f5b3 1f00 	cmp.w	r3, #2097152	; 0x200000
 8005824:	d105      	bne.n	8005832 <HAL_RCCEx_PeriphCLKConfig+0x48a>
    {
      /* Enable PLL48M1CLK output */
      __HAL_RCC_PLLCLKOUT_ENABLE(RCC_PLL_48M1CLK);
 8005826:	4b05      	ldr	r3, [pc, #20]	; (800583c <HAL_RCCEx_PeriphCLKConfig+0x494>)
 8005828:	68db      	ldr	r3, [r3, #12]
 800582a:	4a04      	ldr	r2, [pc, #16]	; (800583c <HAL_RCCEx_PeriphCLKConfig+0x494>)
 800582c:	f443 1380 	orr.w	r3, r3, #1048576	; 0x100000
 8005830:	60d3      	str	r3, [r2, #12]
    }
  }

#endif /* QUADSPI */

  return status;
 8005832:	7cbb      	ldrb	r3, [r7, #18]
}
 8005834:	4618      	mov	r0, r3
 8005836:	3718      	adds	r7, #24
 8005838:	46bd      	mov	sp, r7
 800583a:	bd80      	pop	{r7, pc}
 800583c:	40021000 	.word	0x40021000

08005840 <HAL_SPI_Init>:
  * @param  hspi pointer to a SPI_HandleTypeDef structure that contains
  *               the configuration information for SPI module.
  * @retval HAL status
  */
HAL_StatusTypeDef HAL_SPI_Init(SPI_HandleTypeDef *hspi)
{
 8005840:	b580      	push	{r7, lr}
 8005842:	b084      	sub	sp, #16
 8005844:	af00      	add	r7, sp, #0
 8005846:	6078      	str	r0, [r7, #4]
  uint32_t frxth;

  /* Check the SPI handle allocation */
  if (hspi == NULL)
 8005848:	687b      	ldr	r3, [r7, #4]
 800584a:	2b00      	cmp	r3, #0
 800584c:	d101      	bne.n	8005852 <HAL_SPI_Init+0x12>
  {
    return HAL_ERROR;
 800584e:	2301      	movs	r3, #1
 8005850:	e084      	b.n	800595c <HAL_SPI_Init+0x11c>
  {
    assert_param(IS_SPI_CRC_POLYNOMIAL(hspi->Init.CRCPolynomial));
    assert_param(IS_SPI_CRC_LENGTH(hspi->Init.CRCLength));
  }
#else
  hspi->Init.CRCCalculation = SPI_CRCCALCULATION_DISABLE;
 8005852:	687b      	ldr	r3, [r7, #4]
 8005854:	2200      	movs	r2, #0
 8005856:	629a      	str	r2, [r3, #40]	; 0x28
#endif /* USE_SPI_CRC */

  if (hspi->State == HAL_SPI_STATE_RESET)
 8005858:	687b      	ldr	r3, [r7, #4]
 800585a:	f893 305d 	ldrb.w	r3, [r3, #93]	; 0x5d
 800585e:	b2db      	uxtb	r3, r3
 8005860:	2b00      	cmp	r3, #0
 8005862:	d106      	bne.n	8005872 <HAL_SPI_Init+0x32>
  {
    /* Allocate lock resource and initialize it */
    hspi->Lock = HAL_UNLOCKED;
 8005864:	687b      	ldr	r3, [r7, #4]
 8005866:	2200      	movs	r2, #0
 8005868:	f883 205c 	strb.w	r2, [r3, #92]	; 0x5c

    /* Init the low level hardware : GPIO, CLOCK, NVIC... */
    hspi->MspInitCallback(hspi);
#else
    /* Init the low level hardware : GPIO, CLOCK, NVIC... */
    HAL_SPI_MspInit(hspi);
 800586c:	6878      	ldr	r0, [r7, #4]
 800586e:	f7fb fd6b 	bl	8001348 <HAL_SPI_MspInit>
#endif /* USE_HAL_SPI_REGISTER_CALLBACKS */
  }

  hspi->State = HAL_SPI_STATE_BUSY;
 8005872:	687b      	ldr	r3, [r7, #4]
 8005874:	2202      	movs	r2, #2
 8005876:	f883 205d 	strb.w	r2, [r3, #93]	; 0x5d

  /* Disable the selected SPI peripheral */
  __HAL_SPI_DISABLE(hspi);
 800587a:	687b      	ldr	r3, [r7, #4]
 800587c:	681b      	ldr	r3, [r3, #0]
 800587e:	681a      	ldr	r2, [r3, #0]
 8005880:	687b      	ldr	r3, [r7, #4]
 8005882:	681b      	ldr	r3, [r3, #0]
 8005884:	f022 0240 	bic.w	r2, r2, #64	; 0x40
 8005888:	601a      	str	r2, [r3, #0]

  /* Align by default the rs fifo threshold on the data size */
  if (hspi->Init.DataSize > SPI_DATASIZE_8BIT)
 800588a:	687b      	ldr	r3, [r7, #4]
 800588c:	68db      	ldr	r3, [r3, #12]
 800588e:	f5b3 6fe0 	cmp.w	r3, #1792	; 0x700
 8005892:	d902      	bls.n	800589a <HAL_SPI_Init+0x5a>
  {
    frxth = SPI_RXFIFO_THRESHOLD_HF;
 8005894:	2300      	movs	r3, #0
 8005896:	60fb      	str	r3, [r7, #12]
 8005898:	e002      	b.n	80058a0 <HAL_SPI_Init+0x60>
  }
  else
  {
    frxth = SPI_RXFIFO_THRESHOLD_QF;
 800589a:	f44f 5380 	mov.w	r3, #4096	; 0x1000
 800589e:	60fb      	str	r3, [r7, #12]
  }

  /* CRC calculation is valid only for 16Bit and 8 Bit */
  if ((hspi->Init.DataSize != SPI_DATASIZE_16BIT) && (hspi->Init.DataSize != SPI_DATASIZE_8BIT))
 80058a0:	687b      	ldr	r3, [r7, #4]
 80058a2:	68db      	ldr	r3, [r3, #12]
 80058a4:	f5b3 6f70 	cmp.w	r3, #3840	; 0xf00
 80058a8:	d007      	beq.n	80058ba <HAL_SPI_Init+0x7a>
 80058aa:	687b      	ldr	r3, [r7, #4]
 80058ac:	68db      	ldr	r3, [r3, #12]
 80058ae:	f5b3 6fe0 	cmp.w	r3, #1792	; 0x700
 80058b2:	d002      	beq.n	80058ba <HAL_SPI_Init+0x7a>
  {
    /* CRC must be disabled */
    hspi->Init.CRCCalculation = SPI_CRCCALCULATION_DISABLE;
 80058b4:	687b      	ldr	r3, [r7, #4]
 80058b6:	2200      	movs	r2, #0
 80058b8:	629a      	str	r2, [r3, #40]	; 0x28
  }

  /* Align the CRC Length on the data size */
  if (hspi->Init.CRCLength == SPI_CRC_LENGTH_DATASIZE)
 80058ba:	687b      	ldr	r3, [r7, #4]
 80058bc:	6b1b      	ldr	r3, [r3, #48]	; 0x30
 80058be:	2b00      	cmp	r3, #0
 80058c0:	d10b      	bne.n	80058da <HAL_SPI_Init+0x9a>
  {
    /* CRC Length aligned on the data size : value set by default */
    if (hspi->Init.DataSize > SPI_DATASIZE_8BIT)
 80058c2:	687b      	ldr	r3, [r7, #4]
 80058c4:	68db      	ldr	r3, [r3, #12]
 80058c6:	f5b3 6fe0 	cmp.w	r3, #1792	; 0x700
 80058ca:	d903      	bls.n	80058d4 <HAL_SPI_Init+0x94>
    {
      hspi->Init.CRCLength = SPI_CRC_LENGTH_16BIT;
 80058cc:	687b      	ldr	r3, [r7, #4]
 80058ce:	2202      	movs	r2, #2
 80058d0:	631a      	str	r2, [r3, #48]	; 0x30
 80058d2:	e002      	b.n	80058da <HAL_SPI_Init+0x9a>
    }
    else
    {
      hspi->Init.CRCLength = SPI_CRC_LENGTH_8BIT;
 80058d4:	687b      	ldr	r3, [r7, #4]
 80058d6:	2201      	movs	r2, #1
 80058d8:	631a      	str	r2, [r3, #48]	; 0x30
  }

  /*----------------------- SPIx CR1 & CR2 Configuration ---------------------*/
  /* Configure : SPI Mode, Communication Mode, Clock polarity and phase, NSS management,
  Communication speed, First bit and CRC calculation state */
  WRITE_REG(hspi->Instance->CR1, (hspi->Init.Mode | hspi->Init.Direction |
 80058da:	687b      	ldr	r3, [r7, #4]
 80058dc:	685a      	ldr	r2, [r3, #4]
 80058de:	687b      	ldr	r3, [r7, #4]
 80058e0:	689b      	ldr	r3, [r3, #8]
 80058e2:	431a      	orrs	r2, r3
 80058e4:	687b      	ldr	r3, [r7, #4]
 80058e6:	691b      	ldr	r3, [r3, #16]
 80058e8:	431a      	orrs	r2, r3
 80058ea:	687b      	ldr	r3, [r7, #4]
 80058ec:	695b      	ldr	r3, [r3, #20]
 80058ee:	431a      	orrs	r2, r3
 80058f0:	687b      	ldr	r3, [r7, #4]
 80058f2:	699b      	ldr	r3, [r3, #24]
 80058f4:	f403 7300 	and.w	r3, r3, #512	; 0x200
 80058f8:	431a      	orrs	r2, r3
 80058fa:	687b      	ldr	r3, [r7, #4]
 80058fc:	69db      	ldr	r3, [r3, #28]
 80058fe:	431a      	orrs	r2, r3
 8005900:	687b      	ldr	r3, [r7, #4]
 8005902:	6a1b      	ldr	r3, [r3, #32]
 8005904:	ea42 0103 	orr.w	r1, r2, r3
 8005908:	687b      	ldr	r3, [r7, #4]
 800590a:	6a9a      	ldr	r2, [r3, #40]	; 0x28
 800590c:	687b      	ldr	r3, [r7, #4]
 800590e:	681b      	ldr	r3, [r3, #0]
 8005910:	430a      	orrs	r2, r1
 8005912:	601a      	str	r2, [r3, #0]
    hspi->Instance->CR1 |= SPI_CR1_CRCL;
  }
#endif /* USE_SPI_CRC */

  /* Configure : NSS management, TI Mode, NSS Pulse, Data size and Rx Fifo threshold */
  WRITE_REG(hspi->Instance->CR2, (((hspi->Init.NSS >> 16U) & SPI_CR2_SSOE) | hspi->Init.TIMode |
 8005914:	687b      	ldr	r3, [r7, #4]
 8005916:	699b      	ldr	r3, [r3, #24]
 8005918:	0c1b      	lsrs	r3, r3, #16
 800591a:	f003 0204 	and.w	r2, r3, #4
 800591e:	687b      	ldr	r3, [r7, #4]
 8005920:	6a5b      	ldr	r3, [r3, #36]	; 0x24
 8005922:	431a      	orrs	r2, r3
 8005924:	687b      	ldr	r3, [r7, #4]
 8005926:	6b5b      	ldr	r3, [r3, #52]	; 0x34
 8005928:	431a      	orrs	r2, r3
 800592a:	687b      	ldr	r3, [r7, #4]
 800592c:	68db      	ldr	r3, [r3, #12]
 800592e:	ea42 0103 	orr.w	r1, r2, r3
 8005932:	687b      	ldr	r3, [r7, #4]
 8005934:	681b      	ldr	r3, [r3, #0]
 8005936:	68fa      	ldr	r2, [r7, #12]
 8005938:	430a      	orrs	r2, r1
 800593a:	605a      	str	r2, [r3, #4]
  }
#endif /* USE_SPI_CRC */

#if defined(SPI_I2SCFGR_I2SMOD)
  /* Activate the SPI mode (Make sure that I2SMOD bit in I2SCFGR register is reset) */
  CLEAR_BIT(hspi->Instance->I2SCFGR, SPI_I2SCFGR_I2SMOD);
 800593c:	687b      	ldr	r3, [r7, #4]
 800593e:	681b      	ldr	r3, [r3, #0]
 8005940:	69da      	ldr	r2, [r3, #28]
 8005942:	687b      	ldr	r3, [r7, #4]
 8005944:	681b      	ldr	r3, [r3, #0]
 8005946:	f422 6200 	bic.w	r2, r2, #2048	; 0x800
 800594a:	61da      	str	r2, [r3, #28]
#endif /* SPI_I2SCFGR_I2SMOD */

  hspi->ErrorCode = HAL_SPI_ERROR_NONE;
 800594c:	687b      	ldr	r3, [r7, #4]
 800594e:	2200      	movs	r2, #0
 8005950:	661a      	str	r2, [r3, #96]	; 0x60
  hspi->State     = HAL_SPI_STATE_READY;
 8005952:	687b      	ldr	r3, [r7, #4]
 8005954:	2201      	movs	r2, #1
 8005956:	f883 205d 	strb.w	r2, [r3, #93]	; 0x5d

  return HAL_OK;
 800595a:	2300      	movs	r3, #0
}
 800595c:	4618      	mov	r0, r3
 800595e:	3710      	adds	r7, #16
 8005960:	46bd      	mov	sp, r7
 8005962:	bd80      	pop	{r7, pc}

08005964 <HAL_SPI_Transmit>:
  * @param  Size amount of data to be sent
  * @param  Timeout Timeout duration
  * @retval HAL status
  */
HAL_StatusTypeDef HAL_SPI_Transmit(SPI_HandleTypeDef *hspi, uint8_t *pData, uint16_t Size, uint32_t Timeout)
{
 8005964:	b580      	push	{r7, lr}
 8005966:	b088      	sub	sp, #32
 8005968:	af00      	add	r7, sp, #0
 800596a:	60f8      	str	r0, [r7, #12]
 800596c:	60b9      	str	r1, [r7, #8]
 800596e:	603b      	str	r3, [r7, #0]
 8005970:	4613      	mov	r3, r2
 8005972:	80fb      	strh	r3, [r7, #6]
  uint32_t tickstart;
  HAL_StatusTypeDef errorcode = HAL_OK;
 8005974:	2300      	movs	r3, #0
 8005976:	77fb      	strb	r3, [r7, #31]

  /* Check Direction parameter */
  assert_param(IS_SPI_DIRECTION_2LINES_OR_1LINE(hspi->Init.Direction));

  /* Process Locked */
  __HAL_LOCK(hspi);
 8005978:	68fb      	ldr	r3, [r7, #12]
 800597a:	f893 305c 	ldrb.w	r3, [r3, #92]	; 0x5c
 800597e:	2b01      	cmp	r3, #1
 8005980:	d101      	bne.n	8005986 <HAL_SPI_Transmit+0x22>
 8005982:	2302      	movs	r3, #2
 8005984:	e150      	b.n	8005c28 <HAL_SPI_Transmit+0x2c4>
 8005986:	68fb      	ldr	r3, [r7, #12]
 8005988:	2201      	movs	r2, #1
 800598a:	f883 205c 	strb.w	r2, [r3, #92]	; 0x5c

  /* Init tickstart for timeout management*/
  tickstart = HAL_GetTick();
 800598e:	f7fc fb0b 	bl	8001fa8 <HAL_GetTick>
 8005992:	61b8      	str	r0, [r7, #24]
  initial_TxXferCount = Size;
 8005994:	88fb      	ldrh	r3, [r7, #6]
 8005996:	82fb      	strh	r3, [r7, #22]

  if (hspi->State != HAL_SPI_STATE_READY)
 8005998:	68fb      	ldr	r3, [r7, #12]
 800599a:	f893 305d 	ldrb.w	r3, [r3, #93]	; 0x5d
 800599e:	b2db      	uxtb	r3, r3
 80059a0:	2b01      	cmp	r3, #1
 80059a2:	d002      	beq.n	80059aa <HAL_SPI_Transmit+0x46>
  {
    errorcode = HAL_BUSY;
 80059a4:	2302      	movs	r3, #2
 80059a6:	77fb      	strb	r3, [r7, #31]
    goto error;
 80059a8:	e135      	b.n	8005c16 <HAL_SPI_Transmit+0x2b2>
  }

  if ((pData == NULL) || (Size == 0U))
 80059aa:	68bb      	ldr	r3, [r7, #8]
 80059ac:	2b00      	cmp	r3, #0
 80059ae:	d002      	beq.n	80059b6 <HAL_SPI_Transmit+0x52>
 80059b0:	88fb      	ldrh	r3, [r7, #6]
 80059b2:	2b00      	cmp	r3, #0
 80059b4:	d102      	bne.n	80059bc <HAL_SPI_Transmit+0x58>
  {
    errorcode = HAL_ERROR;
 80059b6:	2301      	movs	r3, #1
 80059b8:	77fb      	strb	r3, [r7, #31]
    goto error;
 80059ba:	e12c      	b.n	8005c16 <HAL_SPI_Transmit+0x2b2>
  }

  /* Set the transaction information */
  hspi->State       = HAL_SPI_STATE_BUSY_TX;
 80059bc:	68fb      	ldr	r3, [r7, #12]
 80059be:	2203      	movs	r2, #3
 80059c0:	f883 205d 	strb.w	r2, [r3, #93]	; 0x5d
  hspi->ErrorCode   = HAL_SPI_ERROR_NONE;
 80059c4:	68fb      	ldr	r3, [r7, #12]
 80059c6:	2200      	movs	r2, #0
 80059c8:	661a      	str	r2, [r3, #96]	; 0x60
  hspi->pTxBuffPtr  = (uint8_t *)pData;
 80059ca:	68fb      	ldr	r3, [r7, #12]
 80059cc:	68ba      	ldr	r2, [r7, #8]
 80059ce:	639a      	str	r2, [r3, #56]	; 0x38
  hspi->TxXferSize  = Size;
 80059d0:	68fb      	ldr	r3, [r7, #12]
 80059d2:	88fa      	ldrh	r2, [r7, #6]
 80059d4:	879a      	strh	r2, [r3, #60]	; 0x3c
  hspi->TxXferCount = Size;
 80059d6:	68fb      	ldr	r3, [r7, #12]
 80059d8:	88fa      	ldrh	r2, [r7, #6]
 80059da:	87da      	strh	r2, [r3, #62]	; 0x3e

  /*Init field not used in handle to zero */
  hspi->pRxBuffPtr  = (uint8_t *)NULL;
 80059dc:	68fb      	ldr	r3, [r7, #12]
 80059de:	2200      	movs	r2, #0
 80059e0:	641a      	str	r2, [r3, #64]	; 0x40
  hspi->RxXferSize  = 0U;
 80059e2:	68fb      	ldr	r3, [r7, #12]
 80059e4:	2200      	movs	r2, #0
 80059e6:	f8a3 2044 	strh.w	r2, [r3, #68]	; 0x44
  hspi->RxXferCount = 0U;
 80059ea:	68fb      	ldr	r3, [r7, #12]
 80059ec:	2200      	movs	r2, #0
 80059ee:	f8a3 2046 	strh.w	r2, [r3, #70]	; 0x46
  hspi->TxISR       = NULL;
 80059f2:	68fb      	ldr	r3, [r7, #12]
 80059f4:	2200      	movs	r2, #0
 80059f6:	651a      	str	r2, [r3, #80]	; 0x50
  hspi->RxISR       = NULL;
 80059f8:	68fb      	ldr	r3, [r7, #12]
 80059fa:	2200      	movs	r2, #0
 80059fc:	64da      	str	r2, [r3, #76]	; 0x4c

  /* Configure communication direction : 1Line */
  if (hspi->Init.Direction == SPI_DIRECTION_1LINE)
 80059fe:	68fb      	ldr	r3, [r7, #12]
 8005a00:	689b      	ldr	r3, [r3, #8]
 8005a02:	f5b3 4f00 	cmp.w	r3, #32768	; 0x8000
 8005a06:	d107      	bne.n	8005a18 <HAL_SPI_Transmit+0xb4>
  {
    SPI_1LINE_TX(hspi);
 8005a08:	68fb      	ldr	r3, [r7, #12]
 8005a0a:	681b      	ldr	r3, [r3, #0]
 8005a0c:	681a      	ldr	r2, [r3, #0]
 8005a0e:	68fb      	ldr	r3, [r7, #12]
 8005a10:	681b      	ldr	r3, [r3, #0]
 8005a12:	f442 4280 	orr.w	r2, r2, #16384	; 0x4000
 8005a16:	601a      	str	r2, [r3, #0]
    SPI_RESET_CRC(hspi);
  }
#endif /* USE_SPI_CRC */

  /* Check if the SPI is already enabled */
  if ((hspi->Instance->CR1 & SPI_CR1_SPE) != SPI_CR1_SPE)
 8005a18:	68fb      	ldr	r3, [r7, #12]
 8005a1a:	681b      	ldr	r3, [r3, #0]
 8005a1c:	681b      	ldr	r3, [r3, #0]
 8005a1e:	f003 0340 	and.w	r3, r3, #64	; 0x40
 8005a22:	2b40      	cmp	r3, #64	; 0x40
 8005a24:	d007      	beq.n	8005a36 <HAL_SPI_Transmit+0xd2>
  {
    /* Enable SPI peripheral */
    __HAL_SPI_ENABLE(hspi);
 8005a26:	68fb      	ldr	r3, [r7, #12]
 8005a28:	681b      	ldr	r3, [r3, #0]
 8005a2a:	681a      	ldr	r2, [r3, #0]
 8005a2c:	68fb      	ldr	r3, [r7, #12]
 8005a2e:	681b      	ldr	r3, [r3, #0]
 8005a30:	f042 0240 	orr.w	r2, r2, #64	; 0x40
 8005a34:	601a      	str	r2, [r3, #0]
  }

  /* Transmit data in 16 Bit mode */
  if (hspi->Init.DataSize > SPI_DATASIZE_8BIT)
 8005a36:	68fb      	ldr	r3, [r7, #12]
 8005a38:	68db      	ldr	r3, [r3, #12]
 8005a3a:	f5b3 6fe0 	cmp.w	r3, #1792	; 0x700
 8005a3e:	d94b      	bls.n	8005ad8 <HAL_SPI_Transmit+0x174>
  {
    if ((hspi->Init.Mode == SPI_MODE_SLAVE) || (initial_TxXferCount == 0x01U))
 8005a40:	68fb      	ldr	r3, [r7, #12]
 8005a42:	685b      	ldr	r3, [r3, #4]
 8005a44:	2b00      	cmp	r3, #0
 8005a46:	d002      	beq.n	8005a4e <HAL_SPI_Transmit+0xea>
 8005a48:	8afb      	ldrh	r3, [r7, #22]
 8005a4a:	2b01      	cmp	r3, #1
 8005a4c:	d13e      	bne.n	8005acc <HAL_SPI_Transmit+0x168>
    {
      hspi->Instance->DR = *((uint16_t *)hspi->pTxBuffPtr);
 8005a4e:	68fb      	ldr	r3, [r7, #12]
 8005a50:	6b9b      	ldr	r3, [r3, #56]	; 0x38
 8005a52:	881a      	ldrh	r2, [r3, #0]
 8005a54:	68fb      	ldr	r3, [r7, #12]
 8005a56:	681b      	ldr	r3, [r3, #0]
 8005a58:	60da      	str	r2, [r3, #12]
      hspi->pTxBuffPtr += sizeof(uint16_t);
 8005a5a:	68fb      	ldr	r3, [r7, #12]
 8005a5c:	6b9b      	ldr	r3, [r3, #56]	; 0x38
 8005a5e:	1c9a      	adds	r2, r3, #2
 8005a60:	68fb      	ldr	r3, [r7, #12]
 8005a62:	639a      	str	r2, [r3, #56]	; 0x38
      hspi->TxXferCount--;
 8005a64:	68fb      	ldr	r3, [r7, #12]
 8005a66:	8fdb      	ldrh	r3, [r3, #62]	; 0x3e
 8005a68:	b29b      	uxth	r3, r3
 8005a6a:	3b01      	subs	r3, #1
 8005a6c:	b29a      	uxth	r2, r3
 8005a6e:	68fb      	ldr	r3, [r7, #12]
 8005a70:	87da      	strh	r2, [r3, #62]	; 0x3e
    }
    /* Transmit data in 16 Bit mode */
    while (hspi->TxXferCount > 0U)
 8005a72:	e02b      	b.n	8005acc <HAL_SPI_Transmit+0x168>
    {
      /* Wait until TXE flag is set to send data */
      if (__HAL_SPI_GET_FLAG(hspi, SPI_FLAG_TXE))
 8005a74:	68fb      	ldr	r3, [r7, #12]
 8005a76:	681b      	ldr	r3, [r3, #0]
 8005a78:	689b      	ldr	r3, [r3, #8]
 8005a7a:	f003 0302 	and.w	r3, r3, #2
 8005a7e:	2b02      	cmp	r3, #2
 8005a80:	d112      	bne.n	8005aa8 <HAL_SPI_Transmit+0x144>
      {
        hspi->Instance->DR = *((uint16_t *)hspi->pTxBuffPtr);
 8005a82:	68fb      	ldr	r3, [r7, #12]
 8005a84:	6b9b      	ldr	r3, [r3, #56]	; 0x38
 8005a86:	881a      	ldrh	r2, [r3, #0]
 8005a88:	68fb      	ldr	r3, [r7, #12]
 8005a8a:	681b      	ldr	r3, [r3, #0]
 8005a8c:	60da      	str	r2, [r3, #12]
        hspi->pTxBuffPtr += sizeof(uint16_t);
 8005a8e:	68fb      	ldr	r3, [r7, #12]
 8005a90:	6b9b      	ldr	r3, [r3, #56]	; 0x38
 8005a92:	1c9a      	adds	r2, r3, #2
 8005a94:	68fb      	ldr	r3, [r7, #12]
 8005a96:	639a      	str	r2, [r3, #56]	; 0x38
        hspi->TxXferCount--;
 8005a98:	68fb      	ldr	r3, [r7, #12]
 8005a9a:	8fdb      	ldrh	r3, [r3, #62]	; 0x3e
 8005a9c:	b29b      	uxth	r3, r3
 8005a9e:	3b01      	subs	r3, #1
 8005aa0:	b29a      	uxth	r2, r3
 8005aa2:	68fb      	ldr	r3, [r7, #12]
 8005aa4:	87da      	strh	r2, [r3, #62]	; 0x3e
 8005aa6:	e011      	b.n	8005acc <HAL_SPI_Transmit+0x168>
      }
      else
      {
        /* Timeout management */
        if ((((HAL_GetTick() - tickstart) >=  Timeout) && (Timeout != HAL_MAX_DELAY)) || (Timeout == 0U))
 8005aa8:	f7fc fa7e 	bl	8001fa8 <HAL_GetTick>
 8005aac:	4602      	mov	r2, r0
 8005aae:	69bb      	ldr	r3, [r7, #24]
 8005ab0:	1ad3      	subs	r3, r2, r3
 8005ab2:	683a      	ldr	r2, [r7, #0]
 8005ab4:	429a      	cmp	r2, r3
 8005ab6:	d803      	bhi.n	8005ac0 <HAL_SPI_Transmit+0x15c>
 8005ab8:	683b      	ldr	r3, [r7, #0]
 8005aba:	f1b3 3fff 	cmp.w	r3, #4294967295	; 0xffffffff
 8005abe:	d102      	bne.n	8005ac6 <HAL_SPI_Transmit+0x162>
 8005ac0:	683b      	ldr	r3, [r7, #0]
 8005ac2:	2b00      	cmp	r3, #0
 8005ac4:	d102      	bne.n	8005acc <HAL_SPI_Transmit+0x168>
        {
          errorcode = HAL_TIMEOUT;
 8005ac6:	2303      	movs	r3, #3
 8005ac8:	77fb      	strb	r3, [r7, #31]
          goto error;
 8005aca:	e0a4      	b.n	8005c16 <HAL_SPI_Transmit+0x2b2>
    while (hspi->TxXferCount > 0U)
 8005acc:	68fb      	ldr	r3, [r7, #12]
 8005ace:	8fdb      	ldrh	r3, [r3, #62]	; 0x3e
 8005ad0:	b29b      	uxth	r3, r3
 8005ad2:	2b00      	cmp	r3, #0
 8005ad4:	d1ce      	bne.n	8005a74 <HAL_SPI_Transmit+0x110>
 8005ad6:	e07c      	b.n	8005bd2 <HAL_SPI_Transmit+0x26e>
    }
  }
  /* Transmit data in 8 Bit mode */
  else
  {
    if ((hspi->Init.Mode == SPI_MODE_SLAVE) || (initial_TxXferCount == 0x01U))
 8005ad8:	68fb      	ldr	r3, [r7, #12]
 8005ada:	685b      	ldr	r3, [r3, #4]
 8005adc:	2b00      	cmp	r3, #0
 8005ade:	d002      	beq.n	8005ae6 <HAL_SPI_Transmit+0x182>
 8005ae0:	8afb      	ldrh	r3, [r7, #22]
 8005ae2:	2b01      	cmp	r3, #1
 8005ae4:	d170      	bne.n	8005bc8 <HAL_SPI_Transmit+0x264>
    {
      if (hspi->TxXferCount > 1U)
 8005ae6:	68fb      	ldr	r3, [r7, #12]
 8005ae8:	8fdb      	ldrh	r3, [r3, #62]	; 0x3e
 8005aea:	b29b      	uxth	r3, r3
 8005aec:	2b01      	cmp	r3, #1
 8005aee:	d912      	bls.n	8005b16 <HAL_SPI_Transmit+0x1b2>
      {
        /* write on the data register in packing mode */
        hspi->Instance->DR = *((uint16_t *)hspi->pTxBuffPtr);
 8005af0:	68fb      	ldr	r3, [r7, #12]
 8005af2:	6b9b      	ldr	r3, [r3, #56]	; 0x38
 8005af4:	881a      	ldrh	r2, [r3, #0]
 8005af6:	68fb      	ldr	r3, [r7, #12]
 8005af8:	681b      	ldr	r3, [r3, #0]
 8005afa:	60da      	str	r2, [r3, #12]
        hspi->pTxBuffPtr += sizeof(uint16_t);
 8005afc:	68fb      	ldr	r3, [r7, #12]
 8005afe:	6b9b      	ldr	r3, [r3, #56]	; 0x38
 8005b00:	1c9a      	adds	r2, r3, #2
 8005b02:	68fb      	ldr	r3, [r7, #12]
 8005b04:	639a      	str	r2, [r3, #56]	; 0x38
        hspi->TxXferCount -= 2U;
 8005b06:	68fb      	ldr	r3, [r7, #12]
 8005b08:	8fdb      	ldrh	r3, [r3, #62]	; 0x3e
 8005b0a:	b29b      	uxth	r3, r3
 8005b0c:	3b02      	subs	r3, #2
 8005b0e:	b29a      	uxth	r2, r3
 8005b10:	68fb      	ldr	r3, [r7, #12]
 8005b12:	87da      	strh	r2, [r3, #62]	; 0x3e
 8005b14:	e058      	b.n	8005bc8 <HAL_SPI_Transmit+0x264>
      }
      else
      {
        *((__IO uint8_t *)&hspi->Instance->DR) = (*hspi->pTxBuffPtr);
 8005b16:	68fb      	ldr	r3, [r7, #12]
 8005b18:	6b9a      	ldr	r2, [r3, #56]	; 0x38
 8005b1a:	68fb      	ldr	r3, [r7, #12]
 8005b1c:	681b      	ldr	r3, [r3, #0]
 8005b1e:	330c      	adds	r3, #12
 8005b20:	7812      	ldrb	r2, [r2, #0]
 8005b22:	701a      	strb	r2, [r3, #0]
        hspi->pTxBuffPtr ++;
 8005b24:	68fb      	ldr	r3, [r7, #12]
 8005b26:	6b9b      	ldr	r3, [r3, #56]	; 0x38
 8005b28:	1c5a      	adds	r2, r3, #1
 8005b2a:	68fb      	ldr	r3, [r7, #12]
 8005b2c:	639a      	str	r2, [r3, #56]	; 0x38
        hspi->TxXferCount--;
 8005b2e:	68fb      	ldr	r3, [r7, #12]
 8005b30:	8fdb      	ldrh	r3, [r3, #62]	; 0x3e
 8005b32:	b29b      	uxth	r3, r3
 8005b34:	3b01      	subs	r3, #1
 8005b36:	b29a      	uxth	r2, r3
 8005b38:	68fb      	ldr	r3, [r7, #12]
 8005b3a:	87da      	strh	r2, [r3, #62]	; 0x3e
      }
    }
    while (hspi->TxXferCount > 0U)
 8005b3c:	e044      	b.n	8005bc8 <HAL_SPI_Transmit+0x264>
    {
      /* Wait until TXE flag is set to send data */
      if (__HAL_SPI_GET_FLAG(hspi, SPI_FLAG_TXE))
 8005b3e:	68fb      	ldr	r3, [r7, #12]
 8005b40:	681b      	ldr	r3, [r3, #0]
 8005b42:	689b      	ldr	r3, [r3, #8]
 8005b44:	f003 0302 	and.w	r3, r3, #2
 8005b48:	2b02      	cmp	r3, #2
 8005b4a:	d12b      	bne.n	8005ba4 <HAL_SPI_Transmit+0x240>
      {
        if (hspi->TxXferCount > 1U)
 8005b4c:	68fb      	ldr	r3, [r7, #12]
 8005b4e:	8fdb      	ldrh	r3, [r3, #62]	; 0x3e
 8005b50:	b29b      	uxth	r3, r3
 8005b52:	2b01      	cmp	r3, #1
 8005b54:	d912      	bls.n	8005b7c <HAL_SPI_Transmit+0x218>
        {
          /* write on the data register in packing mode */
          hspi->Instance->DR = *((uint16_t *)hspi->pTxBuffPtr);
 8005b56:	68fb      	ldr	r3, [r7, #12]
 8005b58:	6b9b      	ldr	r3, [r3, #56]	; 0x38
 8005b5a:	881a      	ldrh	r2, [r3, #0]
 8005b5c:	68fb      	ldr	r3, [r7, #12]
 8005b5e:	681b      	ldr	r3, [r3, #0]
 8005b60:	60da      	str	r2, [r3, #12]
          hspi->pTxBuffPtr += sizeof(uint16_t);
 8005b62:	68fb      	ldr	r3, [r7, #12]
 8005b64:	6b9b      	ldr	r3, [r3, #56]	; 0x38
 8005b66:	1c9a      	adds	r2, r3, #2
 8005b68:	68fb      	ldr	r3, [r7, #12]
 8005b6a:	639a      	str	r2, [r3, #56]	; 0x38
          hspi->TxXferCount -= 2U;
 8005b6c:	68fb      	ldr	r3, [r7, #12]
 8005b6e:	8fdb      	ldrh	r3, [r3, #62]	; 0x3e
 8005b70:	b29b      	uxth	r3, r3
 8005b72:	3b02      	subs	r3, #2
 8005b74:	b29a      	uxth	r2, r3
 8005b76:	68fb      	ldr	r3, [r7, #12]
 8005b78:	87da      	strh	r2, [r3, #62]	; 0x3e
 8005b7a:	e025      	b.n	8005bc8 <HAL_SPI_Transmit+0x264>
        }
        else
        {
          *((__IO uint8_t *)&hspi->Instance->DR) = (*hspi->pTxBuffPtr);
 8005b7c:	68fb      	ldr	r3, [r7, #12]
 8005b7e:	6b9a      	ldr	r2, [r3, #56]	; 0x38
 8005b80:	68fb      	ldr	r3, [r7, #12]
 8005b82:	681b      	ldr	r3, [r3, #0]
 8005b84:	330c      	adds	r3, #12
 8005b86:	7812      	ldrb	r2, [r2, #0]
 8005b88:	701a      	strb	r2, [r3, #0]
          hspi->pTxBuffPtr++;
 8005b8a:	68fb      	ldr	r3, [r7, #12]
 8005b8c:	6b9b      	ldr	r3, [r3, #56]	; 0x38
 8005b8e:	1c5a      	adds	r2, r3, #1
 8005b90:	68fb      	ldr	r3, [r7, #12]
 8005b92:	639a      	str	r2, [r3, #56]	; 0x38
          hspi->TxXferCount--;
 8005b94:	68fb      	ldr	r3, [r7, #12]
 8005b96:	8fdb      	ldrh	r3, [r3, #62]	; 0x3e
 8005b98:	b29b      	uxth	r3, r3
 8005b9a:	3b01      	subs	r3, #1
 8005b9c:	b29a      	uxth	r2, r3
 8005b9e:	68fb      	ldr	r3, [r7, #12]
 8005ba0:	87da      	strh	r2, [r3, #62]	; 0x3e
 8005ba2:	e011      	b.n	8005bc8 <HAL_SPI_Transmit+0x264>
        }
      }
      else
      {
        /* Timeout management */
        if ((((HAL_GetTick() - tickstart) >=  Timeout) && (Timeout != HAL_MAX_DELAY)) || (Timeout == 0U))
 8005ba4:	f7fc fa00 	bl	8001fa8 <HAL_GetTick>
 8005ba8:	4602      	mov	r2, r0
 8005baa:	69bb      	ldr	r3, [r7, #24]
 8005bac:	1ad3      	subs	r3, r2, r3
 8005bae:	683a      	ldr	r2, [r7, #0]
 8005bb0:	429a      	cmp	r2, r3
 8005bb2:	d803      	bhi.n	8005bbc <HAL_SPI_Transmit+0x258>
 8005bb4:	683b      	ldr	r3, [r7, #0]
 8005bb6:	f1b3 3fff 	cmp.w	r3, #4294967295	; 0xffffffff
 8005bba:	d102      	bne.n	8005bc2 <HAL_SPI_Transmit+0x25e>
 8005bbc:	683b      	ldr	r3, [r7, #0]
 8005bbe:	2b00      	cmp	r3, #0
 8005bc0:	d102      	bne.n	8005bc8 <HAL_SPI_Transmit+0x264>
        {
          errorcode = HAL_TIMEOUT;
 8005bc2:	2303      	movs	r3, #3
 8005bc4:	77fb      	strb	r3, [r7, #31]
          goto error;
 8005bc6:	e026      	b.n	8005c16 <HAL_SPI_Transmit+0x2b2>
    while (hspi->TxXferCount > 0U)
 8005bc8:	68fb      	ldr	r3, [r7, #12]
 8005bca:	8fdb      	ldrh	r3, [r3, #62]	; 0x3e
 8005bcc:	b29b      	uxth	r3, r3
 8005bce:	2b00      	cmp	r3, #0
 8005bd0:	d1b5      	bne.n	8005b3e <HAL_SPI_Transmit+0x1da>
    SET_BIT(hspi->Instance->CR1, SPI_CR1_CRCNEXT);
  }
#endif /* USE_SPI_CRC */

  /* Check the end of the transaction */
  if (SPI_EndRxTxTransaction(hspi, Timeout, tickstart) != HAL_OK)
 8005bd2:	69ba      	ldr	r2, [r7, #24]
 8005bd4:	6839      	ldr	r1, [r7, #0]
 8005bd6:	68f8      	ldr	r0, [r7, #12]
 8005bd8:	f000 fa8c 	bl	80060f4 <SPI_EndRxTxTransaction>
 8005bdc:	4603      	mov	r3, r0
 8005bde:	2b00      	cmp	r3, #0
 8005be0:	d002      	beq.n	8005be8 <HAL_SPI_Transmit+0x284>
  {
    hspi->ErrorCode = HAL_SPI_ERROR_FLAG;
 8005be2:	68fb      	ldr	r3, [r7, #12]
 8005be4:	2220      	movs	r2, #32
 8005be6:	661a      	str	r2, [r3, #96]	; 0x60
  }

  /* Clear overrun flag in 2 Lines communication mode because received is not read */
  if (hspi->Init.Direction == SPI_DIRECTION_2LINES)
 8005be8:	68fb      	ldr	r3, [r7, #12]
 8005bea:	689b      	ldr	r3, [r3, #8]
 8005bec:	2b00      	cmp	r3, #0
 8005bee:	d10a      	bne.n	8005c06 <HAL_SPI_Transmit+0x2a2>
  {
    __HAL_SPI_CLEAR_OVRFLAG(hspi);
 8005bf0:	2300      	movs	r3, #0
 8005bf2:	613b      	str	r3, [r7, #16]
 8005bf4:	68fb      	ldr	r3, [r7, #12]
 8005bf6:	681b      	ldr	r3, [r3, #0]
 8005bf8:	68db      	ldr	r3, [r3, #12]
 8005bfa:	613b      	str	r3, [r7, #16]
 8005bfc:	68fb      	ldr	r3, [r7, #12]
 8005bfe:	681b      	ldr	r3, [r3, #0]
 8005c00:	689b      	ldr	r3, [r3, #8]
 8005c02:	613b      	str	r3, [r7, #16]
 8005c04:	693b      	ldr	r3, [r7, #16]
  }

  if (hspi->ErrorCode != HAL_SPI_ERROR_NONE)
 8005c06:	68fb      	ldr	r3, [r7, #12]
 8005c08:	6e1b      	ldr	r3, [r3, #96]	; 0x60
 8005c0a:	2b00      	cmp	r3, #0
 8005c0c:	d002      	beq.n	8005c14 <HAL_SPI_Transmit+0x2b0>
  {
    errorcode = HAL_ERROR;
 8005c0e:	2301      	movs	r3, #1
 8005c10:	77fb      	strb	r3, [r7, #31]
 8005c12:	e000      	b.n	8005c16 <HAL_SPI_Transmit+0x2b2>
  }

error:
 8005c14:	bf00      	nop
  hspi->State = HAL_SPI_STATE_READY;
 8005c16:	68fb      	ldr	r3, [r7, #12]
 8005c18:	2201      	movs	r2, #1
 8005c1a:	f883 205d 	strb.w	r2, [r3, #93]	; 0x5d
  /* Process Unlocked */
  __HAL_UNLOCK(hspi);
 8005c1e:	68fb      	ldr	r3, [r7, #12]
 8005c20:	2200      	movs	r2, #0
 8005c22:	f883 205c 	strb.w	r2, [r3, #92]	; 0x5c
  return errorcode;
 8005c26:	7ffb      	ldrb	r3, [r7, #31]
}
 8005c28:	4618      	mov	r0, r3
 8005c2a:	3720      	adds	r7, #32
 8005c2c:	46bd      	mov	sp, r7
 8005c2e:	bd80      	pop	{r7, pc}

08005c30 <HAL_SPI_Transmit_DMA>:
  * @param  pData pointer to data buffer
  * @param  Size amount of data to be sent
  * @retval HAL status
  */
HAL_StatusTypeDef HAL_SPI_Transmit_DMA(SPI_HandleTypeDef *hspi, uint8_t *pData, uint16_t Size)
{
 8005c30:	b580      	push	{r7, lr}
 8005c32:	b086      	sub	sp, #24
 8005c34:	af00      	add	r7, sp, #0
 8005c36:	60f8      	str	r0, [r7, #12]
 8005c38:	60b9      	str	r1, [r7, #8]
 8005c3a:	4613      	mov	r3, r2
 8005c3c:	80fb      	strh	r3, [r7, #6]
  HAL_StatusTypeDef errorcode = HAL_OK;
 8005c3e:	2300      	movs	r3, #0
 8005c40:	75fb      	strb	r3, [r7, #23]

  /* Check Direction parameter */
  assert_param(IS_SPI_DIRECTION_2LINES_OR_1LINE(hspi->Init.Direction));

  /* Process Locked */
  __HAL_LOCK(hspi);
 8005c42:	68fb      	ldr	r3, [r7, #12]
 8005c44:	f893 305c 	ldrb.w	r3, [r3, #92]	; 0x5c
 8005c48:	2b01      	cmp	r3, #1
 8005c4a:	d101      	bne.n	8005c50 <HAL_SPI_Transmit_DMA+0x20>
 8005c4c:	2302      	movs	r3, #2
 8005c4e:	e0d0      	b.n	8005df2 <HAL_SPI_Transmit_DMA+0x1c2>
 8005c50:	68fb      	ldr	r3, [r7, #12]
 8005c52:	2201      	movs	r2, #1
 8005c54:	f883 205c 	strb.w	r2, [r3, #92]	; 0x5c

  if (hspi->State != HAL_SPI_STATE_READY)
 8005c58:	68fb      	ldr	r3, [r7, #12]
 8005c5a:	f893 305d 	ldrb.w	r3, [r3, #93]	; 0x5d
 8005c5e:	b2db      	uxtb	r3, r3
 8005c60:	2b01      	cmp	r3, #1
 8005c62:	d002      	beq.n	8005c6a <HAL_SPI_Transmit_DMA+0x3a>
  {
    errorcode = HAL_BUSY;
 8005c64:	2302      	movs	r3, #2
 8005c66:	75fb      	strb	r3, [r7, #23]
    goto error;
 8005c68:	e0be      	b.n	8005de8 <HAL_SPI_Transmit_DMA+0x1b8>
  }

  if ((pData == NULL) || (Size == 0U))
 8005c6a:	68bb      	ldr	r3, [r7, #8]
 8005c6c:	2b00      	cmp	r3, #0
 8005c6e:	d002      	beq.n	8005c76 <HAL_SPI_Transmit_DMA+0x46>
 8005c70:	88fb      	ldrh	r3, [r7, #6]
 8005c72:	2b00      	cmp	r3, #0
 8005c74:	d102      	bne.n	8005c7c <HAL_SPI_Transmit_DMA+0x4c>
  {
    errorcode = HAL_ERROR;
 8005c76:	2301      	movs	r3, #1
 8005c78:	75fb      	strb	r3, [r7, #23]
    goto error;
 8005c7a:	e0b5      	b.n	8005de8 <HAL_SPI_Transmit_DMA+0x1b8>
  }

  /* Set the transaction information */
  hspi->State       = HAL_SPI_STATE_BUSY_TX;
 8005c7c:	68fb      	ldr	r3, [r7, #12]
 8005c7e:	2203      	movs	r2, #3
 8005c80:	f883 205d 	strb.w	r2, [r3, #93]	; 0x5d
  hspi->ErrorCode   = HAL_SPI_ERROR_NONE;
 8005c84:	68fb      	ldr	r3, [r7, #12]
 8005c86:	2200      	movs	r2, #0
 8005c88:	661a      	str	r2, [r3, #96]	; 0x60
  hspi->pTxBuffPtr  = (uint8_t *)pData;
 8005c8a:	68fb      	ldr	r3, [r7, #12]
 8005c8c:	68ba      	ldr	r2, [r7, #8]
 8005c8e:	639a      	str	r2, [r3, #56]	; 0x38
  hspi->TxXferSize  = Size;
 8005c90:	68fb      	ldr	r3, [r7, #12]
 8005c92:	88fa      	ldrh	r2, [r7, #6]
 8005c94:	879a      	strh	r2, [r3, #60]	; 0x3c
  hspi->TxXferCount = Size;
 8005c96:	68fb      	ldr	r3, [r7, #12]
 8005c98:	88fa      	ldrh	r2, [r7, #6]
 8005c9a:	87da      	strh	r2, [r3, #62]	; 0x3e

  /* Init field not used in handle to zero */
  hspi->pRxBuffPtr  = (uint8_t *)NULL;
 8005c9c:	68fb      	ldr	r3, [r7, #12]
 8005c9e:	2200      	movs	r2, #0
 8005ca0:	641a      	str	r2, [r3, #64]	; 0x40
  hspi->TxISR       = NULL;
 8005ca2:	68fb      	ldr	r3, [r7, #12]
 8005ca4:	2200      	movs	r2, #0
 8005ca6:	651a      	str	r2, [r3, #80]	; 0x50
  hspi->RxISR       = NULL;
 8005ca8:	68fb      	ldr	r3, [r7, #12]
 8005caa:	2200      	movs	r2, #0
 8005cac:	64da      	str	r2, [r3, #76]	; 0x4c
  hspi->RxXferSize  = 0U;
 8005cae:	68fb      	ldr	r3, [r7, #12]
 8005cb0:	2200      	movs	r2, #0
 8005cb2:	f8a3 2044 	strh.w	r2, [r3, #68]	; 0x44
  hspi->RxXferCount = 0U;
 8005cb6:	68fb      	ldr	r3, [r7, #12]
 8005cb8:	2200      	movs	r2, #0
 8005cba:	f8a3 2046 	strh.w	r2, [r3, #70]	; 0x46

  /* Configure communication direction : 1Line */
  if (hspi->Init.Direction == SPI_DIRECTION_1LINE)
 8005cbe:	68fb      	ldr	r3, [r7, #12]
 8005cc0:	689b      	ldr	r3, [r3, #8]
 8005cc2:	f5b3 4f00 	cmp.w	r3, #32768	; 0x8000
 8005cc6:	d107      	bne.n	8005cd8 <HAL_SPI_Transmit_DMA+0xa8>
  {
    SPI_1LINE_TX(hspi);
 8005cc8:	68fb      	ldr	r3, [r7, #12]
 8005cca:	681b      	ldr	r3, [r3, #0]
 8005ccc:	681a      	ldr	r2, [r3, #0]
 8005cce:	68fb      	ldr	r3, [r7, #12]
 8005cd0:	681b      	ldr	r3, [r3, #0]
 8005cd2:	f442 4280 	orr.w	r2, r2, #16384	; 0x4000
 8005cd6:	601a      	str	r2, [r3, #0]
    SPI_RESET_CRC(hspi);
  }
#endif /* USE_SPI_CRC */

  /* Set the SPI TxDMA Half transfer complete callback */
  hspi->hdmatx->XferHalfCpltCallback = SPI_DMAHalfTransmitCplt;
 8005cd8:	68fb      	ldr	r3, [r7, #12]
 8005cda:	6d5b      	ldr	r3, [r3, #84]	; 0x54
 8005cdc:	4a47      	ldr	r2, [pc, #284]	; (8005dfc <HAL_SPI_Transmit_DMA+0x1cc>)
 8005cde:	631a      	str	r2, [r3, #48]	; 0x30

  /* Set the SPI TxDMA transfer complete callback */
  hspi->hdmatx->XferCpltCallback = SPI_DMATransmitCplt;
 8005ce0:	68fb      	ldr	r3, [r7, #12]
 8005ce2:	6d5b      	ldr	r3, [r3, #84]	; 0x54
 8005ce4:	4a46      	ldr	r2, [pc, #280]	; (8005e00 <HAL_SPI_Transmit_DMA+0x1d0>)
 8005ce6:	62da      	str	r2, [r3, #44]	; 0x2c

  /* Set the DMA error callback */
  hspi->hdmatx->XferErrorCallback = SPI_DMAError;
 8005ce8:	68fb      	ldr	r3, [r7, #12]
 8005cea:	6d5b      	ldr	r3, [r3, #84]	; 0x54
 8005cec:	4a45      	ldr	r2, [pc, #276]	; (8005e04 <HAL_SPI_Transmit_DMA+0x1d4>)
 8005cee:	635a      	str	r2, [r3, #52]	; 0x34

  /* Set the DMA AbortCpltCallback */
  hspi->hdmatx->XferAbortCallback = NULL;
 8005cf0:	68fb      	ldr	r3, [r7, #12]
 8005cf2:	6d5b      	ldr	r3, [r3, #84]	; 0x54
 8005cf4:	2200      	movs	r2, #0
 8005cf6:	639a      	str	r2, [r3, #56]	; 0x38

  CLEAR_BIT(hspi->Instance->CR2, SPI_CR2_LDMATX);
 8005cf8:	68fb      	ldr	r3, [r7, #12]
 8005cfa:	681b      	ldr	r3, [r3, #0]
 8005cfc:	685a      	ldr	r2, [r3, #4]
 8005cfe:	68fb      	ldr	r3, [r7, #12]
 8005d00:	681b      	ldr	r3, [r3, #0]
 8005d02:	f422 4280 	bic.w	r2, r2, #16384	; 0x4000
 8005d06:	605a      	str	r2, [r3, #4]
  /* Packing mode is enabled only if the DMA setting is HALWORD */
  if ((hspi->Init.DataSize <= SPI_DATASIZE_8BIT) && (hspi->hdmatx->Init.MemDataAlignment == DMA_MDATAALIGN_HALFWORD))
 8005d08:	68fb      	ldr	r3, [r7, #12]
 8005d0a:	68db      	ldr	r3, [r3, #12]
 8005d0c:	f5b3 6fe0 	cmp.w	r3, #1792	; 0x700
 8005d10:	d82d      	bhi.n	8005d6e <HAL_SPI_Transmit_DMA+0x13e>
 8005d12:	68fb      	ldr	r3, [r7, #12]
 8005d14:	6d5b      	ldr	r3, [r3, #84]	; 0x54
 8005d16:	699b      	ldr	r3, [r3, #24]
 8005d18:	f5b3 6f80 	cmp.w	r3, #1024	; 0x400
 8005d1c:	d127      	bne.n	8005d6e <HAL_SPI_Transmit_DMA+0x13e>
  {
    /* Check the even/odd of the data size + crc if enabled */
    if ((hspi->TxXferCount & 0x1U) == 0U)
 8005d1e:	68fb      	ldr	r3, [r7, #12]
 8005d20:	8fdb      	ldrh	r3, [r3, #62]	; 0x3e
 8005d22:	b29b      	uxth	r3, r3
 8005d24:	f003 0301 	and.w	r3, r3, #1
 8005d28:	2b00      	cmp	r3, #0
 8005d2a:	d10f      	bne.n	8005d4c <HAL_SPI_Transmit_DMA+0x11c>
    {
      CLEAR_BIT(hspi->Instance->CR2, SPI_CR2_LDMATX);
 8005d2c:	68fb      	ldr	r3, [r7, #12]
 8005d2e:	681b      	ldr	r3, [r3, #0]
 8005d30:	685a      	ldr	r2, [r3, #4]
 8005d32:	68fb      	ldr	r3, [r7, #12]
 8005d34:	681b      	ldr	r3, [r3, #0]
 8005d36:	f422 4280 	bic.w	r2, r2, #16384	; 0x4000
 8005d3a:	605a      	str	r2, [r3, #4]
      hspi->TxXferCount = (hspi->TxXferCount >> 1U);
 8005d3c:	68fb      	ldr	r3, [r7, #12]
 8005d3e:	8fdb      	ldrh	r3, [r3, #62]	; 0x3e
 8005d40:	b29b      	uxth	r3, r3
 8005d42:	085b      	lsrs	r3, r3, #1
 8005d44:	b29a      	uxth	r2, r3
 8005d46:	68fb      	ldr	r3, [r7, #12]
 8005d48:	87da      	strh	r2, [r3, #62]	; 0x3e
 8005d4a:	e010      	b.n	8005d6e <HAL_SPI_Transmit_DMA+0x13e>
    }
    else
    {
      SET_BIT(hspi->Instance->CR2, SPI_CR2_LDMATX);
 8005d4c:	68fb      	ldr	r3, [r7, #12]
 8005d4e:	681b      	ldr	r3, [r3, #0]
 8005d50:	685a      	ldr	r2, [r3, #4]
 8005d52:	68fb      	ldr	r3, [r7, #12]
 8005d54:	681b      	ldr	r3, [r3, #0]
 8005d56:	f442 4280 	orr.w	r2, r2, #16384	; 0x4000
 8005d5a:	605a      	str	r2, [r3, #4]
      hspi->TxXferCount = (hspi->TxXferCount >> 1U) + 1U;
 8005d5c:	68fb      	ldr	r3, [r7, #12]
 8005d5e:	8fdb      	ldrh	r3, [r3, #62]	; 0x3e
 8005d60:	b29b      	uxth	r3, r3
 8005d62:	085b      	lsrs	r3, r3, #1
 8005d64:	b29b      	uxth	r3, r3
 8005d66:	3301      	adds	r3, #1
 8005d68:	b29a      	uxth	r2, r3
 8005d6a:	68fb      	ldr	r3, [r7, #12]
 8005d6c:	87da      	strh	r2, [r3, #62]	; 0x3e
    }
  }

  /* Enable the Tx DMA Stream/Channel */
  if (HAL_OK != HAL_DMA_Start_IT(hspi->hdmatx, (uint32_t)hspi->pTxBuffPtr, (uint32_t)&hspi->Instance->DR,
 8005d6e:	68fb      	ldr	r3, [r7, #12]
 8005d70:	6d58      	ldr	r0, [r3, #84]	; 0x54
 8005d72:	68fb      	ldr	r3, [r7, #12]
 8005d74:	6b9b      	ldr	r3, [r3, #56]	; 0x38
 8005d76:	4619      	mov	r1, r3
 8005d78:	68fb      	ldr	r3, [r7, #12]
 8005d7a:	681b      	ldr	r3, [r3, #0]
 8005d7c:	330c      	adds	r3, #12
 8005d7e:	461a      	mov	r2, r3
                                 hspi->TxXferCount))
 8005d80:	68fb      	ldr	r3, [r7, #12]
 8005d82:	8fdb      	ldrh	r3, [r3, #62]	; 0x3e
 8005d84:	b29b      	uxth	r3, r3
  if (HAL_OK != HAL_DMA_Start_IT(hspi->hdmatx, (uint32_t)hspi->pTxBuffPtr, (uint32_t)&hspi->Instance->DR,
 8005d86:	f7fe f9e7 	bl	8004158 <HAL_DMA_Start_IT>
 8005d8a:	4603      	mov	r3, r0
 8005d8c:	2b00      	cmp	r3, #0
 8005d8e:	d00c      	beq.n	8005daa <HAL_SPI_Transmit_DMA+0x17a>
  {
    /* Update SPI error code */
    SET_BIT(hspi->ErrorCode, HAL_SPI_ERROR_DMA);
 8005d90:	68fb      	ldr	r3, [r7, #12]
 8005d92:	6e1b      	ldr	r3, [r3, #96]	; 0x60
 8005d94:	f043 0210 	orr.w	r2, r3, #16
 8005d98:	68fb      	ldr	r3, [r7, #12]
 8005d9a:	661a      	str	r2, [r3, #96]	; 0x60
    errorcode = HAL_ERROR;
 8005d9c:	2301      	movs	r3, #1
 8005d9e:	75fb      	strb	r3, [r7, #23]

    hspi->State = HAL_SPI_STATE_READY;
 8005da0:	68fb      	ldr	r3, [r7, #12]
 8005da2:	2201      	movs	r2, #1
 8005da4:	f883 205d 	strb.w	r2, [r3, #93]	; 0x5d
    goto error;
 8005da8:	e01e      	b.n	8005de8 <HAL_SPI_Transmit_DMA+0x1b8>
  }

  /* Check if the SPI is already enabled */
  if ((hspi->Instance->CR1 & SPI_CR1_SPE) != SPI_CR1_SPE)
 8005daa:	68fb      	ldr	r3, [r7, #12]
 8005dac:	681b      	ldr	r3, [r3, #0]
 8005dae:	681b      	ldr	r3, [r3, #0]
 8005db0:	f003 0340 	and.w	r3, r3, #64	; 0x40
 8005db4:	2b40      	cmp	r3, #64	; 0x40
 8005db6:	d007      	beq.n	8005dc8 <HAL_SPI_Transmit_DMA+0x198>
  {
    /* Enable SPI peripheral */
    __HAL_SPI_ENABLE(hspi);
 8005db8:	68fb      	ldr	r3, [r7, #12]
 8005dba:	681b      	ldr	r3, [r3, #0]
 8005dbc:	681a      	ldr	r2, [r3, #0]
 8005dbe:	68fb      	ldr	r3, [r7, #12]
 8005dc0:	681b      	ldr	r3, [r3, #0]
 8005dc2:	f042 0240 	orr.w	r2, r2, #64	; 0x40
 8005dc6:	601a      	str	r2, [r3, #0]
  }

  /* Enable the SPI Error Interrupt Bit */
  __HAL_SPI_ENABLE_IT(hspi, (SPI_IT_ERR));
 8005dc8:	68fb      	ldr	r3, [r7, #12]
 8005dca:	681b      	ldr	r3, [r3, #0]
 8005dcc:	685a      	ldr	r2, [r3, #4]
 8005dce:	68fb      	ldr	r3, [r7, #12]
 8005dd0:	681b      	ldr	r3, [r3, #0]
 8005dd2:	f042 0220 	orr.w	r2, r2, #32
 8005dd6:	605a      	str	r2, [r3, #4]

  /* Enable Tx DMA Request */
  SET_BIT(hspi->Instance->CR2, SPI_CR2_TXDMAEN);
 8005dd8:	68fb      	ldr	r3, [r7, #12]
 8005dda:	681b      	ldr	r3, [r3, #0]
 8005ddc:	685a      	ldr	r2, [r3, #4]
 8005dde:	68fb      	ldr	r3, [r7, #12]
 8005de0:	681b      	ldr	r3, [r3, #0]
 8005de2:	f042 0202 	orr.w	r2, r2, #2
 8005de6:	605a      	str	r2, [r3, #4]

error :
  /* Process Unlocked */
  __HAL_UNLOCK(hspi);
 8005de8:	68fb      	ldr	r3, [r7, #12]
 8005dea:	2200      	movs	r2, #0
 8005dec:	f883 205c 	strb.w	r2, [r3, #92]	; 0x5c
  return errorcode;
 8005df0:	7dfb      	ldrb	r3, [r7, #23]
}
 8005df2:	4618      	mov	r0, r3
 8005df4:	3718      	adds	r7, #24
 8005df6:	46bd      	mov	sp, r7
 8005df8:	bd80      	pop	{r7, pc}
 8005dfa:	bf00      	nop
 8005dfc:	08005eeb 	.word	0x08005eeb
 8005e00:	08005e45 	.word	0x08005e45
 8005e04:	08005f07 	.word	0x08005f07

08005e08 <HAL_SPI_TxCpltCallback>:
  * @param  hspi pointer to a SPI_HandleTypeDef structure that contains
  *               the configuration information for SPI module.
  * @retval None
  */
__weak void HAL_SPI_TxCpltCallback(SPI_HandleTypeDef *hspi)
{
 8005e08:	b480      	push	{r7}
 8005e0a:	b083      	sub	sp, #12
 8005e0c:	af00      	add	r7, sp, #0
 8005e0e:	6078      	str	r0, [r7, #4]
  UNUSED(hspi);

  /* NOTE : This function should not be modified, when the callback is needed,
            the HAL_SPI_TxCpltCallback should be implemented in the user file
   */
}
 8005e10:	bf00      	nop
 8005e12:	370c      	adds	r7, #12
 8005e14:	46bd      	mov	sp, r7
 8005e16:	f85d 7b04 	ldr.w	r7, [sp], #4
 8005e1a:	4770      	bx	lr

08005e1c <HAL_SPI_TxHalfCpltCallback>:
  * @param  hspi pointer to a SPI_HandleTypeDef structure that contains
  *               the configuration information for SPI module.
  * @retval None
  */
__weak void HAL_SPI_TxHalfCpltCallback(SPI_HandleTypeDef *hspi)
{
 8005e1c:	b480      	push	{r7}
 8005e1e:	b083      	sub	sp, #12
 8005e20:	af00      	add	r7, sp, #0
 8005e22:	6078      	str	r0, [r7, #4]
  UNUSED(hspi);

  /* NOTE : This function should not be modified, when the callback is needed,
            the HAL_SPI_TxHalfCpltCallback should be implemented in the user file
   */
}
 8005e24:	bf00      	nop
 8005e26:	370c      	adds	r7, #12
 8005e28:	46bd      	mov	sp, r7
 8005e2a:	f85d 7b04 	ldr.w	r7, [sp], #4
 8005e2e:	4770      	bx	lr

08005e30 <HAL_SPI_ErrorCallback>:
  * @param  hspi pointer to a SPI_HandleTypeDef structure that contains
  *               the configuration information for SPI module.
  * @retval None
  */
__weak void HAL_SPI_ErrorCallback(SPI_HandleTypeDef *hspi)
{
 8005e30:	b480      	push	{r7}
 8005e32:	b083      	sub	sp, #12
 8005e34:	af00      	add	r7, sp, #0
 8005e36:	6078      	str	r0, [r7, #4]
            the HAL_SPI_ErrorCallback should be implemented in the user file
   */
  /* NOTE : The ErrorCode parameter in the hspi handle is updated by the SPI processes
            and user can use HAL_SPI_GetError() API to check the latest error occurred
   */
}
 8005e38:	bf00      	nop
 8005e3a:	370c      	adds	r7, #12
 8005e3c:	46bd      	mov	sp, r7
 8005e3e:	f85d 7b04 	ldr.w	r7, [sp], #4
 8005e42:	4770      	bx	lr

08005e44 <SPI_DMATransmitCplt>:
  * @param  hdma pointer to a DMA_HandleTypeDef structure that contains
  *               the configuration information for the specified DMA module.
  * @retval None
  */
static void SPI_DMATransmitCplt(DMA_HandleTypeDef *hdma)
{
 8005e44:	b580      	push	{r7, lr}
 8005e46:	b086      	sub	sp, #24
 8005e48:	af00      	add	r7, sp, #0
 8005e4a:	6078      	str	r0, [r7, #4]
  SPI_HandleTypeDef *hspi = (SPI_HandleTypeDef *)(((DMA_HandleTypeDef *)hdma)->Parent); /* Derogation MISRAC2012-Rule-11.5 */
 8005e4c:	687b      	ldr	r3, [r7, #4]
 8005e4e:	6a9b      	ldr	r3, [r3, #40]	; 0x28
 8005e50:	617b      	str	r3, [r7, #20]
  uint32_t tickstart;

  /* Init tickstart for timeout management*/
  tickstart = HAL_GetTick();
 8005e52:	f7fc f8a9 	bl	8001fa8 <HAL_GetTick>
 8005e56:	6138      	str	r0, [r7, #16]

  /* DMA Normal Mode */
  if ((hdma->Instance->CCR & DMA_CCR_CIRC) != DMA_CCR_CIRC)
 8005e58:	687b      	ldr	r3, [r7, #4]
 8005e5a:	681b      	ldr	r3, [r3, #0]
 8005e5c:	681b      	ldr	r3, [r3, #0]
 8005e5e:	f003 0320 	and.w	r3, r3, #32
 8005e62:	2b20      	cmp	r3, #32
 8005e64:	d03b      	beq.n	8005ede <SPI_DMATransmitCplt+0x9a>
  {
    /* Disable ERR interrupt */
    __HAL_SPI_DISABLE_IT(hspi, SPI_IT_ERR);
 8005e66:	697b      	ldr	r3, [r7, #20]
 8005e68:	681b      	ldr	r3, [r3, #0]
 8005e6a:	685a      	ldr	r2, [r3, #4]
 8005e6c:	697b      	ldr	r3, [r7, #20]
 8005e6e:	681b      	ldr	r3, [r3, #0]
 8005e70:	f022 0220 	bic.w	r2, r2, #32
 8005e74:	605a      	str	r2, [r3, #4]

    /* Disable Tx DMA Request */
    CLEAR_BIT(hspi->Instance->CR2, SPI_CR2_TXDMAEN);
 8005e76:	697b      	ldr	r3, [r7, #20]
 8005e78:	681b      	ldr	r3, [r3, #0]
 8005e7a:	685a      	ldr	r2, [r3, #4]
 8005e7c:	697b      	ldr	r3, [r7, #20]
 8005e7e:	681b      	ldr	r3, [r3, #0]
 8005e80:	f022 0202 	bic.w	r2, r2, #2
 8005e84:	605a      	str	r2, [r3, #4]

    /* Check the end of the transaction */
    if (SPI_EndRxTxTransaction(hspi, SPI_DEFAULT_TIMEOUT, tickstart) != HAL_OK)
 8005e86:	693a      	ldr	r2, [r7, #16]
 8005e88:	2164      	movs	r1, #100	; 0x64
 8005e8a:	6978      	ldr	r0, [r7, #20]
 8005e8c:	f000 f932 	bl	80060f4 <SPI_EndRxTxTransaction>
 8005e90:	4603      	mov	r3, r0
 8005e92:	2b00      	cmp	r3, #0
 8005e94:	d005      	beq.n	8005ea2 <SPI_DMATransmitCplt+0x5e>
    {
      SET_BIT(hspi->ErrorCode, HAL_SPI_ERROR_FLAG);
 8005e96:	697b      	ldr	r3, [r7, #20]
 8005e98:	6e1b      	ldr	r3, [r3, #96]	; 0x60
 8005e9a:	f043 0220 	orr.w	r2, r3, #32
 8005e9e:	697b      	ldr	r3, [r7, #20]
 8005ea0:	661a      	str	r2, [r3, #96]	; 0x60
    }

    /* Clear overrun flag in 2 Lines communication mode because received data is not read */
    if (hspi->Init.Direction == SPI_DIRECTION_2LINES)
 8005ea2:	697b      	ldr	r3, [r7, #20]
 8005ea4:	689b      	ldr	r3, [r3, #8]
 8005ea6:	2b00      	cmp	r3, #0
 8005ea8:	d10a      	bne.n	8005ec0 <SPI_DMATransmitCplt+0x7c>
    {
      __HAL_SPI_CLEAR_OVRFLAG(hspi);
 8005eaa:	2300      	movs	r3, #0
 8005eac:	60fb      	str	r3, [r7, #12]
 8005eae:	697b      	ldr	r3, [r7, #20]
 8005eb0:	681b      	ldr	r3, [r3, #0]
 8005eb2:	68db      	ldr	r3, [r3, #12]
 8005eb4:	60fb      	str	r3, [r7, #12]
 8005eb6:	697b      	ldr	r3, [r7, #20]
 8005eb8:	681b      	ldr	r3, [r3, #0]
 8005eba:	689b      	ldr	r3, [r3, #8]
 8005ebc:	60fb      	str	r3, [r7, #12]
 8005ebe:	68fb      	ldr	r3, [r7, #12]
    }

    hspi->TxXferCount = 0U;
 8005ec0:	697b      	ldr	r3, [r7, #20]
 8005ec2:	2200      	movs	r2, #0
 8005ec4:	87da      	strh	r2, [r3, #62]	; 0x3e
    hspi->State = HAL_SPI_STATE_READY;
 8005ec6:	697b      	ldr	r3, [r7, #20]
 8005ec8:	2201      	movs	r2, #1
 8005eca:	f883 205d 	strb.w	r2, [r3, #93]	; 0x5d

    if (hspi->ErrorCode != HAL_SPI_ERROR_NONE)
 8005ece:	697b      	ldr	r3, [r7, #20]
 8005ed0:	6e1b      	ldr	r3, [r3, #96]	; 0x60
 8005ed2:	2b00      	cmp	r3, #0
 8005ed4:	d003      	beq.n	8005ede <SPI_DMATransmitCplt+0x9a>
    {
      /* Call user error callback */
#if (USE_HAL_SPI_REGISTER_CALLBACKS == 1U)
      hspi->ErrorCallback(hspi);
#else
      HAL_SPI_ErrorCallback(hspi);
 8005ed6:	6978      	ldr	r0, [r7, #20]
 8005ed8:	f7ff ffaa 	bl	8005e30 <HAL_SPI_ErrorCallback>
#endif /* USE_HAL_SPI_REGISTER_CALLBACKS */
      return;
 8005edc:	e002      	b.n	8005ee4 <SPI_DMATransmitCplt+0xa0>
  }
  /* Call user Tx complete callback */
#if (USE_HAL_SPI_REGISTER_CALLBACKS == 1U)
  hspi->TxCpltCallback(hspi);
#else
  HAL_SPI_TxCpltCallback(hspi);
 8005ede:	6978      	ldr	r0, [r7, #20]
 8005ee0:	f7ff ff92 	bl	8005e08 <HAL_SPI_TxCpltCallback>
#endif /* USE_HAL_SPI_REGISTER_CALLBACKS */
}
 8005ee4:	3718      	adds	r7, #24
 8005ee6:	46bd      	mov	sp, r7
 8005ee8:	bd80      	pop	{r7, pc}

08005eea <SPI_DMAHalfTransmitCplt>:
  * @param  hdma pointer to a DMA_HandleTypeDef structure that contains
  *               the configuration information for the specified DMA module.
  * @retval None
  */
static void SPI_DMAHalfTransmitCplt(DMA_HandleTypeDef *hdma)
{
 8005eea:	b580      	push	{r7, lr}
 8005eec:	b084      	sub	sp, #16
 8005eee:	af00      	add	r7, sp, #0
 8005ef0:	6078      	str	r0, [r7, #4]
  SPI_HandleTypeDef *hspi = (SPI_HandleTypeDef *)(((DMA_HandleTypeDef *)hdma)->Parent); /* Derogation MISRAC2012-Rule-11.5 */
 8005ef2:	687b      	ldr	r3, [r7, #4]
 8005ef4:	6a9b      	ldr	r3, [r3, #40]	; 0x28
 8005ef6:	60fb      	str	r3, [r7, #12]

  /* Call user Tx half complete callback */
#if (USE_HAL_SPI_REGISTER_CALLBACKS == 1U)
  hspi->TxHalfCpltCallback(hspi);
#else
  HAL_SPI_TxHalfCpltCallback(hspi);
 8005ef8:	68f8      	ldr	r0, [r7, #12]
 8005efa:	f7ff ff8f 	bl	8005e1c <HAL_SPI_TxHalfCpltCallback>
#endif /* USE_HAL_SPI_REGISTER_CALLBACKS */
}
 8005efe:	bf00      	nop
 8005f00:	3710      	adds	r7, #16
 8005f02:	46bd      	mov	sp, r7
 8005f04:	bd80      	pop	{r7, pc}

08005f06 <SPI_DMAError>:
  * @param  hdma pointer to a DMA_HandleTypeDef structure that contains
  *               the configuration information for the specified DMA module.
  * @retval None
  */
static void SPI_DMAError(DMA_HandleTypeDef *hdma)
{
 8005f06:	b580      	push	{r7, lr}
 8005f08:	b084      	sub	sp, #16
 8005f0a:	af00      	add	r7, sp, #0
 8005f0c:	6078      	str	r0, [r7, #4]
  SPI_HandleTypeDef *hspi = (SPI_HandleTypeDef *)(((DMA_HandleTypeDef *)hdma)->Parent); /* Derogation MISRAC2012-Rule-11.5 */
 8005f0e:	687b      	ldr	r3, [r7, #4]
 8005f10:	6a9b      	ldr	r3, [r3, #40]	; 0x28
 8005f12:	60fb      	str	r3, [r7, #12]

  /* Stop the disable DMA transfer on SPI side */
  CLEAR_BIT(hspi->Instance->CR2, SPI_CR2_TXDMAEN | SPI_CR2_RXDMAEN);
 8005f14:	68fb      	ldr	r3, [r7, #12]
 8005f16:	681b      	ldr	r3, [r3, #0]
 8005f18:	685a      	ldr	r2, [r3, #4]
 8005f1a:	68fb      	ldr	r3, [r7, #12]
 8005f1c:	681b      	ldr	r3, [r3, #0]
 8005f1e:	f022 0203 	bic.w	r2, r2, #3
 8005f22:	605a      	str	r2, [r3, #4]

  SET_BIT(hspi->ErrorCode, HAL_SPI_ERROR_DMA);
 8005f24:	68fb      	ldr	r3, [r7, #12]
 8005f26:	6e1b      	ldr	r3, [r3, #96]	; 0x60
 8005f28:	f043 0210 	orr.w	r2, r3, #16
 8005f2c:	68fb      	ldr	r3, [r7, #12]
 8005f2e:	661a      	str	r2, [r3, #96]	; 0x60
  hspi->State = HAL_SPI_STATE_READY;
 8005f30:	68fb      	ldr	r3, [r7, #12]
 8005f32:	2201      	movs	r2, #1
 8005f34:	f883 205d 	strb.w	r2, [r3, #93]	; 0x5d
  /* Call user error callback */
#if (USE_HAL_SPI_REGISTER_CALLBACKS == 1U)
  hspi->ErrorCallback(hspi);
#else
  HAL_SPI_ErrorCallback(hspi);
 8005f38:	68f8      	ldr	r0, [r7, #12]
 8005f3a:	f7ff ff79 	bl	8005e30 <HAL_SPI_ErrorCallback>
#endif /* USE_HAL_SPI_REGISTER_CALLBACKS */
}
 8005f3e:	bf00      	nop
 8005f40:	3710      	adds	r7, #16
 8005f42:	46bd      	mov	sp, r7
 8005f44:	bd80      	pop	{r7, pc}

08005f46 <SPI_WaitFlagStateUntilTimeout>:
  * @param  Tickstart tick start value
  * @retval HAL status
  */
static HAL_StatusTypeDef SPI_WaitFlagStateUntilTimeout(SPI_HandleTypeDef *hspi, uint32_t Flag, FlagStatus State,
                                                       uint32_t Timeout, uint32_t Tickstart)
{
 8005f46:	b580      	push	{r7, lr}
 8005f48:	b084      	sub	sp, #16
 8005f4a:	af00      	add	r7, sp, #0
 8005f4c:	60f8      	str	r0, [r7, #12]
 8005f4e:	60b9      	str	r1, [r7, #8]
 8005f50:	603b      	str	r3, [r7, #0]
 8005f52:	4613      	mov	r3, r2
 8005f54:	71fb      	strb	r3, [r7, #7]
  while ((__HAL_SPI_GET_FLAG(hspi, Flag) ? SET : RESET) != State)
 8005f56:	e04c      	b.n	8005ff2 <SPI_WaitFlagStateUntilTimeout+0xac>
  {
    if (Timeout != HAL_MAX_DELAY)
 8005f58:	683b      	ldr	r3, [r7, #0]
 8005f5a:	f1b3 3fff 	cmp.w	r3, #4294967295	; 0xffffffff
 8005f5e:	d048      	beq.n	8005ff2 <SPI_WaitFlagStateUntilTimeout+0xac>
    {
      if (((HAL_GetTick() - Tickstart) >= Timeout) || (Timeout == 0U))
 8005f60:	f7fc f822 	bl	8001fa8 <HAL_GetTick>
 8005f64:	4602      	mov	r2, r0
 8005f66:	69bb      	ldr	r3, [r7, #24]
 8005f68:	1ad3      	subs	r3, r2, r3
 8005f6a:	683a      	ldr	r2, [r7, #0]
 8005f6c:	429a      	cmp	r2, r3
 8005f6e:	d902      	bls.n	8005f76 <SPI_WaitFlagStateUntilTimeout+0x30>
 8005f70:	683b      	ldr	r3, [r7, #0]
 8005f72:	2b00      	cmp	r3, #0
 8005f74:	d13d      	bne.n	8005ff2 <SPI_WaitFlagStateUntilTimeout+0xac>
        /* Disable the SPI and reset the CRC: the CRC value should be cleared
        on both master and slave sides in order to resynchronize the master
        and slave for their respective CRC calculation */

        /* Disable TXE, RXNE and ERR interrupts for the interrupt process */
        __HAL_SPI_DISABLE_IT(hspi, (SPI_IT_TXE | SPI_IT_RXNE | SPI_IT_ERR));
 8005f76:	68fb      	ldr	r3, [r7, #12]
 8005f78:	681b      	ldr	r3, [r3, #0]
 8005f7a:	685a      	ldr	r2, [r3, #4]
 8005f7c:	68fb      	ldr	r3, [r7, #12]
 8005f7e:	681b      	ldr	r3, [r3, #0]
 8005f80:	f022 02e0 	bic.w	r2, r2, #224	; 0xe0
 8005f84:	605a      	str	r2, [r3, #4]

        if ((hspi->Init.Mode == SPI_MODE_MASTER) && ((hspi->Init.Direction == SPI_DIRECTION_1LINE)
 8005f86:	68fb      	ldr	r3, [r7, #12]
 8005f88:	685b      	ldr	r3, [r3, #4]
 8005f8a:	f5b3 7f82 	cmp.w	r3, #260	; 0x104
 8005f8e:	d111      	bne.n	8005fb4 <SPI_WaitFlagStateUntilTimeout+0x6e>
 8005f90:	68fb      	ldr	r3, [r7, #12]
 8005f92:	689b      	ldr	r3, [r3, #8]
 8005f94:	f5b3 4f00 	cmp.w	r3, #32768	; 0x8000
 8005f98:	d004      	beq.n	8005fa4 <SPI_WaitFlagStateUntilTimeout+0x5e>
                                                     || (hspi->Init.Direction == SPI_DIRECTION_2LINES_RXONLY)))
 8005f9a:	68fb      	ldr	r3, [r7, #12]
 8005f9c:	689b      	ldr	r3, [r3, #8]
 8005f9e:	f5b3 6f80 	cmp.w	r3, #1024	; 0x400
 8005fa2:	d107      	bne.n	8005fb4 <SPI_WaitFlagStateUntilTimeout+0x6e>
        {
          /* Disable SPI peripheral */
          __HAL_SPI_DISABLE(hspi);
 8005fa4:	68fb      	ldr	r3, [r7, #12]
 8005fa6:	681b      	ldr	r3, [r3, #0]
 8005fa8:	681a      	ldr	r2, [r3, #0]
 8005faa:	68fb      	ldr	r3, [r7, #12]
 8005fac:	681b      	ldr	r3, [r3, #0]
 8005fae:	f022 0240 	bic.w	r2, r2, #64	; 0x40
 8005fb2:	601a      	str	r2, [r3, #0]
        }

        /* Reset CRC Calculation */
        if (hspi->Init.CRCCalculation == SPI_CRCCALCULATION_ENABLE)
 8005fb4:	68fb      	ldr	r3, [r7, #12]
 8005fb6:	6a9b      	ldr	r3, [r3, #40]	; 0x28
 8005fb8:	f5b3 5f00 	cmp.w	r3, #8192	; 0x2000
 8005fbc:	d10f      	bne.n	8005fde <SPI_WaitFlagStateUntilTimeout+0x98>
        {
          SPI_RESET_CRC(hspi);
 8005fbe:	68fb      	ldr	r3, [r7, #12]
 8005fc0:	681b      	ldr	r3, [r3, #0]
 8005fc2:	681a      	ldr	r2, [r3, #0]
 8005fc4:	68fb      	ldr	r3, [r7, #12]
 8005fc6:	681b      	ldr	r3, [r3, #0]
 8005fc8:	f422 5200 	bic.w	r2, r2, #8192	; 0x2000
 8005fcc:	601a      	str	r2, [r3, #0]
 8005fce:	68fb      	ldr	r3, [r7, #12]
 8005fd0:	681b      	ldr	r3, [r3, #0]
 8005fd2:	681a      	ldr	r2, [r3, #0]
 8005fd4:	68fb      	ldr	r3, [r7, #12]
 8005fd6:	681b      	ldr	r3, [r3, #0]
 8005fd8:	f442 5200 	orr.w	r2, r2, #8192	; 0x2000
 8005fdc:	601a      	str	r2, [r3, #0]
        }

        hspi->State = HAL_SPI_STATE_READY;
 8005fde:	68fb      	ldr	r3, [r7, #12]
 8005fe0:	2201      	movs	r2, #1
 8005fe2:	f883 205d 	strb.w	r2, [r3, #93]	; 0x5d

        /* Process Unlocked */
        __HAL_UNLOCK(hspi);
 8005fe6:	68fb      	ldr	r3, [r7, #12]
 8005fe8:	2200      	movs	r2, #0
 8005fea:	f883 205c 	strb.w	r2, [r3, #92]	; 0x5c

        return HAL_TIMEOUT;
 8005fee:	2303      	movs	r3, #3
 8005ff0:	e00f      	b.n	8006012 <SPI_WaitFlagStateUntilTimeout+0xcc>
  while ((__HAL_SPI_GET_FLAG(hspi, Flag) ? SET : RESET) != State)
 8005ff2:	68fb      	ldr	r3, [r7, #12]
 8005ff4:	681b      	ldr	r3, [r3, #0]
 8005ff6:	689a      	ldr	r2, [r3, #8]
 8005ff8:	68bb      	ldr	r3, [r7, #8]
 8005ffa:	4013      	ands	r3, r2
 8005ffc:	68ba      	ldr	r2, [r7, #8]
 8005ffe:	429a      	cmp	r2, r3
 8006000:	bf0c      	ite	eq
 8006002:	2301      	moveq	r3, #1
 8006004:	2300      	movne	r3, #0
 8006006:	b2db      	uxtb	r3, r3
 8006008:	461a      	mov	r2, r3
 800600a:	79fb      	ldrb	r3, [r7, #7]
 800600c:	429a      	cmp	r2, r3
 800600e:	d1a3      	bne.n	8005f58 <SPI_WaitFlagStateUntilTimeout+0x12>
      }
    }
  }

  return HAL_OK;
 8006010:	2300      	movs	r3, #0
}
 8006012:	4618      	mov	r0, r3
 8006014:	3710      	adds	r7, #16
 8006016:	46bd      	mov	sp, r7
 8006018:	bd80      	pop	{r7, pc}

0800601a <SPI_WaitFifoStateUntilTimeout>:
  * @param  Tickstart tick start value
  * @retval HAL status
  */
static HAL_StatusTypeDef SPI_WaitFifoStateUntilTimeout(SPI_HandleTypeDef *hspi, uint32_t Fifo, uint32_t State,
                                                       uint32_t Timeout, uint32_t Tickstart)
{
 800601a:	b580      	push	{r7, lr}
 800601c:	b084      	sub	sp, #16
 800601e:	af00      	add	r7, sp, #0
 8006020:	60f8      	str	r0, [r7, #12]
 8006022:	60b9      	str	r1, [r7, #8]
 8006024:	607a      	str	r2, [r7, #4]
 8006026:	603b      	str	r3, [r7, #0]
  while ((hspi->Instance->SR & Fifo) != State)
 8006028:	e057      	b.n	80060da <SPI_WaitFifoStateUntilTimeout+0xc0>
  {
    if ((Fifo == SPI_SR_FRLVL) && (State == SPI_FRLVL_EMPTY))
 800602a:	68bb      	ldr	r3, [r7, #8]
 800602c:	f5b3 6fc0 	cmp.w	r3, #1536	; 0x600
 8006030:	d106      	bne.n	8006040 <SPI_WaitFifoStateUntilTimeout+0x26>
 8006032:	687b      	ldr	r3, [r7, #4]
 8006034:	2b00      	cmp	r3, #0
 8006036:	d103      	bne.n	8006040 <SPI_WaitFifoStateUntilTimeout+0x26>
    {
      /* Read 8bit CRC to flush Data Register */
      READ_REG(*((__IO uint8_t *)&hspi->Instance->DR));
 8006038:	68fb      	ldr	r3, [r7, #12]
 800603a:	681b      	ldr	r3, [r3, #0]
 800603c:	330c      	adds	r3, #12
 800603e:	781b      	ldrb	r3, [r3, #0]
    }

    if (Timeout != HAL_MAX_DELAY)
 8006040:	683b      	ldr	r3, [r7, #0]
 8006042:	f1b3 3fff 	cmp.w	r3, #4294967295	; 0xffffffff
 8006046:	d048      	beq.n	80060da <SPI_WaitFifoStateUntilTimeout+0xc0>
    {
      if (((HAL_GetTick() - Tickstart) >= Timeout) || (Timeout == 0U))
 8006048:	f7fb ffae 	bl	8001fa8 <HAL_GetTick>
 800604c:	4602      	mov	r2, r0
 800604e:	69bb      	ldr	r3, [r7, #24]
 8006050:	1ad3      	subs	r3, r2, r3
 8006052:	683a      	ldr	r2, [r7, #0]
 8006054:	429a      	cmp	r2, r3
 8006056:	d902      	bls.n	800605e <SPI_WaitFifoStateUntilTimeout+0x44>
 8006058:	683b      	ldr	r3, [r7, #0]
 800605a:	2b00      	cmp	r3, #0
 800605c:	d13d      	bne.n	80060da <SPI_WaitFifoStateUntilTimeout+0xc0>
        /* Disable the SPI and reset the CRC: the CRC value should be cleared
           on both master and slave sides in order to resynchronize the master
           and slave for their respective CRC calculation */

        /* Disable TXE, RXNE and ERR interrupts for the interrupt process */
        __HAL_SPI_DISABLE_IT(hspi, (SPI_IT_TXE | SPI_IT_RXNE | SPI_IT_ERR));
 800605e:	68fb      	ldr	r3, [r7, #12]
 8006060:	681b      	ldr	r3, [r3, #0]
 8006062:	685a      	ldr	r2, [r3, #4]
 8006064:	68fb      	ldr	r3, [r7, #12]
 8006066:	681b      	ldr	r3, [r3, #0]
 8006068:	f022 02e0 	bic.w	r2, r2, #224	; 0xe0
 800606c:	605a      	str	r2, [r3, #4]

        if ((hspi->Init.Mode == SPI_MODE_MASTER) && ((hspi->Init.Direction == SPI_DIRECTION_1LINE)
 800606e:	68fb      	ldr	r3, [r7, #12]
 8006070:	685b      	ldr	r3, [r3, #4]
 8006072:	f5b3 7f82 	cmp.w	r3, #260	; 0x104
 8006076:	d111      	bne.n	800609c <SPI_WaitFifoStateUntilTimeout+0x82>
 8006078:	68fb      	ldr	r3, [r7, #12]
 800607a:	689b      	ldr	r3, [r3, #8]
 800607c:	f5b3 4f00 	cmp.w	r3, #32768	; 0x8000
 8006080:	d004      	beq.n	800608c <SPI_WaitFifoStateUntilTimeout+0x72>
                                                     || (hspi->Init.Direction == SPI_DIRECTION_2LINES_RXONLY)))
 8006082:	68fb      	ldr	r3, [r7, #12]
 8006084:	689b      	ldr	r3, [r3, #8]
 8006086:	f5b3 6f80 	cmp.w	r3, #1024	; 0x400
 800608a:	d107      	bne.n	800609c <SPI_WaitFifoStateUntilTimeout+0x82>
        {
          /* Disable SPI peripheral */
          __HAL_SPI_DISABLE(hspi);
 800608c:	68fb      	ldr	r3, [r7, #12]
 800608e:	681b      	ldr	r3, [r3, #0]
 8006090:	681a      	ldr	r2, [r3, #0]
 8006092:	68fb      	ldr	r3, [r7, #12]
 8006094:	681b      	ldr	r3, [r3, #0]
 8006096:	f022 0240 	bic.w	r2, r2, #64	; 0x40
 800609a:	601a      	str	r2, [r3, #0]
        }

        /* Reset CRC Calculation */
        if (hspi->Init.CRCCalculation == SPI_CRCCALCULATION_ENABLE)
 800609c:	68fb      	ldr	r3, [r7, #12]
 800609e:	6a9b      	ldr	r3, [r3, #40]	; 0x28
 80060a0:	f5b3 5f00 	cmp.w	r3, #8192	; 0x2000
 80060a4:	d10f      	bne.n	80060c6 <SPI_WaitFifoStateUntilTimeout+0xac>
        {
          SPI_RESET_CRC(hspi);
 80060a6:	68fb      	ldr	r3, [r7, #12]
 80060a8:	681b      	ldr	r3, [r3, #0]
 80060aa:	681a      	ldr	r2, [r3, #0]
 80060ac:	68fb      	ldr	r3, [r7, #12]
 80060ae:	681b      	ldr	r3, [r3, #0]
 80060b0:	f422 5200 	bic.w	r2, r2, #8192	; 0x2000
 80060b4:	601a      	str	r2, [r3, #0]
 80060b6:	68fb      	ldr	r3, [r7, #12]
 80060b8:	681b      	ldr	r3, [r3, #0]
 80060ba:	681a      	ldr	r2, [r3, #0]
 80060bc:	68fb      	ldr	r3, [r7, #12]
 80060be:	681b      	ldr	r3, [r3, #0]
 80060c0:	f442 5200 	orr.w	r2, r2, #8192	; 0x2000
 80060c4:	601a      	str	r2, [r3, #0]
        }

        hspi->State = HAL_SPI_STATE_READY;
 80060c6:	68fb      	ldr	r3, [r7, #12]
 80060c8:	2201      	movs	r2, #1
 80060ca:	f883 205d 	strb.w	r2, [r3, #93]	; 0x5d

        /* Process Unlocked */
        __HAL_UNLOCK(hspi);
 80060ce:	68fb      	ldr	r3, [r7, #12]
 80060d0:	2200      	movs	r2, #0
 80060d2:	f883 205c 	strb.w	r2, [r3, #92]	; 0x5c

        return HAL_TIMEOUT;
 80060d6:	2303      	movs	r3, #3
 80060d8:	e008      	b.n	80060ec <SPI_WaitFifoStateUntilTimeout+0xd2>
  while ((hspi->Instance->SR & Fifo) != State)
 80060da:	68fb      	ldr	r3, [r7, #12]
 80060dc:	681b      	ldr	r3, [r3, #0]
 80060de:	689a      	ldr	r2, [r3, #8]
 80060e0:	68bb      	ldr	r3, [r7, #8]
 80060e2:	4013      	ands	r3, r2
 80060e4:	687a      	ldr	r2, [r7, #4]
 80060e6:	429a      	cmp	r2, r3
 80060e8:	d19f      	bne.n	800602a <SPI_WaitFifoStateUntilTimeout+0x10>
      }
    }
  }

  return HAL_OK;
 80060ea:	2300      	movs	r3, #0
}
 80060ec:	4618      	mov	r0, r3
 80060ee:	3710      	adds	r7, #16
 80060f0:	46bd      	mov	sp, r7
 80060f2:	bd80      	pop	{r7, pc}

080060f4 <SPI_EndRxTxTransaction>:
  * @param  Timeout Timeout duration
  * @param  Tickstart tick start value
  * @retval HAL status
  */
static HAL_StatusTypeDef SPI_EndRxTxTransaction(SPI_HandleTypeDef *hspi, uint32_t Timeout, uint32_t Tickstart)
{
 80060f4:	b580      	push	{r7, lr}
 80060f6:	b086      	sub	sp, #24
 80060f8:	af02      	add	r7, sp, #8
 80060fa:	60f8      	str	r0, [r7, #12]
 80060fc:	60b9      	str	r1, [r7, #8]
 80060fe:	607a      	str	r2, [r7, #4]
  /* Control if the TX fifo is empty */
  if (SPI_WaitFifoStateUntilTimeout(hspi, SPI_FLAG_FTLVL, SPI_FTLVL_EMPTY, Timeout, Tickstart) != HAL_OK)
 8006100:	687b      	ldr	r3, [r7, #4]
 8006102:	9300      	str	r3, [sp, #0]
 8006104:	68bb      	ldr	r3, [r7, #8]
 8006106:	2200      	movs	r2, #0
 8006108:	f44f 51c0 	mov.w	r1, #6144	; 0x1800
 800610c:	68f8      	ldr	r0, [r7, #12]
 800610e:	f7ff ff84 	bl	800601a <SPI_WaitFifoStateUntilTimeout>
 8006112:	4603      	mov	r3, r0
 8006114:	2b00      	cmp	r3, #0
 8006116:	d007      	beq.n	8006128 <SPI_EndRxTxTransaction+0x34>
  {
    SET_BIT(hspi->ErrorCode, HAL_SPI_ERROR_FLAG);
 8006118:	68fb      	ldr	r3, [r7, #12]
 800611a:	6e1b      	ldr	r3, [r3, #96]	; 0x60
 800611c:	f043 0220 	orr.w	r2, r3, #32
 8006120:	68fb      	ldr	r3, [r7, #12]
 8006122:	661a      	str	r2, [r3, #96]	; 0x60
    return HAL_TIMEOUT;
 8006124:	2303      	movs	r3, #3
 8006126:	e027      	b.n	8006178 <SPI_EndRxTxTransaction+0x84>
  }

  /* Control the BSY flag */
  if (SPI_WaitFlagStateUntilTimeout(hspi, SPI_FLAG_BSY, RESET, Timeout, Tickstart) != HAL_OK)
 8006128:	687b      	ldr	r3, [r7, #4]
 800612a:	9300      	str	r3, [sp, #0]
 800612c:	68bb      	ldr	r3, [r7, #8]
 800612e:	2200      	movs	r2, #0
 8006130:	2180      	movs	r1, #128	; 0x80
 8006132:	68f8      	ldr	r0, [r7, #12]
 8006134:	f7ff ff07 	bl	8005f46 <SPI_WaitFlagStateUntilTimeout>
 8006138:	4603      	mov	r3, r0
 800613a:	2b00      	cmp	r3, #0
 800613c:	d007      	beq.n	800614e <SPI_EndRxTxTransaction+0x5a>
  {
    SET_BIT(hspi->ErrorCode, HAL_SPI_ERROR_FLAG);
 800613e:	68fb      	ldr	r3, [r7, #12]
 8006140:	6e1b      	ldr	r3, [r3, #96]	; 0x60
 8006142:	f043 0220 	orr.w	r2, r3, #32
 8006146:	68fb      	ldr	r3, [r7, #12]
 8006148:	661a      	str	r2, [r3, #96]	; 0x60
    return HAL_TIMEOUT;
 800614a:	2303      	movs	r3, #3
 800614c:	e014      	b.n	8006178 <SPI_EndRxTxTransaction+0x84>
  }

  /* Control if the RX fifo is empty */
  if (SPI_WaitFifoStateUntilTimeout(hspi, SPI_FLAG_FRLVL, SPI_FRLVL_EMPTY, Timeout, Tickstart) != HAL_OK)
 800614e:	687b      	ldr	r3, [r7, #4]
 8006150:	9300      	str	r3, [sp, #0]
 8006152:	68bb      	ldr	r3, [r7, #8]
 8006154:	2200      	movs	r2, #0
 8006156:	f44f 61c0 	mov.w	r1, #1536	; 0x600
 800615a:	68f8      	ldr	r0, [r7, #12]
 800615c:	f7ff ff5d 	bl	800601a <SPI_WaitFifoStateUntilTimeout>
 8006160:	4603      	mov	r3, r0
 8006162:	2b00      	cmp	r3, #0
 8006164:	d007      	beq.n	8006176 <SPI_EndRxTxTransaction+0x82>
  {
    SET_BIT(hspi->ErrorCode, HAL_SPI_ERROR_FLAG);
 8006166:	68fb      	ldr	r3, [r7, #12]
 8006168:	6e1b      	ldr	r3, [r3, #96]	; 0x60
 800616a:	f043 0220 	orr.w	r2, r3, #32
 800616e:	68fb      	ldr	r3, [r7, #12]
 8006170:	661a      	str	r2, [r3, #96]	; 0x60
    return HAL_TIMEOUT;
 8006172:	2303      	movs	r3, #3
 8006174:	e000      	b.n	8006178 <SPI_EndRxTxTransaction+0x84>
  }

  return HAL_OK;
 8006176:	2300      	movs	r3, #0
}
 8006178:	4618      	mov	r0, r3
 800617a:	3710      	adds	r7, #16
 800617c:	46bd      	mov	sp, r7
 800617e:	bd80      	pop	{r7, pc}

08006180 <HAL_TIM_Base_Init>:
  *         Ex: call @ref HAL_TIM_Base_DeInit() before HAL_TIM_Base_Init()
  * @param  htim TIM Base handle
  * @retval HAL status
  */
HAL_StatusTypeDef HAL_TIM_Base_Init(TIM_HandleTypeDef *htim)
{
 8006180:	b580      	push	{r7, lr}
 8006182:	b082      	sub	sp, #8
 8006184:	af00      	add	r7, sp, #0
 8006186:	6078      	str	r0, [r7, #4]
  /* Check the TIM handle allocation */
  if (htim == NULL)
 8006188:	687b      	ldr	r3, [r7, #4]
 800618a:	2b00      	cmp	r3, #0
 800618c:	d101      	bne.n	8006192 <HAL_TIM_Base_Init+0x12>
  {
    return HAL_ERROR;
 800618e:	2301      	movs	r3, #1
 8006190:	e049      	b.n	8006226 <HAL_TIM_Base_Init+0xa6>
  assert_param(IS_TIM_INSTANCE(htim->Instance));
  assert_param(IS_TIM_COUNTER_MODE(htim->Init.CounterMode));
  assert_param(IS_TIM_CLOCKDIVISION_DIV(htim->Init.ClockDivision));
  assert_param(IS_TIM_AUTORELOAD_PRELOAD(htim->Init.AutoReloadPreload));

  if (htim->State == HAL_TIM_STATE_RESET)
 8006192:	687b      	ldr	r3, [r7, #4]
 8006194:	f893 303d 	ldrb.w	r3, [r3, #61]	; 0x3d
 8006198:	b2db      	uxtb	r3, r3
 800619a:	2b00      	cmp	r3, #0
 800619c:	d106      	bne.n	80061ac <HAL_TIM_Base_Init+0x2c>
  {
    /* Allocate lock resource and initialize it */
    htim->Lock = HAL_UNLOCKED;
 800619e:	687b      	ldr	r3, [r7, #4]
 80061a0:	2200      	movs	r2, #0
 80061a2:	f883 203c 	strb.w	r2, [r3, #60]	; 0x3c
    }
    /* Init the low level hardware : GPIO, CLOCK, NVIC */
    htim->Base_MspInitCallback(htim);
#else
    /* Init the low level hardware : GPIO, CLOCK, NVIC */
    HAL_TIM_Base_MspInit(htim);
 80061a6:	6878      	ldr	r0, [r7, #4]
 80061a8:	f7fb fdc0 	bl	8001d2c <HAL_TIM_Base_MspInit>
#endif /* USE_HAL_TIM_REGISTER_CALLBACKS */
  }

  /* Set the TIM state */
  htim->State = HAL_TIM_STATE_BUSY;
 80061ac:	687b      	ldr	r3, [r7, #4]
 80061ae:	2202      	movs	r2, #2
 80061b0:	f883 203d 	strb.w	r2, [r3, #61]	; 0x3d

  /* Set the Time Base configuration */
  TIM_Base_SetConfig(htim->Instance, &htim->Init);
 80061b4:	687b      	ldr	r3, [r7, #4]
 80061b6:	681a      	ldr	r2, [r3, #0]
 80061b8:	687b      	ldr	r3, [r7, #4]
 80061ba:	3304      	adds	r3, #4
 80061bc:	4619      	mov	r1, r3
 80061be:	4610      	mov	r0, r2
 80061c0:	f000 fc24 	bl	8006a0c <TIM_Base_SetConfig>

  /* Initialize the DMA burst operation state */
  htim->DMABurstState = HAL_DMA_BURST_STATE_READY;
 80061c4:	687b      	ldr	r3, [r7, #4]
 80061c6:	2201      	movs	r2, #1
 80061c8:	f883 2048 	strb.w	r2, [r3, #72]	; 0x48

  /* Initialize the TIM channels state */
  TIM_CHANNEL_STATE_SET_ALL(htim, HAL_TIM_CHANNEL_STATE_READY);
 80061cc:	687b      	ldr	r3, [r7, #4]
 80061ce:	2201      	movs	r2, #1
 80061d0:	f883 203e 	strb.w	r2, [r3, #62]	; 0x3e
 80061d4:	687b      	ldr	r3, [r7, #4]
 80061d6:	2201      	movs	r2, #1
 80061d8:	f883 203f 	strb.w	r2, [r3, #63]	; 0x3f
 80061dc:	687b      	ldr	r3, [r7, #4]
 80061de:	2201      	movs	r2, #1
 80061e0:	f883 2040 	strb.w	r2, [r3, #64]	; 0x40
 80061e4:	687b      	ldr	r3, [r7, #4]
 80061e6:	2201      	movs	r2, #1
 80061e8:	f883 2041 	strb.w	r2, [r3, #65]	; 0x41
 80061ec:	687b      	ldr	r3, [r7, #4]
 80061ee:	2201      	movs	r2, #1
 80061f0:	f883 2042 	strb.w	r2, [r3, #66]	; 0x42
 80061f4:	687b      	ldr	r3, [r7, #4]
 80061f6:	2201      	movs	r2, #1
 80061f8:	f883 2043 	strb.w	r2, [r3, #67]	; 0x43
  TIM_CHANNEL_N_STATE_SET_ALL(htim, HAL_TIM_CHANNEL_STATE_READY);
 80061fc:	687b      	ldr	r3, [r7, #4]
 80061fe:	2201      	movs	r2, #1
 8006200:	f883 2044 	strb.w	r2, [r3, #68]	; 0x44
 8006204:	687b      	ldr	r3, [r7, #4]
 8006206:	2201      	movs	r2, #1
 8006208:	f883 2045 	strb.w	r2, [r3, #69]	; 0x45
 800620c:	687b      	ldr	r3, [r7, #4]
 800620e:	2201      	movs	r2, #1
 8006210:	f883 2046 	strb.w	r2, [r3, #70]	; 0x46
 8006214:	687b      	ldr	r3, [r7, #4]
 8006216:	2201      	movs	r2, #1
 8006218:	f883 2047 	strb.w	r2, [r3, #71]	; 0x47

  /* Initialize the TIM state*/
  htim->State = HAL_TIM_STATE_READY;
 800621c:	687b      	ldr	r3, [r7, #4]
 800621e:	2201      	movs	r2, #1
 8006220:	f883 203d 	strb.w	r2, [r3, #61]	; 0x3d

  return HAL_OK;
 8006224:	2300      	movs	r3, #0
}
 8006226:	4618      	mov	r0, r3
 8006228:	3708      	adds	r7, #8
 800622a:	46bd      	mov	sp, r7
 800622c:	bd80      	pop	{r7, pc}
	...

08006230 <HAL_TIM_Base_Start>:
  * @brief  Starts the TIM Base generation.
  * @param  htim TIM Base handle
  * @retval HAL status
  */
HAL_StatusTypeDef HAL_TIM_Base_Start(TIM_HandleTypeDef *htim)
{
 8006230:	b480      	push	{r7}
 8006232:	b085      	sub	sp, #20
 8006234:	af00      	add	r7, sp, #0
 8006236:	6078      	str	r0, [r7, #4]

  /* Check the parameters */
  assert_param(IS_TIM_INSTANCE(htim->Instance));

  /* Check the TIM state */
  if (htim->State != HAL_TIM_STATE_READY)
 8006238:	687b      	ldr	r3, [r7, #4]
 800623a:	f893 303d 	ldrb.w	r3, [r3, #61]	; 0x3d
 800623e:	b2db      	uxtb	r3, r3
 8006240:	2b01      	cmp	r3, #1
 8006242:	d001      	beq.n	8006248 <HAL_TIM_Base_Start+0x18>
  {
    return HAL_ERROR;
 8006244:	2301      	movs	r3, #1
 8006246:	e019      	b.n	800627c <HAL_TIM_Base_Start+0x4c>
  }

  /* Set the TIM state */
  htim->State = HAL_TIM_STATE_BUSY;
 8006248:	687b      	ldr	r3, [r7, #4]
 800624a:	2202      	movs	r2, #2
 800624c:	f883 203d 	strb.w	r2, [r3, #61]	; 0x3d

  /* Enable the Peripheral, except in trigger mode where enable is automatically done with trigger */
  tmpsmcr = htim->Instance->SMCR & TIM_SMCR_SMS;
 8006250:	687b      	ldr	r3, [r7, #4]
 8006252:	681b      	ldr	r3, [r3, #0]
 8006254:	689a      	ldr	r2, [r3, #8]
 8006256:	4b0c      	ldr	r3, [pc, #48]	; (8006288 <HAL_TIM_Base_Start+0x58>)
 8006258:	4013      	ands	r3, r2
 800625a:	60fb      	str	r3, [r7, #12]
  if (!IS_TIM_SLAVEMODE_TRIGGER_ENABLED(tmpsmcr))
 800625c:	68fb      	ldr	r3, [r7, #12]
 800625e:	2b06      	cmp	r3, #6
 8006260:	d00b      	beq.n	800627a <HAL_TIM_Base_Start+0x4a>
 8006262:	68fb      	ldr	r3, [r7, #12]
 8006264:	f5b3 3f80 	cmp.w	r3, #65536	; 0x10000
 8006268:	d007      	beq.n	800627a <HAL_TIM_Base_Start+0x4a>
  {
    __HAL_TIM_ENABLE(htim);
 800626a:	687b      	ldr	r3, [r7, #4]
 800626c:	681b      	ldr	r3, [r3, #0]
 800626e:	681a      	ldr	r2, [r3, #0]
 8006270:	687b      	ldr	r3, [r7, #4]
 8006272:	681b      	ldr	r3, [r3, #0]
 8006274:	f042 0201 	orr.w	r2, r2, #1
 8006278:	601a      	str	r2, [r3, #0]
  }

  /* Return function status */
  return HAL_OK;
 800627a:	2300      	movs	r3, #0
}
 800627c:	4618      	mov	r0, r3
 800627e:	3714      	adds	r7, #20
 8006280:	46bd      	mov	sp, r7
 8006282:	f85d 7b04 	ldr.w	r7, [sp], #4
 8006286:	4770      	bx	lr
 8006288:	00010007 	.word	0x00010007

0800628c <HAL_TIM_Base_Start_IT>:
  * @brief  Starts the TIM Base generation in interrupt mode.
  * @param  htim TIM Base handle
  * @retval HAL status
  */
HAL_StatusTypeDef HAL_TIM_Base_Start_IT(TIM_HandleTypeDef *htim)
{
 800628c:	b480      	push	{r7}
 800628e:	b085      	sub	sp, #20
 8006290:	af00      	add	r7, sp, #0
 8006292:	6078      	str	r0, [r7, #4]

  /* Check the parameters */
  assert_param(IS_TIM_INSTANCE(htim->Instance));

  /* Check the TIM state */
  if (htim->State != HAL_TIM_STATE_READY)
 8006294:	687b      	ldr	r3, [r7, #4]
 8006296:	f893 303d 	ldrb.w	r3, [r3, #61]	; 0x3d
 800629a:	b2db      	uxtb	r3, r3
 800629c:	2b01      	cmp	r3, #1
 800629e:	d001      	beq.n	80062a4 <HAL_TIM_Base_Start_IT+0x18>
  {
    return HAL_ERROR;
 80062a0:	2301      	movs	r3, #1
 80062a2:	e021      	b.n	80062e8 <HAL_TIM_Base_Start_IT+0x5c>
  }

  /* Set the TIM state */
  htim->State = HAL_TIM_STATE_BUSY;
 80062a4:	687b      	ldr	r3, [r7, #4]
 80062a6:	2202      	movs	r2, #2
 80062a8:	f883 203d 	strb.w	r2, [r3, #61]	; 0x3d

  /* Enable the TIM Update interrupt */
  __HAL_TIM_ENABLE_IT(htim, TIM_IT_UPDATE);
 80062ac:	687b      	ldr	r3, [r7, #4]
 80062ae:	681b      	ldr	r3, [r3, #0]
 80062b0:	68da      	ldr	r2, [r3, #12]
 80062b2:	687b      	ldr	r3, [r7, #4]
 80062b4:	681b      	ldr	r3, [r3, #0]
 80062b6:	f042 0201 	orr.w	r2, r2, #1
 80062ba:	60da      	str	r2, [r3, #12]

  /* Enable the Peripheral, except in trigger mode where enable is automatically done with trigger */
  tmpsmcr = htim->Instance->SMCR & TIM_SMCR_SMS;
 80062bc:	687b      	ldr	r3, [r7, #4]
 80062be:	681b      	ldr	r3, [r3, #0]
 80062c0:	689a      	ldr	r2, [r3, #8]
 80062c2:	4b0c      	ldr	r3, [pc, #48]	; (80062f4 <HAL_TIM_Base_Start_IT+0x68>)
 80062c4:	4013      	ands	r3, r2
 80062c6:	60fb      	str	r3, [r7, #12]
  if (!IS_TIM_SLAVEMODE_TRIGGER_ENABLED(tmpsmcr))
 80062c8:	68fb      	ldr	r3, [r7, #12]
 80062ca:	2b06      	cmp	r3, #6
 80062cc:	d00b      	beq.n	80062e6 <HAL_TIM_Base_Start_IT+0x5a>
 80062ce:	68fb      	ldr	r3, [r7, #12]
 80062d0:	f5b3 3f80 	cmp.w	r3, #65536	; 0x10000
 80062d4:	d007      	beq.n	80062e6 <HAL_TIM_Base_Start_IT+0x5a>
  {
    __HAL_TIM_ENABLE(htim);
 80062d6:	687b      	ldr	r3, [r7, #4]
 80062d8:	681b      	ldr	r3, [r3, #0]
 80062da:	681a      	ldr	r2, [r3, #0]
 80062dc:	687b      	ldr	r3, [r7, #4]
 80062de:	681b      	ldr	r3, [r3, #0]
 80062e0:	f042 0201 	orr.w	r2, r2, #1
 80062e4:	601a      	str	r2, [r3, #0]
  }

  /* Return function status */
  return HAL_OK;
 80062e6:	2300      	movs	r3, #0
}
 80062e8:	4618      	mov	r0, r3
 80062ea:	3714      	adds	r7, #20
 80062ec:	46bd      	mov	sp, r7
 80062ee:	f85d 7b04 	ldr.w	r7, [sp], #4
 80062f2:	4770      	bx	lr
 80062f4:	00010007 	.word	0x00010007

080062f8 <HAL_TIM_Encoder_Init>:
  * @param  htim TIM Encoder Interface handle
  * @param  sConfig TIM Encoder Interface configuration structure
  * @retval HAL status
  */
HAL_StatusTypeDef HAL_TIM_Encoder_Init(TIM_HandleTypeDef *htim,  TIM_Encoder_InitTypeDef *sConfig)
{
 80062f8:	b580      	push	{r7, lr}
 80062fa:	b086      	sub	sp, #24
 80062fc:	af00      	add	r7, sp, #0
 80062fe:	6078      	str	r0, [r7, #4]
 8006300:	6039      	str	r1, [r7, #0]
  uint32_t tmpsmcr;
  uint32_t tmpccmr1;
  uint32_t tmpccer;

  /* Check the TIM handle allocation */
  if (htim == NULL)
 8006302:	687b      	ldr	r3, [r7, #4]
 8006304:	2b00      	cmp	r3, #0
 8006306:	d101      	bne.n	800630c <HAL_TIM_Encoder_Init+0x14>
  {
    return HAL_ERROR;
 8006308:	2301      	movs	r3, #1
 800630a:	e097      	b.n	800643c <HAL_TIM_Encoder_Init+0x144>
  assert_param(IS_TIM_IC_PRESCALER(sConfig->IC1Prescaler));
  assert_param(IS_TIM_IC_PRESCALER(sConfig->IC2Prescaler));
  assert_param(IS_TIM_IC_FILTER(sConfig->IC1Filter));
  assert_param(IS_TIM_IC_FILTER(sConfig->IC2Filter));

  if (htim->State == HAL_TIM_STATE_RESET)
 800630c:	687b      	ldr	r3, [r7, #4]
 800630e:	f893 303d 	ldrb.w	r3, [r3, #61]	; 0x3d
 8006312:	b2db      	uxtb	r3, r3
 8006314:	2b00      	cmp	r3, #0
 8006316:	d106      	bne.n	8006326 <HAL_TIM_Encoder_Init+0x2e>
  {
    /* Allocate lock resource and initialize it */
    htim->Lock = HAL_UNLOCKED;
 8006318:	687b      	ldr	r3, [r7, #4]
 800631a:	2200      	movs	r2, #0
 800631c:	f883 203c 	strb.w	r2, [r3, #60]	; 0x3c
    }
    /* Init the low level hardware : GPIO, CLOCK, NVIC */
    htim->Encoder_MspInitCallback(htim);
#else
    /* Init the low level hardware : GPIO, CLOCK, NVIC and DMA */
    HAL_TIM_Encoder_MspInit(htim);
 8006320:	6878      	ldr	r0, [r7, #4]
 8006322:	f7fb fca7 	bl	8001c74 <HAL_TIM_Encoder_MspInit>
#endif /* USE_HAL_TIM_REGISTER_CALLBACKS */
  }

  /* Set the TIM state */
  htim->State = HAL_TIM_STATE_BUSY;
 8006326:	687b      	ldr	r3, [r7, #4]
 8006328:	2202      	movs	r2, #2
 800632a:	f883 203d 	strb.w	r2, [r3, #61]	; 0x3d

  /* Reset the SMS and ECE bits */
  htim->Instance->SMCR &= ~(TIM_SMCR_SMS | TIM_SMCR_ECE);
 800632e:	687b      	ldr	r3, [r7, #4]
 8006330:	681b      	ldr	r3, [r3, #0]
 8006332:	689b      	ldr	r3, [r3, #8]
 8006334:	687a      	ldr	r2, [r7, #4]
 8006336:	6812      	ldr	r2, [r2, #0]
 8006338:	f423 33a0 	bic.w	r3, r3, #81920	; 0x14000
 800633c:	f023 0307 	bic.w	r3, r3, #7
 8006340:	6093      	str	r3, [r2, #8]

  /* Configure the Time base in the Encoder Mode */
  TIM_Base_SetConfig(htim->Instance, &htim->Init);
 8006342:	687b      	ldr	r3, [r7, #4]
 8006344:	681a      	ldr	r2, [r3, #0]
 8006346:	687b      	ldr	r3, [r7, #4]
 8006348:	3304      	adds	r3, #4
 800634a:	4619      	mov	r1, r3
 800634c:	4610      	mov	r0, r2
 800634e:	f000 fb5d 	bl	8006a0c <TIM_Base_SetConfig>

  /* Get the TIMx SMCR register value */
  tmpsmcr = htim->Instance->SMCR;
 8006352:	687b      	ldr	r3, [r7, #4]
 8006354:	681b      	ldr	r3, [r3, #0]
 8006356:	689b      	ldr	r3, [r3, #8]
 8006358:	617b      	str	r3, [r7, #20]

  /* Get the TIMx CCMR1 register value */
  tmpccmr1 = htim->Instance->CCMR1;
 800635a:	687b      	ldr	r3, [r7, #4]
 800635c:	681b      	ldr	r3, [r3, #0]
 800635e:	699b      	ldr	r3, [r3, #24]
 8006360:	613b      	str	r3, [r7, #16]

  /* Get the TIMx CCER register value */
  tmpccer = htim->Instance->CCER;
 8006362:	687b      	ldr	r3, [r7, #4]
 8006364:	681b      	ldr	r3, [r3, #0]
 8006366:	6a1b      	ldr	r3, [r3, #32]
 8006368:	60fb      	str	r3, [r7, #12]

  /* Set the encoder Mode */
  tmpsmcr |= sConfig->EncoderMode;
 800636a:	683b      	ldr	r3, [r7, #0]
 800636c:	681b      	ldr	r3, [r3, #0]
 800636e:	697a      	ldr	r2, [r7, #20]
 8006370:	4313      	orrs	r3, r2
 8006372:	617b      	str	r3, [r7, #20]

  /* Select the Capture Compare 1 and the Capture Compare 2 as input */
  tmpccmr1 &= ~(TIM_CCMR1_CC1S | TIM_CCMR1_CC2S);
 8006374:	693b      	ldr	r3, [r7, #16]
 8006376:	f423 7340 	bic.w	r3, r3, #768	; 0x300
 800637a:	f023 0303 	bic.w	r3, r3, #3
 800637e:	613b      	str	r3, [r7, #16]
  tmpccmr1 |= (sConfig->IC1Selection | (sConfig->IC2Selection << 8U));
 8006380:	683b      	ldr	r3, [r7, #0]
 8006382:	689a      	ldr	r2, [r3, #8]
 8006384:	683b      	ldr	r3, [r7, #0]
 8006386:	699b      	ldr	r3, [r3, #24]
 8006388:	021b      	lsls	r3, r3, #8
 800638a:	4313      	orrs	r3, r2
 800638c:	693a      	ldr	r2, [r7, #16]
 800638e:	4313      	orrs	r3, r2
 8006390:	613b      	str	r3, [r7, #16]

  /* Set the Capture Compare 1 and the Capture Compare 2 prescalers and filters */
  tmpccmr1 &= ~(TIM_CCMR1_IC1PSC | TIM_CCMR1_IC2PSC);
 8006392:	693b      	ldr	r3, [r7, #16]
 8006394:	f423 6340 	bic.w	r3, r3, #3072	; 0xc00
 8006398:	f023 030c 	bic.w	r3, r3, #12
 800639c:	613b      	str	r3, [r7, #16]
  tmpccmr1 &= ~(TIM_CCMR1_IC1F | TIM_CCMR1_IC2F);
 800639e:	693b      	ldr	r3, [r7, #16]
 80063a0:	f423 4370 	bic.w	r3, r3, #61440	; 0xf000
 80063a4:	f023 03f0 	bic.w	r3, r3, #240	; 0xf0
 80063a8:	613b      	str	r3, [r7, #16]
  tmpccmr1 |= sConfig->IC1Prescaler | (sConfig->IC2Prescaler << 8U);
 80063aa:	683b      	ldr	r3, [r7, #0]
 80063ac:	68da      	ldr	r2, [r3, #12]
 80063ae:	683b      	ldr	r3, [r7, #0]
 80063b0:	69db      	ldr	r3, [r3, #28]
 80063b2:	021b      	lsls	r3, r3, #8
 80063b4:	4313      	orrs	r3, r2
 80063b6:	693a      	ldr	r2, [r7, #16]
 80063b8:	4313      	orrs	r3, r2
 80063ba:	613b      	str	r3, [r7, #16]
  tmpccmr1 |= (sConfig->IC1Filter << 4U) | (sConfig->IC2Filter << 12U);
 80063bc:	683b      	ldr	r3, [r7, #0]
 80063be:	691b      	ldr	r3, [r3, #16]
 80063c0:	011a      	lsls	r2, r3, #4
 80063c2:	683b      	ldr	r3, [r7, #0]
 80063c4:	6a1b      	ldr	r3, [r3, #32]
 80063c6:	031b      	lsls	r3, r3, #12
 80063c8:	4313      	orrs	r3, r2
 80063ca:	693a      	ldr	r2, [r7, #16]
 80063cc:	4313      	orrs	r3, r2
 80063ce:	613b      	str	r3, [r7, #16]

  /* Set the TI1 and the TI2 Polarities */
  tmpccer &= ~(TIM_CCER_CC1P | TIM_CCER_CC2P);
 80063d0:	68fb      	ldr	r3, [r7, #12]
 80063d2:	f023 0322 	bic.w	r3, r3, #34	; 0x22
 80063d6:	60fb      	str	r3, [r7, #12]
  tmpccer &= ~(TIM_CCER_CC1NP | TIM_CCER_CC2NP);
 80063d8:	68fb      	ldr	r3, [r7, #12]
 80063da:	f023 0388 	bic.w	r3, r3, #136	; 0x88
 80063de:	60fb      	str	r3, [r7, #12]
  tmpccer |= sConfig->IC1Polarity | (sConfig->IC2Polarity << 4U);
 80063e0:	683b      	ldr	r3, [r7, #0]
 80063e2:	685a      	ldr	r2, [r3, #4]
 80063e4:	683b      	ldr	r3, [r7, #0]
 80063e6:	695b      	ldr	r3, [r3, #20]
 80063e8:	011b      	lsls	r3, r3, #4
 80063ea:	4313      	orrs	r3, r2
 80063ec:	68fa      	ldr	r2, [r7, #12]
 80063ee:	4313      	orrs	r3, r2
 80063f0:	60fb      	str	r3, [r7, #12]

  /* Write to TIMx SMCR */
  htim->Instance->SMCR = tmpsmcr;
 80063f2:	687b      	ldr	r3, [r7, #4]
 80063f4:	681b      	ldr	r3, [r3, #0]
 80063f6:	697a      	ldr	r2, [r7, #20]
 80063f8:	609a      	str	r2, [r3, #8]

  /* Write to TIMx CCMR1 */
  htim->Instance->CCMR1 = tmpccmr1;
 80063fa:	687b      	ldr	r3, [r7, #4]
 80063fc:	681b      	ldr	r3, [r3, #0]
 80063fe:	693a      	ldr	r2, [r7, #16]
 8006400:	619a      	str	r2, [r3, #24]

  /* Write to TIMx CCER */
  htim->Instance->CCER = tmpccer;
 8006402:	687b      	ldr	r3, [r7, #4]
 8006404:	681b      	ldr	r3, [r3, #0]
 8006406:	68fa      	ldr	r2, [r7, #12]
 8006408:	621a      	str	r2, [r3, #32]

  /* Initialize the DMA burst operation state */
  htim->DMABurstState = HAL_DMA_BURST_STATE_READY;
 800640a:	687b      	ldr	r3, [r7, #4]
 800640c:	2201      	movs	r2, #1
 800640e:	f883 2048 	strb.w	r2, [r3, #72]	; 0x48

  /* Set the TIM channels state */
  TIM_CHANNEL_STATE_SET(htim, TIM_CHANNEL_1, HAL_TIM_CHANNEL_STATE_READY);
 8006412:	687b      	ldr	r3, [r7, #4]
 8006414:	2201      	movs	r2, #1
 8006416:	f883 203e 	strb.w	r2, [r3, #62]	; 0x3e
  TIM_CHANNEL_STATE_SET(htim, TIM_CHANNEL_2, HAL_TIM_CHANNEL_STATE_READY);
 800641a:	687b      	ldr	r3, [r7, #4]
 800641c:	2201      	movs	r2, #1
 800641e:	f883 203f 	strb.w	r2, [r3, #63]	; 0x3f
  TIM_CHANNEL_N_STATE_SET(htim, TIM_CHANNEL_1, HAL_TIM_CHANNEL_STATE_READY);
 8006422:	687b      	ldr	r3, [r7, #4]
 8006424:	2201      	movs	r2, #1
 8006426:	f883 2044 	strb.w	r2, [r3, #68]	; 0x44
  TIM_CHANNEL_N_STATE_SET(htim, TIM_CHANNEL_2, HAL_TIM_CHANNEL_STATE_READY);
 800642a:	687b      	ldr	r3, [r7, #4]
 800642c:	2201      	movs	r2, #1
 800642e:	f883 2045 	strb.w	r2, [r3, #69]	; 0x45

  /* Initialize the TIM state*/
  htim->State = HAL_TIM_STATE_READY;
 8006432:	687b      	ldr	r3, [r7, #4]
 8006434:	2201      	movs	r2, #1
 8006436:	f883 203d 	strb.w	r2, [r3, #61]	; 0x3d

  return HAL_OK;
 800643a:	2300      	movs	r3, #0
}
 800643c:	4618      	mov	r0, r3
 800643e:	3718      	adds	r7, #24
 8006440:	46bd      	mov	sp, r7
 8006442:	bd80      	pop	{r7, pc}

08006444 <HAL_TIM_IRQHandler>:
  * @brief  This function handles TIM interrupts requests.
  * @param  htim TIM  handle
  * @retval None
  */
void HAL_TIM_IRQHandler(TIM_HandleTypeDef *htim)
{
 8006444:	b580      	push	{r7, lr}
 8006446:	b082      	sub	sp, #8
 8006448:	af00      	add	r7, sp, #0
 800644a:	6078      	str	r0, [r7, #4]
  /* Capture compare 1 event */
  if (__HAL_TIM_GET_FLAG(htim, TIM_FLAG_CC1) != RESET)
 800644c:	687b      	ldr	r3, [r7, #4]
 800644e:	681b      	ldr	r3, [r3, #0]
 8006450:	691b      	ldr	r3, [r3, #16]
 8006452:	f003 0302 	and.w	r3, r3, #2
 8006456:	2b02      	cmp	r3, #2
 8006458:	d122      	bne.n	80064a0 <HAL_TIM_IRQHandler+0x5c>
  {
    if (__HAL_TIM_GET_IT_SOURCE(htim, TIM_IT_CC1) != RESET)
 800645a:	687b      	ldr	r3, [r7, #4]
 800645c:	681b      	ldr	r3, [r3, #0]
 800645e:	68db      	ldr	r3, [r3, #12]
 8006460:	f003 0302 	and.w	r3, r3, #2
 8006464:	2b02      	cmp	r3, #2
 8006466:	d11b      	bne.n	80064a0 <HAL_TIM_IRQHandler+0x5c>
    {
      {
        __HAL_TIM_CLEAR_IT(htim, TIM_IT_CC1);
 8006468:	687b      	ldr	r3, [r7, #4]
 800646a:	681b      	ldr	r3, [r3, #0]
 800646c:	f06f 0202 	mvn.w	r2, #2
 8006470:	611a      	str	r2, [r3, #16]
        htim->Channel = HAL_TIM_ACTIVE_CHANNEL_1;
 8006472:	687b      	ldr	r3, [r7, #4]
 8006474:	2201      	movs	r2, #1
 8006476:	771a      	strb	r2, [r3, #28]

        /* Input capture event */
        if ((htim->Instance->CCMR1 & TIM_CCMR1_CC1S) != 0x00U)
 8006478:	687b      	ldr	r3, [r7, #4]
 800647a:	681b      	ldr	r3, [r3, #0]
 800647c:	699b      	ldr	r3, [r3, #24]
 800647e:	f003 0303 	and.w	r3, r3, #3
 8006482:	2b00      	cmp	r3, #0
 8006484:	d003      	beq.n	800648e <HAL_TIM_IRQHandler+0x4a>
        {
#if (USE_HAL_TIM_REGISTER_CALLBACKS == 1)
          htim->IC_CaptureCallback(htim);
#else
          HAL_TIM_IC_CaptureCallback(htim);
 8006486:	6878      	ldr	r0, [r7, #4]
 8006488:	f000 faa2 	bl	80069d0 <HAL_TIM_IC_CaptureCallback>
 800648c:	e005      	b.n	800649a <HAL_TIM_IRQHandler+0x56>
        {
#if (USE_HAL_TIM_REGISTER_CALLBACKS == 1)
          htim->OC_DelayElapsedCallback(htim);
          htim->PWM_PulseFinishedCallback(htim);
#else
          HAL_TIM_OC_DelayElapsedCallback(htim);
 800648e:	6878      	ldr	r0, [r7, #4]
 8006490:	f000 fa94 	bl	80069bc <HAL_TIM_OC_DelayElapsedCallback>
          HAL_TIM_PWM_PulseFinishedCallback(htim);
 8006494:	6878      	ldr	r0, [r7, #4]
 8006496:	f000 faa5 	bl	80069e4 <HAL_TIM_PWM_PulseFinishedCallback>
#endif /* USE_HAL_TIM_REGISTER_CALLBACKS */
        }
        htim->Channel = HAL_TIM_ACTIVE_CHANNEL_CLEARED;
 800649a:	687b      	ldr	r3, [r7, #4]
 800649c:	2200      	movs	r2, #0
 800649e:	771a      	strb	r2, [r3, #28]
      }
    }
  }
  /* Capture compare 2 event */
  if (__HAL_TIM_GET_FLAG(htim, TIM_FLAG_CC2) != RESET)
 80064a0:	687b      	ldr	r3, [r7, #4]
 80064a2:	681b      	ldr	r3, [r3, #0]
 80064a4:	691b      	ldr	r3, [r3, #16]
 80064a6:	f003 0304 	and.w	r3, r3, #4
 80064aa:	2b04      	cmp	r3, #4
 80064ac:	d122      	bne.n	80064f4 <HAL_TIM_IRQHandler+0xb0>
  {
    if (__HAL_TIM_GET_IT_SOURCE(htim, TIM_IT_CC2) != RESET)
 80064ae:	687b      	ldr	r3, [r7, #4]
 80064b0:	681b      	ldr	r3, [r3, #0]
 80064b2:	68db      	ldr	r3, [r3, #12]
 80064b4:	f003 0304 	and.w	r3, r3, #4
 80064b8:	2b04      	cmp	r3, #4
 80064ba:	d11b      	bne.n	80064f4 <HAL_TIM_IRQHandler+0xb0>
    {
      __HAL_TIM_CLEAR_IT(htim, TIM_IT_CC2);
 80064bc:	687b      	ldr	r3, [r7, #4]
 80064be:	681b      	ldr	r3, [r3, #0]
 80064c0:	f06f 0204 	mvn.w	r2, #4
 80064c4:	611a      	str	r2, [r3, #16]
      htim->Channel = HAL_TIM_ACTIVE_CHANNEL_2;
 80064c6:	687b      	ldr	r3, [r7, #4]
 80064c8:	2202      	movs	r2, #2
 80064ca:	771a      	strb	r2, [r3, #28]
      /* Input capture event */
      if ((htim->Instance->CCMR1 & TIM_CCMR1_CC2S) != 0x00U)
 80064cc:	687b      	ldr	r3, [r7, #4]
 80064ce:	681b      	ldr	r3, [r3, #0]
 80064d0:	699b      	ldr	r3, [r3, #24]
 80064d2:	f403 7340 	and.w	r3, r3, #768	; 0x300
 80064d6:	2b00      	cmp	r3, #0
 80064d8:	d003      	beq.n	80064e2 <HAL_TIM_IRQHandler+0x9e>
      {
#if (USE_HAL_TIM_REGISTER_CALLBACKS == 1)
        htim->IC_CaptureCallback(htim);
#else
        HAL_TIM_IC_CaptureCallback(htim);
 80064da:	6878      	ldr	r0, [r7, #4]
 80064dc:	f000 fa78 	bl	80069d0 <HAL_TIM_IC_CaptureCallback>
 80064e0:	e005      	b.n	80064ee <HAL_TIM_IRQHandler+0xaa>
      {
#if (USE_HAL_TIM_REGISTER_CALLBACKS == 1)
        htim->OC_DelayElapsedCallback(htim);
        htim->PWM_PulseFinishedCallback(htim);
#else
        HAL_TIM_OC_DelayElapsedCallback(htim);
 80064e2:	6878      	ldr	r0, [r7, #4]
 80064e4:	f000 fa6a 	bl	80069bc <HAL_TIM_OC_DelayElapsedCallback>
        HAL_TIM_PWM_PulseFinishedCallback(htim);
 80064e8:	6878      	ldr	r0, [r7, #4]
 80064ea:	f000 fa7b 	bl	80069e4 <HAL_TIM_PWM_PulseFinishedCallback>
#endif /* USE_HAL_TIM_REGISTER_CALLBACKS */
      }
      htim->Channel = HAL_TIM_ACTIVE_CHANNEL_CLEARED;
 80064ee:	687b      	ldr	r3, [r7, #4]
 80064f0:	2200      	movs	r2, #0
 80064f2:	771a      	strb	r2, [r3, #28]
    }
  }
  /* Capture compare 3 event */
  if (__HAL_TIM_GET_FLAG(htim, TIM_FLAG_CC3) != RESET)
 80064f4:	687b      	ldr	r3, [r7, #4]
 80064f6:	681b      	ldr	r3, [r3, #0]
 80064f8:	691b      	ldr	r3, [r3, #16]
 80064fa:	f003 0308 	and.w	r3, r3, #8
 80064fe:	2b08      	cmp	r3, #8
 8006500:	d122      	bne.n	8006548 <HAL_TIM_IRQHandler+0x104>
  {
    if (__HAL_TIM_GET_IT_SOURCE(htim, TIM_IT_CC3) != RESET)
 8006502:	687b      	ldr	r3, [r7, #4]
 8006504:	681b      	ldr	r3, [r3, #0]
 8006506:	68db      	ldr	r3, [r3, #12]
 8006508:	f003 0308 	and.w	r3, r3, #8
 800650c:	2b08      	cmp	r3, #8
 800650e:	d11b      	bne.n	8006548 <HAL_TIM_IRQHandler+0x104>
    {
      __HAL_TIM_CLEAR_IT(htim, TIM_IT_CC3);
 8006510:	687b      	ldr	r3, [r7, #4]
 8006512:	681b      	ldr	r3, [r3, #0]
 8006514:	f06f 0208 	mvn.w	r2, #8
 8006518:	611a      	str	r2, [r3, #16]
      htim->Channel = HAL_TIM_ACTIVE_CHANNEL_3;
 800651a:	687b      	ldr	r3, [r7, #4]
 800651c:	2204      	movs	r2, #4
 800651e:	771a      	strb	r2, [r3, #28]
      /* Input capture event */
      if ((htim->Instance->CCMR2 & TIM_CCMR2_CC3S) != 0x00U)
 8006520:	687b      	ldr	r3, [r7, #4]
 8006522:	681b      	ldr	r3, [r3, #0]
 8006524:	69db      	ldr	r3, [r3, #28]
 8006526:	f003 0303 	and.w	r3, r3, #3
 800652a:	2b00      	cmp	r3, #0
 800652c:	d003      	beq.n	8006536 <HAL_TIM_IRQHandler+0xf2>
      {
#if (USE_HAL_TIM_REGISTER_CALLBACKS == 1)
        htim->IC_CaptureCallback(htim);
#else
        HAL_TIM_IC_CaptureCallback(htim);
 800652e:	6878      	ldr	r0, [r7, #4]
 8006530:	f000 fa4e 	bl	80069d0 <HAL_TIM_IC_CaptureCallback>
 8006534:	e005      	b.n	8006542 <HAL_TIM_IRQHandler+0xfe>
      {
#if (USE_HAL_TIM_REGISTER_CALLBACKS == 1)
        htim->OC_DelayElapsedCallback(htim);
        htim->PWM_PulseFinishedCallback(htim);
#else
        HAL_TIM_OC_DelayElapsedCallback(htim);
 8006536:	6878      	ldr	r0, [r7, #4]
 8006538:	f000 fa40 	bl	80069bc <HAL_TIM_OC_DelayElapsedCallback>
        HAL_TIM_PWM_PulseFinishedCallback(htim);
 800653c:	6878      	ldr	r0, [r7, #4]
 800653e:	f000 fa51 	bl	80069e4 <HAL_TIM_PWM_PulseFinishedCallback>
#endif /* USE_HAL_TIM_REGISTER_CALLBACKS */
      }
      htim->Channel = HAL_TIM_ACTIVE_CHANNEL_CLEARED;
 8006542:	687b      	ldr	r3, [r7, #4]
 8006544:	2200      	movs	r2, #0
 8006546:	771a      	strb	r2, [r3, #28]
    }
  }
  /* Capture compare 4 event */
  if (__HAL_TIM_GET_FLAG(htim, TIM_FLAG_CC4) != RESET)
 8006548:	687b      	ldr	r3, [r7, #4]
 800654a:	681b      	ldr	r3, [r3, #0]
 800654c:	691b      	ldr	r3, [r3, #16]
 800654e:	f003 0310 	and.w	r3, r3, #16
 8006552:	2b10      	cmp	r3, #16
 8006554:	d122      	bne.n	800659c <HAL_TIM_IRQHandler+0x158>
  {
    if (__HAL_TIM_GET_IT_SOURCE(htim, TIM_IT_CC4) != RESET)
 8006556:	687b      	ldr	r3, [r7, #4]
 8006558:	681b      	ldr	r3, [r3, #0]
 800655a:	68db      	ldr	r3, [r3, #12]
 800655c:	f003 0310 	and.w	r3, r3, #16
 8006560:	2b10      	cmp	r3, #16
 8006562:	d11b      	bne.n	800659c <HAL_TIM_IRQHandler+0x158>
    {
      __HAL_TIM_CLEAR_IT(htim, TIM_IT_CC4);
 8006564:	687b      	ldr	r3, [r7, #4]
 8006566:	681b      	ldr	r3, [r3, #0]
 8006568:	f06f 0210 	mvn.w	r2, #16
 800656c:	611a      	str	r2, [r3, #16]
      htim->Channel = HAL_TIM_ACTIVE_CHANNEL_4;
 800656e:	687b      	ldr	r3, [r7, #4]
 8006570:	2208      	movs	r2, #8
 8006572:	771a      	strb	r2, [r3, #28]
      /* Input capture event */
      if ((htim->Instance->CCMR2 & TIM_CCMR2_CC4S) != 0x00U)
 8006574:	687b      	ldr	r3, [r7, #4]
 8006576:	681b      	ldr	r3, [r3, #0]
 8006578:	69db      	ldr	r3, [r3, #28]
 800657a:	f403 7340 	and.w	r3, r3, #768	; 0x300
 800657e:	2b00      	cmp	r3, #0
 8006580:	d003      	beq.n	800658a <HAL_TIM_IRQHandler+0x146>
      {
#if (USE_HAL_TIM_REGISTER_CALLBACKS == 1)
        htim->IC_CaptureCallback(htim);
#else
        HAL_TIM_IC_CaptureCallback(htim);
 8006582:	6878      	ldr	r0, [r7, #4]
 8006584:	f000 fa24 	bl	80069d0 <HAL_TIM_IC_CaptureCallback>
 8006588:	e005      	b.n	8006596 <HAL_TIM_IRQHandler+0x152>
      {
#if (USE_HAL_TIM_REGISTER_CALLBACKS == 1)
        htim->OC_DelayElapsedCallback(htim);
        htim->PWM_PulseFinishedCallback(htim);
#else
        HAL_TIM_OC_DelayElapsedCallback(htim);
 800658a:	6878      	ldr	r0, [r7, #4]
 800658c:	f000 fa16 	bl	80069bc <HAL_TIM_OC_DelayElapsedCallback>
        HAL_TIM_PWM_PulseFinishedCallback(htim);
 8006590:	6878      	ldr	r0, [r7, #4]
 8006592:	f000 fa27 	bl	80069e4 <HAL_TIM_PWM_PulseFinishedCallback>
#endif /* USE_HAL_TIM_REGISTER_CALLBACKS */
      }
      htim->Channel = HAL_TIM_ACTIVE_CHANNEL_CLEARED;
 8006596:	687b      	ldr	r3, [r7, #4]
 8006598:	2200      	movs	r2, #0
 800659a:	771a      	strb	r2, [r3, #28]
    }
  }
  /* TIM Update event */
  if (__HAL_TIM_GET_FLAG(htim, TIM_FLAG_UPDATE) != RESET)
 800659c:	687b      	ldr	r3, [r7, #4]
 800659e:	681b      	ldr	r3, [r3, #0]
 80065a0:	691b      	ldr	r3, [r3, #16]
 80065a2:	f003 0301 	and.w	r3, r3, #1
 80065a6:	2b01      	cmp	r3, #1
 80065a8:	d10e      	bne.n	80065c8 <HAL_TIM_IRQHandler+0x184>
  {
    if (__HAL_TIM_GET_IT_SOURCE(htim, TIM_IT_UPDATE) != RESET)
 80065aa:	687b      	ldr	r3, [r7, #4]
 80065ac:	681b      	ldr	r3, [r3, #0]
 80065ae:	68db      	ldr	r3, [r3, #12]
 80065b0:	f003 0301 	and.w	r3, r3, #1
 80065b4:	2b01      	cmp	r3, #1
 80065b6:	d107      	bne.n	80065c8 <HAL_TIM_IRQHandler+0x184>
    {
      __HAL_TIM_CLEAR_IT(htim, TIM_IT_UPDATE);
 80065b8:	687b      	ldr	r3, [r7, #4]
 80065ba:	681b      	ldr	r3, [r3, #0]
 80065bc:	f06f 0201 	mvn.w	r2, #1
 80065c0:	611a      	str	r2, [r3, #16]
#if (USE_HAL_TIM_REGISTER_CALLBACKS == 1)
      htim->PeriodElapsedCallback(htim);
#else
      HAL_TIM_PeriodElapsedCallback(htim);
 80065c2:	6878      	ldr	r0, [r7, #4]
 80065c4:	f000 f9f0 	bl	80069a8 <HAL_TIM_PeriodElapsedCallback>
#endif /* USE_HAL_TIM_REGISTER_CALLBACKS */
    }
  }
  /* TIM Break input event */
  if (__HAL_TIM_GET_FLAG(htim, TIM_FLAG_BREAK) != RESET)
 80065c8:	687b      	ldr	r3, [r7, #4]
 80065ca:	681b      	ldr	r3, [r3, #0]
 80065cc:	691b      	ldr	r3, [r3, #16]
 80065ce:	f003 0380 	and.w	r3, r3, #128	; 0x80
 80065d2:	2b80      	cmp	r3, #128	; 0x80
 80065d4:	d10e      	bne.n	80065f4 <HAL_TIM_IRQHandler+0x1b0>
  {
    if (__HAL_TIM_GET_IT_SOURCE(htim, TIM_IT_BREAK) != RESET)
 80065d6:	687b      	ldr	r3, [r7, #4]
 80065d8:	681b      	ldr	r3, [r3, #0]
 80065da:	68db      	ldr	r3, [r3, #12]
 80065dc:	f003 0380 	and.w	r3, r3, #128	; 0x80
 80065e0:	2b80      	cmp	r3, #128	; 0x80
 80065e2:	d107      	bne.n	80065f4 <HAL_TIM_IRQHandler+0x1b0>
    {
      __HAL_TIM_CLEAR_IT(htim, TIM_IT_BREAK);
 80065e4:	687b      	ldr	r3, [r7, #4]
 80065e6:	681b      	ldr	r3, [r3, #0]
 80065e8:	f06f 0280 	mvn.w	r2, #128	; 0x80
 80065ec:	611a      	str	r2, [r3, #16]
#if (USE_HAL_TIM_REGISTER_CALLBACKS == 1)
      htim->BreakCallback(htim);
#else
      HAL_TIMEx_BreakCallback(htim);
 80065ee:	6878      	ldr	r0, [r7, #4]
 80065f0:	f000 fd5e 	bl	80070b0 <HAL_TIMEx_BreakCallback>
#endif /* USE_HAL_TIM_REGISTER_CALLBACKS */
    }
  }
  /* TIM Break2 input event */
  if (__HAL_TIM_GET_FLAG(htim, TIM_FLAG_BREAK2) != RESET)
 80065f4:	687b      	ldr	r3, [r7, #4]
 80065f6:	681b      	ldr	r3, [r3, #0]
 80065f8:	691b      	ldr	r3, [r3, #16]
 80065fa:	f403 7380 	and.w	r3, r3, #256	; 0x100
 80065fe:	f5b3 7f80 	cmp.w	r3, #256	; 0x100
 8006602:	d10e      	bne.n	8006622 <HAL_TIM_IRQHandler+0x1de>
  {
    if (__HAL_TIM_GET_IT_SOURCE(htim, TIM_IT_BREAK) != RESET)
 8006604:	687b      	ldr	r3, [r7, #4]
 8006606:	681b      	ldr	r3, [r3, #0]
 8006608:	68db      	ldr	r3, [r3, #12]
 800660a:	f003 0380 	and.w	r3, r3, #128	; 0x80
 800660e:	2b80      	cmp	r3, #128	; 0x80
 8006610:	d107      	bne.n	8006622 <HAL_TIM_IRQHandler+0x1de>
    {
      __HAL_TIM_CLEAR_FLAG(htim, TIM_FLAG_BREAK2);
 8006612:	687b      	ldr	r3, [r7, #4]
 8006614:	681b      	ldr	r3, [r3, #0]
 8006616:	f46f 7280 	mvn.w	r2, #256	; 0x100
 800661a:	611a      	str	r2, [r3, #16]
#if (USE_HAL_TIM_REGISTER_CALLBACKS == 1)
      htim->Break2Callback(htim);
#else
      HAL_TIMEx_Break2Callback(htim);
 800661c:	6878      	ldr	r0, [r7, #4]
 800661e:	f000 fd51 	bl	80070c4 <HAL_TIMEx_Break2Callback>
#endif /* USE_HAL_TIM_REGISTER_CALLBACKS */
    }
  }
  /* TIM Trigger detection event */
  if (__HAL_TIM_GET_FLAG(htim, TIM_FLAG_TRIGGER) != RESET)
 8006622:	687b      	ldr	r3, [r7, #4]
 8006624:	681b      	ldr	r3, [r3, #0]
 8006626:	691b      	ldr	r3, [r3, #16]
 8006628:	f003 0340 	and.w	r3, r3, #64	; 0x40
 800662c:	2b40      	cmp	r3, #64	; 0x40
 800662e:	d10e      	bne.n	800664e <HAL_TIM_IRQHandler+0x20a>
  {
    if (__HAL_TIM_GET_IT_SOURCE(htim, TIM_IT_TRIGGER) != RESET)
 8006630:	687b      	ldr	r3, [r7, #4]
 8006632:	681b      	ldr	r3, [r3, #0]
 8006634:	68db      	ldr	r3, [r3, #12]
 8006636:	f003 0340 	and.w	r3, r3, #64	; 0x40
 800663a:	2b40      	cmp	r3, #64	; 0x40
 800663c:	d107      	bne.n	800664e <HAL_TIM_IRQHandler+0x20a>
    {
      __HAL_TIM_CLEAR_IT(htim, TIM_IT_TRIGGER);
 800663e:	687b      	ldr	r3, [r7, #4]
 8006640:	681b      	ldr	r3, [r3, #0]
 8006642:	f06f 0240 	mvn.w	r2, #64	; 0x40
 8006646:	611a      	str	r2, [r3, #16]
#if (USE_HAL_TIM_REGISTER_CALLBACKS == 1)
      htim->TriggerCallback(htim);
#else
      HAL_TIM_TriggerCallback(htim);
 8006648:	6878      	ldr	r0, [r7, #4]
 800664a:	f000 f9d5 	bl	80069f8 <HAL_TIM_TriggerCallback>
#endif /* USE_HAL_TIM_REGISTER_CALLBACKS */
    }
  }
  /* TIM commutation event */
  if (__HAL_TIM_GET_FLAG(htim, TIM_FLAG_COM) != RESET)
 800664e:	687b      	ldr	r3, [r7, #4]
 8006650:	681b      	ldr	r3, [r3, #0]
 8006652:	691b      	ldr	r3, [r3, #16]
 8006654:	f003 0320 	and.w	r3, r3, #32
 8006658:	2b20      	cmp	r3, #32
 800665a:	d10e      	bne.n	800667a <HAL_TIM_IRQHandler+0x236>
  {
    if (__HAL_TIM_GET_IT_SOURCE(htim, TIM_IT_COM) != RESET)
 800665c:	687b      	ldr	r3, [r7, #4]
 800665e:	681b      	ldr	r3, [r3, #0]
 8006660:	68db      	ldr	r3, [r3, #12]
 8006662:	f003 0320 	and.w	r3, r3, #32
 8006666:	2b20      	cmp	r3, #32
 8006668:	d107      	bne.n	800667a <HAL_TIM_IRQHandler+0x236>
    {
      __HAL_TIM_CLEAR_IT(htim, TIM_FLAG_COM);
 800666a:	687b      	ldr	r3, [r7, #4]
 800666c:	681b      	ldr	r3, [r3, #0]
 800666e:	f06f 0220 	mvn.w	r2, #32
 8006672:	611a      	str	r2, [r3, #16]
#if (USE_HAL_TIM_REGISTER_CALLBACKS == 1)
      htim->CommutationCallback(htim);
#else
      HAL_TIMEx_CommutCallback(htim);
 8006674:	6878      	ldr	r0, [r7, #4]
 8006676:	f000 fd11 	bl	800709c <HAL_TIMEx_CommutCallback>
#endif /* USE_HAL_TIM_REGISTER_CALLBACKS */
    }
  }
  /* TIM Encoder index event */
  if (__HAL_TIM_GET_FLAG(htim, TIM_FLAG_IDX) != RESET)
 800667a:	687b      	ldr	r3, [r7, #4]
 800667c:	681b      	ldr	r3, [r3, #0]
 800667e:	691b      	ldr	r3, [r3, #16]
 8006680:	f403 1380 	and.w	r3, r3, #1048576	; 0x100000
 8006684:	f5b3 1f80 	cmp.w	r3, #1048576	; 0x100000
 8006688:	d10f      	bne.n	80066aa <HAL_TIM_IRQHandler+0x266>
  {
    if (__HAL_TIM_GET_IT_SOURCE(htim, TIM_IT_IDX) != RESET)
 800668a:	687b      	ldr	r3, [r7, #4]
 800668c:	681b      	ldr	r3, [r3, #0]
 800668e:	68db      	ldr	r3, [r3, #12]
 8006690:	f403 1380 	and.w	r3, r3, #1048576	; 0x100000
 8006694:	f5b3 1f80 	cmp.w	r3, #1048576	; 0x100000
 8006698:	d107      	bne.n	80066aa <HAL_TIM_IRQHandler+0x266>
    {
      __HAL_TIM_CLEAR_IT(htim, TIM_FLAG_IDX);
 800669a:	687b      	ldr	r3, [r7, #4]
 800669c:	681b      	ldr	r3, [r3, #0]
 800669e:	f46f 1280 	mvn.w	r2, #1048576	; 0x100000
 80066a2:	611a      	str	r2, [r3, #16]
#if (USE_HAL_TIM_REGISTER_CALLBACKS == 1)
      htim->EncoderIndexCallback(htim);
#else
      HAL_TIMEx_EncoderIndexCallback(htim);
 80066a4:	6878      	ldr	r0, [r7, #4]
 80066a6:	f000 fd17 	bl	80070d8 <HAL_TIMEx_EncoderIndexCallback>
#endif /* USE_HAL_TIM_REGISTER_CALLBACKS */
    }
  }
  /* TIM Direction change event */
  if (__HAL_TIM_GET_FLAG(htim, TIM_FLAG_DIR) != RESET)
 80066aa:	687b      	ldr	r3, [r7, #4]
 80066ac:	681b      	ldr	r3, [r3, #0]
 80066ae:	691b      	ldr	r3, [r3, #16]
 80066b0:	f403 1300 	and.w	r3, r3, #2097152	; 0x200000
 80066b4:	f5b3 1f00 	cmp.w	r3, #2097152	; 0x200000
 80066b8:	d10f      	bne.n	80066da <HAL_TIM_IRQHandler+0x296>
  {
    if (__HAL_TIM_GET_IT_SOURCE(htim, TIM_IT_DIR) != RESET)
 80066ba:	687b      	ldr	r3, [r7, #4]
 80066bc:	681b      	ldr	r3, [r3, #0]
 80066be:	68db      	ldr	r3, [r3, #12]
 80066c0:	f403 1300 	and.w	r3, r3, #2097152	; 0x200000
 80066c4:	f5b3 1f00 	cmp.w	r3, #2097152	; 0x200000
 80066c8:	d107      	bne.n	80066da <HAL_TIM_IRQHandler+0x296>
    {
      __HAL_TIM_CLEAR_IT(htim, TIM_FLAG_DIR);
 80066ca:	687b      	ldr	r3, [r7, #4]
 80066cc:	681b      	ldr	r3, [r3, #0]
 80066ce:	f46f 1200 	mvn.w	r2, #2097152	; 0x200000
 80066d2:	611a      	str	r2, [r3, #16]
#if (USE_HAL_TIM_REGISTER_CALLBACKS == 1)
      htim->DirectionChangeCallback(htim);
#else
      HAL_TIMEx_DirectionChangeCallback(htim);
 80066d4:	6878      	ldr	r0, [r7, #4]
 80066d6:	f000 fd09 	bl	80070ec <HAL_TIMEx_DirectionChangeCallback>
#endif /* USE_HAL_TIM_REGISTER_CALLBACKS */
    }
  }
  /* TIM Index error event */
  if (__HAL_TIM_GET_FLAG(htim, TIM_FLAG_IERR) != RESET)
 80066da:	687b      	ldr	r3, [r7, #4]
 80066dc:	681b      	ldr	r3, [r3, #0]
 80066de:	691b      	ldr	r3, [r3, #16]
 80066e0:	f403 0380 	and.w	r3, r3, #4194304	; 0x400000
 80066e4:	f5b3 0f80 	cmp.w	r3, #4194304	; 0x400000
 80066e8:	d10f      	bne.n	800670a <HAL_TIM_IRQHandler+0x2c6>
  {
    if (__HAL_TIM_GET_IT_SOURCE(htim, TIM_IT_IERR) != RESET)
 80066ea:	687b      	ldr	r3, [r7, #4]
 80066ec:	681b      	ldr	r3, [r3, #0]
 80066ee:	68db      	ldr	r3, [r3, #12]
 80066f0:	f403 0380 	and.w	r3, r3, #4194304	; 0x400000
 80066f4:	f5b3 0f80 	cmp.w	r3, #4194304	; 0x400000
 80066f8:	d107      	bne.n	800670a <HAL_TIM_IRQHandler+0x2c6>
    {
      __HAL_TIM_CLEAR_IT(htim, TIM_FLAG_IERR);
 80066fa:	687b      	ldr	r3, [r7, #4]
 80066fc:	681b      	ldr	r3, [r3, #0]
 80066fe:	f46f 0280 	mvn.w	r2, #4194304	; 0x400000
 8006702:	611a      	str	r2, [r3, #16]
#if (USE_HAL_TIM_REGISTER_CALLBACKS == 1)
      htim->IndexErrorCallback(htim);
#else
      HAL_TIMEx_IndexErrorCallback(htim);
 8006704:	6878      	ldr	r0, [r7, #4]
 8006706:	f000 fcfb 	bl	8007100 <HAL_TIMEx_IndexErrorCallback>
#endif /* USE_HAL_TIM_REGISTER_CALLBACKS */
    }
  }
  /* TIM Transition error event */
  if (__HAL_TIM_GET_FLAG(htim, TIM_FLAG_TERR) != RESET)
 800670a:	687b      	ldr	r3, [r7, #4]
 800670c:	681b      	ldr	r3, [r3, #0]
 800670e:	691b      	ldr	r3, [r3, #16]
 8006710:	f403 0300 	and.w	r3, r3, #8388608	; 0x800000
 8006714:	f5b3 0f00 	cmp.w	r3, #8388608	; 0x800000
 8006718:	d10f      	bne.n	800673a <HAL_TIM_IRQHandler+0x2f6>
  {
    if (__HAL_TIM_GET_IT_SOURCE(htim, TIM_IT_TERR) != RESET)
 800671a:	687b      	ldr	r3, [r7, #4]
 800671c:	681b      	ldr	r3, [r3, #0]
 800671e:	68db      	ldr	r3, [r3, #12]
 8006720:	f403 0300 	and.w	r3, r3, #8388608	; 0x800000
 8006724:	f5b3 0f00 	cmp.w	r3, #8388608	; 0x800000
 8006728:	d107      	bne.n	800673a <HAL_TIM_IRQHandler+0x2f6>
    {
      __HAL_TIM_CLEAR_IT(htim, TIM_FLAG_TERR);
 800672a:	687b      	ldr	r3, [r7, #4]
 800672c:	681b      	ldr	r3, [r3, #0]
 800672e:	f46f 0200 	mvn.w	r2, #8388608	; 0x800000
 8006732:	611a      	str	r2, [r3, #16]
#if (USE_HAL_TIM_REGISTER_CALLBACKS == 1)
      htim->TransitionErrorCallback(htim);
#else
      HAL_TIMEx_TransitionErrorCallback(htim);
 8006734:	6878      	ldr	r0, [r7, #4]
 8006736:	f000 fced 	bl	8007114 <HAL_TIMEx_TransitionErrorCallback>
#endif /* USE_HAL_TIM_REGISTER_CALLBACKS */
    }
  }
}
 800673a:	bf00      	nop
 800673c:	3708      	adds	r7, #8
 800673e:	46bd      	mov	sp, r7
 8006740:	bd80      	pop	{r7, pc}
	...

08006744 <HAL_TIM_ConfigClockSource>:
  * @param  sClockSourceConfig pointer to a TIM_ClockConfigTypeDef structure that
  *         contains the clock source information for the TIM peripheral.
  * @retval HAL status
  */
HAL_StatusTypeDef HAL_TIM_ConfigClockSource(TIM_HandleTypeDef *htim, TIM_ClockConfigTypeDef *sClockSourceConfig)
{
 8006744:	b580      	push	{r7, lr}
 8006746:	b084      	sub	sp, #16
 8006748:	af00      	add	r7, sp, #0
 800674a:	6078      	str	r0, [r7, #4]
 800674c:	6039      	str	r1, [r7, #0]
  uint32_t tmpsmcr;

  /* Process Locked */
  __HAL_LOCK(htim);
 800674e:	687b      	ldr	r3, [r7, #4]
 8006750:	f893 303c 	ldrb.w	r3, [r3, #60]	; 0x3c
 8006754:	2b01      	cmp	r3, #1
 8006756:	d101      	bne.n	800675c <HAL_TIM_ConfigClockSource+0x18>
 8006758:	2302      	movs	r3, #2
 800675a:	e0d2      	b.n	8006902 <HAL_TIM_ConfigClockSource+0x1be>
 800675c:	687b      	ldr	r3, [r7, #4]
 800675e:	2201      	movs	r2, #1
 8006760:	f883 203c 	strb.w	r2, [r3, #60]	; 0x3c

  htim->State = HAL_TIM_STATE_BUSY;
 8006764:	687b      	ldr	r3, [r7, #4]
 8006766:	2202      	movs	r2, #2
 8006768:	f883 203d 	strb.w	r2, [r3, #61]	; 0x3d

  /* Check the parameters */
  assert_param(IS_TIM_CLOCKSOURCE(sClockSourceConfig->ClockSource));

  /* Reset the SMS, TS, ECE, ETPS and ETRF bits */
  tmpsmcr = htim->Instance->SMCR;
 800676c:	687b      	ldr	r3, [r7, #4]
 800676e:	681b      	ldr	r3, [r3, #0]
 8006770:	689b      	ldr	r3, [r3, #8]
 8006772:	60fb      	str	r3, [r7, #12]
  tmpsmcr &= ~(TIM_SMCR_SMS | TIM_SMCR_TS);
 8006774:	68fb      	ldr	r3, [r7, #12]
 8006776:	f423 1344 	bic.w	r3, r3, #3211264	; 0x310000
 800677a:	f023 0377 	bic.w	r3, r3, #119	; 0x77
 800677e:	60fb      	str	r3, [r7, #12]
  tmpsmcr &= ~(TIM_SMCR_ETF | TIM_SMCR_ETPS | TIM_SMCR_ECE | TIM_SMCR_ETP);
 8006780:	68fb      	ldr	r3, [r7, #12]
 8006782:	f423 437f 	bic.w	r3, r3, #65280	; 0xff00
 8006786:	60fb      	str	r3, [r7, #12]
  htim->Instance->SMCR = tmpsmcr;
 8006788:	687b      	ldr	r3, [r7, #4]
 800678a:	681b      	ldr	r3, [r3, #0]
 800678c:	68fa      	ldr	r2, [r7, #12]
 800678e:	609a      	str	r2, [r3, #8]

  switch (sClockSourceConfig->ClockSource)
 8006790:	683b      	ldr	r3, [r7, #0]
 8006792:	681b      	ldr	r3, [r3, #0]
 8006794:	f5b3 5f80 	cmp.w	r3, #4096	; 0x1000
 8006798:	f000 80a9 	beq.w	80068ee <HAL_TIM_ConfigClockSource+0x1aa>
 800679c:	f5b3 5f80 	cmp.w	r3, #4096	; 0x1000
 80067a0:	d81a      	bhi.n	80067d8 <HAL_TIM_ConfigClockSource+0x94>
 80067a2:	2b30      	cmp	r3, #48	; 0x30
 80067a4:	f000 809a 	beq.w	80068dc <HAL_TIM_ConfigClockSource+0x198>
 80067a8:	2b30      	cmp	r3, #48	; 0x30
 80067aa:	d809      	bhi.n	80067c0 <HAL_TIM_ConfigClockSource+0x7c>
 80067ac:	2b10      	cmp	r3, #16
 80067ae:	f000 8095 	beq.w	80068dc <HAL_TIM_ConfigClockSource+0x198>
 80067b2:	2b20      	cmp	r3, #32
 80067b4:	f000 8092 	beq.w	80068dc <HAL_TIM_ConfigClockSource+0x198>
 80067b8:	2b00      	cmp	r3, #0
 80067ba:	f000 808f 	beq.w	80068dc <HAL_TIM_ConfigClockSource+0x198>
      TIM_ITRx_SetConfig(htim->Instance, sClockSourceConfig->ClockSource);
      break;
    }

    default:
      break;
 80067be:	e097      	b.n	80068f0 <HAL_TIM_ConfigClockSource+0x1ac>
  switch (sClockSourceConfig->ClockSource)
 80067c0:	2b50      	cmp	r3, #80	; 0x50
 80067c2:	d05b      	beq.n	800687c <HAL_TIM_ConfigClockSource+0x138>
 80067c4:	2b50      	cmp	r3, #80	; 0x50
 80067c6:	d802      	bhi.n	80067ce <HAL_TIM_ConfigClockSource+0x8a>
 80067c8:	2b40      	cmp	r3, #64	; 0x40
 80067ca:	d077      	beq.n	80068bc <HAL_TIM_ConfigClockSource+0x178>
      break;
 80067cc:	e090      	b.n	80068f0 <HAL_TIM_ConfigClockSource+0x1ac>
  switch (sClockSourceConfig->ClockSource)
 80067ce:	2b60      	cmp	r3, #96	; 0x60
 80067d0:	d064      	beq.n	800689c <HAL_TIM_ConfigClockSource+0x158>
 80067d2:	2b70      	cmp	r3, #112	; 0x70
 80067d4:	d028      	beq.n	8006828 <HAL_TIM_ConfigClockSource+0xe4>
      break;
 80067d6:	e08b      	b.n	80068f0 <HAL_TIM_ConfigClockSource+0x1ac>
  switch (sClockSourceConfig->ClockSource)
 80067d8:	4a4c      	ldr	r2, [pc, #304]	; (800690c <HAL_TIM_ConfigClockSource+0x1c8>)
 80067da:	4293      	cmp	r3, r2
 80067dc:	d07e      	beq.n	80068dc <HAL_TIM_ConfigClockSource+0x198>
 80067de:	4a4b      	ldr	r2, [pc, #300]	; (800690c <HAL_TIM_ConfigClockSource+0x1c8>)
 80067e0:	4293      	cmp	r3, r2
 80067e2:	d810      	bhi.n	8006806 <HAL_TIM_ConfigClockSource+0xc2>
 80067e4:	f5b3 1f80 	cmp.w	r3, #1048576	; 0x100000
 80067e8:	d078      	beq.n	80068dc <HAL_TIM_ConfigClockSource+0x198>
 80067ea:	f5b3 1f80 	cmp.w	r3, #1048576	; 0x100000
 80067ee:	d803      	bhi.n	80067f8 <HAL_TIM_ConfigClockSource+0xb4>
 80067f0:	f5b3 5f00 	cmp.w	r3, #8192	; 0x2000
 80067f4:	d02f      	beq.n	8006856 <HAL_TIM_ConfigClockSource+0x112>
      break;
 80067f6:	e07b      	b.n	80068f0 <HAL_TIM_ConfigClockSource+0x1ac>
  switch (sClockSourceConfig->ClockSource)
 80067f8:	f1b3 1f10 	cmp.w	r3, #1048592	; 0x100010
 80067fc:	d06e      	beq.n	80068dc <HAL_TIM_ConfigClockSource+0x198>
 80067fe:	4a44      	ldr	r2, [pc, #272]	; (8006910 <HAL_TIM_ConfigClockSource+0x1cc>)
 8006800:	4293      	cmp	r3, r2
 8006802:	d06b      	beq.n	80068dc <HAL_TIM_ConfigClockSource+0x198>
      break;
 8006804:	e074      	b.n	80068f0 <HAL_TIM_ConfigClockSource+0x1ac>
  switch (sClockSourceConfig->ClockSource)
 8006806:	4a43      	ldr	r2, [pc, #268]	; (8006914 <HAL_TIM_ConfigClockSource+0x1d0>)
 8006808:	4293      	cmp	r3, r2
 800680a:	d067      	beq.n	80068dc <HAL_TIM_ConfigClockSource+0x198>
 800680c:	4a41      	ldr	r2, [pc, #260]	; (8006914 <HAL_TIM_ConfigClockSource+0x1d0>)
 800680e:	4293      	cmp	r3, r2
 8006810:	d803      	bhi.n	800681a <HAL_TIM_ConfigClockSource+0xd6>
 8006812:	4a41      	ldr	r2, [pc, #260]	; (8006918 <HAL_TIM_ConfigClockSource+0x1d4>)
 8006814:	4293      	cmp	r3, r2
 8006816:	d061      	beq.n	80068dc <HAL_TIM_ConfigClockSource+0x198>
      break;
 8006818:	e06a      	b.n	80068f0 <HAL_TIM_ConfigClockSource+0x1ac>
  switch (sClockSourceConfig->ClockSource)
 800681a:	4a40      	ldr	r2, [pc, #256]	; (800691c <HAL_TIM_ConfigClockSource+0x1d8>)
 800681c:	4293      	cmp	r3, r2
 800681e:	d05d      	beq.n	80068dc <HAL_TIM_ConfigClockSource+0x198>
 8006820:	4a3f      	ldr	r2, [pc, #252]	; (8006920 <HAL_TIM_ConfigClockSource+0x1dc>)
 8006822:	4293      	cmp	r3, r2
 8006824:	d05a      	beq.n	80068dc <HAL_TIM_ConfigClockSource+0x198>
      break;
 8006826:	e063      	b.n	80068f0 <HAL_TIM_ConfigClockSource+0x1ac>
      TIM_ETR_SetConfig(htim->Instance,
 8006828:	687b      	ldr	r3, [r7, #4]
 800682a:	6818      	ldr	r0, [r3, #0]
 800682c:	683b      	ldr	r3, [r7, #0]
 800682e:	6899      	ldr	r1, [r3, #8]
 8006830:	683b      	ldr	r3, [r7, #0]
 8006832:	685a      	ldr	r2, [r3, #4]
 8006834:	683b      	ldr	r3, [r7, #0]
 8006836:	68db      	ldr	r3, [r3, #12]
 8006838:	f000 fac8 	bl	8006dcc <TIM_ETR_SetConfig>
      tmpsmcr = htim->Instance->SMCR;
 800683c:	687b      	ldr	r3, [r7, #4]
 800683e:	681b      	ldr	r3, [r3, #0]
 8006840:	689b      	ldr	r3, [r3, #8]
 8006842:	60fb      	str	r3, [r7, #12]
      tmpsmcr |= (TIM_SLAVEMODE_EXTERNAL1 | TIM_CLOCKSOURCE_ETRMODE1);
 8006844:	68fb      	ldr	r3, [r7, #12]
 8006846:	f043 0377 	orr.w	r3, r3, #119	; 0x77
 800684a:	60fb      	str	r3, [r7, #12]
      htim->Instance->SMCR = tmpsmcr;
 800684c:	687b      	ldr	r3, [r7, #4]
 800684e:	681b      	ldr	r3, [r3, #0]
 8006850:	68fa      	ldr	r2, [r7, #12]
 8006852:	609a      	str	r2, [r3, #8]
      break;
 8006854:	e04c      	b.n	80068f0 <HAL_TIM_ConfigClockSource+0x1ac>
      TIM_ETR_SetConfig(htim->Instance,
 8006856:	687b      	ldr	r3, [r7, #4]
 8006858:	6818      	ldr	r0, [r3, #0]
 800685a:	683b      	ldr	r3, [r7, #0]
 800685c:	6899      	ldr	r1, [r3, #8]
 800685e:	683b      	ldr	r3, [r7, #0]
 8006860:	685a      	ldr	r2, [r3, #4]
 8006862:	683b      	ldr	r3, [r7, #0]
 8006864:	68db      	ldr	r3, [r3, #12]
 8006866:	f000 fab1 	bl	8006dcc <TIM_ETR_SetConfig>
      htim->Instance->SMCR |= TIM_SMCR_ECE;
 800686a:	687b      	ldr	r3, [r7, #4]
 800686c:	681b      	ldr	r3, [r3, #0]
 800686e:	689a      	ldr	r2, [r3, #8]
 8006870:	687b      	ldr	r3, [r7, #4]
 8006872:	681b      	ldr	r3, [r3, #0]
 8006874:	f442 4280 	orr.w	r2, r2, #16384	; 0x4000
 8006878:	609a      	str	r2, [r3, #8]
      break;
 800687a:	e039      	b.n	80068f0 <HAL_TIM_ConfigClockSource+0x1ac>
      TIM_TI1_ConfigInputStage(htim->Instance,
 800687c:	687b      	ldr	r3, [r7, #4]
 800687e:	6818      	ldr	r0, [r3, #0]
 8006880:	683b      	ldr	r3, [r7, #0]
 8006882:	6859      	ldr	r1, [r3, #4]
 8006884:	683b      	ldr	r3, [r7, #0]
 8006886:	68db      	ldr	r3, [r3, #12]
 8006888:	461a      	mov	r2, r3
 800688a:	f000 fa23 	bl	8006cd4 <TIM_TI1_ConfigInputStage>
      TIM_ITRx_SetConfig(htim->Instance, TIM_CLOCKSOURCE_TI1);
 800688e:	687b      	ldr	r3, [r7, #4]
 8006890:	681b      	ldr	r3, [r3, #0]
 8006892:	2150      	movs	r1, #80	; 0x50
 8006894:	4618      	mov	r0, r3
 8006896:	f000 fa7c 	bl	8006d92 <TIM_ITRx_SetConfig>
      break;
 800689a:	e029      	b.n	80068f0 <HAL_TIM_ConfigClockSource+0x1ac>
      TIM_TI2_ConfigInputStage(htim->Instance,
 800689c:	687b      	ldr	r3, [r7, #4]
 800689e:	6818      	ldr	r0, [r3, #0]
 80068a0:	683b      	ldr	r3, [r7, #0]
 80068a2:	6859      	ldr	r1, [r3, #4]
 80068a4:	683b      	ldr	r3, [r7, #0]
 80068a6:	68db      	ldr	r3, [r3, #12]
 80068a8:	461a      	mov	r2, r3
 80068aa:	f000 fa42 	bl	8006d32 <TIM_TI2_ConfigInputStage>
      TIM_ITRx_SetConfig(htim->Instance, TIM_CLOCKSOURCE_TI2);
 80068ae:	687b      	ldr	r3, [r7, #4]
 80068b0:	681b      	ldr	r3, [r3, #0]
 80068b2:	2160      	movs	r1, #96	; 0x60
 80068b4:	4618      	mov	r0, r3
 80068b6:	f000 fa6c 	bl	8006d92 <TIM_ITRx_SetConfig>
      break;
 80068ba:	e019      	b.n	80068f0 <HAL_TIM_ConfigClockSource+0x1ac>
      TIM_TI1_ConfigInputStage(htim->Instance,
 80068bc:	687b      	ldr	r3, [r7, #4]
 80068be:	6818      	ldr	r0, [r3, #0]
 80068c0:	683b      	ldr	r3, [r7, #0]
 80068c2:	6859      	ldr	r1, [r3, #4]
 80068c4:	683b      	ldr	r3, [r7, #0]
 80068c6:	68db      	ldr	r3, [r3, #12]
 80068c8:	461a      	mov	r2, r3
 80068ca:	f000 fa03 	bl	8006cd4 <TIM_TI1_ConfigInputStage>
      TIM_ITRx_SetConfig(htim->Instance, TIM_CLOCKSOURCE_TI1ED);
 80068ce:	687b      	ldr	r3, [r7, #4]
 80068d0:	681b      	ldr	r3, [r3, #0]
 80068d2:	2140      	movs	r1, #64	; 0x40
 80068d4:	4618      	mov	r0, r3
 80068d6:	f000 fa5c 	bl	8006d92 <TIM_ITRx_SetConfig>
      break;
 80068da:	e009      	b.n	80068f0 <HAL_TIM_ConfigClockSource+0x1ac>
      TIM_ITRx_SetConfig(htim->Instance, sClockSourceConfig->ClockSource);
 80068dc:	687b      	ldr	r3, [r7, #4]
 80068de:	681a      	ldr	r2, [r3, #0]
 80068e0:	683b      	ldr	r3, [r7, #0]
 80068e2:	681b      	ldr	r3, [r3, #0]
 80068e4:	4619      	mov	r1, r3
 80068e6:	4610      	mov	r0, r2
 80068e8:	f000 fa53 	bl	8006d92 <TIM_ITRx_SetConfig>
      break;
 80068ec:	e000      	b.n	80068f0 <HAL_TIM_ConfigClockSource+0x1ac>
      break;
 80068ee:	bf00      	nop
  }
  htim->State = HAL_TIM_STATE_READY;
 80068f0:	687b      	ldr	r3, [r7, #4]
 80068f2:	2201      	movs	r2, #1
 80068f4:	f883 203d 	strb.w	r2, [r3, #61]	; 0x3d

  __HAL_UNLOCK(htim);
 80068f8:	687b      	ldr	r3, [r7, #4]
 80068fa:	2200      	movs	r2, #0
 80068fc:	f883 203c 	strb.w	r2, [r3, #60]	; 0x3c

  return HAL_OK;
 8006900:	2300      	movs	r3, #0
}
 8006902:	4618      	mov	r0, r3
 8006904:	3710      	adds	r7, #16
 8006906:	46bd      	mov	sp, r7
 8006908:	bd80      	pop	{r7, pc}
 800690a:	bf00      	nop
 800690c:	00100030 	.word	0x00100030
 8006910:	00100020 	.word	0x00100020
 8006914:	00100050 	.word	0x00100050
 8006918:	00100040 	.word	0x00100040
 800691c:	00100060 	.word	0x00100060
 8006920:	00100070 	.word	0x00100070

08006924 <HAL_TIM_SlaveConfigSynchro>:
  *         timer input or external trigger input) and the Slave mode
  *         (Disable, Reset, Gated, Trigger, External clock mode 1, Reset + Trigger, Gated + Reset).
  * @retval HAL status
  */
HAL_StatusTypeDef HAL_TIM_SlaveConfigSynchro(TIM_HandleTypeDef *htim, TIM_SlaveConfigTypeDef *sSlaveConfig)
{
 8006924:	b580      	push	{r7, lr}
 8006926:	b082      	sub	sp, #8
 8006928:	af00      	add	r7, sp, #0
 800692a:	6078      	str	r0, [r7, #4]
 800692c:	6039      	str	r1, [r7, #0]
  /* Check the parameters */
  assert_param(IS_TIM_SLAVE_INSTANCE(htim->Instance));
  assert_param(IS_TIM_SLAVE_MODE(sSlaveConfig->SlaveMode));
  assert_param(IS_TIM_TRIGGER_INSTANCE(htim->Instance, sSlaveConfig->InputTrigger));

  __HAL_LOCK(htim);
 800692e:	687b      	ldr	r3, [r7, #4]
 8006930:	f893 303c 	ldrb.w	r3, [r3, #60]	; 0x3c
 8006934:	2b01      	cmp	r3, #1
 8006936:	d101      	bne.n	800693c <HAL_TIM_SlaveConfigSynchro+0x18>
 8006938:	2302      	movs	r3, #2
 800693a:	e031      	b.n	80069a0 <HAL_TIM_SlaveConfigSynchro+0x7c>
 800693c:	687b      	ldr	r3, [r7, #4]
 800693e:	2201      	movs	r2, #1
 8006940:	f883 203c 	strb.w	r2, [r3, #60]	; 0x3c

  htim->State = HAL_TIM_STATE_BUSY;
 8006944:	687b      	ldr	r3, [r7, #4]
 8006946:	2202      	movs	r2, #2
 8006948:	f883 203d 	strb.w	r2, [r3, #61]	; 0x3d

  if (TIM_SlaveTimer_SetConfig(htim, sSlaveConfig) != HAL_OK)
 800694c:	6839      	ldr	r1, [r7, #0]
 800694e:	6878      	ldr	r0, [r7, #4]
 8006950:	f000 f904 	bl	8006b5c <TIM_SlaveTimer_SetConfig>
 8006954:	4603      	mov	r3, r0
 8006956:	2b00      	cmp	r3, #0
 8006958:	d009      	beq.n	800696e <HAL_TIM_SlaveConfigSynchro+0x4a>
  {
    htim->State = HAL_TIM_STATE_READY;
 800695a:	687b      	ldr	r3, [r7, #4]
 800695c:	2201      	movs	r2, #1
 800695e:	f883 203d 	strb.w	r2, [r3, #61]	; 0x3d
    __HAL_UNLOCK(htim);
 8006962:	687b      	ldr	r3, [r7, #4]
 8006964:	2200      	movs	r2, #0
 8006966:	f883 203c 	strb.w	r2, [r3, #60]	; 0x3c
    return HAL_ERROR;
 800696a:	2301      	movs	r3, #1
 800696c:	e018      	b.n	80069a0 <HAL_TIM_SlaveConfigSynchro+0x7c>
  }

  /* Disable Trigger Interrupt */
  __HAL_TIM_DISABLE_IT(htim, TIM_IT_TRIGGER);
 800696e:	687b      	ldr	r3, [r7, #4]
 8006970:	681b      	ldr	r3, [r3, #0]
 8006972:	68da      	ldr	r2, [r3, #12]
 8006974:	687b      	ldr	r3, [r7, #4]
 8006976:	681b      	ldr	r3, [r3, #0]
 8006978:	f022 0240 	bic.w	r2, r2, #64	; 0x40
 800697c:	60da      	str	r2, [r3, #12]

  /* Disable Trigger DMA request */
  __HAL_TIM_DISABLE_DMA(htim, TIM_DMA_TRIGGER);
 800697e:	687b      	ldr	r3, [r7, #4]
 8006980:	681b      	ldr	r3, [r3, #0]
 8006982:	68da      	ldr	r2, [r3, #12]
 8006984:	687b      	ldr	r3, [r7, #4]
 8006986:	681b      	ldr	r3, [r3, #0]
 8006988:	f422 4280 	bic.w	r2, r2, #16384	; 0x4000
 800698c:	60da      	str	r2, [r3, #12]

  htim->State = HAL_TIM_STATE_READY;
 800698e:	687b      	ldr	r3, [r7, #4]
 8006990:	2201      	movs	r2, #1
 8006992:	f883 203d 	strb.w	r2, [r3, #61]	; 0x3d

  __HAL_UNLOCK(htim);
 8006996:	687b      	ldr	r3, [r7, #4]
 8006998:	2200      	movs	r2, #0
 800699a:	f883 203c 	strb.w	r2, [r3, #60]	; 0x3c

  return HAL_OK;
 800699e:	2300      	movs	r3, #0
}
 80069a0:	4618      	mov	r0, r3
 80069a2:	3708      	adds	r7, #8
 80069a4:	46bd      	mov	sp, r7
 80069a6:	bd80      	pop	{r7, pc}

080069a8 <HAL_TIM_PeriodElapsedCallback>:
  * @brief  Period elapsed callback in non-blocking mode
  * @param  htim TIM handle
  * @retval None
  */
__weak void HAL_TIM_PeriodElapsedCallback(TIM_HandleTypeDef *htim)
{
 80069a8:	b480      	push	{r7}
 80069aa:	b083      	sub	sp, #12
 80069ac:	af00      	add	r7, sp, #0
 80069ae:	6078      	str	r0, [r7, #4]
  UNUSED(htim);

  /* NOTE : This function should not be modified, when the callback is needed,
            the HAL_TIM_PeriodElapsedCallback could be implemented in the user file
   */
}
 80069b0:	bf00      	nop
 80069b2:	370c      	adds	r7, #12
 80069b4:	46bd      	mov	sp, r7
 80069b6:	f85d 7b04 	ldr.w	r7, [sp], #4
 80069ba:	4770      	bx	lr

080069bc <HAL_TIM_OC_DelayElapsedCallback>:
  * @brief  Output Compare callback in non-blocking mode
  * @param  htim TIM OC handle
  * @retval None
  */
__weak void HAL_TIM_OC_DelayElapsedCallback(TIM_HandleTypeDef *htim)
{
 80069bc:	b480      	push	{r7}
 80069be:	b083      	sub	sp, #12
 80069c0:	af00      	add	r7, sp, #0
 80069c2:	6078      	str	r0, [r7, #4]
  UNUSED(htim);

  /* NOTE : This function should not be modified, when the callback is needed,
            the HAL_TIM_OC_DelayElapsedCallback could be implemented in the user file
   */
}
 80069c4:	bf00      	nop
 80069c6:	370c      	adds	r7, #12
 80069c8:	46bd      	mov	sp, r7
 80069ca:	f85d 7b04 	ldr.w	r7, [sp], #4
 80069ce:	4770      	bx	lr

080069d0 <HAL_TIM_IC_CaptureCallback>:
  * @brief  Input Capture callback in non-blocking mode
  * @param  htim TIM IC handle
  * @retval None
  */
__weak void HAL_TIM_IC_CaptureCallback(TIM_HandleTypeDef *htim)
{
 80069d0:	b480      	push	{r7}
 80069d2:	b083      	sub	sp, #12
 80069d4:	af00      	add	r7, sp, #0
 80069d6:	6078      	str	r0, [r7, #4]
  UNUSED(htim);

  /* NOTE : This function should not be modified, when the callback is needed,
            the HAL_TIM_IC_CaptureCallback could be implemented in the user file
   */
}
 80069d8:	bf00      	nop
 80069da:	370c      	adds	r7, #12
 80069dc:	46bd      	mov	sp, r7
 80069de:	f85d 7b04 	ldr.w	r7, [sp], #4
 80069e2:	4770      	bx	lr

080069e4 <HAL_TIM_PWM_PulseFinishedCallback>:
  * @brief  PWM Pulse finished callback in non-blocking mode
  * @param  htim TIM handle
  * @retval None
  */
__weak void HAL_TIM_PWM_PulseFinishedCallback(TIM_HandleTypeDef *htim)
{
 80069e4:	b480      	push	{r7}
 80069e6:	b083      	sub	sp, #12
 80069e8:	af00      	add	r7, sp, #0
 80069ea:	6078      	str	r0, [r7, #4]
  UNUSED(htim);

  /* NOTE : This function should not be modified, when the callback is needed,
            the HAL_TIM_PWM_PulseFinishedCallback could be implemented in the user file
   */
}
 80069ec:	bf00      	nop
 80069ee:	370c      	adds	r7, #12
 80069f0:	46bd      	mov	sp, r7
 80069f2:	f85d 7b04 	ldr.w	r7, [sp], #4
 80069f6:	4770      	bx	lr

080069f8 <HAL_TIM_TriggerCallback>:
  * @brief  Hall Trigger detection callback in non-blocking mode
  * @param  htim TIM handle
  * @retval None
  */
__weak void HAL_TIM_TriggerCallback(TIM_HandleTypeDef *htim)
{
 80069f8:	b480      	push	{r7}
 80069fa:	b083      	sub	sp, #12
 80069fc:	af00      	add	r7, sp, #0
 80069fe:	6078      	str	r0, [r7, #4]
  UNUSED(htim);

  /* NOTE : This function should not be modified, when the callback is needed,
            the HAL_TIM_TriggerCallback could be implemented in the user file
   */
}
 8006a00:	bf00      	nop
 8006a02:	370c      	adds	r7, #12
 8006a04:	46bd      	mov	sp, r7
 8006a06:	f85d 7b04 	ldr.w	r7, [sp], #4
 8006a0a:	4770      	bx	lr

08006a0c <TIM_Base_SetConfig>:
  * @param  TIMx TIM peripheral
  * @param  Structure TIM Base configuration structure
  * @retval None
  */
void TIM_Base_SetConfig(TIM_TypeDef *TIMx, TIM_Base_InitTypeDef *Structure)
{
 8006a0c:	b480      	push	{r7}
 8006a0e:	b085      	sub	sp, #20
 8006a10:	af00      	add	r7, sp, #0
 8006a12:	6078      	str	r0, [r7, #4]
 8006a14:	6039      	str	r1, [r7, #0]
  uint32_t tmpcr1;
  tmpcr1 = TIMx->CR1;
 8006a16:	687b      	ldr	r3, [r7, #4]
 8006a18:	681b      	ldr	r3, [r3, #0]
 8006a1a:	60fb      	str	r3, [r7, #12]

  /* Set TIM Time Base Unit parameters ---------------------------------------*/
  if (IS_TIM_COUNTER_MODE_SELECT_INSTANCE(TIMx))
 8006a1c:	687b      	ldr	r3, [r7, #4]
 8006a1e:	4a46      	ldr	r2, [pc, #280]	; (8006b38 <TIM_Base_SetConfig+0x12c>)
 8006a20:	4293      	cmp	r3, r2
 8006a22:	d017      	beq.n	8006a54 <TIM_Base_SetConfig+0x48>
 8006a24:	687b      	ldr	r3, [r7, #4]
 8006a26:	f1b3 4f80 	cmp.w	r3, #1073741824	; 0x40000000
 8006a2a:	d013      	beq.n	8006a54 <TIM_Base_SetConfig+0x48>
 8006a2c:	687b      	ldr	r3, [r7, #4]
 8006a2e:	4a43      	ldr	r2, [pc, #268]	; (8006b3c <TIM_Base_SetConfig+0x130>)
 8006a30:	4293      	cmp	r3, r2
 8006a32:	d00f      	beq.n	8006a54 <TIM_Base_SetConfig+0x48>
 8006a34:	687b      	ldr	r3, [r7, #4]
 8006a36:	4a42      	ldr	r2, [pc, #264]	; (8006b40 <TIM_Base_SetConfig+0x134>)
 8006a38:	4293      	cmp	r3, r2
 8006a3a:	d00b      	beq.n	8006a54 <TIM_Base_SetConfig+0x48>
 8006a3c:	687b      	ldr	r3, [r7, #4]
 8006a3e:	4a41      	ldr	r2, [pc, #260]	; (8006b44 <TIM_Base_SetConfig+0x138>)
 8006a40:	4293      	cmp	r3, r2
 8006a42:	d007      	beq.n	8006a54 <TIM_Base_SetConfig+0x48>
 8006a44:	687b      	ldr	r3, [r7, #4]
 8006a46:	4a40      	ldr	r2, [pc, #256]	; (8006b48 <TIM_Base_SetConfig+0x13c>)
 8006a48:	4293      	cmp	r3, r2
 8006a4a:	d003      	beq.n	8006a54 <TIM_Base_SetConfig+0x48>
 8006a4c:	687b      	ldr	r3, [r7, #4]
 8006a4e:	4a3f      	ldr	r2, [pc, #252]	; (8006b4c <TIM_Base_SetConfig+0x140>)
 8006a50:	4293      	cmp	r3, r2
 8006a52:	d108      	bne.n	8006a66 <TIM_Base_SetConfig+0x5a>
  {
    /* Select the Counter Mode */
    tmpcr1 &= ~(TIM_CR1_DIR | TIM_CR1_CMS);
 8006a54:	68fb      	ldr	r3, [r7, #12]
 8006a56:	f023 0370 	bic.w	r3, r3, #112	; 0x70
 8006a5a:	60fb      	str	r3, [r7, #12]
    tmpcr1 |= Structure->CounterMode;
 8006a5c:	683b      	ldr	r3, [r7, #0]
 8006a5e:	685b      	ldr	r3, [r3, #4]
 8006a60:	68fa      	ldr	r2, [r7, #12]
 8006a62:	4313      	orrs	r3, r2
 8006a64:	60fb      	str	r3, [r7, #12]
  }

  if (IS_TIM_CLOCK_DIVISION_INSTANCE(TIMx))
 8006a66:	687b      	ldr	r3, [r7, #4]
 8006a68:	4a33      	ldr	r2, [pc, #204]	; (8006b38 <TIM_Base_SetConfig+0x12c>)
 8006a6a:	4293      	cmp	r3, r2
 8006a6c:	d023      	beq.n	8006ab6 <TIM_Base_SetConfig+0xaa>
 8006a6e:	687b      	ldr	r3, [r7, #4]
 8006a70:	f1b3 4f80 	cmp.w	r3, #1073741824	; 0x40000000
 8006a74:	d01f      	beq.n	8006ab6 <TIM_Base_SetConfig+0xaa>
 8006a76:	687b      	ldr	r3, [r7, #4]
 8006a78:	4a30      	ldr	r2, [pc, #192]	; (8006b3c <TIM_Base_SetConfig+0x130>)
 8006a7a:	4293      	cmp	r3, r2
 8006a7c:	d01b      	beq.n	8006ab6 <TIM_Base_SetConfig+0xaa>
 8006a7e:	687b      	ldr	r3, [r7, #4]
 8006a80:	4a2f      	ldr	r2, [pc, #188]	; (8006b40 <TIM_Base_SetConfig+0x134>)
 8006a82:	4293      	cmp	r3, r2
 8006a84:	d017      	beq.n	8006ab6 <TIM_Base_SetConfig+0xaa>
 8006a86:	687b      	ldr	r3, [r7, #4]
 8006a88:	4a2e      	ldr	r2, [pc, #184]	; (8006b44 <TIM_Base_SetConfig+0x138>)
 8006a8a:	4293      	cmp	r3, r2
 8006a8c:	d013      	beq.n	8006ab6 <TIM_Base_SetConfig+0xaa>
 8006a8e:	687b      	ldr	r3, [r7, #4]
 8006a90:	4a2d      	ldr	r2, [pc, #180]	; (8006b48 <TIM_Base_SetConfig+0x13c>)
 8006a92:	4293      	cmp	r3, r2
 8006a94:	d00f      	beq.n	8006ab6 <TIM_Base_SetConfig+0xaa>
 8006a96:	687b      	ldr	r3, [r7, #4]
 8006a98:	4a2d      	ldr	r2, [pc, #180]	; (8006b50 <TIM_Base_SetConfig+0x144>)
 8006a9a:	4293      	cmp	r3, r2
 8006a9c:	d00b      	beq.n	8006ab6 <TIM_Base_SetConfig+0xaa>
 8006a9e:	687b      	ldr	r3, [r7, #4]
 8006aa0:	4a2c      	ldr	r2, [pc, #176]	; (8006b54 <TIM_Base_SetConfig+0x148>)
 8006aa2:	4293      	cmp	r3, r2
 8006aa4:	d007      	beq.n	8006ab6 <TIM_Base_SetConfig+0xaa>
 8006aa6:	687b      	ldr	r3, [r7, #4]
 8006aa8:	4a2b      	ldr	r2, [pc, #172]	; (8006b58 <TIM_Base_SetConfig+0x14c>)
 8006aaa:	4293      	cmp	r3, r2
 8006aac:	d003      	beq.n	8006ab6 <TIM_Base_SetConfig+0xaa>
 8006aae:	687b      	ldr	r3, [r7, #4]
 8006ab0:	4a26      	ldr	r2, [pc, #152]	; (8006b4c <TIM_Base_SetConfig+0x140>)
 8006ab2:	4293      	cmp	r3, r2
 8006ab4:	d108      	bne.n	8006ac8 <TIM_Base_SetConfig+0xbc>
  {
    /* Set the clock division */
    tmpcr1 &= ~TIM_CR1_CKD;
 8006ab6:	68fb      	ldr	r3, [r7, #12]
 8006ab8:	f423 7340 	bic.w	r3, r3, #768	; 0x300
 8006abc:	60fb      	str	r3, [r7, #12]
    tmpcr1 |= (uint32_t)Structure->ClockDivision;
 8006abe:	683b      	ldr	r3, [r7, #0]
 8006ac0:	68db      	ldr	r3, [r3, #12]
 8006ac2:	68fa      	ldr	r2, [r7, #12]
 8006ac4:	4313      	orrs	r3, r2
 8006ac6:	60fb      	str	r3, [r7, #12]
  }

  /* Set the auto-reload preload */
  MODIFY_REG(tmpcr1, TIM_CR1_ARPE, Structure->AutoReloadPreload);
 8006ac8:	68fb      	ldr	r3, [r7, #12]
 8006aca:	f023 0280 	bic.w	r2, r3, #128	; 0x80
 8006ace:	683b      	ldr	r3, [r7, #0]
 8006ad0:	695b      	ldr	r3, [r3, #20]
 8006ad2:	4313      	orrs	r3, r2
 8006ad4:	60fb      	str	r3, [r7, #12]

  TIMx->CR1 = tmpcr1;
 8006ad6:	687b      	ldr	r3, [r7, #4]
 8006ad8:	68fa      	ldr	r2, [r7, #12]
 8006ada:	601a      	str	r2, [r3, #0]

  /* Set the Autoreload value */
  TIMx->ARR = (uint32_t)Structure->Period ;
 8006adc:	683b      	ldr	r3, [r7, #0]
 8006ade:	689a      	ldr	r2, [r3, #8]
 8006ae0:	687b      	ldr	r3, [r7, #4]
 8006ae2:	62da      	str	r2, [r3, #44]	; 0x2c

  /* Set the Prescaler value */
  TIMx->PSC = Structure->Prescaler;
 8006ae4:	683b      	ldr	r3, [r7, #0]
 8006ae6:	681a      	ldr	r2, [r3, #0]
 8006ae8:	687b      	ldr	r3, [r7, #4]
 8006aea:	629a      	str	r2, [r3, #40]	; 0x28

  if (IS_TIM_REPETITION_COUNTER_INSTANCE(TIMx))
 8006aec:	687b      	ldr	r3, [r7, #4]
 8006aee:	4a12      	ldr	r2, [pc, #72]	; (8006b38 <TIM_Base_SetConfig+0x12c>)
 8006af0:	4293      	cmp	r3, r2
 8006af2:	d013      	beq.n	8006b1c <TIM_Base_SetConfig+0x110>
 8006af4:	687b      	ldr	r3, [r7, #4]
 8006af6:	4a14      	ldr	r2, [pc, #80]	; (8006b48 <TIM_Base_SetConfig+0x13c>)
 8006af8:	4293      	cmp	r3, r2
 8006afa:	d00f      	beq.n	8006b1c <TIM_Base_SetConfig+0x110>
 8006afc:	687b      	ldr	r3, [r7, #4]
 8006afe:	4a14      	ldr	r2, [pc, #80]	; (8006b50 <TIM_Base_SetConfig+0x144>)
 8006b00:	4293      	cmp	r3, r2
 8006b02:	d00b      	beq.n	8006b1c <TIM_Base_SetConfig+0x110>
 8006b04:	687b      	ldr	r3, [r7, #4]
 8006b06:	4a13      	ldr	r2, [pc, #76]	; (8006b54 <TIM_Base_SetConfig+0x148>)
 8006b08:	4293      	cmp	r3, r2
 8006b0a:	d007      	beq.n	8006b1c <TIM_Base_SetConfig+0x110>
 8006b0c:	687b      	ldr	r3, [r7, #4]
 8006b0e:	4a12      	ldr	r2, [pc, #72]	; (8006b58 <TIM_Base_SetConfig+0x14c>)
 8006b10:	4293      	cmp	r3, r2
 8006b12:	d003      	beq.n	8006b1c <TIM_Base_SetConfig+0x110>
 8006b14:	687b      	ldr	r3, [r7, #4]
 8006b16:	4a0d      	ldr	r2, [pc, #52]	; (8006b4c <TIM_Base_SetConfig+0x140>)
 8006b18:	4293      	cmp	r3, r2
 8006b1a:	d103      	bne.n	8006b24 <TIM_Base_SetConfig+0x118>
  {
    /* Set the Repetition Counter value */
    TIMx->RCR = Structure->RepetitionCounter;
 8006b1c:	683b      	ldr	r3, [r7, #0]
 8006b1e:	691a      	ldr	r2, [r3, #16]
 8006b20:	687b      	ldr	r3, [r7, #4]
 8006b22:	631a      	str	r2, [r3, #48]	; 0x30
  }

  /* Generate an update event to reload the Prescaler
     and the repetition counter (only for advanced timer) value immediately */
  TIMx->EGR = TIM_EGR_UG;
 8006b24:	687b      	ldr	r3, [r7, #4]
 8006b26:	2201      	movs	r2, #1
 8006b28:	615a      	str	r2, [r3, #20]
}
 8006b2a:	bf00      	nop
 8006b2c:	3714      	adds	r7, #20
 8006b2e:	46bd      	mov	sp, r7
 8006b30:	f85d 7b04 	ldr.w	r7, [sp], #4
 8006b34:	4770      	bx	lr
 8006b36:	bf00      	nop
 8006b38:	40012c00 	.word	0x40012c00
 8006b3c:	40000400 	.word	0x40000400
 8006b40:	40000800 	.word	0x40000800
 8006b44:	40000c00 	.word	0x40000c00
 8006b48:	40013400 	.word	0x40013400
 8006b4c:	40015000 	.word	0x40015000
 8006b50:	40014000 	.word	0x40014000
 8006b54:	40014400 	.word	0x40014400
 8006b58:	40014800 	.word	0x40014800

08006b5c <TIM_SlaveTimer_SetConfig>:
  * @param  sSlaveConfig Slave timer configuration
  * @retval None
  */
static HAL_StatusTypeDef TIM_SlaveTimer_SetConfig(TIM_HandleTypeDef *htim,
                                                  TIM_SlaveConfigTypeDef *sSlaveConfig)
{
 8006b5c:	b580      	push	{r7, lr}
 8006b5e:	b086      	sub	sp, #24
 8006b60:	af00      	add	r7, sp, #0
 8006b62:	6078      	str	r0, [r7, #4]
 8006b64:	6039      	str	r1, [r7, #0]
  uint32_t tmpsmcr;
  uint32_t tmpccmr1;
  uint32_t tmpccer;

  /* Get the TIMx SMCR register value */
  tmpsmcr = htim->Instance->SMCR;
 8006b66:	687b      	ldr	r3, [r7, #4]
 8006b68:	681b      	ldr	r3, [r3, #0]
 8006b6a:	689b      	ldr	r3, [r3, #8]
 8006b6c:	617b      	str	r3, [r7, #20]

  /* Reset the Trigger Selection Bits */
  tmpsmcr &= ~TIM_SMCR_TS;
 8006b6e:	697b      	ldr	r3, [r7, #20]
 8006b70:	f423 1340 	bic.w	r3, r3, #3145728	; 0x300000
 8006b74:	f023 0370 	bic.w	r3, r3, #112	; 0x70
 8006b78:	617b      	str	r3, [r7, #20]
  /* Set the Input Trigger source */
  tmpsmcr |= sSlaveConfig->InputTrigger;
 8006b7a:	683b      	ldr	r3, [r7, #0]
 8006b7c:	685b      	ldr	r3, [r3, #4]
 8006b7e:	697a      	ldr	r2, [r7, #20]
 8006b80:	4313      	orrs	r3, r2
 8006b82:	617b      	str	r3, [r7, #20]

  /* Reset the slave mode Bits */
  tmpsmcr &= ~TIM_SMCR_SMS;
 8006b84:	697b      	ldr	r3, [r7, #20]
 8006b86:	f423 3380 	bic.w	r3, r3, #65536	; 0x10000
 8006b8a:	f023 0307 	bic.w	r3, r3, #7
 8006b8e:	617b      	str	r3, [r7, #20]
  /* Set the slave mode */
  tmpsmcr |= sSlaveConfig->SlaveMode;
 8006b90:	683b      	ldr	r3, [r7, #0]
 8006b92:	681b      	ldr	r3, [r3, #0]
 8006b94:	697a      	ldr	r2, [r7, #20]
 8006b96:	4313      	orrs	r3, r2
 8006b98:	617b      	str	r3, [r7, #20]

  /* Write to TIMx SMCR */
  htim->Instance->SMCR = tmpsmcr;
 8006b9a:	687b      	ldr	r3, [r7, #4]
 8006b9c:	681b      	ldr	r3, [r3, #0]
 8006b9e:	697a      	ldr	r2, [r7, #20]
 8006ba0:	609a      	str	r2, [r3, #8]

  /* Configure the trigger prescaler, filter, and polarity */
  switch (sSlaveConfig->InputTrigger)
 8006ba2:	683b      	ldr	r3, [r7, #0]
 8006ba4:	685b      	ldr	r3, [r3, #4]
 8006ba6:	2b70      	cmp	r3, #112	; 0x70
 8006ba8:	d034      	beq.n	8006c14 <TIM_SlaveTimer_SetConfig+0xb8>
 8006baa:	2b70      	cmp	r3, #112	; 0x70
 8006bac:	d811      	bhi.n	8006bd2 <TIM_SlaveTimer_SetConfig+0x76>
 8006bae:	2b30      	cmp	r3, #48	; 0x30
 8006bb0:	d07d      	beq.n	8006cae <TIM_SlaveTimer_SetConfig+0x152>
 8006bb2:	2b30      	cmp	r3, #48	; 0x30
 8006bb4:	d806      	bhi.n	8006bc4 <TIM_SlaveTimer_SetConfig+0x68>
 8006bb6:	2b10      	cmp	r3, #16
 8006bb8:	d079      	beq.n	8006cae <TIM_SlaveTimer_SetConfig+0x152>
 8006bba:	2b20      	cmp	r3, #32
 8006bbc:	d077      	beq.n	8006cae <TIM_SlaveTimer_SetConfig+0x152>
 8006bbe:	2b00      	cmp	r3, #0
 8006bc0:	d075      	beq.n	8006cae <TIM_SlaveTimer_SetConfig+0x152>
      assert_param(IS_TIM_INTERNAL_TRIGGEREVENT_INSTANCE((htim->Instance), sSlaveConfig->InputTrigger));
      break;
    }

    default:
      break;
 8006bc2:	e075      	b.n	8006cb0 <TIM_SlaveTimer_SetConfig+0x154>
  switch (sSlaveConfig->InputTrigger)
 8006bc4:	2b50      	cmp	r3, #80	; 0x50
 8006bc6:	d05e      	beq.n	8006c86 <TIM_SlaveTimer_SetConfig+0x12a>
 8006bc8:	2b60      	cmp	r3, #96	; 0x60
 8006bca:	d066      	beq.n	8006c9a <TIM_SlaveTimer_SetConfig+0x13e>
 8006bcc:	2b40      	cmp	r3, #64	; 0x40
 8006bce:	d02c      	beq.n	8006c2a <TIM_SlaveTimer_SetConfig+0xce>
      break;
 8006bd0:	e06e      	b.n	8006cb0 <TIM_SlaveTimer_SetConfig+0x154>
  switch (sSlaveConfig->InputTrigger)
 8006bd2:	4a3a      	ldr	r2, [pc, #232]	; (8006cbc <TIM_SlaveTimer_SetConfig+0x160>)
 8006bd4:	4293      	cmp	r3, r2
 8006bd6:	d06a      	beq.n	8006cae <TIM_SlaveTimer_SetConfig+0x152>
 8006bd8:	4a38      	ldr	r2, [pc, #224]	; (8006cbc <TIM_SlaveTimer_SetConfig+0x160>)
 8006bda:	4293      	cmp	r3, r2
 8006bdc:	d809      	bhi.n	8006bf2 <TIM_SlaveTimer_SetConfig+0x96>
 8006bde:	f1b3 1f10 	cmp.w	r3, #1048592	; 0x100010
 8006be2:	d064      	beq.n	8006cae <TIM_SlaveTimer_SetConfig+0x152>
 8006be4:	4a36      	ldr	r2, [pc, #216]	; (8006cc0 <TIM_SlaveTimer_SetConfig+0x164>)
 8006be6:	4293      	cmp	r3, r2
 8006be8:	d061      	beq.n	8006cae <TIM_SlaveTimer_SetConfig+0x152>
 8006bea:	f5b3 1f80 	cmp.w	r3, #1048576	; 0x100000
 8006bee:	d05e      	beq.n	8006cae <TIM_SlaveTimer_SetConfig+0x152>
      break;
 8006bf0:	e05e      	b.n	8006cb0 <TIM_SlaveTimer_SetConfig+0x154>
  switch (sSlaveConfig->InputTrigger)
 8006bf2:	4a34      	ldr	r2, [pc, #208]	; (8006cc4 <TIM_SlaveTimer_SetConfig+0x168>)
 8006bf4:	4293      	cmp	r3, r2
 8006bf6:	d05a      	beq.n	8006cae <TIM_SlaveTimer_SetConfig+0x152>
 8006bf8:	4a32      	ldr	r2, [pc, #200]	; (8006cc4 <TIM_SlaveTimer_SetConfig+0x168>)
 8006bfa:	4293      	cmp	r3, r2
 8006bfc:	d803      	bhi.n	8006c06 <TIM_SlaveTimer_SetConfig+0xaa>
 8006bfe:	4a32      	ldr	r2, [pc, #200]	; (8006cc8 <TIM_SlaveTimer_SetConfig+0x16c>)
 8006c00:	4293      	cmp	r3, r2
 8006c02:	d054      	beq.n	8006cae <TIM_SlaveTimer_SetConfig+0x152>
      break;
 8006c04:	e054      	b.n	8006cb0 <TIM_SlaveTimer_SetConfig+0x154>
  switch (sSlaveConfig->InputTrigger)
 8006c06:	4a31      	ldr	r2, [pc, #196]	; (8006ccc <TIM_SlaveTimer_SetConfig+0x170>)
 8006c08:	4293      	cmp	r3, r2
 8006c0a:	d050      	beq.n	8006cae <TIM_SlaveTimer_SetConfig+0x152>
 8006c0c:	4a30      	ldr	r2, [pc, #192]	; (8006cd0 <TIM_SlaveTimer_SetConfig+0x174>)
 8006c0e:	4293      	cmp	r3, r2
 8006c10:	d04d      	beq.n	8006cae <TIM_SlaveTimer_SetConfig+0x152>
      break;
 8006c12:	e04d      	b.n	8006cb0 <TIM_SlaveTimer_SetConfig+0x154>
      TIM_ETR_SetConfig(htim->Instance,
 8006c14:	687b      	ldr	r3, [r7, #4]
 8006c16:	6818      	ldr	r0, [r3, #0]
 8006c18:	683b      	ldr	r3, [r7, #0]
 8006c1a:	68d9      	ldr	r1, [r3, #12]
 8006c1c:	683b      	ldr	r3, [r7, #0]
 8006c1e:	689a      	ldr	r2, [r3, #8]
 8006c20:	683b      	ldr	r3, [r7, #0]
 8006c22:	691b      	ldr	r3, [r3, #16]
 8006c24:	f000 f8d2 	bl	8006dcc <TIM_ETR_SetConfig>
      break;
 8006c28:	e042      	b.n	8006cb0 <TIM_SlaveTimer_SetConfig+0x154>
      if ((sSlaveConfig->SlaveMode == TIM_SLAVEMODE_GATED) || (sSlaveConfig->SlaveMode == TIM_SLAVEMODE_COMBINED_GATEDRESET))
 8006c2a:	683b      	ldr	r3, [r7, #0]
 8006c2c:	681b      	ldr	r3, [r3, #0]
 8006c2e:	2b05      	cmp	r3, #5
 8006c30:	d004      	beq.n	8006c3c <TIM_SlaveTimer_SetConfig+0xe0>
 8006c32:	683b      	ldr	r3, [r7, #0]
 8006c34:	681b      	ldr	r3, [r3, #0]
 8006c36:	f1b3 1f01 	cmp.w	r3, #65537	; 0x10001
 8006c3a:	d101      	bne.n	8006c40 <TIM_SlaveTimer_SetConfig+0xe4>
        return HAL_ERROR;
 8006c3c:	2301      	movs	r3, #1
 8006c3e:	e038      	b.n	8006cb2 <TIM_SlaveTimer_SetConfig+0x156>
      tmpccer = htim->Instance->CCER;
 8006c40:	687b      	ldr	r3, [r7, #4]
 8006c42:	681b      	ldr	r3, [r3, #0]
 8006c44:	6a1b      	ldr	r3, [r3, #32]
 8006c46:	613b      	str	r3, [r7, #16]
      htim->Instance->CCER &= ~TIM_CCER_CC1E;
 8006c48:	687b      	ldr	r3, [r7, #4]
 8006c4a:	681b      	ldr	r3, [r3, #0]
 8006c4c:	6a1a      	ldr	r2, [r3, #32]
 8006c4e:	687b      	ldr	r3, [r7, #4]
 8006c50:	681b      	ldr	r3, [r3, #0]
 8006c52:	f022 0201 	bic.w	r2, r2, #1
 8006c56:	621a      	str	r2, [r3, #32]
      tmpccmr1 = htim->Instance->CCMR1;
 8006c58:	687b      	ldr	r3, [r7, #4]
 8006c5a:	681b      	ldr	r3, [r3, #0]
 8006c5c:	699b      	ldr	r3, [r3, #24]
 8006c5e:	60fb      	str	r3, [r7, #12]
      tmpccmr1 &= ~TIM_CCMR1_IC1F;
 8006c60:	68fb      	ldr	r3, [r7, #12]
 8006c62:	f023 03f0 	bic.w	r3, r3, #240	; 0xf0
 8006c66:	60fb      	str	r3, [r7, #12]
      tmpccmr1 |= ((sSlaveConfig->TriggerFilter) << 4U);
 8006c68:	683b      	ldr	r3, [r7, #0]
 8006c6a:	691b      	ldr	r3, [r3, #16]
 8006c6c:	011b      	lsls	r3, r3, #4
 8006c6e:	68fa      	ldr	r2, [r7, #12]
 8006c70:	4313      	orrs	r3, r2
 8006c72:	60fb      	str	r3, [r7, #12]
      htim->Instance->CCMR1 = tmpccmr1;
 8006c74:	687b      	ldr	r3, [r7, #4]
 8006c76:	681b      	ldr	r3, [r3, #0]
 8006c78:	68fa      	ldr	r2, [r7, #12]
 8006c7a:	619a      	str	r2, [r3, #24]
      htim->Instance->CCER = tmpccer;
 8006c7c:	687b      	ldr	r3, [r7, #4]
 8006c7e:	681b      	ldr	r3, [r3, #0]
 8006c80:	693a      	ldr	r2, [r7, #16]
 8006c82:	621a      	str	r2, [r3, #32]
      break;
 8006c84:	e014      	b.n	8006cb0 <TIM_SlaveTimer_SetConfig+0x154>
      TIM_TI1_ConfigInputStage(htim->Instance,
 8006c86:	687b      	ldr	r3, [r7, #4]
 8006c88:	6818      	ldr	r0, [r3, #0]
 8006c8a:	683b      	ldr	r3, [r7, #0]
 8006c8c:	6899      	ldr	r1, [r3, #8]
 8006c8e:	683b      	ldr	r3, [r7, #0]
 8006c90:	691b      	ldr	r3, [r3, #16]
 8006c92:	461a      	mov	r2, r3
 8006c94:	f000 f81e 	bl	8006cd4 <TIM_TI1_ConfigInputStage>
      break;
 8006c98:	e00a      	b.n	8006cb0 <TIM_SlaveTimer_SetConfig+0x154>
      TIM_TI2_ConfigInputStage(htim->Instance,
 8006c9a:	687b      	ldr	r3, [r7, #4]
 8006c9c:	6818      	ldr	r0, [r3, #0]
 8006c9e:	683b      	ldr	r3, [r7, #0]
 8006ca0:	6899      	ldr	r1, [r3, #8]
 8006ca2:	683b      	ldr	r3, [r7, #0]
 8006ca4:	691b      	ldr	r3, [r3, #16]
 8006ca6:	461a      	mov	r2, r3
 8006ca8:	f000 f843 	bl	8006d32 <TIM_TI2_ConfigInputStage>
      break;
 8006cac:	e000      	b.n	8006cb0 <TIM_SlaveTimer_SetConfig+0x154>
      break;
 8006cae:	bf00      	nop
  }
  return HAL_OK;
 8006cb0:	2300      	movs	r3, #0
}
 8006cb2:	4618      	mov	r0, r3
 8006cb4:	3718      	adds	r7, #24
 8006cb6:	46bd      	mov	sp, r7
 8006cb8:	bd80      	pop	{r7, pc}
 8006cba:	bf00      	nop
 8006cbc:	00100030 	.word	0x00100030
 8006cc0:	00100020 	.word	0x00100020
 8006cc4:	00100050 	.word	0x00100050
 8006cc8:	00100040 	.word	0x00100040
 8006ccc:	00100060 	.word	0x00100060
 8006cd0:	00100070 	.word	0x00100070

08006cd4 <TIM_TI1_ConfigInputStage>:
  * @param  TIM_ICFilter Specifies the Input Capture Filter.
  *          This parameter must be a value between 0x00 and 0x0F.
  * @retval None
  */
static void TIM_TI1_ConfigInputStage(TIM_TypeDef *TIMx, uint32_t TIM_ICPolarity, uint32_t TIM_ICFilter)
{
 8006cd4:	b480      	push	{r7}
 8006cd6:	b087      	sub	sp, #28
 8006cd8:	af00      	add	r7, sp, #0
 8006cda:	60f8      	str	r0, [r7, #12]
 8006cdc:	60b9      	str	r1, [r7, #8]
 8006cde:	607a      	str	r2, [r7, #4]
  uint32_t tmpccmr1;
  uint32_t tmpccer;

  /* Disable the Channel 1: Reset the CC1E Bit */
  tmpccer = TIMx->CCER;
 8006ce0:	68fb      	ldr	r3, [r7, #12]
 8006ce2:	6a1b      	ldr	r3, [r3, #32]
 8006ce4:	617b      	str	r3, [r7, #20]
  TIMx->CCER &= ~TIM_CCER_CC1E;
 8006ce6:	68fb      	ldr	r3, [r7, #12]
 8006ce8:	6a1b      	ldr	r3, [r3, #32]
 8006cea:	f023 0201 	bic.w	r2, r3, #1
 8006cee:	68fb      	ldr	r3, [r7, #12]
 8006cf0:	621a      	str	r2, [r3, #32]
  tmpccmr1 = TIMx->CCMR1;
 8006cf2:	68fb      	ldr	r3, [r7, #12]
 8006cf4:	699b      	ldr	r3, [r3, #24]
 8006cf6:	613b      	str	r3, [r7, #16]

  /* Set the filter */
  tmpccmr1 &= ~TIM_CCMR1_IC1F;
 8006cf8:	693b      	ldr	r3, [r7, #16]
 8006cfa:	f023 03f0 	bic.w	r3, r3, #240	; 0xf0
 8006cfe:	613b      	str	r3, [r7, #16]
  tmpccmr1 |= (TIM_ICFilter << 4U);
 8006d00:	687b      	ldr	r3, [r7, #4]
 8006d02:	011b      	lsls	r3, r3, #4
 8006d04:	693a      	ldr	r2, [r7, #16]
 8006d06:	4313      	orrs	r3, r2
 8006d08:	613b      	str	r3, [r7, #16]

  /* Select the Polarity and set the CC1E Bit */
  tmpccer &= ~(TIM_CCER_CC1P | TIM_CCER_CC1NP);
 8006d0a:	697b      	ldr	r3, [r7, #20]
 8006d0c:	f023 030a 	bic.w	r3, r3, #10
 8006d10:	617b      	str	r3, [r7, #20]
  tmpccer |= TIM_ICPolarity;
 8006d12:	697a      	ldr	r2, [r7, #20]
 8006d14:	68bb      	ldr	r3, [r7, #8]
 8006d16:	4313      	orrs	r3, r2
 8006d18:	617b      	str	r3, [r7, #20]

  /* Write to TIMx CCMR1 and CCER registers */
  TIMx->CCMR1 = tmpccmr1;
 8006d1a:	68fb      	ldr	r3, [r7, #12]
 8006d1c:	693a      	ldr	r2, [r7, #16]
 8006d1e:	619a      	str	r2, [r3, #24]
  TIMx->CCER = tmpccer;
 8006d20:	68fb      	ldr	r3, [r7, #12]
 8006d22:	697a      	ldr	r2, [r7, #20]
 8006d24:	621a      	str	r2, [r3, #32]
}
 8006d26:	bf00      	nop
 8006d28:	371c      	adds	r7, #28
 8006d2a:	46bd      	mov	sp, r7
 8006d2c:	f85d 7b04 	ldr.w	r7, [sp], #4
 8006d30:	4770      	bx	lr

08006d32 <TIM_TI2_ConfigInputStage>:
  * @param  TIM_ICFilter Specifies the Input Capture Filter.
  *          This parameter must be a value between 0x00 and 0x0F.
  * @retval None
  */
static void TIM_TI2_ConfigInputStage(TIM_TypeDef *TIMx, uint32_t TIM_ICPolarity, uint32_t TIM_ICFilter)
{
 8006d32:	b480      	push	{r7}
 8006d34:	b087      	sub	sp, #28
 8006d36:	af00      	add	r7, sp, #0
 8006d38:	60f8      	str	r0, [r7, #12]
 8006d3a:	60b9      	str	r1, [r7, #8]
 8006d3c:	607a      	str	r2, [r7, #4]
  uint32_t tmpccmr1;
  uint32_t tmpccer;

  /* Disable the Channel 2: Reset the CC2E Bit */
  TIMx->CCER &= ~TIM_CCER_CC2E;
 8006d3e:	68fb      	ldr	r3, [r7, #12]
 8006d40:	6a1b      	ldr	r3, [r3, #32]
 8006d42:	f023 0210 	bic.w	r2, r3, #16
 8006d46:	68fb      	ldr	r3, [r7, #12]
 8006d48:	621a      	str	r2, [r3, #32]
  tmpccmr1 = TIMx->CCMR1;
 8006d4a:	68fb      	ldr	r3, [r7, #12]
 8006d4c:	699b      	ldr	r3, [r3, #24]
 8006d4e:	617b      	str	r3, [r7, #20]
  tmpccer = TIMx->CCER;
 8006d50:	68fb      	ldr	r3, [r7, #12]
 8006d52:	6a1b      	ldr	r3, [r3, #32]
 8006d54:	613b      	str	r3, [r7, #16]

  /* Set the filter */
  tmpccmr1 &= ~TIM_CCMR1_IC2F;
 8006d56:	697b      	ldr	r3, [r7, #20]
 8006d58:	f423 4370 	bic.w	r3, r3, #61440	; 0xf000
 8006d5c:	617b      	str	r3, [r7, #20]
  tmpccmr1 |= (TIM_ICFilter << 12U);
 8006d5e:	687b      	ldr	r3, [r7, #4]
 8006d60:	031b      	lsls	r3, r3, #12
 8006d62:	697a      	ldr	r2, [r7, #20]
 8006d64:	4313      	orrs	r3, r2
 8006d66:	617b      	str	r3, [r7, #20]

  /* Select the Polarity and set the CC2E Bit */
  tmpccer &= ~(TIM_CCER_CC2P | TIM_CCER_CC2NP);
 8006d68:	693b      	ldr	r3, [r7, #16]
 8006d6a:	f023 03a0 	bic.w	r3, r3, #160	; 0xa0
 8006d6e:	613b      	str	r3, [r7, #16]
  tmpccer |= (TIM_ICPolarity << 4U);
 8006d70:	68bb      	ldr	r3, [r7, #8]
 8006d72:	011b      	lsls	r3, r3, #4
 8006d74:	693a      	ldr	r2, [r7, #16]
 8006d76:	4313      	orrs	r3, r2
 8006d78:	613b      	str	r3, [r7, #16]

  /* Write to TIMx CCMR1 and CCER registers */
  TIMx->CCMR1 = tmpccmr1 ;
 8006d7a:	68fb      	ldr	r3, [r7, #12]
 8006d7c:	697a      	ldr	r2, [r7, #20]
 8006d7e:	619a      	str	r2, [r3, #24]
  TIMx->CCER = tmpccer;
 8006d80:	68fb      	ldr	r3, [r7, #12]
 8006d82:	693a      	ldr	r2, [r7, #16]
 8006d84:	621a      	str	r2, [r3, #32]
}
 8006d86:	bf00      	nop
 8006d88:	371c      	adds	r7, #28
 8006d8a:	46bd      	mov	sp, r7
 8006d8c:	f85d 7b04 	ldr.w	r7, [sp], #4
 8006d90:	4770      	bx	lr

08006d92 <TIM_ITRx_SetConfig>:
  *       (*)  Value not defined in all devices.
  *
  * @retval None
  */
static void TIM_ITRx_SetConfig(TIM_TypeDef *TIMx, uint32_t InputTriggerSource)
{
 8006d92:	b480      	push	{r7}
 8006d94:	b085      	sub	sp, #20
 8006d96:	af00      	add	r7, sp, #0
 8006d98:	6078      	str	r0, [r7, #4]
 8006d9a:	6039      	str	r1, [r7, #0]
  uint32_t tmpsmcr;

  /* Get the TIMx SMCR register value */
  tmpsmcr = TIMx->SMCR;
 8006d9c:	687b      	ldr	r3, [r7, #4]
 8006d9e:	689b      	ldr	r3, [r3, #8]
 8006da0:	60fb      	str	r3, [r7, #12]
  /* Reset the TS Bits */
  tmpsmcr &= ~TIM_SMCR_TS;
 8006da2:	68fb      	ldr	r3, [r7, #12]
 8006da4:	f423 1340 	bic.w	r3, r3, #3145728	; 0x300000
 8006da8:	f023 0370 	bic.w	r3, r3, #112	; 0x70
 8006dac:	60fb      	str	r3, [r7, #12]
  /* Set the Input Trigger source and the slave mode*/
  tmpsmcr |= (InputTriggerSource | TIM_SLAVEMODE_EXTERNAL1);
 8006dae:	683a      	ldr	r2, [r7, #0]
 8006db0:	68fb      	ldr	r3, [r7, #12]
 8006db2:	4313      	orrs	r3, r2
 8006db4:	f043 0307 	orr.w	r3, r3, #7
 8006db8:	60fb      	str	r3, [r7, #12]
  /* Write to TIMx SMCR */
  TIMx->SMCR = tmpsmcr;
 8006dba:	687b      	ldr	r3, [r7, #4]
 8006dbc:	68fa      	ldr	r2, [r7, #12]
 8006dbe:	609a      	str	r2, [r3, #8]
}
 8006dc0:	bf00      	nop
 8006dc2:	3714      	adds	r7, #20
 8006dc4:	46bd      	mov	sp, r7
 8006dc6:	f85d 7b04 	ldr.w	r7, [sp], #4
 8006dca:	4770      	bx	lr

08006dcc <TIM_ETR_SetConfig>:
  *          This parameter must be a value between 0x00 and 0x0F
  * @retval None
  */
void TIM_ETR_SetConfig(TIM_TypeDef *TIMx, uint32_t TIM_ExtTRGPrescaler,
                       uint32_t TIM_ExtTRGPolarity, uint32_t ExtTRGFilter)
{
 8006dcc:	b480      	push	{r7}
 8006dce:	b087      	sub	sp, #28
 8006dd0:	af00      	add	r7, sp, #0
 8006dd2:	60f8      	str	r0, [r7, #12]
 8006dd4:	60b9      	str	r1, [r7, #8]
 8006dd6:	607a      	str	r2, [r7, #4]
 8006dd8:	603b      	str	r3, [r7, #0]
  uint32_t tmpsmcr;

  tmpsmcr = TIMx->SMCR;
 8006dda:	68fb      	ldr	r3, [r7, #12]
 8006ddc:	689b      	ldr	r3, [r3, #8]
 8006dde:	617b      	str	r3, [r7, #20]

  /* Reset the ETR Bits */
  tmpsmcr &= ~(TIM_SMCR_ETF | TIM_SMCR_ETPS | TIM_SMCR_ECE | TIM_SMCR_ETP);
 8006de0:	697b      	ldr	r3, [r7, #20]
 8006de2:	f423 437f 	bic.w	r3, r3, #65280	; 0xff00
 8006de6:	617b      	str	r3, [r7, #20]

  /* Set the Prescaler, the Filter value and the Polarity */
  tmpsmcr |= (uint32_t)(TIM_ExtTRGPrescaler | (TIM_ExtTRGPolarity | (ExtTRGFilter << 8U)));
 8006de8:	683b      	ldr	r3, [r7, #0]
 8006dea:	021a      	lsls	r2, r3, #8
 8006dec:	687b      	ldr	r3, [r7, #4]
 8006dee:	431a      	orrs	r2, r3
 8006df0:	68bb      	ldr	r3, [r7, #8]
 8006df2:	4313      	orrs	r3, r2
 8006df4:	697a      	ldr	r2, [r7, #20]
 8006df6:	4313      	orrs	r3, r2
 8006df8:	617b      	str	r3, [r7, #20]

  /* Write to TIMx SMCR */
  TIMx->SMCR = tmpsmcr;
 8006dfa:	68fb      	ldr	r3, [r7, #12]
 8006dfc:	697a      	ldr	r2, [r7, #20]
 8006dfe:	609a      	str	r2, [r3, #8]
}
 8006e00:	bf00      	nop
 8006e02:	371c      	adds	r7, #28
 8006e04:	46bd      	mov	sp, r7
 8006e06:	f85d 7b04 	ldr.w	r7, [sp], #4
 8006e0a:	4770      	bx	lr

08006e0c <HAL_TIMEx_MasterConfigSynchronization>:
  *         mode.
  * @retval HAL status
  */
HAL_StatusTypeDef HAL_TIMEx_MasterConfigSynchronization(TIM_HandleTypeDef *htim,
                                                        TIM_MasterConfigTypeDef *sMasterConfig)
{
 8006e0c:	b480      	push	{r7}
 8006e0e:	b085      	sub	sp, #20
 8006e10:	af00      	add	r7, sp, #0
 8006e12:	6078      	str	r0, [r7, #4]
 8006e14:	6039      	str	r1, [r7, #0]
  assert_param(IS_TIM_MASTER_INSTANCE(htim->Instance));
  assert_param(IS_TIM_TRGO_SOURCE(sMasterConfig->MasterOutputTrigger));
  assert_param(IS_TIM_MSM_STATE(sMasterConfig->MasterSlaveMode));

  /* Check input state */
  __HAL_LOCK(htim);
 8006e16:	687b      	ldr	r3, [r7, #4]
 8006e18:	f893 303c 	ldrb.w	r3, [r3, #60]	; 0x3c
 8006e1c:	2b01      	cmp	r3, #1
 8006e1e:	d101      	bne.n	8006e24 <HAL_TIMEx_MasterConfigSynchronization+0x18>
 8006e20:	2302      	movs	r3, #2
 8006e22:	e074      	b.n	8006f0e <HAL_TIMEx_MasterConfigSynchronization+0x102>
 8006e24:	687b      	ldr	r3, [r7, #4]
 8006e26:	2201      	movs	r2, #1
 8006e28:	f883 203c 	strb.w	r2, [r3, #60]	; 0x3c

  /* Change the handler state */
  htim->State = HAL_TIM_STATE_BUSY;
 8006e2c:	687b      	ldr	r3, [r7, #4]
 8006e2e:	2202      	movs	r2, #2
 8006e30:	f883 203d 	strb.w	r2, [r3, #61]	; 0x3d

  /* Get the TIMx CR2 register value */
  tmpcr2 = htim->Instance->CR2;
 8006e34:	687b      	ldr	r3, [r7, #4]
 8006e36:	681b      	ldr	r3, [r3, #0]
 8006e38:	685b      	ldr	r3, [r3, #4]
 8006e3a:	60fb      	str	r3, [r7, #12]

  /* Get the TIMx SMCR register value */
  tmpsmcr = htim->Instance->SMCR;
 8006e3c:	687b      	ldr	r3, [r7, #4]
 8006e3e:	681b      	ldr	r3, [r3, #0]
 8006e40:	689b      	ldr	r3, [r3, #8]
 8006e42:	60bb      	str	r3, [r7, #8]

  /* If the timer supports ADC synchronization through TRGO2, set the master mode selection 2 */
  if (IS_TIM_TRGO2_INSTANCE(htim->Instance))
 8006e44:	687b      	ldr	r3, [r7, #4]
 8006e46:	681b      	ldr	r3, [r3, #0]
 8006e48:	4a34      	ldr	r2, [pc, #208]	; (8006f1c <HAL_TIMEx_MasterConfigSynchronization+0x110>)
 8006e4a:	4293      	cmp	r3, r2
 8006e4c:	d009      	beq.n	8006e62 <HAL_TIMEx_MasterConfigSynchronization+0x56>
 8006e4e:	687b      	ldr	r3, [r7, #4]
 8006e50:	681b      	ldr	r3, [r3, #0]
 8006e52:	4a33      	ldr	r2, [pc, #204]	; (8006f20 <HAL_TIMEx_MasterConfigSynchronization+0x114>)
 8006e54:	4293      	cmp	r3, r2
 8006e56:	d004      	beq.n	8006e62 <HAL_TIMEx_MasterConfigSynchronization+0x56>
 8006e58:	687b      	ldr	r3, [r7, #4]
 8006e5a:	681b      	ldr	r3, [r3, #0]
 8006e5c:	4a31      	ldr	r2, [pc, #196]	; (8006f24 <HAL_TIMEx_MasterConfigSynchronization+0x118>)
 8006e5e:	4293      	cmp	r3, r2
 8006e60:	d108      	bne.n	8006e74 <HAL_TIMEx_MasterConfigSynchronization+0x68>
  {
    /* Check the parameters */
    assert_param(IS_TIM_TRGO2_SOURCE(sMasterConfig->MasterOutputTrigger2));

    /* Clear the MMS2 bits */
    tmpcr2 &= ~TIM_CR2_MMS2;
 8006e62:	68fb      	ldr	r3, [r7, #12]
 8006e64:	f423 0370 	bic.w	r3, r3, #15728640	; 0xf00000
 8006e68:	60fb      	str	r3, [r7, #12]
    /* Select the TRGO2 source*/
    tmpcr2 |= sMasterConfig->MasterOutputTrigger2;
 8006e6a:	683b      	ldr	r3, [r7, #0]
 8006e6c:	685b      	ldr	r3, [r3, #4]
 8006e6e:	68fa      	ldr	r2, [r7, #12]
 8006e70:	4313      	orrs	r3, r2
 8006e72:	60fb      	str	r3, [r7, #12]
  }

  /* Reset the MMS Bits */
  tmpcr2 &= ~TIM_CR2_MMS;
 8006e74:	68fb      	ldr	r3, [r7, #12]
 8006e76:	f023 7300 	bic.w	r3, r3, #33554432	; 0x2000000
 8006e7a:	f023 0370 	bic.w	r3, r3, #112	; 0x70
 8006e7e:	60fb      	str	r3, [r7, #12]
  /* Select the TRGO source */
  tmpcr2 |=  sMasterConfig->MasterOutputTrigger;
 8006e80:	683b      	ldr	r3, [r7, #0]
 8006e82:	681b      	ldr	r3, [r3, #0]
 8006e84:	68fa      	ldr	r2, [r7, #12]
 8006e86:	4313      	orrs	r3, r2
 8006e88:	60fb      	str	r3, [r7, #12]

  /* Update TIMx CR2 */
  htim->Instance->CR2 = tmpcr2;
 8006e8a:	687b      	ldr	r3, [r7, #4]
 8006e8c:	681b      	ldr	r3, [r3, #0]
 8006e8e:	68fa      	ldr	r2, [r7, #12]
 8006e90:	605a      	str	r2, [r3, #4]

  if (IS_TIM_SLAVE_INSTANCE(htim->Instance))
 8006e92:	687b      	ldr	r3, [r7, #4]
 8006e94:	681b      	ldr	r3, [r3, #0]
 8006e96:	4a21      	ldr	r2, [pc, #132]	; (8006f1c <HAL_TIMEx_MasterConfigSynchronization+0x110>)
 8006e98:	4293      	cmp	r3, r2
 8006e9a:	d022      	beq.n	8006ee2 <HAL_TIMEx_MasterConfigSynchronization+0xd6>
 8006e9c:	687b      	ldr	r3, [r7, #4]
 8006e9e:	681b      	ldr	r3, [r3, #0]
 8006ea0:	f1b3 4f80 	cmp.w	r3, #1073741824	; 0x40000000
 8006ea4:	d01d      	beq.n	8006ee2 <HAL_TIMEx_MasterConfigSynchronization+0xd6>
 8006ea6:	687b      	ldr	r3, [r7, #4]
 8006ea8:	681b      	ldr	r3, [r3, #0]
 8006eaa:	4a1f      	ldr	r2, [pc, #124]	; (8006f28 <HAL_TIMEx_MasterConfigSynchronization+0x11c>)
 8006eac:	4293      	cmp	r3, r2
 8006eae:	d018      	beq.n	8006ee2 <HAL_TIMEx_MasterConfigSynchronization+0xd6>
 8006eb0:	687b      	ldr	r3, [r7, #4]
 8006eb2:	681b      	ldr	r3, [r3, #0]
 8006eb4:	4a1d      	ldr	r2, [pc, #116]	; (8006f2c <HAL_TIMEx_MasterConfigSynchronization+0x120>)
 8006eb6:	4293      	cmp	r3, r2
 8006eb8:	d013      	beq.n	8006ee2 <HAL_TIMEx_MasterConfigSynchronization+0xd6>
 8006eba:	687b      	ldr	r3, [r7, #4]
 8006ebc:	681b      	ldr	r3, [r3, #0]
 8006ebe:	4a1c      	ldr	r2, [pc, #112]	; (8006f30 <HAL_TIMEx_MasterConfigSynchronization+0x124>)
 8006ec0:	4293      	cmp	r3, r2
 8006ec2:	d00e      	beq.n	8006ee2 <HAL_TIMEx_MasterConfigSynchronization+0xd6>
 8006ec4:	687b      	ldr	r3, [r7, #4]
 8006ec6:	681b      	ldr	r3, [r3, #0]
 8006ec8:	4a15      	ldr	r2, [pc, #84]	; (8006f20 <HAL_TIMEx_MasterConfigSynchronization+0x114>)
 8006eca:	4293      	cmp	r3, r2
 8006ecc:	d009      	beq.n	8006ee2 <HAL_TIMEx_MasterConfigSynchronization+0xd6>
 8006ece:	687b      	ldr	r3, [r7, #4]
 8006ed0:	681b      	ldr	r3, [r3, #0]
 8006ed2:	4a18      	ldr	r2, [pc, #96]	; (8006f34 <HAL_TIMEx_MasterConfigSynchronization+0x128>)
 8006ed4:	4293      	cmp	r3, r2
 8006ed6:	d004      	beq.n	8006ee2 <HAL_TIMEx_MasterConfigSynchronization+0xd6>
 8006ed8:	687b      	ldr	r3, [r7, #4]
 8006eda:	681b      	ldr	r3, [r3, #0]
 8006edc:	4a11      	ldr	r2, [pc, #68]	; (8006f24 <HAL_TIMEx_MasterConfigSynchronization+0x118>)
 8006ede:	4293      	cmp	r3, r2
 8006ee0:	d10c      	bne.n	8006efc <HAL_TIMEx_MasterConfigSynchronization+0xf0>
  {
    /* Reset the MSM Bit */
    tmpsmcr &= ~TIM_SMCR_MSM;
 8006ee2:	68bb      	ldr	r3, [r7, #8]
 8006ee4:	f023 0380 	bic.w	r3, r3, #128	; 0x80
 8006ee8:	60bb      	str	r3, [r7, #8]
    /* Set master mode */
    tmpsmcr |= sMasterConfig->MasterSlaveMode;
 8006eea:	683b      	ldr	r3, [r7, #0]
 8006eec:	689b      	ldr	r3, [r3, #8]
 8006eee:	68ba      	ldr	r2, [r7, #8]
 8006ef0:	4313      	orrs	r3, r2
 8006ef2:	60bb      	str	r3, [r7, #8]

    /* Update TIMx SMCR */
    htim->Instance->SMCR = tmpsmcr;
 8006ef4:	687b      	ldr	r3, [r7, #4]
 8006ef6:	681b      	ldr	r3, [r3, #0]
 8006ef8:	68ba      	ldr	r2, [r7, #8]
 8006efa:	609a      	str	r2, [r3, #8]
  }

  /* Change the htim state */
  htim->State = HAL_TIM_STATE_READY;
 8006efc:	687b      	ldr	r3, [r7, #4]
 8006efe:	2201      	movs	r2, #1
 8006f00:	f883 203d 	strb.w	r2, [r3, #61]	; 0x3d

  __HAL_UNLOCK(htim);
 8006f04:	687b      	ldr	r3, [r7, #4]
 8006f06:	2200      	movs	r2, #0
 8006f08:	f883 203c 	strb.w	r2, [r3, #60]	; 0x3c

  return HAL_OK;
 8006f0c:	2300      	movs	r3, #0
}
 8006f0e:	4618      	mov	r0, r3
 8006f10:	3714      	adds	r7, #20
 8006f12:	46bd      	mov	sp, r7
 8006f14:	f85d 7b04 	ldr.w	r7, [sp], #4
 8006f18:	4770      	bx	lr
 8006f1a:	bf00      	nop
 8006f1c:	40012c00 	.word	0x40012c00
 8006f20:	40013400 	.word	0x40013400
 8006f24:	40015000 	.word	0x40015000
 8006f28:	40000400 	.word	0x40000400
 8006f2c:	40000800 	.word	0x40000800
 8006f30:	40000c00 	.word	0x40000c00
 8006f34:	40014000 	.word	0x40014000

08006f38 <HAL_TIMEx_ConfigBreakDeadTime>:
  *         interrupt can be enabled by calling the @ref __HAL_TIM_ENABLE_IT macro.
  * @retval HAL status
  */
HAL_StatusTypeDef HAL_TIMEx_ConfigBreakDeadTime(TIM_HandleTypeDef *htim,
                                                TIM_BreakDeadTimeConfigTypeDef *sBreakDeadTimeConfig)
{
 8006f38:	b480      	push	{r7}
 8006f3a:	b085      	sub	sp, #20
 8006f3c:	af00      	add	r7, sp, #0
 8006f3e:	6078      	str	r0, [r7, #4]
 8006f40:	6039      	str	r1, [r7, #0]
  /* Keep this variable initialized to 0 as it is used to configure BDTR register */
  uint32_t tmpbdtr = 0U;
 8006f42:	2300      	movs	r3, #0
 8006f44:	60fb      	str	r3, [r7, #12]
  assert_param(IS_TIM_BREAK_POLARITY(sBreakDeadTimeConfig->BreakPolarity));
  assert_param(IS_TIM_BREAK_FILTER(sBreakDeadTimeConfig->BreakFilter));
  assert_param(IS_TIM_AUTOMATIC_OUTPUT_STATE(sBreakDeadTimeConfig->AutomaticOutput));

  /* Check input state */
  __HAL_LOCK(htim);
 8006f46:	687b      	ldr	r3, [r7, #4]
 8006f48:	f893 303c 	ldrb.w	r3, [r3, #60]	; 0x3c
 8006f4c:	2b01      	cmp	r3, #1
 8006f4e:	d101      	bne.n	8006f54 <HAL_TIMEx_ConfigBreakDeadTime+0x1c>
 8006f50:	2302      	movs	r3, #2
 8006f52:	e096      	b.n	8007082 <HAL_TIMEx_ConfigBreakDeadTime+0x14a>
 8006f54:	687b      	ldr	r3, [r7, #4]
 8006f56:	2201      	movs	r2, #1
 8006f58:	f883 203c 	strb.w	r2, [r3, #60]	; 0x3c

  /* Set the Lock level, the Break enable Bit and the Polarity, the OSSR State,
     the OSSI State, the dead time value and the Automatic Output Enable Bit */

  /* Set the BDTR bits */
  MODIFY_REG(tmpbdtr, TIM_BDTR_DTG, sBreakDeadTimeConfig->DeadTime);
 8006f5c:	68fb      	ldr	r3, [r7, #12]
 8006f5e:	f023 02ff 	bic.w	r2, r3, #255	; 0xff
 8006f62:	683b      	ldr	r3, [r7, #0]
 8006f64:	68db      	ldr	r3, [r3, #12]
 8006f66:	4313      	orrs	r3, r2
 8006f68:	60fb      	str	r3, [r7, #12]
  MODIFY_REG(tmpbdtr, TIM_BDTR_LOCK, sBreakDeadTimeConfig->LockLevel);
 8006f6a:	68fb      	ldr	r3, [r7, #12]
 8006f6c:	f423 7240 	bic.w	r2, r3, #768	; 0x300
 8006f70:	683b      	ldr	r3, [r7, #0]
 8006f72:	689b      	ldr	r3, [r3, #8]
 8006f74:	4313      	orrs	r3, r2
 8006f76:	60fb      	str	r3, [r7, #12]
  MODIFY_REG(tmpbdtr, TIM_BDTR_OSSI, sBreakDeadTimeConfig->OffStateIDLEMode);
 8006f78:	68fb      	ldr	r3, [r7, #12]
 8006f7a:	f423 6280 	bic.w	r2, r3, #1024	; 0x400
 8006f7e:	683b      	ldr	r3, [r7, #0]
 8006f80:	685b      	ldr	r3, [r3, #4]
 8006f82:	4313      	orrs	r3, r2
 8006f84:	60fb      	str	r3, [r7, #12]
  MODIFY_REG(tmpbdtr, TIM_BDTR_OSSR, sBreakDeadTimeConfig->OffStateRunMode);
 8006f86:	68fb      	ldr	r3, [r7, #12]
 8006f88:	f423 6200 	bic.w	r2, r3, #2048	; 0x800
 8006f8c:	683b      	ldr	r3, [r7, #0]
 8006f8e:	681b      	ldr	r3, [r3, #0]
 8006f90:	4313      	orrs	r3, r2
 8006f92:	60fb      	str	r3, [r7, #12]
  MODIFY_REG(tmpbdtr, TIM_BDTR_BKE, sBreakDeadTimeConfig->BreakState);
 8006f94:	68fb      	ldr	r3, [r7, #12]
 8006f96:	f423 5280 	bic.w	r2, r3, #4096	; 0x1000
 8006f9a:	683b      	ldr	r3, [r7, #0]
 8006f9c:	691b      	ldr	r3, [r3, #16]
 8006f9e:	4313      	orrs	r3, r2
 8006fa0:	60fb      	str	r3, [r7, #12]
  MODIFY_REG(tmpbdtr, TIM_BDTR_BKP, sBreakDeadTimeConfig->BreakPolarity);
 8006fa2:	68fb      	ldr	r3, [r7, #12]
 8006fa4:	f423 5200 	bic.w	r2, r3, #8192	; 0x2000
 8006fa8:	683b      	ldr	r3, [r7, #0]
 8006faa:	695b      	ldr	r3, [r3, #20]
 8006fac:	4313      	orrs	r3, r2
 8006fae:	60fb      	str	r3, [r7, #12]
  MODIFY_REG(tmpbdtr, TIM_BDTR_AOE, sBreakDeadTimeConfig->AutomaticOutput);
 8006fb0:	68fb      	ldr	r3, [r7, #12]
 8006fb2:	f423 4280 	bic.w	r2, r3, #16384	; 0x4000
 8006fb6:	683b      	ldr	r3, [r7, #0]
 8006fb8:	6b1b      	ldr	r3, [r3, #48]	; 0x30
 8006fba:	4313      	orrs	r3, r2
 8006fbc:	60fb      	str	r3, [r7, #12]
  MODIFY_REG(tmpbdtr, TIM_BDTR_BKF, (sBreakDeadTimeConfig->BreakFilter << TIM_BDTR_BKF_Pos));
 8006fbe:	68fb      	ldr	r3, [r7, #12]
 8006fc0:	f423 2270 	bic.w	r2, r3, #983040	; 0xf0000
 8006fc4:	683b      	ldr	r3, [r7, #0]
 8006fc6:	699b      	ldr	r3, [r3, #24]
 8006fc8:	041b      	lsls	r3, r3, #16
 8006fca:	4313      	orrs	r3, r2
 8006fcc:	60fb      	str	r3, [r7, #12]

  if (IS_TIM_ADVANCED_INSTANCE(htim->Instance))
 8006fce:	687b      	ldr	r3, [r7, #4]
 8006fd0:	681b      	ldr	r3, [r3, #0]
 8006fd2:	4a2f      	ldr	r2, [pc, #188]	; (8007090 <HAL_TIMEx_ConfigBreakDeadTime+0x158>)
 8006fd4:	4293      	cmp	r3, r2
 8006fd6:	d009      	beq.n	8006fec <HAL_TIMEx_ConfigBreakDeadTime+0xb4>
 8006fd8:	687b      	ldr	r3, [r7, #4]
 8006fda:	681b      	ldr	r3, [r3, #0]
 8006fdc:	4a2d      	ldr	r2, [pc, #180]	; (8007094 <HAL_TIMEx_ConfigBreakDeadTime+0x15c>)
 8006fde:	4293      	cmp	r3, r2
 8006fe0:	d004      	beq.n	8006fec <HAL_TIMEx_ConfigBreakDeadTime+0xb4>
 8006fe2:	687b      	ldr	r3, [r7, #4]
 8006fe4:	681b      	ldr	r3, [r3, #0]
 8006fe6:	4a2c      	ldr	r2, [pc, #176]	; (8007098 <HAL_TIMEx_ConfigBreakDeadTime+0x160>)
 8006fe8:	4293      	cmp	r3, r2
 8006fea:	d106      	bne.n	8006ffa <HAL_TIMEx_ConfigBreakDeadTime+0xc2>
  {
    /* Check the parameters */
    assert_param(IS_TIM_BREAK_AFMODE(sBreakDeadTimeConfig->BreakAFMode));

    /* Set BREAK AF mode */
    MODIFY_REG(tmpbdtr, TIM_BDTR_BKBID, sBreakDeadTimeConfig->BreakAFMode);
 8006fec:	68fb      	ldr	r3, [r7, #12]
 8006fee:	f023 5280 	bic.w	r2, r3, #268435456	; 0x10000000
 8006ff2:	683b      	ldr	r3, [r7, #0]
 8006ff4:	69db      	ldr	r3, [r3, #28]
 8006ff6:	4313      	orrs	r3, r2
 8006ff8:	60fb      	str	r3, [r7, #12]
  }

  if (IS_TIM_BKIN2_INSTANCE(htim->Instance))
 8006ffa:	687b      	ldr	r3, [r7, #4]
 8006ffc:	681b      	ldr	r3, [r3, #0]
 8006ffe:	4a24      	ldr	r2, [pc, #144]	; (8007090 <HAL_TIMEx_ConfigBreakDeadTime+0x158>)
 8007000:	4293      	cmp	r3, r2
 8007002:	d009      	beq.n	8007018 <HAL_TIMEx_ConfigBreakDeadTime+0xe0>
 8007004:	687b      	ldr	r3, [r7, #4]
 8007006:	681b      	ldr	r3, [r3, #0]
 8007008:	4a22      	ldr	r2, [pc, #136]	; (8007094 <HAL_TIMEx_ConfigBreakDeadTime+0x15c>)
 800700a:	4293      	cmp	r3, r2
 800700c:	d004      	beq.n	8007018 <HAL_TIMEx_ConfigBreakDeadTime+0xe0>
 800700e:	687b      	ldr	r3, [r7, #4]
 8007010:	681b      	ldr	r3, [r3, #0]
 8007012:	4a21      	ldr	r2, [pc, #132]	; (8007098 <HAL_TIMEx_ConfigBreakDeadTime+0x160>)
 8007014:	4293      	cmp	r3, r2
 8007016:	d12b      	bne.n	8007070 <HAL_TIMEx_ConfigBreakDeadTime+0x138>
    assert_param(IS_TIM_BREAK2_STATE(sBreakDeadTimeConfig->Break2State));
    assert_param(IS_TIM_BREAK2_POLARITY(sBreakDeadTimeConfig->Break2Polarity));
    assert_param(IS_TIM_BREAK_FILTER(sBreakDeadTimeConfig->Break2Filter));

    /* Set the BREAK2 input related BDTR bits */
    MODIFY_REG(tmpbdtr, TIM_BDTR_BK2F, (sBreakDeadTimeConfig->Break2Filter << TIM_BDTR_BK2F_Pos));
 8007018:	68fb      	ldr	r3, [r7, #12]
 800701a:	f423 0270 	bic.w	r2, r3, #15728640	; 0xf00000
 800701e:	683b      	ldr	r3, [r7, #0]
 8007020:	6a9b      	ldr	r3, [r3, #40]	; 0x28
 8007022:	051b      	lsls	r3, r3, #20
 8007024:	4313      	orrs	r3, r2
 8007026:	60fb      	str	r3, [r7, #12]
    MODIFY_REG(tmpbdtr, TIM_BDTR_BK2E, sBreakDeadTimeConfig->Break2State);
 8007028:	68fb      	ldr	r3, [r7, #12]
 800702a:	f023 7280 	bic.w	r2, r3, #16777216	; 0x1000000
 800702e:	683b      	ldr	r3, [r7, #0]
 8007030:	6a1b      	ldr	r3, [r3, #32]
 8007032:	4313      	orrs	r3, r2
 8007034:	60fb      	str	r3, [r7, #12]
    MODIFY_REG(tmpbdtr, TIM_BDTR_BK2P, sBreakDeadTimeConfig->Break2Polarity);
 8007036:	68fb      	ldr	r3, [r7, #12]
 8007038:	f023 7200 	bic.w	r2, r3, #33554432	; 0x2000000
 800703c:	683b      	ldr	r3, [r7, #0]
 800703e:	6a5b      	ldr	r3, [r3, #36]	; 0x24
 8007040:	4313      	orrs	r3, r2
 8007042:	60fb      	str	r3, [r7, #12]

    if (IS_TIM_ADVANCED_INSTANCE(htim->Instance))
 8007044:	687b      	ldr	r3, [r7, #4]
 8007046:	681b      	ldr	r3, [r3, #0]
 8007048:	4a11      	ldr	r2, [pc, #68]	; (8007090 <HAL_TIMEx_ConfigBreakDeadTime+0x158>)
 800704a:	4293      	cmp	r3, r2
 800704c:	d009      	beq.n	8007062 <HAL_TIMEx_ConfigBreakDeadTime+0x12a>
 800704e:	687b      	ldr	r3, [r7, #4]
 8007050:	681b      	ldr	r3, [r3, #0]
 8007052:	4a10      	ldr	r2, [pc, #64]	; (8007094 <HAL_TIMEx_ConfigBreakDeadTime+0x15c>)
 8007054:	4293      	cmp	r3, r2
 8007056:	d004      	beq.n	8007062 <HAL_TIMEx_ConfigBreakDeadTime+0x12a>
 8007058:	687b      	ldr	r3, [r7, #4]
 800705a:	681b      	ldr	r3, [r3, #0]
 800705c:	4a0e      	ldr	r2, [pc, #56]	; (8007098 <HAL_TIMEx_ConfigBreakDeadTime+0x160>)
 800705e:	4293      	cmp	r3, r2
 8007060:	d106      	bne.n	8007070 <HAL_TIMEx_ConfigBreakDeadTime+0x138>
    {
      /* Check the parameters */
      assert_param(IS_TIM_BREAK2_AFMODE(sBreakDeadTimeConfig->Break2AFMode));

      /* Set BREAK2 AF mode */
      MODIFY_REG(tmpbdtr, TIM_BDTR_BK2BID, sBreakDeadTimeConfig->Break2AFMode);
 8007062:	68fb      	ldr	r3, [r7, #12]
 8007064:	f023 5200 	bic.w	r2, r3, #536870912	; 0x20000000
 8007068:	683b      	ldr	r3, [r7, #0]
 800706a:	6adb      	ldr	r3, [r3, #44]	; 0x2c
 800706c:	4313      	orrs	r3, r2
 800706e:	60fb      	str	r3, [r7, #12]
    }
  }

  /* Set TIMx_BDTR */
  htim->Instance->BDTR = tmpbdtr;
 8007070:	687b      	ldr	r3, [r7, #4]
 8007072:	681b      	ldr	r3, [r3, #0]
 8007074:	68fa      	ldr	r2, [r7, #12]
 8007076:	645a      	str	r2, [r3, #68]	; 0x44

  __HAL_UNLOCK(htim);
 8007078:	687b      	ldr	r3, [r7, #4]
 800707a:	2200      	movs	r2, #0
 800707c:	f883 203c 	strb.w	r2, [r3, #60]	; 0x3c

  return HAL_OK;
 8007080:	2300      	movs	r3, #0
}
 8007082:	4618      	mov	r0, r3
 8007084:	3714      	adds	r7, #20
 8007086:	46bd      	mov	sp, r7
 8007088:	f85d 7b04 	ldr.w	r7, [sp], #4
 800708c:	4770      	bx	lr
 800708e:	bf00      	nop
 8007090:	40012c00 	.word	0x40012c00
 8007094:	40013400 	.word	0x40013400
 8007098:	40015000 	.word	0x40015000

0800709c <HAL_TIMEx_CommutCallback>:
  * @brief  Hall commutation changed callback in non-blocking mode
  * @param  htim TIM handle
  * @retval None
  */
__weak void HAL_TIMEx_CommutCallback(TIM_HandleTypeDef *htim)
{
 800709c:	b480      	push	{r7}
 800709e:	b083      	sub	sp, #12
 80070a0:	af00      	add	r7, sp, #0
 80070a2:	6078      	str	r0, [r7, #4]
  UNUSED(htim);

  /* NOTE : This function should not be modified, when the callback is needed,
            the HAL_TIMEx_CommutCallback could be implemented in the user file
   */
}
 80070a4:	bf00      	nop
 80070a6:	370c      	adds	r7, #12
 80070a8:	46bd      	mov	sp, r7
 80070aa:	f85d 7b04 	ldr.w	r7, [sp], #4
 80070ae:	4770      	bx	lr

080070b0 <HAL_TIMEx_BreakCallback>:
  * @brief  Hall Break detection callback in non-blocking mode
  * @param  htim TIM handle
  * @retval None
  */
__weak void HAL_TIMEx_BreakCallback(TIM_HandleTypeDef *htim)
{
 80070b0:	b480      	push	{r7}
 80070b2:	b083      	sub	sp, #12
 80070b4:	af00      	add	r7, sp, #0
 80070b6:	6078      	str	r0, [r7, #4]
  UNUSED(htim);

  /* NOTE : This function should not be modified, when the callback is needed,
            the HAL_TIMEx_BreakCallback could be implemented in the user file
   */
}
 80070b8:	bf00      	nop
 80070ba:	370c      	adds	r7, #12
 80070bc:	46bd      	mov	sp, r7
 80070be:	f85d 7b04 	ldr.w	r7, [sp], #4
 80070c2:	4770      	bx	lr

080070c4 <HAL_TIMEx_Break2Callback>:
  * @brief  Hall Break2 detection callback in non blocking mode
  * @param  htim: TIM handle
  * @retval None
  */
__weak void HAL_TIMEx_Break2Callback(TIM_HandleTypeDef *htim)
{
 80070c4:	b480      	push	{r7}
 80070c6:	b083      	sub	sp, #12
 80070c8:	af00      	add	r7, sp, #0
 80070ca:	6078      	str	r0, [r7, #4]
  UNUSED(htim);

  /* NOTE : This function Should not be modified, when the callback is needed,
            the HAL_TIMEx_Break2Callback could be implemented in the user file
   */
}
 80070cc:	bf00      	nop
 80070ce:	370c      	adds	r7, #12
 80070d0:	46bd      	mov	sp, r7
 80070d2:	f85d 7b04 	ldr.w	r7, [sp], #4
 80070d6:	4770      	bx	lr

080070d8 <HAL_TIMEx_EncoderIndexCallback>:
  * @brief  Encoder index callback in non-blocking mode
  * @param  htim TIM handle
  * @retval None
  */
__weak void HAL_TIMEx_EncoderIndexCallback(TIM_HandleTypeDef *htim)
{
 80070d8:	b480      	push	{r7}
 80070da:	b083      	sub	sp, #12
 80070dc:	af00      	add	r7, sp, #0
 80070de:	6078      	str	r0, [r7, #4]
  UNUSED(htim);

  /* NOTE : This function should not be modified, when the callback is needed,
            the HAL_TIMEx_EncoderIndexCallback could be implemented in the user file
   */
}
 80070e0:	bf00      	nop
 80070e2:	370c      	adds	r7, #12
 80070e4:	46bd      	mov	sp, r7
 80070e6:	f85d 7b04 	ldr.w	r7, [sp], #4
 80070ea:	4770      	bx	lr

080070ec <HAL_TIMEx_DirectionChangeCallback>:
  * @brief  Direction change callback in non-blocking mode
  * @param  htim TIM handle
  * @retval None
  */
__weak void HAL_TIMEx_DirectionChangeCallback(TIM_HandleTypeDef *htim)
{
 80070ec:	b480      	push	{r7}
 80070ee:	b083      	sub	sp, #12
 80070f0:	af00      	add	r7, sp, #0
 80070f2:	6078      	str	r0, [r7, #4]
  UNUSED(htim);

  /* NOTE : This function should not be modified, when the callback is needed,
            the HAL_TIMEx_DirectionChangeCallback could be implemented in the user file
   */
}
 80070f4:	bf00      	nop
 80070f6:	370c      	adds	r7, #12
 80070f8:	46bd      	mov	sp, r7
 80070fa:	f85d 7b04 	ldr.w	r7, [sp], #4
 80070fe:	4770      	bx	lr

08007100 <HAL_TIMEx_IndexErrorCallback>:
  * @brief  Index error callback in non-blocking mode
  * @param  htim TIM handle
  * @retval None
  */
__weak void HAL_TIMEx_IndexErrorCallback(TIM_HandleTypeDef *htim)
{
 8007100:	b480      	push	{r7}
 8007102:	b083      	sub	sp, #12
 8007104:	af00      	add	r7, sp, #0
 8007106:	6078      	str	r0, [r7, #4]
  UNUSED(htim);

  /* NOTE : This function should not be modified, when the callback is needed,
            the HAL_TIMEx_IndexErrorCallback could be implemented in the user file
   */
}
 8007108:	bf00      	nop
 800710a:	370c      	adds	r7, #12
 800710c:	46bd      	mov	sp, r7
 800710e:	f85d 7b04 	ldr.w	r7, [sp], #4
 8007112:	4770      	bx	lr

08007114 <HAL_TIMEx_TransitionErrorCallback>:
  * @brief  Transition error callback in non-blocking mode
  * @param  htim TIM handle
  * @retval None
  */
__weak void HAL_TIMEx_TransitionErrorCallback(TIM_HandleTypeDef *htim)
{
 8007114:	b480      	push	{r7}
 8007116:	b083      	sub	sp, #12
 8007118:	af00      	add	r7, sp, #0
 800711a:	6078      	str	r0, [r7, #4]
  UNUSED(htim);

  /* NOTE : This function should not be modified, when the callback is needed,
            the HAL_TIMEx_TransitionErrorCallback could be implemented in the user file
   */
}
 800711c:	bf00      	nop
 800711e:	370c      	adds	r7, #12
 8007120:	46bd      	mov	sp, r7
 8007122:	f85d 7b04 	ldr.w	r7, [sp], #4
 8007126:	4770      	bx	lr

08007128 <LL_EXTI_EnableIT_0_31>:
{
 8007128:	b480      	push	{r7}
 800712a:	b083      	sub	sp, #12
 800712c:	af00      	add	r7, sp, #0
 800712e:	6078      	str	r0, [r7, #4]
  SET_BIT(EXTI->IMR1, ExtiLine);
 8007130:	4b05      	ldr	r3, [pc, #20]	; (8007148 <LL_EXTI_EnableIT_0_31+0x20>)
 8007132:	681a      	ldr	r2, [r3, #0]
 8007134:	4904      	ldr	r1, [pc, #16]	; (8007148 <LL_EXTI_EnableIT_0_31+0x20>)
 8007136:	687b      	ldr	r3, [r7, #4]
 8007138:	4313      	orrs	r3, r2
 800713a:	600b      	str	r3, [r1, #0]
}
 800713c:	bf00      	nop
 800713e:	370c      	adds	r7, #12
 8007140:	46bd      	mov	sp, r7
 8007142:	f85d 7b04 	ldr.w	r7, [sp], #4
 8007146:	4770      	bx	lr
 8007148:	40010400 	.word	0x40010400

0800714c <LL_EXTI_EnableIT_32_63>:
{
 800714c:	b480      	push	{r7}
 800714e:	b083      	sub	sp, #12
 8007150:	af00      	add	r7, sp, #0
 8007152:	6078      	str	r0, [r7, #4]
  SET_BIT(EXTI->IMR2, ExtiLine);
 8007154:	4b05      	ldr	r3, [pc, #20]	; (800716c <LL_EXTI_EnableIT_32_63+0x20>)
 8007156:	6a1a      	ldr	r2, [r3, #32]
 8007158:	4904      	ldr	r1, [pc, #16]	; (800716c <LL_EXTI_EnableIT_32_63+0x20>)
 800715a:	687b      	ldr	r3, [r7, #4]
 800715c:	4313      	orrs	r3, r2
 800715e:	620b      	str	r3, [r1, #32]
}
 8007160:	bf00      	nop
 8007162:	370c      	adds	r7, #12
 8007164:	46bd      	mov	sp, r7
 8007166:	f85d 7b04 	ldr.w	r7, [sp], #4
 800716a:	4770      	bx	lr
 800716c:	40010400 	.word	0x40010400

08007170 <LL_EXTI_DisableIT_0_31>:
{
 8007170:	b480      	push	{r7}
 8007172:	b083      	sub	sp, #12
 8007174:	af00      	add	r7, sp, #0
 8007176:	6078      	str	r0, [r7, #4]
  CLEAR_BIT(EXTI->IMR1, ExtiLine);
 8007178:	4b06      	ldr	r3, [pc, #24]	; (8007194 <LL_EXTI_DisableIT_0_31+0x24>)
 800717a:	681a      	ldr	r2, [r3, #0]
 800717c:	687b      	ldr	r3, [r7, #4]
 800717e:	43db      	mvns	r3, r3
 8007180:	4904      	ldr	r1, [pc, #16]	; (8007194 <LL_EXTI_DisableIT_0_31+0x24>)
 8007182:	4013      	ands	r3, r2
 8007184:	600b      	str	r3, [r1, #0]
}
 8007186:	bf00      	nop
 8007188:	370c      	adds	r7, #12
 800718a:	46bd      	mov	sp, r7
 800718c:	f85d 7b04 	ldr.w	r7, [sp], #4
 8007190:	4770      	bx	lr
 8007192:	bf00      	nop
 8007194:	40010400 	.word	0x40010400

08007198 <LL_EXTI_DisableIT_32_63>:
{
 8007198:	b480      	push	{r7}
 800719a:	b083      	sub	sp, #12
 800719c:	af00      	add	r7, sp, #0
 800719e:	6078      	str	r0, [r7, #4]
  CLEAR_BIT(EXTI->IMR2, ExtiLine);
 80071a0:	4b06      	ldr	r3, [pc, #24]	; (80071bc <LL_EXTI_DisableIT_32_63+0x24>)
 80071a2:	6a1a      	ldr	r2, [r3, #32]
 80071a4:	687b      	ldr	r3, [r7, #4]
 80071a6:	43db      	mvns	r3, r3
 80071a8:	4904      	ldr	r1, [pc, #16]	; (80071bc <LL_EXTI_DisableIT_32_63+0x24>)
 80071aa:	4013      	ands	r3, r2
 80071ac:	620b      	str	r3, [r1, #32]
}
 80071ae:	bf00      	nop
 80071b0:	370c      	adds	r7, #12
 80071b2:	46bd      	mov	sp, r7
 80071b4:	f85d 7b04 	ldr.w	r7, [sp], #4
 80071b8:	4770      	bx	lr
 80071ba:	bf00      	nop
 80071bc:	40010400 	.word	0x40010400

080071c0 <LL_EXTI_EnableEvent_0_31>:
{
 80071c0:	b480      	push	{r7}
 80071c2:	b083      	sub	sp, #12
 80071c4:	af00      	add	r7, sp, #0
 80071c6:	6078      	str	r0, [r7, #4]
  SET_BIT(EXTI->EMR1, ExtiLine);
 80071c8:	4b05      	ldr	r3, [pc, #20]	; (80071e0 <LL_EXTI_EnableEvent_0_31+0x20>)
 80071ca:	685a      	ldr	r2, [r3, #4]
 80071cc:	4904      	ldr	r1, [pc, #16]	; (80071e0 <LL_EXTI_EnableEvent_0_31+0x20>)
 80071ce:	687b      	ldr	r3, [r7, #4]
 80071d0:	4313      	orrs	r3, r2
 80071d2:	604b      	str	r3, [r1, #4]
}
 80071d4:	bf00      	nop
 80071d6:	370c      	adds	r7, #12
 80071d8:	46bd      	mov	sp, r7
 80071da:	f85d 7b04 	ldr.w	r7, [sp], #4
 80071de:	4770      	bx	lr
 80071e0:	40010400 	.word	0x40010400

080071e4 <LL_EXTI_EnableEvent_32_63>:
{
 80071e4:	b480      	push	{r7}
 80071e6:	b083      	sub	sp, #12
 80071e8:	af00      	add	r7, sp, #0
 80071ea:	6078      	str	r0, [r7, #4]
  SET_BIT(EXTI->EMR2, ExtiLine);
 80071ec:	4b05      	ldr	r3, [pc, #20]	; (8007204 <LL_EXTI_EnableEvent_32_63+0x20>)
 80071ee:	6a5a      	ldr	r2, [r3, #36]	; 0x24
 80071f0:	4904      	ldr	r1, [pc, #16]	; (8007204 <LL_EXTI_EnableEvent_32_63+0x20>)
 80071f2:	687b      	ldr	r3, [r7, #4]
 80071f4:	4313      	orrs	r3, r2
 80071f6:	624b      	str	r3, [r1, #36]	; 0x24
}
 80071f8:	bf00      	nop
 80071fa:	370c      	adds	r7, #12
 80071fc:	46bd      	mov	sp, r7
 80071fe:	f85d 7b04 	ldr.w	r7, [sp], #4
 8007202:	4770      	bx	lr
 8007204:	40010400 	.word	0x40010400

08007208 <LL_EXTI_DisableEvent_0_31>:
{
 8007208:	b480      	push	{r7}
 800720a:	b083      	sub	sp, #12
 800720c:	af00      	add	r7, sp, #0
 800720e:	6078      	str	r0, [r7, #4]
  CLEAR_BIT(EXTI->EMR1, ExtiLine);
 8007210:	4b06      	ldr	r3, [pc, #24]	; (800722c <LL_EXTI_DisableEvent_0_31+0x24>)
 8007212:	685a      	ldr	r2, [r3, #4]
 8007214:	687b      	ldr	r3, [r7, #4]
 8007216:	43db      	mvns	r3, r3
 8007218:	4904      	ldr	r1, [pc, #16]	; (800722c <LL_EXTI_DisableEvent_0_31+0x24>)
 800721a:	4013      	ands	r3, r2
 800721c:	604b      	str	r3, [r1, #4]
}
 800721e:	bf00      	nop
 8007220:	370c      	adds	r7, #12
 8007222:	46bd      	mov	sp, r7
 8007224:	f85d 7b04 	ldr.w	r7, [sp], #4
 8007228:	4770      	bx	lr
 800722a:	bf00      	nop
 800722c:	40010400 	.word	0x40010400

08007230 <LL_EXTI_DisableEvent_32_63>:
{
 8007230:	b480      	push	{r7}
 8007232:	b083      	sub	sp, #12
 8007234:	af00      	add	r7, sp, #0
 8007236:	6078      	str	r0, [r7, #4]
  CLEAR_BIT(EXTI->EMR2, ExtiLine);
 8007238:	4b06      	ldr	r3, [pc, #24]	; (8007254 <LL_EXTI_DisableEvent_32_63+0x24>)
 800723a:	6a5a      	ldr	r2, [r3, #36]	; 0x24
 800723c:	687b      	ldr	r3, [r7, #4]
 800723e:	43db      	mvns	r3, r3
 8007240:	4904      	ldr	r1, [pc, #16]	; (8007254 <LL_EXTI_DisableEvent_32_63+0x24>)
 8007242:	4013      	ands	r3, r2
 8007244:	624b      	str	r3, [r1, #36]	; 0x24
}
 8007246:	bf00      	nop
 8007248:	370c      	adds	r7, #12
 800724a:	46bd      	mov	sp, r7
 800724c:	f85d 7b04 	ldr.w	r7, [sp], #4
 8007250:	4770      	bx	lr
 8007252:	bf00      	nop
 8007254:	40010400 	.word	0x40010400

08007258 <LL_EXTI_EnableRisingTrig_0_31>:
{
 8007258:	b480      	push	{r7}
 800725a:	b083      	sub	sp, #12
 800725c:	af00      	add	r7, sp, #0
 800725e:	6078      	str	r0, [r7, #4]
  SET_BIT(EXTI->RTSR1, ExtiLine);
 8007260:	4b05      	ldr	r3, [pc, #20]	; (8007278 <LL_EXTI_EnableRisingTrig_0_31+0x20>)
 8007262:	689a      	ldr	r2, [r3, #8]
 8007264:	4904      	ldr	r1, [pc, #16]	; (8007278 <LL_EXTI_EnableRisingTrig_0_31+0x20>)
 8007266:	687b      	ldr	r3, [r7, #4]
 8007268:	4313      	orrs	r3, r2
 800726a:	608b      	str	r3, [r1, #8]
}
 800726c:	bf00      	nop
 800726e:	370c      	adds	r7, #12
 8007270:	46bd      	mov	sp, r7
 8007272:	f85d 7b04 	ldr.w	r7, [sp], #4
 8007276:	4770      	bx	lr
 8007278:	40010400 	.word	0x40010400

0800727c <LL_EXTI_EnableRisingTrig_32_63>:
{
 800727c:	b480      	push	{r7}
 800727e:	b083      	sub	sp, #12
 8007280:	af00      	add	r7, sp, #0
 8007282:	6078      	str	r0, [r7, #4]
  SET_BIT(EXTI->RTSR2, ExtiLine);
 8007284:	4b05      	ldr	r3, [pc, #20]	; (800729c <LL_EXTI_EnableRisingTrig_32_63+0x20>)
 8007286:	6a9a      	ldr	r2, [r3, #40]	; 0x28
 8007288:	4904      	ldr	r1, [pc, #16]	; (800729c <LL_EXTI_EnableRisingTrig_32_63+0x20>)
 800728a:	687b      	ldr	r3, [r7, #4]
 800728c:	4313      	orrs	r3, r2
 800728e:	628b      	str	r3, [r1, #40]	; 0x28
}
 8007290:	bf00      	nop
 8007292:	370c      	adds	r7, #12
 8007294:	46bd      	mov	sp, r7
 8007296:	f85d 7b04 	ldr.w	r7, [sp], #4
 800729a:	4770      	bx	lr
 800729c:	40010400 	.word	0x40010400

080072a0 <LL_EXTI_DisableRisingTrig_0_31>:
{
 80072a0:	b480      	push	{r7}
 80072a2:	b083      	sub	sp, #12
 80072a4:	af00      	add	r7, sp, #0
 80072a6:	6078      	str	r0, [r7, #4]
  CLEAR_BIT(EXTI->RTSR1, ExtiLine);
 80072a8:	4b06      	ldr	r3, [pc, #24]	; (80072c4 <LL_EXTI_DisableRisingTrig_0_31+0x24>)
 80072aa:	689a      	ldr	r2, [r3, #8]
 80072ac:	687b      	ldr	r3, [r7, #4]
 80072ae:	43db      	mvns	r3, r3
 80072b0:	4904      	ldr	r1, [pc, #16]	; (80072c4 <LL_EXTI_DisableRisingTrig_0_31+0x24>)
 80072b2:	4013      	ands	r3, r2
 80072b4:	608b      	str	r3, [r1, #8]
}
 80072b6:	bf00      	nop
 80072b8:	370c      	adds	r7, #12
 80072ba:	46bd      	mov	sp, r7
 80072bc:	f85d 7b04 	ldr.w	r7, [sp], #4
 80072c0:	4770      	bx	lr
 80072c2:	bf00      	nop
 80072c4:	40010400 	.word	0x40010400

080072c8 <LL_EXTI_DisableRisingTrig_32_63>:
{
 80072c8:	b480      	push	{r7}
 80072ca:	b083      	sub	sp, #12
 80072cc:	af00      	add	r7, sp, #0
 80072ce:	6078      	str	r0, [r7, #4]
  CLEAR_BIT(EXTI->RTSR2, ExtiLine);
 80072d0:	4b06      	ldr	r3, [pc, #24]	; (80072ec <LL_EXTI_DisableRisingTrig_32_63+0x24>)
 80072d2:	6a9a      	ldr	r2, [r3, #40]	; 0x28
 80072d4:	687b      	ldr	r3, [r7, #4]
 80072d6:	43db      	mvns	r3, r3
 80072d8:	4904      	ldr	r1, [pc, #16]	; (80072ec <LL_EXTI_DisableRisingTrig_32_63+0x24>)
 80072da:	4013      	ands	r3, r2
 80072dc:	628b      	str	r3, [r1, #40]	; 0x28
}
 80072de:	bf00      	nop
 80072e0:	370c      	adds	r7, #12
 80072e2:	46bd      	mov	sp, r7
 80072e4:	f85d 7b04 	ldr.w	r7, [sp], #4
 80072e8:	4770      	bx	lr
 80072ea:	bf00      	nop
 80072ec:	40010400 	.word	0x40010400

080072f0 <LL_EXTI_EnableFallingTrig_0_31>:
{
 80072f0:	b480      	push	{r7}
 80072f2:	b083      	sub	sp, #12
 80072f4:	af00      	add	r7, sp, #0
 80072f6:	6078      	str	r0, [r7, #4]
  SET_BIT(EXTI->FTSR1, ExtiLine);
 80072f8:	4b05      	ldr	r3, [pc, #20]	; (8007310 <LL_EXTI_EnableFallingTrig_0_31+0x20>)
 80072fa:	68da      	ldr	r2, [r3, #12]
 80072fc:	4904      	ldr	r1, [pc, #16]	; (8007310 <LL_EXTI_EnableFallingTrig_0_31+0x20>)
 80072fe:	687b      	ldr	r3, [r7, #4]
 8007300:	4313      	orrs	r3, r2
 8007302:	60cb      	str	r3, [r1, #12]
}
 8007304:	bf00      	nop
 8007306:	370c      	adds	r7, #12
 8007308:	46bd      	mov	sp, r7
 800730a:	f85d 7b04 	ldr.w	r7, [sp], #4
 800730e:	4770      	bx	lr
 8007310:	40010400 	.word	0x40010400

08007314 <LL_EXTI_EnableFallingTrig_32_63>:
{
 8007314:	b480      	push	{r7}
 8007316:	b083      	sub	sp, #12
 8007318:	af00      	add	r7, sp, #0
 800731a:	6078      	str	r0, [r7, #4]
  SET_BIT(EXTI->FTSR2, ExtiLine);
 800731c:	4b05      	ldr	r3, [pc, #20]	; (8007334 <LL_EXTI_EnableFallingTrig_32_63+0x20>)
 800731e:	6ada      	ldr	r2, [r3, #44]	; 0x2c
 8007320:	4904      	ldr	r1, [pc, #16]	; (8007334 <LL_EXTI_EnableFallingTrig_32_63+0x20>)
 8007322:	687b      	ldr	r3, [r7, #4]
 8007324:	4313      	orrs	r3, r2
 8007326:	62cb      	str	r3, [r1, #44]	; 0x2c
}
 8007328:	bf00      	nop
 800732a:	370c      	adds	r7, #12
 800732c:	46bd      	mov	sp, r7
 800732e:	f85d 7b04 	ldr.w	r7, [sp], #4
 8007332:	4770      	bx	lr
 8007334:	40010400 	.word	0x40010400

08007338 <LL_EXTI_DisableFallingTrig_0_31>:
{
 8007338:	b480      	push	{r7}
 800733a:	b083      	sub	sp, #12
 800733c:	af00      	add	r7, sp, #0
 800733e:	6078      	str	r0, [r7, #4]
  CLEAR_BIT(EXTI->FTSR1, ExtiLine);
 8007340:	4b06      	ldr	r3, [pc, #24]	; (800735c <LL_EXTI_DisableFallingTrig_0_31+0x24>)
 8007342:	68da      	ldr	r2, [r3, #12]
 8007344:	687b      	ldr	r3, [r7, #4]
 8007346:	43db      	mvns	r3, r3
 8007348:	4904      	ldr	r1, [pc, #16]	; (800735c <LL_EXTI_DisableFallingTrig_0_31+0x24>)
 800734a:	4013      	ands	r3, r2
 800734c:	60cb      	str	r3, [r1, #12]
}
 800734e:	bf00      	nop
 8007350:	370c      	adds	r7, #12
 8007352:	46bd      	mov	sp, r7
 8007354:	f85d 7b04 	ldr.w	r7, [sp], #4
 8007358:	4770      	bx	lr
 800735a:	bf00      	nop
 800735c:	40010400 	.word	0x40010400

08007360 <LL_EXTI_DisableFallingTrig_32_63>:
{
 8007360:	b480      	push	{r7}
 8007362:	b083      	sub	sp, #12
 8007364:	af00      	add	r7, sp, #0
 8007366:	6078      	str	r0, [r7, #4]
  CLEAR_BIT(EXTI->FTSR2, ExtiLine);
 8007368:	4b06      	ldr	r3, [pc, #24]	; (8007384 <LL_EXTI_DisableFallingTrig_32_63+0x24>)
 800736a:	6ada      	ldr	r2, [r3, #44]	; 0x2c
 800736c:	687b      	ldr	r3, [r7, #4]
 800736e:	43db      	mvns	r3, r3
 8007370:	4904      	ldr	r1, [pc, #16]	; (8007384 <LL_EXTI_DisableFallingTrig_32_63+0x24>)
 8007372:	4013      	ands	r3, r2
 8007374:	62cb      	str	r3, [r1, #44]	; 0x2c
}
 8007376:	bf00      	nop
 8007378:	370c      	adds	r7, #12
 800737a:	46bd      	mov	sp, r7
 800737c:	f85d 7b04 	ldr.w	r7, [sp], #4
 8007380:	4770      	bx	lr
 8007382:	bf00      	nop
 8007384:	40010400 	.word	0x40010400

08007388 <LL_EXTI_Init>:
  * @retval An ErrorStatus enumeration value:
  *          - 0x00: EXTI registers are initialized
  *          - any other calue : wrong configuration
  */
uint32_t LL_EXTI_Init(LL_EXTI_InitTypeDef *EXTI_InitStruct)
{
 8007388:	b580      	push	{r7, lr}
 800738a:	b084      	sub	sp, #16
 800738c:	af00      	add	r7, sp, #0
 800738e:	6078      	str	r0, [r7, #4]
  uint32_t status = 0x00u;
 8007390:	2300      	movs	r3, #0
 8007392:	60fb      	str	r3, [r7, #12]
  assert_param(IS_LL_EXTI_LINE_32_63(EXTI_InitStruct->Line_32_63));
  assert_param(IS_FUNCTIONAL_STATE(EXTI_InitStruct->LineCommand));
  assert_param(IS_LL_EXTI_MODE(EXTI_InitStruct->Mode));

  /* ENABLE LineCommand */
  if (EXTI_InitStruct->LineCommand != DISABLE)
 8007394:	687b      	ldr	r3, [r7, #4]
 8007396:	7a1b      	ldrb	r3, [r3, #8]
 8007398:	2b00      	cmp	r3, #0
 800739a:	f000 80c8 	beq.w	800752e <LL_EXTI_Init+0x1a6>
  {
    assert_param(IS_LL_EXTI_TRIGGER(EXTI_InitStruct->Trigger));

    /* Configure EXTI Lines in range from 0 to 31 */
    if (EXTI_InitStruct->Line_0_31 != LL_EXTI_LINE_NONE)
 800739e:	687b      	ldr	r3, [r7, #4]
 80073a0:	681b      	ldr	r3, [r3, #0]
 80073a2:	2b00      	cmp	r3, #0
 80073a4:	d05d      	beq.n	8007462 <LL_EXTI_Init+0xda>
    {
      switch (EXTI_InitStruct->Mode)
 80073a6:	687b      	ldr	r3, [r7, #4]
 80073a8:	7a5b      	ldrb	r3, [r3, #9]
 80073aa:	2b01      	cmp	r3, #1
 80073ac:	d00e      	beq.n	80073cc <LL_EXTI_Init+0x44>
 80073ae:	2b02      	cmp	r3, #2
 80073b0:	d017      	beq.n	80073e2 <LL_EXTI_Init+0x5a>
 80073b2:	2b00      	cmp	r3, #0
 80073b4:	d120      	bne.n	80073f8 <LL_EXTI_Init+0x70>
      {
        case LL_EXTI_MODE_IT:
          /* First Disable Event on provided Lines */
          LL_EXTI_DisableEvent_0_31(EXTI_InitStruct->Line_0_31);
 80073b6:	687b      	ldr	r3, [r7, #4]
 80073b8:	681b      	ldr	r3, [r3, #0]
 80073ba:	4618      	mov	r0, r3
 80073bc:	f7ff ff24 	bl	8007208 <LL_EXTI_DisableEvent_0_31>
          /* Then Enable IT on provided Lines */
          LL_EXTI_EnableIT_0_31(EXTI_InitStruct->Line_0_31);
 80073c0:	687b      	ldr	r3, [r7, #4]
 80073c2:	681b      	ldr	r3, [r3, #0]
 80073c4:	4618      	mov	r0, r3
 80073c6:	f7ff feaf 	bl	8007128 <LL_EXTI_EnableIT_0_31>
          break;
 80073ca:	e018      	b.n	80073fe <LL_EXTI_Init+0x76>
        case LL_EXTI_MODE_EVENT:
          /* First Disable IT on provided Lines */
          LL_EXTI_DisableIT_0_31(EXTI_InitStruct->Line_0_31);
 80073cc:	687b      	ldr	r3, [r7, #4]
 80073ce:	681b      	ldr	r3, [r3, #0]
 80073d0:	4618      	mov	r0, r3
 80073d2:	f7ff fecd 	bl	8007170 <LL_EXTI_DisableIT_0_31>
          /* Then Enable Event on provided Lines */
          LL_EXTI_EnableEvent_0_31(EXTI_InitStruct->Line_0_31);
 80073d6:	687b      	ldr	r3, [r7, #4]
 80073d8:	681b      	ldr	r3, [r3, #0]
 80073da:	4618      	mov	r0, r3
 80073dc:	f7ff fef0 	bl	80071c0 <LL_EXTI_EnableEvent_0_31>
          break;
 80073e0:	e00d      	b.n	80073fe <LL_EXTI_Init+0x76>
        case LL_EXTI_MODE_IT_EVENT:
          /* Directly Enable IT on provided Lines */
          LL_EXTI_EnableIT_0_31(EXTI_InitStruct->Line_0_31);
 80073e2:	687b      	ldr	r3, [r7, #4]
 80073e4:	681b      	ldr	r3, [r3, #0]
 80073e6:	4618      	mov	r0, r3
 80073e8:	f7ff fe9e 	bl	8007128 <LL_EXTI_EnableIT_0_31>
          /* Directly Enable Event on provided Lines */
          LL_EXTI_EnableEvent_0_31(EXTI_InitStruct->Line_0_31);
 80073ec:	687b      	ldr	r3, [r7, #4]
 80073ee:	681b      	ldr	r3, [r3, #0]
 80073f0:	4618      	mov	r0, r3
 80073f2:	f7ff fee5 	bl	80071c0 <LL_EXTI_EnableEvent_0_31>
          break;
 80073f6:	e002      	b.n	80073fe <LL_EXTI_Init+0x76>
        default:
          status = 0x01u;
 80073f8:	2301      	movs	r3, #1
 80073fa:	60fb      	str	r3, [r7, #12]
          break;
 80073fc:	bf00      	nop
      }
      if (EXTI_InitStruct->Trigger != LL_EXTI_TRIGGER_NONE)
 80073fe:	687b      	ldr	r3, [r7, #4]
 8007400:	7a9b      	ldrb	r3, [r3, #10]
 8007402:	2b00      	cmp	r3, #0
 8007404:	d02d      	beq.n	8007462 <LL_EXTI_Init+0xda>
      {
        switch (EXTI_InitStruct->Trigger)
 8007406:	687b      	ldr	r3, [r7, #4]
 8007408:	7a9b      	ldrb	r3, [r3, #10]
 800740a:	2b02      	cmp	r3, #2
 800740c:	d00e      	beq.n	800742c <LL_EXTI_Init+0xa4>
 800740e:	2b03      	cmp	r3, #3
 8007410:	d017      	beq.n	8007442 <LL_EXTI_Init+0xba>
 8007412:	2b01      	cmp	r3, #1
 8007414:	d120      	bne.n	8007458 <LL_EXTI_Init+0xd0>
        {
          case LL_EXTI_TRIGGER_RISING:
            /* First Disable Falling Trigger on provided Lines */
            LL_EXTI_DisableFallingTrig_0_31(EXTI_InitStruct->Line_0_31);
 8007416:	687b      	ldr	r3, [r7, #4]
 8007418:	681b      	ldr	r3, [r3, #0]
 800741a:	4618      	mov	r0, r3
 800741c:	f7ff ff8c 	bl	8007338 <LL_EXTI_DisableFallingTrig_0_31>
            /* Then Enable Rising Trigger on provided Lines */
            LL_EXTI_EnableRisingTrig_0_31(EXTI_InitStruct->Line_0_31);
 8007420:	687b      	ldr	r3, [r7, #4]
 8007422:	681b      	ldr	r3, [r3, #0]
 8007424:	4618      	mov	r0, r3
 8007426:	f7ff ff17 	bl	8007258 <LL_EXTI_EnableRisingTrig_0_31>
            break;
 800742a:	e01b      	b.n	8007464 <LL_EXTI_Init+0xdc>
          case LL_EXTI_TRIGGER_FALLING:
            /* First Disable Rising Trigger on provided Lines */
            LL_EXTI_DisableRisingTrig_0_31(EXTI_InitStruct->Line_0_31);
 800742c:	687b      	ldr	r3, [r7, #4]
 800742e:	681b      	ldr	r3, [r3, #0]
 8007430:	4618      	mov	r0, r3
 8007432:	f7ff ff35 	bl	80072a0 <LL_EXTI_DisableRisingTrig_0_31>
            /* Then Enable Falling Trigger on provided Lines */
            LL_EXTI_EnableFallingTrig_0_31(EXTI_InitStruct->Line_0_31);
 8007436:	687b      	ldr	r3, [r7, #4]
 8007438:	681b      	ldr	r3, [r3, #0]
 800743a:	4618      	mov	r0, r3
 800743c:	f7ff ff58 	bl	80072f0 <LL_EXTI_EnableFallingTrig_0_31>
            break;
 8007440:	e010      	b.n	8007464 <LL_EXTI_Init+0xdc>
          case LL_EXTI_TRIGGER_RISING_FALLING:
            /* Enable Rising Trigger on provided Lines */
            LL_EXTI_EnableRisingTrig_0_31(EXTI_InitStruct->Line_0_31);
 8007442:	687b      	ldr	r3, [r7, #4]
 8007444:	681b      	ldr	r3, [r3, #0]
 8007446:	4618      	mov	r0, r3
 8007448:	f7ff ff06 	bl	8007258 <LL_EXTI_EnableRisingTrig_0_31>
            /* Enable Falling Trigger on provided Lines */
            LL_EXTI_EnableFallingTrig_0_31(EXTI_InitStruct->Line_0_31);
 800744c:	687b      	ldr	r3, [r7, #4]
 800744e:	681b      	ldr	r3, [r3, #0]
 8007450:	4618      	mov	r0, r3
 8007452:	f7ff ff4d 	bl	80072f0 <LL_EXTI_EnableFallingTrig_0_31>
            break;
 8007456:	e005      	b.n	8007464 <LL_EXTI_Init+0xdc>
          default:
            status |= 0x02u;
 8007458:	68fb      	ldr	r3, [r7, #12]
 800745a:	f043 0302 	orr.w	r3, r3, #2
 800745e:	60fb      	str	r3, [r7, #12]
            break;
 8007460:	e000      	b.n	8007464 <LL_EXTI_Init+0xdc>
        }
      }
 8007462:	bf00      	nop
    }
    /* Configure EXTI Lines in range from 32 to 63 */
    if (EXTI_InitStruct->Line_32_63 != LL_EXTI_LINE_NONE)
 8007464:	687b      	ldr	r3, [r7, #4]
 8007466:	685b      	ldr	r3, [r3, #4]
 8007468:	2b00      	cmp	r3, #0
 800746a:	d075      	beq.n	8007558 <LL_EXTI_Init+0x1d0>
    {
      switch (EXTI_InitStruct->Mode)
 800746c:	687b      	ldr	r3, [r7, #4]
 800746e:	7a5b      	ldrb	r3, [r3, #9]
 8007470:	2b01      	cmp	r3, #1
 8007472:	d00e      	beq.n	8007492 <LL_EXTI_Init+0x10a>
 8007474:	2b02      	cmp	r3, #2
 8007476:	d017      	beq.n	80074a8 <LL_EXTI_Init+0x120>
 8007478:	2b00      	cmp	r3, #0
 800747a:	d120      	bne.n	80074be <LL_EXTI_Init+0x136>
      {
        case LL_EXTI_MODE_IT:
          /* First Disable Event on provided Lines */
          LL_EXTI_DisableEvent_32_63(EXTI_InitStruct->Line_32_63);
 800747c:	687b      	ldr	r3, [r7, #4]
 800747e:	685b      	ldr	r3, [r3, #4]
 8007480:	4618      	mov	r0, r3
 8007482:	f7ff fed5 	bl	8007230 <LL_EXTI_DisableEvent_32_63>
          /* Then Enable IT on provided Lines */
          LL_EXTI_EnableIT_32_63(EXTI_InitStruct->Line_32_63);
 8007486:	687b      	ldr	r3, [r7, #4]
 8007488:	685b      	ldr	r3, [r3, #4]
 800748a:	4618      	mov	r0, r3
 800748c:	f7ff fe5e 	bl	800714c <LL_EXTI_EnableIT_32_63>
          break;
 8007490:	e01a      	b.n	80074c8 <LL_EXTI_Init+0x140>
        case LL_EXTI_MODE_EVENT:
          /* First Disable IT on provided Lines */
          LL_EXTI_DisableIT_32_63(EXTI_InitStruct->Line_32_63);
 8007492:	687b      	ldr	r3, [r7, #4]
 8007494:	685b      	ldr	r3, [r3, #4]
 8007496:	4618      	mov	r0, r3
 8007498:	f7ff fe7e 	bl	8007198 <LL_EXTI_DisableIT_32_63>
          /* Then Enable Event on provided Lines */
          LL_EXTI_EnableEvent_32_63(EXTI_InitStruct->Line_32_63);
 800749c:	687b      	ldr	r3, [r7, #4]
 800749e:	685b      	ldr	r3, [r3, #4]
 80074a0:	4618      	mov	r0, r3
 80074a2:	f7ff fe9f 	bl	80071e4 <LL_EXTI_EnableEvent_32_63>
          break;
 80074a6:	e00f      	b.n	80074c8 <LL_EXTI_Init+0x140>
        case LL_EXTI_MODE_IT_EVENT:
          /* Directly Enable IT on provided Lines */
          LL_EXTI_EnableIT_32_63(EXTI_InitStruct->Line_32_63);
 80074a8:	687b      	ldr	r3, [r7, #4]
 80074aa:	685b      	ldr	r3, [r3, #4]
 80074ac:	4618      	mov	r0, r3
 80074ae:	f7ff fe4d 	bl	800714c <LL_EXTI_EnableIT_32_63>
          /* Directly Enable IT on provided Lines */
          LL_EXTI_EnableEvent_32_63(EXTI_InitStruct->Line_32_63);
 80074b2:	687b      	ldr	r3, [r7, #4]
 80074b4:	685b      	ldr	r3, [r3, #4]
 80074b6:	4618      	mov	r0, r3
 80074b8:	f7ff fe94 	bl	80071e4 <LL_EXTI_EnableEvent_32_63>
          break;
 80074bc:	e004      	b.n	80074c8 <LL_EXTI_Init+0x140>
        default:
          status |= 0x04u;
 80074be:	68fb      	ldr	r3, [r7, #12]
 80074c0:	f043 0304 	orr.w	r3, r3, #4
 80074c4:	60fb      	str	r3, [r7, #12]
          break;
 80074c6:	bf00      	nop
      }
      if (EXTI_InitStruct->Trigger != LL_EXTI_TRIGGER_NONE)
 80074c8:	687b      	ldr	r3, [r7, #4]
 80074ca:	7a9b      	ldrb	r3, [r3, #10]
 80074cc:	2b00      	cmp	r3, #0
 80074ce:	d043      	beq.n	8007558 <LL_EXTI_Init+0x1d0>
      {
        switch (EXTI_InitStruct->Trigger)
 80074d0:	687b      	ldr	r3, [r7, #4]
 80074d2:	7a9b      	ldrb	r3, [r3, #10]
 80074d4:	2b02      	cmp	r3, #2
 80074d6:	d00e      	beq.n	80074f6 <LL_EXTI_Init+0x16e>
 80074d8:	2b03      	cmp	r3, #3
 80074da:	d017      	beq.n	800750c <LL_EXTI_Init+0x184>
 80074dc:	2b01      	cmp	r3, #1
 80074de:	d120      	bne.n	8007522 <LL_EXTI_Init+0x19a>
        {
          case LL_EXTI_TRIGGER_RISING:
            /* First Disable Falling Trigger on provided Lines */
            LL_EXTI_DisableFallingTrig_32_63(EXTI_InitStruct->Line_32_63);
 80074e0:	687b      	ldr	r3, [r7, #4]
 80074e2:	685b      	ldr	r3, [r3, #4]
 80074e4:	4618      	mov	r0, r3
 80074e6:	f7ff ff3b 	bl	8007360 <LL_EXTI_DisableFallingTrig_32_63>
            /* Then Enable IT on provided Lines */
            LL_EXTI_EnableRisingTrig_32_63(EXTI_InitStruct->Line_32_63);
 80074ea:	687b      	ldr	r3, [r7, #4]
 80074ec:	685b      	ldr	r3, [r3, #4]
 80074ee:	4618      	mov	r0, r3
 80074f0:	f7ff fec4 	bl	800727c <LL_EXTI_EnableRisingTrig_32_63>
            break;
 80074f4:	e031      	b.n	800755a <LL_EXTI_Init+0x1d2>
          case LL_EXTI_TRIGGER_FALLING:
            /* First Disable Rising Trigger on provided Lines */
            LL_EXTI_DisableRisingTrig_32_63(EXTI_InitStruct->Line_32_63);
 80074f6:	687b      	ldr	r3, [r7, #4]
 80074f8:	685b      	ldr	r3, [r3, #4]
 80074fa:	4618      	mov	r0, r3
 80074fc:	f7ff fee4 	bl	80072c8 <LL_EXTI_DisableRisingTrig_32_63>
            /* Then Enable Falling Trigger on provided Lines */
            LL_EXTI_EnableFallingTrig_32_63(EXTI_InitStruct->Line_32_63);
 8007500:	687b      	ldr	r3, [r7, #4]
 8007502:	685b      	ldr	r3, [r3, #4]
 8007504:	4618      	mov	r0, r3
 8007506:	f7ff ff05 	bl	8007314 <LL_EXTI_EnableFallingTrig_32_63>
            break;
 800750a:	e026      	b.n	800755a <LL_EXTI_Init+0x1d2>
          case LL_EXTI_TRIGGER_RISING_FALLING:
            /* Enable Rising Trigger on provided Lines */
            LL_EXTI_EnableRisingTrig_32_63(EXTI_InitStruct->Line_32_63);
 800750c:	687b      	ldr	r3, [r7, #4]
 800750e:	685b      	ldr	r3, [r3, #4]
 8007510:	4618      	mov	r0, r3
 8007512:	f7ff feb3 	bl	800727c <LL_EXTI_EnableRisingTrig_32_63>
            /* Enable Falling Trigger on provided Lines */
            LL_EXTI_EnableFallingTrig_32_63(EXTI_InitStruct->Line_32_63);
 8007516:	687b      	ldr	r3, [r7, #4]
 8007518:	685b      	ldr	r3, [r3, #4]
 800751a:	4618      	mov	r0, r3
 800751c:	f7ff fefa 	bl	8007314 <LL_EXTI_EnableFallingTrig_32_63>
            break;
 8007520:	e01b      	b.n	800755a <LL_EXTI_Init+0x1d2>
          default:
            status |= 0x05u;
 8007522:	68fb      	ldr	r3, [r7, #12]
 8007524:	f043 0305 	orr.w	r3, r3, #5
 8007528:	60fb      	str	r3, [r7, #12]
            break;
 800752a:	bf00      	nop
 800752c:	e015      	b.n	800755a <LL_EXTI_Init+0x1d2>
  }
  /* DISABLE LineCommand */
  else
  {
    /* De-configure IT EXTI Lines in range from 0 to 31 */
    LL_EXTI_DisableIT_0_31(EXTI_InitStruct->Line_0_31);
 800752e:	687b      	ldr	r3, [r7, #4]
 8007530:	681b      	ldr	r3, [r3, #0]
 8007532:	4618      	mov	r0, r3
 8007534:	f7ff fe1c 	bl	8007170 <LL_EXTI_DisableIT_0_31>
    /* De-configure Event EXTI Lines in range from 0 to 31 */
    LL_EXTI_DisableEvent_0_31(EXTI_InitStruct->Line_0_31);
 8007538:	687b      	ldr	r3, [r7, #4]
 800753a:	681b      	ldr	r3, [r3, #0]
 800753c:	4618      	mov	r0, r3
 800753e:	f7ff fe63 	bl	8007208 <LL_EXTI_DisableEvent_0_31>
    /* De-configure IT EXTI Lines in range from 32 to 63 */
    LL_EXTI_DisableIT_32_63(EXTI_InitStruct->Line_32_63);
 8007542:	687b      	ldr	r3, [r7, #4]
 8007544:	685b      	ldr	r3, [r3, #4]
 8007546:	4618      	mov	r0, r3
 8007548:	f7ff fe26 	bl	8007198 <LL_EXTI_DisableIT_32_63>
    /* De-configure Event EXTI Lines in range from 32 to 63 */
    LL_EXTI_DisableEvent_32_63(EXTI_InitStruct->Line_32_63);
 800754c:	687b      	ldr	r3, [r7, #4]
 800754e:	685b      	ldr	r3, [r3, #4]
 8007550:	4618      	mov	r0, r3
 8007552:	f7ff fe6d 	bl	8007230 <LL_EXTI_DisableEvent_32_63>
 8007556:	e000      	b.n	800755a <LL_EXTI_Init+0x1d2>
      }
 8007558:	bf00      	nop
  }

  return status;
 800755a:	68fb      	ldr	r3, [r7, #12]
}
 800755c:	4618      	mov	r0, r3
 800755e:	3710      	adds	r7, #16
 8007560:	46bd      	mov	sp, r7
 8007562:	bd80      	pop	{r7, pc}

08007564 <LL_GPIO_SetPinMode>:
{
 8007564:	b480      	push	{r7}
 8007566:	b089      	sub	sp, #36	; 0x24
 8007568:	af00      	add	r7, sp, #0
 800756a:	60f8      	str	r0, [r7, #12]
 800756c:	60b9      	str	r1, [r7, #8]
 800756e:	607a      	str	r2, [r7, #4]
  MODIFY_REG(GPIOx->MODER, (GPIO_MODER_MODE0 << (POSITION_VAL(Pin) * 2U)), (Mode << (POSITION_VAL(Pin) * 2U)));
 8007570:	68fb      	ldr	r3, [r7, #12]
 8007572:	681a      	ldr	r2, [r3, #0]
 8007574:	68bb      	ldr	r3, [r7, #8]
 8007576:	617b      	str	r3, [r7, #20]
   __ASM volatile ("rbit %0, %1" : "=r" (result) : "r" (value) );
 8007578:	697b      	ldr	r3, [r7, #20]
 800757a:	fa93 f3a3 	rbit	r3, r3
 800757e:	613b      	str	r3, [r7, #16]
  return result;
 8007580:	693b      	ldr	r3, [r7, #16]
 8007582:	fab3 f383 	clz	r3, r3
 8007586:	b2db      	uxtb	r3, r3
 8007588:	005b      	lsls	r3, r3, #1
 800758a:	2103      	movs	r1, #3
 800758c:	fa01 f303 	lsl.w	r3, r1, r3
 8007590:	43db      	mvns	r3, r3
 8007592:	401a      	ands	r2, r3
 8007594:	68bb      	ldr	r3, [r7, #8]
 8007596:	61fb      	str	r3, [r7, #28]
   __ASM volatile ("rbit %0, %1" : "=r" (result) : "r" (value) );
 8007598:	69fb      	ldr	r3, [r7, #28]
 800759a:	fa93 f3a3 	rbit	r3, r3
 800759e:	61bb      	str	r3, [r7, #24]
  return result;
 80075a0:	69bb      	ldr	r3, [r7, #24]
 80075a2:	fab3 f383 	clz	r3, r3
 80075a6:	b2db      	uxtb	r3, r3
 80075a8:	005b      	lsls	r3, r3, #1
 80075aa:	6879      	ldr	r1, [r7, #4]
 80075ac:	fa01 f303 	lsl.w	r3, r1, r3
 80075b0:	431a      	orrs	r2, r3
 80075b2:	68fb      	ldr	r3, [r7, #12]
 80075b4:	601a      	str	r2, [r3, #0]
}
 80075b6:	bf00      	nop
 80075b8:	3724      	adds	r7, #36	; 0x24
 80075ba:	46bd      	mov	sp, r7
 80075bc:	f85d 7b04 	ldr.w	r7, [sp], #4
 80075c0:	4770      	bx	lr

080075c2 <LL_GPIO_SetPinOutputType>:
{
 80075c2:	b480      	push	{r7}
 80075c4:	b085      	sub	sp, #20
 80075c6:	af00      	add	r7, sp, #0
 80075c8:	60f8      	str	r0, [r7, #12]
 80075ca:	60b9      	str	r1, [r7, #8]
 80075cc:	607a      	str	r2, [r7, #4]
  MODIFY_REG(GPIOx->OTYPER, PinMask, (PinMask * OutputType));
 80075ce:	68fb      	ldr	r3, [r7, #12]
 80075d0:	685a      	ldr	r2, [r3, #4]
 80075d2:	68bb      	ldr	r3, [r7, #8]
 80075d4:	43db      	mvns	r3, r3
 80075d6:	401a      	ands	r2, r3
 80075d8:	68bb      	ldr	r3, [r7, #8]
 80075da:	6879      	ldr	r1, [r7, #4]
 80075dc:	fb01 f303 	mul.w	r3, r1, r3
 80075e0:	431a      	orrs	r2, r3
 80075e2:	68fb      	ldr	r3, [r7, #12]
 80075e4:	605a      	str	r2, [r3, #4]
}
 80075e6:	bf00      	nop
 80075e8:	3714      	adds	r7, #20
 80075ea:	46bd      	mov	sp, r7
 80075ec:	f85d 7b04 	ldr.w	r7, [sp], #4
 80075f0:	4770      	bx	lr

080075f2 <LL_GPIO_SetPinSpeed>:
{
 80075f2:	b480      	push	{r7}
 80075f4:	b089      	sub	sp, #36	; 0x24
 80075f6:	af00      	add	r7, sp, #0
 80075f8:	60f8      	str	r0, [r7, #12]
 80075fa:	60b9      	str	r1, [r7, #8]
 80075fc:	607a      	str	r2, [r7, #4]
  MODIFY_REG(GPIOx->OSPEEDR, (GPIO_OSPEEDR_OSPEED0 << (POSITION_VAL(Pin) * 2U)),
 80075fe:	68fb      	ldr	r3, [r7, #12]
 8007600:	689a      	ldr	r2, [r3, #8]
 8007602:	68bb      	ldr	r3, [r7, #8]
 8007604:	617b      	str	r3, [r7, #20]
   __ASM volatile ("rbit %0, %1" : "=r" (result) : "r" (value) );
 8007606:	697b      	ldr	r3, [r7, #20]
 8007608:	fa93 f3a3 	rbit	r3, r3
 800760c:	613b      	str	r3, [r7, #16]
  return result;
 800760e:	693b      	ldr	r3, [r7, #16]
 8007610:	fab3 f383 	clz	r3, r3
 8007614:	b2db      	uxtb	r3, r3
 8007616:	005b      	lsls	r3, r3, #1
 8007618:	2103      	movs	r1, #3
 800761a:	fa01 f303 	lsl.w	r3, r1, r3
 800761e:	43db      	mvns	r3, r3
 8007620:	401a      	ands	r2, r3
 8007622:	68bb      	ldr	r3, [r7, #8]
 8007624:	61fb      	str	r3, [r7, #28]
   __ASM volatile ("rbit %0, %1" : "=r" (result) : "r" (value) );
 8007626:	69fb      	ldr	r3, [r7, #28]
 8007628:	fa93 f3a3 	rbit	r3, r3
 800762c:	61bb      	str	r3, [r7, #24]
  return result;
 800762e:	69bb      	ldr	r3, [r7, #24]
 8007630:	fab3 f383 	clz	r3, r3
 8007634:	b2db      	uxtb	r3, r3
 8007636:	005b      	lsls	r3, r3, #1
 8007638:	6879      	ldr	r1, [r7, #4]
 800763a:	fa01 f303 	lsl.w	r3, r1, r3
 800763e:	431a      	orrs	r2, r3
 8007640:	68fb      	ldr	r3, [r7, #12]
 8007642:	609a      	str	r2, [r3, #8]
}
 8007644:	bf00      	nop
 8007646:	3724      	adds	r7, #36	; 0x24
 8007648:	46bd      	mov	sp, r7
 800764a:	f85d 7b04 	ldr.w	r7, [sp], #4
 800764e:	4770      	bx	lr

08007650 <LL_GPIO_SetPinPull>:
{
 8007650:	b480      	push	{r7}
 8007652:	b089      	sub	sp, #36	; 0x24
 8007654:	af00      	add	r7, sp, #0
 8007656:	60f8      	str	r0, [r7, #12]
 8007658:	60b9      	str	r1, [r7, #8]
 800765a:	607a      	str	r2, [r7, #4]
  MODIFY_REG(GPIOx->PUPDR, (GPIO_PUPDR_PUPD0 << (POSITION_VAL(Pin) * 2U)), (Pull << (POSITION_VAL(Pin) * 2U)));
 800765c:	68fb      	ldr	r3, [r7, #12]
 800765e:	68da      	ldr	r2, [r3, #12]
 8007660:	68bb      	ldr	r3, [r7, #8]
 8007662:	617b      	str	r3, [r7, #20]
   __ASM volatile ("rbit %0, %1" : "=r" (result) : "r" (value) );
 8007664:	697b      	ldr	r3, [r7, #20]
 8007666:	fa93 f3a3 	rbit	r3, r3
 800766a:	613b      	str	r3, [r7, #16]
  return result;
 800766c:	693b      	ldr	r3, [r7, #16]
 800766e:	fab3 f383 	clz	r3, r3
 8007672:	b2db      	uxtb	r3, r3
 8007674:	005b      	lsls	r3, r3, #1
 8007676:	2103      	movs	r1, #3
 8007678:	fa01 f303 	lsl.w	r3, r1, r3
 800767c:	43db      	mvns	r3, r3
 800767e:	401a      	ands	r2, r3
 8007680:	68bb      	ldr	r3, [r7, #8]
 8007682:	61fb      	str	r3, [r7, #28]
   __ASM volatile ("rbit %0, %1" : "=r" (result) : "r" (value) );
 8007684:	69fb      	ldr	r3, [r7, #28]
 8007686:	fa93 f3a3 	rbit	r3, r3
 800768a:	61bb      	str	r3, [r7, #24]
  return result;
 800768c:	69bb      	ldr	r3, [r7, #24]
 800768e:	fab3 f383 	clz	r3, r3
 8007692:	b2db      	uxtb	r3, r3
 8007694:	005b      	lsls	r3, r3, #1
 8007696:	6879      	ldr	r1, [r7, #4]
 8007698:	fa01 f303 	lsl.w	r3, r1, r3
 800769c:	431a      	orrs	r2, r3
 800769e:	68fb      	ldr	r3, [r7, #12]
 80076a0:	60da      	str	r2, [r3, #12]
}
 80076a2:	bf00      	nop
 80076a4:	3724      	adds	r7, #36	; 0x24
 80076a6:	46bd      	mov	sp, r7
 80076a8:	f85d 7b04 	ldr.w	r7, [sp], #4
 80076ac:	4770      	bx	lr

080076ae <LL_GPIO_SetAFPin_0_7>:
{
 80076ae:	b480      	push	{r7}
 80076b0:	b089      	sub	sp, #36	; 0x24
 80076b2:	af00      	add	r7, sp, #0
 80076b4:	60f8      	str	r0, [r7, #12]
 80076b6:	60b9      	str	r1, [r7, #8]
 80076b8:	607a      	str	r2, [r7, #4]
  MODIFY_REG(GPIOx->AFR[0], (GPIO_AFRL_AFSEL0 << (POSITION_VAL(Pin) * 4U)),
 80076ba:	68fb      	ldr	r3, [r7, #12]
 80076bc:	6a1a      	ldr	r2, [r3, #32]
 80076be:	68bb      	ldr	r3, [r7, #8]
 80076c0:	617b      	str	r3, [r7, #20]
   __ASM volatile ("rbit %0, %1" : "=r" (result) : "r" (value) );
 80076c2:	697b      	ldr	r3, [r7, #20]
 80076c4:	fa93 f3a3 	rbit	r3, r3
 80076c8:	613b      	str	r3, [r7, #16]
  return result;
 80076ca:	693b      	ldr	r3, [r7, #16]
 80076cc:	fab3 f383 	clz	r3, r3
 80076d0:	b2db      	uxtb	r3, r3
 80076d2:	009b      	lsls	r3, r3, #2
 80076d4:	210f      	movs	r1, #15
 80076d6:	fa01 f303 	lsl.w	r3, r1, r3
 80076da:	43db      	mvns	r3, r3
 80076dc:	401a      	ands	r2, r3
 80076de:	68bb      	ldr	r3, [r7, #8]
 80076e0:	61fb      	str	r3, [r7, #28]
   __ASM volatile ("rbit %0, %1" : "=r" (result) : "r" (value) );
 80076e2:	69fb      	ldr	r3, [r7, #28]
 80076e4:	fa93 f3a3 	rbit	r3, r3
 80076e8:	61bb      	str	r3, [r7, #24]
  return result;
 80076ea:	69bb      	ldr	r3, [r7, #24]
 80076ec:	fab3 f383 	clz	r3, r3
 80076f0:	b2db      	uxtb	r3, r3
 80076f2:	009b      	lsls	r3, r3, #2
 80076f4:	6879      	ldr	r1, [r7, #4]
 80076f6:	fa01 f303 	lsl.w	r3, r1, r3
 80076fa:	431a      	orrs	r2, r3
 80076fc:	68fb      	ldr	r3, [r7, #12]
 80076fe:	621a      	str	r2, [r3, #32]
}
 8007700:	bf00      	nop
 8007702:	3724      	adds	r7, #36	; 0x24
 8007704:	46bd      	mov	sp, r7
 8007706:	f85d 7b04 	ldr.w	r7, [sp], #4
 800770a:	4770      	bx	lr

0800770c <LL_GPIO_SetAFPin_8_15>:
{
 800770c:	b480      	push	{r7}
 800770e:	b089      	sub	sp, #36	; 0x24
 8007710:	af00      	add	r7, sp, #0
 8007712:	60f8      	str	r0, [r7, #12]
 8007714:	60b9      	str	r1, [r7, #8]
 8007716:	607a      	str	r2, [r7, #4]
  MODIFY_REG(GPIOx->AFR[1], (GPIO_AFRH_AFSEL8 << (POSITION_VAL(Pin >> 8U) * 4U)),
 8007718:	68fb      	ldr	r3, [r7, #12]
 800771a:	6a5a      	ldr	r2, [r3, #36]	; 0x24
 800771c:	68bb      	ldr	r3, [r7, #8]
 800771e:	0a1b      	lsrs	r3, r3, #8
 8007720:	617b      	str	r3, [r7, #20]
   __ASM volatile ("rbit %0, %1" : "=r" (result) : "r" (value) );
 8007722:	697b      	ldr	r3, [r7, #20]
 8007724:	fa93 f3a3 	rbit	r3, r3
 8007728:	613b      	str	r3, [r7, #16]
  return result;
 800772a:	693b      	ldr	r3, [r7, #16]
 800772c:	fab3 f383 	clz	r3, r3
 8007730:	b2db      	uxtb	r3, r3
 8007732:	009b      	lsls	r3, r3, #2
 8007734:	210f      	movs	r1, #15
 8007736:	fa01 f303 	lsl.w	r3, r1, r3
 800773a:	43db      	mvns	r3, r3
 800773c:	401a      	ands	r2, r3
 800773e:	68bb      	ldr	r3, [r7, #8]
 8007740:	0a1b      	lsrs	r3, r3, #8
 8007742:	61fb      	str	r3, [r7, #28]
   __ASM volatile ("rbit %0, %1" : "=r" (result) : "r" (value) );
 8007744:	69fb      	ldr	r3, [r7, #28]
 8007746:	fa93 f3a3 	rbit	r3, r3
 800774a:	61bb      	str	r3, [r7, #24]
  return result;
 800774c:	69bb      	ldr	r3, [r7, #24]
 800774e:	fab3 f383 	clz	r3, r3
 8007752:	b2db      	uxtb	r3, r3
 8007754:	009b      	lsls	r3, r3, #2
 8007756:	6879      	ldr	r1, [r7, #4]
 8007758:	fa01 f303 	lsl.w	r3, r1, r3
 800775c:	431a      	orrs	r2, r3
 800775e:	68fb      	ldr	r3, [r7, #12]
 8007760:	625a      	str	r2, [r3, #36]	; 0x24
}
 8007762:	bf00      	nop
 8007764:	3724      	adds	r7, #36	; 0x24
 8007766:	46bd      	mov	sp, r7
 8007768:	f85d 7b04 	ldr.w	r7, [sp], #4
 800776c:	4770      	bx	lr

0800776e <LL_GPIO_Init>:
  * @retval An ErrorStatus enumeration value:
  *          - SUCCESS: GPIO registers are initialized according to GPIO_InitStruct content
  *          - ERROR:   Not applicable
  */
ErrorStatus LL_GPIO_Init(GPIO_TypeDef *GPIOx, LL_GPIO_InitTypeDef *GPIO_InitStruct)
{
 800776e:	b580      	push	{r7, lr}
 8007770:	b086      	sub	sp, #24
 8007772:	af00      	add	r7, sp, #0
 8007774:	6078      	str	r0, [r7, #4]
 8007776:	6039      	str	r1, [r7, #0]
  assert_param(IS_LL_GPIO_MODE(GPIO_InitStruct->Mode));
  assert_param(IS_LL_GPIO_PULL(GPIO_InitStruct->Pull));

  /* ------------------------- Configure the port pins ---------------- */
  /* Initialize  pinpos on first pin set */
  pinpos = POSITION_VAL(GPIO_InitStruct->Pin);
 8007778:	683b      	ldr	r3, [r7, #0]
 800777a:	681b      	ldr	r3, [r3, #0]
 800777c:	60fb      	str	r3, [r7, #12]
   __ASM volatile ("rbit %0, %1" : "=r" (result) : "r" (value) );
 800777e:	68fb      	ldr	r3, [r7, #12]
 8007780:	fa93 f3a3 	rbit	r3, r3
 8007784:	60bb      	str	r3, [r7, #8]
  return result;
 8007786:	68bb      	ldr	r3, [r7, #8]
 8007788:	fab3 f383 	clz	r3, r3
 800778c:	b2db      	uxtb	r3, r3
 800778e:	617b      	str	r3, [r7, #20]

  /* Configure the port pins */
  while (((GPIO_InitStruct->Pin) >> pinpos) != 0x00000000U)
 8007790:	e040      	b.n	8007814 <LL_GPIO_Init+0xa6>
  {
    /* Get current io position */
    currentpin = (GPIO_InitStruct->Pin) & (0x00000001UL << pinpos);
 8007792:	683b      	ldr	r3, [r7, #0]
 8007794:	681a      	ldr	r2, [r3, #0]
 8007796:	2101      	movs	r1, #1
 8007798:	697b      	ldr	r3, [r7, #20]
 800779a:	fa01 f303 	lsl.w	r3, r1, r3
 800779e:	4013      	ands	r3, r2
 80077a0:	613b      	str	r3, [r7, #16]

    if (currentpin != 0x00u)
 80077a2:	693b      	ldr	r3, [r7, #16]
 80077a4:	2b00      	cmp	r3, #0
 80077a6:	d032      	beq.n	800780e <LL_GPIO_Init+0xa0>
    {
      /* Pin Mode configuration */
      LL_GPIO_SetPinMode(GPIOx, currentpin, GPIO_InitStruct->Mode);
 80077a8:	683b      	ldr	r3, [r7, #0]
 80077aa:	685b      	ldr	r3, [r3, #4]
 80077ac:	461a      	mov	r2, r3
 80077ae:	6939      	ldr	r1, [r7, #16]
 80077b0:	6878      	ldr	r0, [r7, #4]
 80077b2:	f7ff fed7 	bl	8007564 <LL_GPIO_SetPinMode>

      if ((GPIO_InitStruct->Mode == LL_GPIO_MODE_OUTPUT) || (GPIO_InitStruct->Mode == LL_GPIO_MODE_ALTERNATE))
 80077b6:	683b      	ldr	r3, [r7, #0]
 80077b8:	685b      	ldr	r3, [r3, #4]
 80077ba:	2b01      	cmp	r3, #1
 80077bc:	d003      	beq.n	80077c6 <LL_GPIO_Init+0x58>
 80077be:	683b      	ldr	r3, [r7, #0]
 80077c0:	685b      	ldr	r3, [r3, #4]
 80077c2:	2b02      	cmp	r3, #2
 80077c4:	d106      	bne.n	80077d4 <LL_GPIO_Init+0x66>
      {
        /* Check Speed mode parameters */
        assert_param(IS_LL_GPIO_SPEED(GPIO_InitStruct->Speed));

        /* Speed mode configuration */
        LL_GPIO_SetPinSpeed(GPIOx, currentpin, GPIO_InitStruct->Speed);
 80077c6:	683b      	ldr	r3, [r7, #0]
 80077c8:	689b      	ldr	r3, [r3, #8]
 80077ca:	461a      	mov	r2, r3
 80077cc:	6939      	ldr	r1, [r7, #16]
 80077ce:	6878      	ldr	r0, [r7, #4]
 80077d0:	f7ff ff0f 	bl	80075f2 <LL_GPIO_SetPinSpeed>
      }

      /* Pull-up Pull down resistor configuration*/
      LL_GPIO_SetPinPull(GPIOx, currentpin, GPIO_InitStruct->Pull);
 80077d4:	683b      	ldr	r3, [r7, #0]
 80077d6:	691b      	ldr	r3, [r3, #16]
 80077d8:	461a      	mov	r2, r3
 80077da:	6939      	ldr	r1, [r7, #16]
 80077dc:	6878      	ldr	r0, [r7, #4]
 80077de:	f7ff ff37 	bl	8007650 <LL_GPIO_SetPinPull>

      if (GPIO_InitStruct->Mode == LL_GPIO_MODE_ALTERNATE)
 80077e2:	683b      	ldr	r3, [r7, #0]
 80077e4:	685b      	ldr	r3, [r3, #4]
 80077e6:	2b02      	cmp	r3, #2
 80077e8:	d111      	bne.n	800780e <LL_GPIO_Init+0xa0>
      {
        /* Check Alternate parameter */
        assert_param(IS_LL_GPIO_ALTERNATE(GPIO_InitStruct->Alternate));

        /* Speed mode configuration */
        if (currentpin < LL_GPIO_PIN_8)
 80077ea:	693b      	ldr	r3, [r7, #16]
 80077ec:	2bff      	cmp	r3, #255	; 0xff
 80077ee:	d807      	bhi.n	8007800 <LL_GPIO_Init+0x92>
        {
          LL_GPIO_SetAFPin_0_7(GPIOx, currentpin, GPIO_InitStruct->Alternate);
 80077f0:	683b      	ldr	r3, [r7, #0]
 80077f2:	695b      	ldr	r3, [r3, #20]
 80077f4:	461a      	mov	r2, r3
 80077f6:	6939      	ldr	r1, [r7, #16]
 80077f8:	6878      	ldr	r0, [r7, #4]
 80077fa:	f7ff ff58 	bl	80076ae <LL_GPIO_SetAFPin_0_7>
 80077fe:	e006      	b.n	800780e <LL_GPIO_Init+0xa0>
        }
        else
        {
          LL_GPIO_SetAFPin_8_15(GPIOx, currentpin, GPIO_InitStruct->Alternate);
 8007800:	683b      	ldr	r3, [r7, #0]
 8007802:	695b      	ldr	r3, [r3, #20]
 8007804:	461a      	mov	r2, r3
 8007806:	6939      	ldr	r1, [r7, #16]
 8007808:	6878      	ldr	r0, [r7, #4]
 800780a:	f7ff ff7f 	bl	800770c <LL_GPIO_SetAFPin_8_15>
        }
      }
    }
    pinpos++;
 800780e:	697b      	ldr	r3, [r7, #20]
 8007810:	3301      	adds	r3, #1
 8007812:	617b      	str	r3, [r7, #20]
  while (((GPIO_InitStruct->Pin) >> pinpos) != 0x00000000U)
 8007814:	683b      	ldr	r3, [r7, #0]
 8007816:	681a      	ldr	r2, [r3, #0]
 8007818:	697b      	ldr	r3, [r7, #20]
 800781a:	fa22 f303 	lsr.w	r3, r2, r3
 800781e:	2b00      	cmp	r3, #0
 8007820:	d1b7      	bne.n	8007792 <LL_GPIO_Init+0x24>
  }

  if ((GPIO_InitStruct->Mode == LL_GPIO_MODE_OUTPUT) || (GPIO_InitStruct->Mode == LL_GPIO_MODE_ALTERNATE))
 8007822:	683b      	ldr	r3, [r7, #0]
 8007824:	685b      	ldr	r3, [r3, #4]
 8007826:	2b01      	cmp	r3, #1
 8007828:	d003      	beq.n	8007832 <LL_GPIO_Init+0xc4>
 800782a:	683b      	ldr	r3, [r7, #0]
 800782c:	685b      	ldr	r3, [r3, #4]
 800782e:	2b02      	cmp	r3, #2
 8007830:	d107      	bne.n	8007842 <LL_GPIO_Init+0xd4>
  {
    /* Check Output mode parameters */
    assert_param(IS_LL_GPIO_OUTPUT_TYPE(GPIO_InitStruct->OutputType));

    /* Output mode configuration*/
    LL_GPIO_SetPinOutputType(GPIOx, GPIO_InitStruct->Pin, GPIO_InitStruct->OutputType);
 8007832:	683b      	ldr	r3, [r7, #0]
 8007834:	6819      	ldr	r1, [r3, #0]
 8007836:	683b      	ldr	r3, [r7, #0]
 8007838:	68db      	ldr	r3, [r3, #12]
 800783a:	461a      	mov	r2, r3
 800783c:	6878      	ldr	r0, [r7, #4]
 800783e:	f7ff fec0 	bl	80075c2 <LL_GPIO_SetPinOutputType>

  }
  return (SUCCESS);
 8007842:	2300      	movs	r3, #0
}
 8007844:	4618      	mov	r0, r3
 8007846:	3718      	adds	r7, #24
 8007848:	46bd      	mov	sp, r7
 800784a:	bd80      	pop	{r7, pc}

0800784c <ILI9341_Draw_Bordered_Filled_Rectangle_Coord>:
 *
 *
 */

void ILI9341_Draw_Bordered_Filled_Rectangle_Coord(uint16_t x, uint16_t y, uint16_t w, uint16_t h, uint16_t inner_colour, uint8_t border_weight, uint8_t border_colour)
{
 800784c:	b590      	push	{r4, r7, lr}
 800784e:	b087      	sub	sp, #28
 8007850:	af02      	add	r7, sp, #8
 8007852:	4604      	mov	r4, r0
 8007854:	4608      	mov	r0, r1
 8007856:	4611      	mov	r1, r2
 8007858:	461a      	mov	r2, r3
 800785a:	4623      	mov	r3, r4
 800785c:	80fb      	strh	r3, [r7, #6]
 800785e:	4603      	mov	r3, r0
 8007860:	80bb      	strh	r3, [r7, #4]
 8007862:	460b      	mov	r3, r1
 8007864:	807b      	strh	r3, [r7, #2]
 8007866:	4613      	mov	r3, r2
 8007868:	803b      	strh	r3, [r7, #0]

	// Draw inwards (and shorter) for each level of border weight
	for(uint8_t b = 0; ; b++)
 800786a:	2300      	movs	r3, #0
 800786c:	73fb      	strb	r3, [r7, #15]
	{


		if(b > border_weight)
 800786e:	7bfa      	ldrb	r2, [r7, #15]
 8007870:	f897 3024 	ldrb.w	r3, [r7, #36]	; 0x24
 8007874:	429a      	cmp	r2, r3
 8007876:	d938      	bls.n	80078ea <ILI9341_Draw_Bordered_Filled_Rectangle_Coord+0x9e>
		{

			// stop before the inner space reaches zero! (hard fault)
			if( ((y + b) == ((y + h) - b)) || ((x + b) == ((x + w) - b)) )
 8007878:	88ba      	ldrh	r2, [r7, #4]
 800787a:	7bfb      	ldrb	r3, [r7, #15]
 800787c:	441a      	add	r2, r3
 800787e:	88b9      	ldrh	r1, [r7, #4]
 8007880:	883b      	ldrh	r3, [r7, #0]
 8007882:	4419      	add	r1, r3
 8007884:	7bfb      	ldrb	r3, [r7, #15]
 8007886:	1acb      	subs	r3, r1, r3
 8007888:	429a      	cmp	r2, r3
 800788a:	f000 808e 	beq.w	80079aa <ILI9341_Draw_Bordered_Filled_Rectangle_Coord+0x15e>
 800788e:	88fa      	ldrh	r2, [r7, #6]
 8007890:	7bfb      	ldrb	r3, [r7, #15]
 8007892:	441a      	add	r2, r3
 8007894:	88f9      	ldrh	r1, [r7, #6]
 8007896:	887b      	ldrh	r3, [r7, #2]
 8007898:	4419      	add	r1, r3
 800789a:	7bfb      	ldrb	r3, [r7, #15]
 800789c:	1acb      	subs	r3, r1, r3
 800789e:	429a      	cmp	r2, r3
 80078a0:	f000 8083 	beq.w	80079aa <ILI9341_Draw_Bordered_Filled_Rectangle_Coord+0x15e>
				// add final line?
				goto finish;
			}
			else
			{
				ILI9341_Draw_Rectangle(x + b, y + b, (w - (2*b)) + 1, (h - (2*b)) + 1, inner_colour);
 80078a4:	7bfb      	ldrb	r3, [r7, #15]
 80078a6:	b29a      	uxth	r2, r3
 80078a8:	88fb      	ldrh	r3, [r7, #6]
 80078aa:	4413      	add	r3, r2
 80078ac:	b298      	uxth	r0, r3
 80078ae:	7bfb      	ldrb	r3, [r7, #15]
 80078b0:	b29a      	uxth	r2, r3
 80078b2:	88bb      	ldrh	r3, [r7, #4]
 80078b4:	4413      	add	r3, r2
 80078b6:	b299      	uxth	r1, r3
 80078b8:	7bfb      	ldrb	r3, [r7, #15]
 80078ba:	b29b      	uxth	r3, r3
 80078bc:	005b      	lsls	r3, r3, #1
 80078be:	b29b      	uxth	r3, r3
 80078c0:	887a      	ldrh	r2, [r7, #2]
 80078c2:	1ad3      	subs	r3, r2, r3
 80078c4:	b29b      	uxth	r3, r3
 80078c6:	3301      	adds	r3, #1
 80078c8:	b29c      	uxth	r4, r3
 80078ca:	7bfb      	ldrb	r3, [r7, #15]
 80078cc:	b29b      	uxth	r3, r3
 80078ce:	005b      	lsls	r3, r3, #1
 80078d0:	b29b      	uxth	r3, r3
 80078d2:	883a      	ldrh	r2, [r7, #0]
 80078d4:	1ad3      	subs	r3, r2, r3
 80078d6:	b29b      	uxth	r3, r3
 80078d8:	3301      	adds	r3, #1
 80078da:	b29a      	uxth	r2, r3
 80078dc:	8c3b      	ldrh	r3, [r7, #32]
 80078de:	9300      	str	r3, [sp, #0]
 80078e0:	4613      	mov	r3, r2
 80078e2:	4622      	mov	r2, r4
 80078e4:	f000 fd06 	bl	80082f4 <ILI9341_Draw_Rectangle>
				goto finish;
 80078e8:	e060      	b.n	80079ac <ILI9341_Draw_Bordered_Filled_Rectangle_Coord+0x160>
			}
		}

		// Horizontal lines
		ILI9341_Draw_Horizontal_Line(	x + b,
 80078ea:	7bfb      	ldrb	r3, [r7, #15]
 80078ec:	b29a      	uxth	r2, r3
 80078ee:	88fb      	ldrh	r3, [r7, #6]
 80078f0:	4413      	add	r3, r2
 80078f2:	b298      	uxth	r0, r3
 80078f4:	7bfb      	ldrb	r3, [r7, #15]
 80078f6:	b29a      	uxth	r2, r3
 80078f8:	88bb      	ldrh	r3, [r7, #4]
 80078fa:	4413      	add	r3, r2
 80078fc:	b299      	uxth	r1, r3
 80078fe:	7bfb      	ldrb	r3, [r7, #15]
 8007900:	b29b      	uxth	r3, r3
 8007902:	005b      	lsls	r3, r3, #1
 8007904:	b29b      	uxth	r3, r3
 8007906:	887a      	ldrh	r2, [r7, #2]
 8007908:	1ad3      	subs	r3, r2, r3
 800790a:	b29a      	uxth	r2, r3
 800790c:	f897 3028 	ldrb.w	r3, [r7, #40]	; 0x28
 8007910:	b29b      	uxth	r3, r3
 8007912:	f000 fd4d 	bl	80083b0 <ILI9341_Draw_Horizontal_Line>
										y + b,
										w - (2*b),
										border_colour);

		ILI9341_Draw_Horizontal_Line(	x + b,
 8007916:	7bfb      	ldrb	r3, [r7, #15]
 8007918:	b29a      	uxth	r2, r3
 800791a:	88fb      	ldrh	r3, [r7, #6]
 800791c:	4413      	add	r3, r2
 800791e:	b298      	uxth	r0, r3
										(y + h) - b,
 8007920:	88ba      	ldrh	r2, [r7, #4]
 8007922:	883b      	ldrh	r3, [r7, #0]
 8007924:	4413      	add	r3, r2
 8007926:	b29a      	uxth	r2, r3
		ILI9341_Draw_Horizontal_Line(	x + b,
 8007928:	7bfb      	ldrb	r3, [r7, #15]
 800792a:	b29b      	uxth	r3, r3
 800792c:	1ad3      	subs	r3, r2, r3
 800792e:	b299      	uxth	r1, r3
 8007930:	7bfb      	ldrb	r3, [r7, #15]
 8007932:	b29b      	uxth	r3, r3
 8007934:	887a      	ldrh	r2, [r7, #2]
 8007936:	1ad3      	subs	r3, r2, r3
 8007938:	b29a      	uxth	r2, r3
 800793a:	f897 3028 	ldrb.w	r3, [r7, #40]	; 0x28
 800793e:	b29b      	uxth	r3, r3
 8007940:	f000 fd36 	bl	80083b0 <ILI9341_Draw_Horizontal_Line>
										w - (b),
										border_colour);


		// Vertical lines
		ILI9341_Draw_Vertical_Line(		x + b,
 8007944:	7bfb      	ldrb	r3, [r7, #15]
 8007946:	b29a      	uxth	r2, r3
 8007948:	88fb      	ldrh	r3, [r7, #6]
 800794a:	4413      	add	r3, r2
 800794c:	b298      	uxth	r0, r3
 800794e:	7bfb      	ldrb	r3, [r7, #15]
 8007950:	b29a      	uxth	r2, r3
 8007952:	88bb      	ldrh	r3, [r7, #4]
 8007954:	4413      	add	r3, r2
 8007956:	b299      	uxth	r1, r3
 8007958:	7bfb      	ldrb	r3, [r7, #15]
 800795a:	b29b      	uxth	r3, r3
 800795c:	005b      	lsls	r3, r3, #1
 800795e:	b29b      	uxth	r3, r3
 8007960:	883a      	ldrh	r2, [r7, #0]
 8007962:	1ad3      	subs	r3, r2, r3
 8007964:	b29a      	uxth	r2, r3
 8007966:	f897 3028 	ldrb.w	r3, [r7, #40]	; 0x28
 800796a:	b29b      	uxth	r3, r3
 800796c:	f000 fd64 	bl	8008438 <ILI9341_Draw_Vertical_Line>
										y + b,
										h - (2*b),
										border_colour);

		ILI9341_Draw_Vertical_Line(		(x + w) - b,
 8007970:	88fa      	ldrh	r2, [r7, #6]
 8007972:	887b      	ldrh	r3, [r7, #2]
 8007974:	4413      	add	r3, r2
 8007976:	b29a      	uxth	r2, r3
 8007978:	7bfb      	ldrb	r3, [r7, #15]
 800797a:	b29b      	uxth	r3, r3
 800797c:	1ad3      	subs	r3, r2, r3
 800797e:	b298      	uxth	r0, r3
 8007980:	7bfb      	ldrb	r3, [r7, #15]
 8007982:	b29a      	uxth	r2, r3
 8007984:	88bb      	ldrh	r3, [r7, #4]
 8007986:	4413      	add	r3, r2
 8007988:	b299      	uxth	r1, r3
 800798a:	7bfb      	ldrb	r3, [r7, #15]
 800798c:	b29b      	uxth	r3, r3
 800798e:	005b      	lsls	r3, r3, #1
 8007990:	b29b      	uxth	r3, r3
 8007992:	883a      	ldrh	r2, [r7, #0]
 8007994:	1ad3      	subs	r3, r2, r3
 8007996:	b29a      	uxth	r2, r3
 8007998:	f897 3028 	ldrb.w	r3, [r7, #40]	; 0x28
 800799c:	b29b      	uxth	r3, r3
 800799e:	f000 fd4b 	bl	8008438 <ILI9341_Draw_Vertical_Line>
	for(uint8_t b = 0; ; b++)
 80079a2:	7bfb      	ldrb	r3, [r7, #15]
 80079a4:	3301      	adds	r3, #1
 80079a6:	73fb      	strb	r3, [r7, #15]
		if(b > border_weight)
 80079a8:	e761      	b.n	800786e <ILI9341_Draw_Bordered_Filled_Rectangle_Coord+0x22>
										h - (2*b),
										border_colour);

	}

	finish:
 80079aa:	bf00      	nop
	// done
	return;
 80079ac:	bf00      	nop
}
 80079ae:	3714      	adds	r7, #20
 80079b0:	46bd      	mov	sp, r7
 80079b2:	bd90      	pop	{r4, r7, pc}

080079b4 <ILI9341_Draw_Char>:
}

/*Draws a character (fonts imported from fonts.h) at X,Y location with specified font colour, size and Background colour*/
/*See fonts.h implementation of font on what is required for changing to a different font when switching fonts libraries*/
void ILI9341_Draw_Char(char Character, uint8_t X, uint8_t Y, uint16_t Colour, uint16_t Size, uint16_t Background_Colour) 
{
 80079b4:	b590      	push	{r4, r7, lr}
 80079b6:	b089      	sub	sp, #36	; 0x24
 80079b8:	af02      	add	r7, sp, #8
 80079ba:	4604      	mov	r4, r0
 80079bc:	4608      	mov	r0, r1
 80079be:	4611      	mov	r1, r2
 80079c0:	461a      	mov	r2, r3
 80079c2:	4623      	mov	r3, r4
 80079c4:	71fb      	strb	r3, [r7, #7]
 80079c6:	4603      	mov	r3, r0
 80079c8:	71bb      	strb	r3, [r7, #6]
 80079ca:	460b      	mov	r3, r1
 80079cc:	717b      	strb	r3, [r7, #5]
 80079ce:	4613      	mov	r3, r2
 80079d0:	807b      	strh	r3, [r7, #2]
		uint8_t 	function_char;
    uint8_t 	i,j;
		
		function_char = Character;
 80079d2:	79fb      	ldrb	r3, [r7, #7]
 80079d4:	75fb      	strb	r3, [r7, #23]
		
    if (function_char < ' ') {
 80079d6:	7dfb      	ldrb	r3, [r7, #23]
 80079d8:	2b1f      	cmp	r3, #31
 80079da:	d802      	bhi.n	80079e2 <ILI9341_Draw_Char+0x2e>
        Character = 0;
 80079dc:	2300      	movs	r3, #0
 80079de:	71fb      	strb	r3, [r7, #7]
 80079e0:	e002      	b.n	80079e8 <ILI9341_Draw_Char+0x34>
    } else {
        function_char -= 32;
 80079e2:	7dfb      	ldrb	r3, [r7, #23]
 80079e4:	3b20      	subs	r3, #32
 80079e6:	75fb      	strb	r3, [r7, #23]
		}
   	
		char temp[CHAR_WIDTH];
		for(uint8_t k = 0; k<CHAR_WIDTH; k++)
 80079e8:	2300      	movs	r3, #0
 80079ea:	753b      	strb	r3, [r7, #20]
 80079ec:	e012      	b.n	8007a14 <ILI9341_Draw_Char+0x60>
		{
		temp[k] = font[function_char][k];
 80079ee:	7dfa      	ldrb	r2, [r7, #23]
 80079f0:	7d38      	ldrb	r0, [r7, #20]
 80079f2:	7d39      	ldrb	r1, [r7, #20]
 80079f4:	4c3b      	ldr	r4, [pc, #236]	; (8007ae4 <ILI9341_Draw_Char+0x130>)
 80079f6:	4613      	mov	r3, r2
 80079f8:	005b      	lsls	r3, r3, #1
 80079fa:	4413      	add	r3, r2
 80079fc:	005b      	lsls	r3, r3, #1
 80079fe:	4423      	add	r3, r4
 8007a00:	4403      	add	r3, r0
 8007a02:	781a      	ldrb	r2, [r3, #0]
 8007a04:	f107 0318 	add.w	r3, r7, #24
 8007a08:	440b      	add	r3, r1
 8007a0a:	f803 2c0c 	strb.w	r2, [r3, #-12]
		for(uint8_t k = 0; k<CHAR_WIDTH; k++)
 8007a0e:	7d3b      	ldrb	r3, [r7, #20]
 8007a10:	3301      	adds	r3, #1
 8007a12:	753b      	strb	r3, [r7, #20]
 8007a14:	7d3b      	ldrb	r3, [r7, #20]
 8007a16:	2b05      	cmp	r3, #5
 8007a18:	d9e9      	bls.n	80079ee <ILI9341_Draw_Char+0x3a>
		}
		
    // Draw pixels
		ILI9341_Draw_Rectangle(X, Y, CHAR_WIDTH*Size, CHAR_HEIGHT*Size, Background_Colour);
 8007a1a:	79bb      	ldrb	r3, [r7, #6]
 8007a1c:	b298      	uxth	r0, r3
 8007a1e:	797b      	ldrb	r3, [r7, #5]
 8007a20:	b299      	uxth	r1, r3
 8007a22:	8d3b      	ldrh	r3, [r7, #40]	; 0x28
 8007a24:	461a      	mov	r2, r3
 8007a26:	0052      	lsls	r2, r2, #1
 8007a28:	4413      	add	r3, r2
 8007a2a:	005b      	lsls	r3, r3, #1
 8007a2c:	b29a      	uxth	r2, r3
 8007a2e:	8d3b      	ldrh	r3, [r7, #40]	; 0x28
 8007a30:	00db      	lsls	r3, r3, #3
 8007a32:	b29c      	uxth	r4, r3
 8007a34:	8dbb      	ldrh	r3, [r7, #44]	; 0x2c
 8007a36:	9300      	str	r3, [sp, #0]
 8007a38:	4623      	mov	r3, r4
 8007a3a:	f000 fc5b 	bl	80082f4 <ILI9341_Draw_Rectangle>
    for (j=0; j<CHAR_WIDTH; j++) {
 8007a3e:	2300      	movs	r3, #0
 8007a40:	757b      	strb	r3, [r7, #21]
 8007a42:	e048      	b.n	8007ad6 <ILI9341_Draw_Char+0x122>
        for (i=0; i<CHAR_HEIGHT; i++) {
 8007a44:	2300      	movs	r3, #0
 8007a46:	75bb      	strb	r3, [r7, #22]
 8007a48:	e03f      	b.n	8007aca <ILI9341_Draw_Char+0x116>
            if (temp[j] & (1<<i)) {			
 8007a4a:	7d7b      	ldrb	r3, [r7, #21]
 8007a4c:	f107 0218 	add.w	r2, r7, #24
 8007a50:	4413      	add	r3, r2
 8007a52:	f813 3c0c 	ldrb.w	r3, [r3, #-12]
 8007a56:	461a      	mov	r2, r3
 8007a58:	7dbb      	ldrb	r3, [r7, #22]
 8007a5a:	fa42 f303 	asr.w	r3, r2, r3
 8007a5e:	f003 0301 	and.w	r3, r3, #1
 8007a62:	2b00      	cmp	r3, #0
 8007a64:	d02e      	beq.n	8007ac4 <ILI9341_Draw_Char+0x110>
							if(Size == 1)
 8007a66:	8d3b      	ldrh	r3, [r7, #40]	; 0x28
 8007a68:	2b01      	cmp	r3, #1
 8007a6a:	d110      	bne.n	8007a8e <ILI9341_Draw_Char+0xda>
							{
              ILI9341_Draw_Pixel(X+j, Y+i, Colour);
 8007a6c:	79bb      	ldrb	r3, [r7, #6]
 8007a6e:	b29a      	uxth	r2, r3
 8007a70:	7d7b      	ldrb	r3, [r7, #21]
 8007a72:	b29b      	uxth	r3, r3
 8007a74:	4413      	add	r3, r2
 8007a76:	b298      	uxth	r0, r3
 8007a78:	797b      	ldrb	r3, [r7, #5]
 8007a7a:	b29a      	uxth	r2, r3
 8007a7c:	7dbb      	ldrb	r3, [r7, #22]
 8007a7e:	b29b      	uxth	r3, r3
 8007a80:	4413      	add	r3, r2
 8007a82:	b29b      	uxth	r3, r3
 8007a84:	887a      	ldrh	r2, [r7, #2]
 8007a86:	4619      	mov	r1, r3
 8007a88:	f000 fb5a 	bl	8008140 <ILI9341_Draw_Pixel>
 8007a8c:	e01a      	b.n	8007ac4 <ILI9341_Draw_Char+0x110>
							}
							else
							{
							ILI9341_Draw_Rectangle(X+(j*Size), Y+(i*Size), Size, Size, Colour);
 8007a8e:	79bb      	ldrb	r3, [r7, #6]
 8007a90:	b29a      	uxth	r2, r3
 8007a92:	7d7b      	ldrb	r3, [r7, #21]
 8007a94:	b29b      	uxth	r3, r3
 8007a96:	8d39      	ldrh	r1, [r7, #40]	; 0x28
 8007a98:	fb11 f303 	smulbb	r3, r1, r3
 8007a9c:	b29b      	uxth	r3, r3
 8007a9e:	4413      	add	r3, r2
 8007aa0:	b298      	uxth	r0, r3
 8007aa2:	797b      	ldrb	r3, [r7, #5]
 8007aa4:	b29a      	uxth	r2, r3
 8007aa6:	7dbb      	ldrb	r3, [r7, #22]
 8007aa8:	b29b      	uxth	r3, r3
 8007aaa:	8d39      	ldrh	r1, [r7, #40]	; 0x28
 8007aac:	fb11 f303 	smulbb	r3, r1, r3
 8007ab0:	b29b      	uxth	r3, r3
 8007ab2:	4413      	add	r3, r2
 8007ab4:	b299      	uxth	r1, r3
 8007ab6:	8d3c      	ldrh	r4, [r7, #40]	; 0x28
 8007ab8:	8d3a      	ldrh	r2, [r7, #40]	; 0x28
 8007aba:	887b      	ldrh	r3, [r7, #2]
 8007abc:	9300      	str	r3, [sp, #0]
 8007abe:	4623      	mov	r3, r4
 8007ac0:	f000 fc18 	bl	80082f4 <ILI9341_Draw_Rectangle>
        for (i=0; i<CHAR_HEIGHT; i++) {
 8007ac4:	7dbb      	ldrb	r3, [r7, #22]
 8007ac6:	3301      	adds	r3, #1
 8007ac8:	75bb      	strb	r3, [r7, #22]
 8007aca:	7dbb      	ldrb	r3, [r7, #22]
 8007acc:	2b07      	cmp	r3, #7
 8007ace:	d9bc      	bls.n	8007a4a <ILI9341_Draw_Char+0x96>
    for (j=0; j<CHAR_WIDTH; j++) {
 8007ad0:	7d7b      	ldrb	r3, [r7, #21]
 8007ad2:	3301      	adds	r3, #1
 8007ad4:	757b      	strb	r3, [r7, #21]
 8007ad6:	7d7b      	ldrb	r3, [r7, #21]
 8007ad8:	2b05      	cmp	r3, #5
 8007ada:	d9b3      	bls.n	8007a44 <ILI9341_Draw_Char+0x90>
							}
            }						
        }
    }
}
 8007adc:	bf00      	nop
 8007ade:	371c      	adds	r7, #28
 8007ae0:	46bd      	mov	sp, r7
 8007ae2:	bd90      	pop	{r4, r7, pc}
 8007ae4:	0800946c 	.word	0x0800946c

08007ae8 <ILI9341_Draw_Text>:

/*Draws an array of characters (fonts imported from fonts.h) at X,Y location with specified font colour, size and Background colour*/
/*See fonts.h implementation of font on what is required for changing to a different font when switching fonts libraries*/
void ILI9341_Draw_Text(const char* Text, uint8_t X, uint8_t Y, uint16_t Colour, uint16_t Size, uint16_t Background_Colour)
{
 8007ae8:	b590      	push	{r4, r7, lr}
 8007aea:	b085      	sub	sp, #20
 8007aec:	af02      	add	r7, sp, #8
 8007aee:	6078      	str	r0, [r7, #4]
 8007af0:	4608      	mov	r0, r1
 8007af2:	4611      	mov	r1, r2
 8007af4:	461a      	mov	r2, r3
 8007af6:	4603      	mov	r3, r0
 8007af8:	70fb      	strb	r3, [r7, #3]
 8007afa:	460b      	mov	r3, r1
 8007afc:	70bb      	strb	r3, [r7, #2]
 8007afe:	4613      	mov	r3, r2
 8007b00:	803b      	strh	r3, [r7, #0]
    while (*Text) {
 8007b02:	e017      	b.n	8007b34 <ILI9341_Draw_Text+0x4c>
        ILI9341_Draw_Char(*Text++, X, Y, Colour, Size, Background_Colour);
 8007b04:	687b      	ldr	r3, [r7, #4]
 8007b06:	1c5a      	adds	r2, r3, #1
 8007b08:	607a      	str	r2, [r7, #4]
 8007b0a:	7818      	ldrb	r0, [r3, #0]
 8007b0c:	883c      	ldrh	r4, [r7, #0]
 8007b0e:	78ba      	ldrb	r2, [r7, #2]
 8007b10:	78f9      	ldrb	r1, [r7, #3]
 8007b12:	8bbb      	ldrh	r3, [r7, #28]
 8007b14:	9301      	str	r3, [sp, #4]
 8007b16:	8b3b      	ldrh	r3, [r7, #24]
 8007b18:	9300      	str	r3, [sp, #0]
 8007b1a:	4623      	mov	r3, r4
 8007b1c:	f7ff ff4a 	bl	80079b4 <ILI9341_Draw_Char>
        X += CHAR_WIDTH*Size;
 8007b20:	8b3b      	ldrh	r3, [r7, #24]
 8007b22:	b2db      	uxtb	r3, r3
 8007b24:	461a      	mov	r2, r3
 8007b26:	0052      	lsls	r2, r2, #1
 8007b28:	4413      	add	r3, r2
 8007b2a:	005b      	lsls	r3, r3, #1
 8007b2c:	b2da      	uxtb	r2, r3
 8007b2e:	78fb      	ldrb	r3, [r7, #3]
 8007b30:	4413      	add	r3, r2
 8007b32:	70fb      	strb	r3, [r7, #3]
    while (*Text) {
 8007b34:	687b      	ldr	r3, [r7, #4]
 8007b36:	781b      	ldrb	r3, [r3, #0]
 8007b38:	2b00      	cmp	r3, #0
 8007b3a:	d1e3      	bne.n	8007b04 <ILI9341_Draw_Text+0x1c>
    }
}
 8007b3c:	bf00      	nop
 8007b3e:	370c      	adds	r7, #12
 8007b40:	46bd      	mov	sp, r7
 8007b42:	bd90      	pop	{r4, r7, pc}

08007b44 <ILI9341_SPI_Init>:
volatile uint16_t LCD_HEIGHT = ILI9341_SCREEN_HEIGHT;
volatile uint16_t LCD_WIDTH	 = ILI9341_SCREEN_WIDTH;

/* Initialize SPI */
void ILI9341_SPI_Init(void)
{
 8007b44:	b480      	push	{r7}
 8007b46:	af00      	add	r7, sp, #0

	//GPIO INIT
	LCD_CS_PORT->ODR &= ~(LCD_CS_PIN);
 8007b48:	4b05      	ldr	r3, [pc, #20]	; (8007b60 <ILI9341_SPI_Init+0x1c>)
 8007b4a:	695b      	ldr	r3, [r3, #20]
 8007b4c:	4a04      	ldr	r2, [pc, #16]	; (8007b60 <ILI9341_SPI_Init+0x1c>)
 8007b4e:	f023 0380 	bic.w	r3, r3, #128	; 0x80
 8007b52:	6153      	str	r3, [r2, #20]
}
 8007b54:	bf00      	nop
 8007b56:	46bd      	mov	sp, r7
 8007b58:	f85d 7b04 	ldr.w	r7, [sp], #4
 8007b5c:	4770      	bx	lr
 8007b5e:	bf00      	nop
 8007b60:	48000400 	.word	0x48000400

08007b64 <ILI9341_SPI_Send>:

/*Send data (char) to LCD*/
void ILI9341_SPI_Send(unsigned char SPI_Data)
{
 8007b64:	b580      	push	{r7, lr}
 8007b66:	b084      	sub	sp, #16
 8007b68:	af00      	add	r7, sp, #0
 8007b6a:	4603      	mov	r3, r0
 8007b6c:	71fb      	strb	r3, [r7, #7]
	HAL_StatusTypeDef res;
	#ifdef USE_ILI9341_SPIDMA
		if( ((res = HAL_SPI_Transmit_DMA(HSPI_INSTANCE, &SPI_Data, 1)) != HAL_OK) )
 8007b6e:	1dfb      	adds	r3, r7, #7
 8007b70:	2201      	movs	r2, #1
 8007b72:	4619      	mov	r1, r3
 8007b74:	4804      	ldr	r0, [pc, #16]	; (8007b88 <ILI9341_SPI_Send+0x24>)
 8007b76:	f7fe f85b 	bl	8005c30 <HAL_SPI_Transmit_DMA>
 8007b7a:	4603      	mov	r3, r0
 8007b7c:	73fb      	strb	r3, [r7, #15]
		{
			//printf("HAL_SPI_Transmit Error #%u, ", res);
		}
	#endif

}
 8007b7e:	bf00      	nop
 8007b80:	3710      	adds	r7, #16
 8007b82:	46bd      	mov	sp, r7
 8007b84:	bd80      	pop	{r7, pc}
 8007b86:	bf00      	nop
 8007b88:	20000658 	.word	0x20000658

08007b8c <ILI9341_Write_Command>:

/* Send command (char) to LCD */
void ILI9341_Write_Command(uint8_t Command)
{
 8007b8c:	b580      	push	{r7, lr}
 8007b8e:	b082      	sub	sp, #8
 8007b90:	af00      	add	r7, sp, #0
 8007b92:	4603      	mov	r3, r0
 8007b94:	71fb      	strb	r3, [r7, #7]
	LCD_CS_PORT->ODR &= ~(LCD_CS_PIN);
 8007b96:	4b0d      	ldr	r3, [pc, #52]	; (8007bcc <ILI9341_Write_Command+0x40>)
 8007b98:	695b      	ldr	r3, [r3, #20]
 8007b9a:	4a0c      	ldr	r2, [pc, #48]	; (8007bcc <ILI9341_Write_Command+0x40>)
 8007b9c:	f023 0380 	bic.w	r3, r3, #128	; 0x80
 8007ba0:	6153      	str	r3, [r2, #20]
	LCD_DC_PORT->ODR &= ~(LCD_DC_PIN);
 8007ba2:	4b0a      	ldr	r3, [pc, #40]	; (8007bcc <ILI9341_Write_Command+0x40>)
 8007ba4:	695b      	ldr	r3, [r3, #20]
 8007ba6:	4a09      	ldr	r2, [pc, #36]	; (8007bcc <ILI9341_Write_Command+0x40>)
 8007ba8:	f023 0340 	bic.w	r3, r3, #64	; 0x40
 8007bac:	6153      	str	r3, [r2, #20]
	ILI9341_SPI_Send(Command);
 8007bae:	79fb      	ldrb	r3, [r7, #7]
 8007bb0:	4618      	mov	r0, r3
 8007bb2:	f7ff ffd7 	bl	8007b64 <ILI9341_SPI_Send>
	LCD_CS_PORT->ODR |= LCD_CS_PIN;
 8007bb6:	4b05      	ldr	r3, [pc, #20]	; (8007bcc <ILI9341_Write_Command+0x40>)
 8007bb8:	695b      	ldr	r3, [r3, #20]
 8007bba:	4a04      	ldr	r2, [pc, #16]	; (8007bcc <ILI9341_Write_Command+0x40>)
 8007bbc:	f043 0380 	orr.w	r3, r3, #128	; 0x80
 8007bc0:	6153      	str	r3, [r2, #20]
}
 8007bc2:	bf00      	nop
 8007bc4:	3708      	adds	r7, #8
 8007bc6:	46bd      	mov	sp, r7
 8007bc8:	bd80      	pop	{r7, pc}
 8007bca:	bf00      	nop
 8007bcc:	48000400 	.word	0x48000400

08007bd0 <ILI9341_Write_Data>:

/* Send Data (char) to LCD */
void ILI9341_Write_Data(uint8_t Data)
{
 8007bd0:	b580      	push	{r7, lr}
 8007bd2:	b082      	sub	sp, #8
 8007bd4:	af00      	add	r7, sp, #0
 8007bd6:	4603      	mov	r3, r0
 8007bd8:	71fb      	strb	r3, [r7, #7]
	LCD_DC_PORT->ODR |= LCD_DC_PIN;
 8007bda:	4b0d      	ldr	r3, [pc, #52]	; (8007c10 <ILI9341_Write_Data+0x40>)
 8007bdc:	695b      	ldr	r3, [r3, #20]
 8007bde:	4a0c      	ldr	r2, [pc, #48]	; (8007c10 <ILI9341_Write_Data+0x40>)
 8007be0:	f043 0340 	orr.w	r3, r3, #64	; 0x40
 8007be4:	6153      	str	r3, [r2, #20]
	LCD_CS_PORT->ODR &= ~(LCD_CS_PIN);
 8007be6:	4b0a      	ldr	r3, [pc, #40]	; (8007c10 <ILI9341_Write_Data+0x40>)
 8007be8:	695b      	ldr	r3, [r3, #20]
 8007bea:	4a09      	ldr	r2, [pc, #36]	; (8007c10 <ILI9341_Write_Data+0x40>)
 8007bec:	f023 0380 	bic.w	r3, r3, #128	; 0x80
 8007bf0:	6153      	str	r3, [r2, #20]
	ILI9341_SPI_Send(Data);
 8007bf2:	79fb      	ldrb	r3, [r7, #7]
 8007bf4:	4618      	mov	r0, r3
 8007bf6:	f7ff ffb5 	bl	8007b64 <ILI9341_SPI_Send>
	LCD_CS_PORT->ODR &= ~(LCD_CS_PIN);
 8007bfa:	4b05      	ldr	r3, [pc, #20]	; (8007c10 <ILI9341_Write_Data+0x40>)
 8007bfc:	695b      	ldr	r3, [r3, #20]
 8007bfe:	4a04      	ldr	r2, [pc, #16]	; (8007c10 <ILI9341_Write_Data+0x40>)
 8007c00:	f023 0380 	bic.w	r3, r3, #128	; 0x80
 8007c04:	6153      	str	r3, [r2, #20]
}
 8007c06:	bf00      	nop
 8007c08:	3708      	adds	r7, #8
 8007c0a:	46bd      	mov	sp, r7
 8007c0c:	bd80      	pop	{r7, pc}
 8007c0e:	bf00      	nop
 8007c10:	48000400 	.word	0x48000400

08007c14 <ILI9341_Set_Address>:

/* Set Address - Location block - to draw into */
void ILI9341_Set_Address(uint16_t X1, uint16_t Y1, uint16_t X2, uint16_t Y2)
{
 8007c14:	b590      	push	{r4, r7, lr}
 8007c16:	b083      	sub	sp, #12
 8007c18:	af00      	add	r7, sp, #0
 8007c1a:	4604      	mov	r4, r0
 8007c1c:	4608      	mov	r0, r1
 8007c1e:	4611      	mov	r1, r2
 8007c20:	461a      	mov	r2, r3
 8007c22:	4623      	mov	r3, r4
 8007c24:	80fb      	strh	r3, [r7, #6]
 8007c26:	4603      	mov	r3, r0
 8007c28:	80bb      	strh	r3, [r7, #4]
 8007c2a:	460b      	mov	r3, r1
 8007c2c:	807b      	strh	r3, [r7, #2]
 8007c2e:	4613      	mov	r3, r2
 8007c30:	803b      	strh	r3, [r7, #0]
	ILI9341_Write_Command(0x2A);
 8007c32:	202a      	movs	r0, #42	; 0x2a
 8007c34:	f7ff ffaa 	bl	8007b8c <ILI9341_Write_Command>
	ILI9341_Write_Data(X1>>8);
 8007c38:	88fb      	ldrh	r3, [r7, #6]
 8007c3a:	0a1b      	lsrs	r3, r3, #8
 8007c3c:	b29b      	uxth	r3, r3
 8007c3e:	b2db      	uxtb	r3, r3
 8007c40:	4618      	mov	r0, r3
 8007c42:	f7ff ffc5 	bl	8007bd0 <ILI9341_Write_Data>
	ILI9341_Write_Data(X1);
 8007c46:	88fb      	ldrh	r3, [r7, #6]
 8007c48:	b2db      	uxtb	r3, r3
 8007c4a:	4618      	mov	r0, r3
 8007c4c:	f7ff ffc0 	bl	8007bd0 <ILI9341_Write_Data>
	ILI9341_Write_Data(X2>>8);
 8007c50:	887b      	ldrh	r3, [r7, #2]
 8007c52:	0a1b      	lsrs	r3, r3, #8
 8007c54:	b29b      	uxth	r3, r3
 8007c56:	b2db      	uxtb	r3, r3
 8007c58:	4618      	mov	r0, r3
 8007c5a:	f7ff ffb9 	bl	8007bd0 <ILI9341_Write_Data>
	ILI9341_Write_Data(X2);
 8007c5e:	887b      	ldrh	r3, [r7, #2]
 8007c60:	b2db      	uxtb	r3, r3
 8007c62:	4618      	mov	r0, r3
 8007c64:	f7ff ffb4 	bl	8007bd0 <ILI9341_Write_Data>

	ILI9341_Write_Command(0x2B);
 8007c68:	202b      	movs	r0, #43	; 0x2b
 8007c6a:	f7ff ff8f 	bl	8007b8c <ILI9341_Write_Command>
	ILI9341_Write_Data(Y1>>8);
 8007c6e:	88bb      	ldrh	r3, [r7, #4]
 8007c70:	0a1b      	lsrs	r3, r3, #8
 8007c72:	b29b      	uxth	r3, r3
 8007c74:	b2db      	uxtb	r3, r3
 8007c76:	4618      	mov	r0, r3
 8007c78:	f7ff ffaa 	bl	8007bd0 <ILI9341_Write_Data>
	ILI9341_Write_Data(Y1);
 8007c7c:	88bb      	ldrh	r3, [r7, #4]
 8007c7e:	b2db      	uxtb	r3, r3
 8007c80:	4618      	mov	r0, r3
 8007c82:	f7ff ffa5 	bl	8007bd0 <ILI9341_Write_Data>
	ILI9341_Write_Data(Y2>>8);
 8007c86:	883b      	ldrh	r3, [r7, #0]
 8007c88:	0a1b      	lsrs	r3, r3, #8
 8007c8a:	b29b      	uxth	r3, r3
 8007c8c:	b2db      	uxtb	r3, r3
 8007c8e:	4618      	mov	r0, r3
 8007c90:	f7ff ff9e 	bl	8007bd0 <ILI9341_Write_Data>
	ILI9341_Write_Data(Y2);
 8007c94:	883b      	ldrh	r3, [r7, #0]
 8007c96:	b2db      	uxtb	r3, r3
 8007c98:	4618      	mov	r0, r3
 8007c9a:	f7ff ff99 	bl	8007bd0 <ILI9341_Write_Data>

	ILI9341_Write_Command(0x2C);
 8007c9e:	202c      	movs	r0, #44	; 0x2c
 8007ca0:	f7ff ff74 	bl	8007b8c <ILI9341_Write_Command>
}
 8007ca4:	bf00      	nop
 8007ca6:	370c      	adds	r7, #12
 8007ca8:	46bd      	mov	sp, r7
 8007caa:	bd90      	pop	{r4, r7, pc}

08007cac <ILI9341_Reset>:

/*HARDWARE RESET*/
void ILI9341_Reset(void)
{
 8007cac:	b580      	push	{r7, lr}
 8007cae:	af00      	add	r7, sp, #0
	LCD_RST_PORT->ODR &= ~(LCD_RST_PIN);
 8007cb0:	4b0c      	ldr	r3, [pc, #48]	; (8007ce4 <ILI9341_Reset+0x38>)
 8007cb2:	695b      	ldr	r3, [r3, #20]
 8007cb4:	4a0b      	ldr	r2, [pc, #44]	; (8007ce4 <ILI9341_Reset+0x38>)
 8007cb6:	f423 7300 	bic.w	r3, r3, #512	; 0x200
 8007cba:	6153      	str	r3, [r2, #20]
	HAL_Delay(200);
 8007cbc:	20c8      	movs	r0, #200	; 0xc8
 8007cbe:	f7fa f97f 	bl	8001fc0 <HAL_Delay>
	LCD_CS_PORT->ODR &= ~(LCD_CS_PIN);
 8007cc2:	4b08      	ldr	r3, [pc, #32]	; (8007ce4 <ILI9341_Reset+0x38>)
 8007cc4:	695b      	ldr	r3, [r3, #20]
 8007cc6:	4a07      	ldr	r2, [pc, #28]	; (8007ce4 <ILI9341_Reset+0x38>)
 8007cc8:	f023 0380 	bic.w	r3, r3, #128	; 0x80
 8007ccc:	6153      	str	r3, [r2, #20]
	HAL_Delay(200);
 8007cce:	20c8      	movs	r0, #200	; 0xc8
 8007cd0:	f7fa f976 	bl	8001fc0 <HAL_Delay>
	LCD_RST_PORT->ODR |= LCD_RST_PIN;
 8007cd4:	4b03      	ldr	r3, [pc, #12]	; (8007ce4 <ILI9341_Reset+0x38>)
 8007cd6:	695b      	ldr	r3, [r3, #20]
 8007cd8:	4a02      	ldr	r2, [pc, #8]	; (8007ce4 <ILI9341_Reset+0x38>)
 8007cda:	f443 7300 	orr.w	r3, r3, #512	; 0x200
 8007cde:	6153      	str	r3, [r2, #20]
}
 8007ce0:	bf00      	nop
 8007ce2:	bd80      	pop	{r7, pc}
 8007ce4:	48000400 	.word	0x48000400

08007ce8 <ILI9341_Set_Rotation>:

/*Ser rotation of the screen - changes x0 and y0*/
void ILI9341_Set_Rotation(uint8_t Rotation) 
{
 8007ce8:	b580      	push	{r7, lr}
 8007cea:	b084      	sub	sp, #16
 8007cec:	af00      	add	r7, sp, #0
 8007cee:	4603      	mov	r3, r0
 8007cf0:	71fb      	strb	r3, [r7, #7]
	
	uint8_t screen_rotation = Rotation;
 8007cf2:	79fb      	ldrb	r3, [r7, #7]
 8007cf4:	73fb      	strb	r3, [r7, #15]
	
	ILI9341_Write_Command(0x36);
 8007cf6:	2036      	movs	r0, #54	; 0x36
 8007cf8:	f7ff ff48 	bl	8007b8c <ILI9341_Write_Command>
	//HAL_Delay(1);

	switch(screen_rotation)
 8007cfc:	7bfb      	ldrb	r3, [r7, #15]
 8007cfe:	2b03      	cmp	r3, #3
 8007d00:	d836      	bhi.n	8007d70 <ILI9341_Set_Rotation+0x88>
 8007d02:	a201      	add	r2, pc, #4	; (adr r2, 8007d08 <ILI9341_Set_Rotation+0x20>)
 8007d04:	f852 f023 	ldr.w	pc, [r2, r3, lsl #2]
 8007d08:	08007d19 	.word	0x08007d19
 8007d0c:	08007d2f 	.word	0x08007d2f
 8007d10:	08007d45 	.word	0x08007d45
 8007d14:	08007d5b 	.word	0x08007d5b
	{
		case SCREEN_VERTICAL_1:
			ILI9341_Write_Data(0x40|0x08);
 8007d18:	2048      	movs	r0, #72	; 0x48
 8007d1a:	f7ff ff59 	bl	8007bd0 <ILI9341_Write_Data>
			LCD_WIDTH = 240;
 8007d1e:	4b17      	ldr	r3, [pc, #92]	; (8007d7c <ILI9341_Set_Rotation+0x94>)
 8007d20:	22f0      	movs	r2, #240	; 0xf0
 8007d22:	801a      	strh	r2, [r3, #0]
			LCD_HEIGHT = 320;
 8007d24:	4b16      	ldr	r3, [pc, #88]	; (8007d80 <ILI9341_Set_Rotation+0x98>)
 8007d26:	f44f 72a0 	mov.w	r2, #320	; 0x140
 8007d2a:	801a      	strh	r2, [r3, #0]
			break;
 8007d2c:	e021      	b.n	8007d72 <ILI9341_Set_Rotation+0x8a>
		case SCREEN_HORIZONTAL_1:
			ILI9341_Write_Data(0x20|0x08);
 8007d2e:	2028      	movs	r0, #40	; 0x28
 8007d30:	f7ff ff4e 	bl	8007bd0 <ILI9341_Write_Data>
			LCD_WIDTH  = 320;
 8007d34:	4b11      	ldr	r3, [pc, #68]	; (8007d7c <ILI9341_Set_Rotation+0x94>)
 8007d36:	f44f 72a0 	mov.w	r2, #320	; 0x140
 8007d3a:	801a      	strh	r2, [r3, #0]
			LCD_HEIGHT = 240;
 8007d3c:	4b10      	ldr	r3, [pc, #64]	; (8007d80 <ILI9341_Set_Rotation+0x98>)
 8007d3e:	22f0      	movs	r2, #240	; 0xf0
 8007d40:	801a      	strh	r2, [r3, #0]
			break;
 8007d42:	e016      	b.n	8007d72 <ILI9341_Set_Rotation+0x8a>
		case SCREEN_VERTICAL_2:
			ILI9341_Write_Data(0x80|0x08);
 8007d44:	2088      	movs	r0, #136	; 0x88
 8007d46:	f7ff ff43 	bl	8007bd0 <ILI9341_Write_Data>
			LCD_WIDTH  = 240;
 8007d4a:	4b0c      	ldr	r3, [pc, #48]	; (8007d7c <ILI9341_Set_Rotation+0x94>)
 8007d4c:	22f0      	movs	r2, #240	; 0xf0
 8007d4e:	801a      	strh	r2, [r3, #0]
			LCD_HEIGHT = 320;
 8007d50:	4b0b      	ldr	r3, [pc, #44]	; (8007d80 <ILI9341_Set_Rotation+0x98>)
 8007d52:	f44f 72a0 	mov.w	r2, #320	; 0x140
 8007d56:	801a      	strh	r2, [r3, #0]
			break;
 8007d58:	e00b      	b.n	8007d72 <ILI9341_Set_Rotation+0x8a>
		case SCREEN_HORIZONTAL_2:
			ILI9341_Write_Data(0x40|0x80|0x20|0x08);
 8007d5a:	20e8      	movs	r0, #232	; 0xe8
 8007d5c:	f7ff ff38 	bl	8007bd0 <ILI9341_Write_Data>
			LCD_WIDTH  = 320;
 8007d60:	4b06      	ldr	r3, [pc, #24]	; (8007d7c <ILI9341_Set_Rotation+0x94>)
 8007d62:	f44f 72a0 	mov.w	r2, #320	; 0x140
 8007d66:	801a      	strh	r2, [r3, #0]
			LCD_HEIGHT = 240;
 8007d68:	4b05      	ldr	r3, [pc, #20]	; (8007d80 <ILI9341_Set_Rotation+0x98>)
 8007d6a:	22f0      	movs	r2, #240	; 0xf0
 8007d6c:	801a      	strh	r2, [r3, #0]
			break;
 8007d6e:	e000      	b.n	8007d72 <ILI9341_Set_Rotation+0x8a>
		default:
			//EXIT IF SCREEN ROTATION NOT VALID!
			break;
 8007d70:	bf00      	nop
	}
}
 8007d72:	bf00      	nop
 8007d74:	3710      	adds	r7, #16
 8007d76:	46bd      	mov	sp, r7
 8007d78:	bd80      	pop	{r7, pc}
 8007d7a:	bf00      	nop
 8007d7c:	200003da 	.word	0x200003da
 8007d80:	200003d8 	.word	0x200003d8

08007d84 <ILI9341_Enable>:

/*Enable LCD display*/
void ILI9341_Enable(void)
{
 8007d84:	b480      	push	{r7}
 8007d86:	af00      	add	r7, sp, #0
	LCD_RST_PORT->ODR |= LCD_RST_PIN;
 8007d88:	4b05      	ldr	r3, [pc, #20]	; (8007da0 <ILI9341_Enable+0x1c>)
 8007d8a:	695b      	ldr	r3, [r3, #20]
 8007d8c:	4a04      	ldr	r2, [pc, #16]	; (8007da0 <ILI9341_Enable+0x1c>)
 8007d8e:	f443 7300 	orr.w	r3, r3, #512	; 0x200
 8007d92:	6153      	str	r3, [r2, #20]
}
 8007d94:	bf00      	nop
 8007d96:	46bd      	mov	sp, r7
 8007d98:	f85d 7b04 	ldr.w	r7, [sp], #4
 8007d9c:	4770      	bx	lr
 8007d9e:	bf00      	nop
 8007da0:	48000400 	.word	0x48000400

08007da4 <ILI9341_Init>:

/*Initialize LCD display*/
void ILI9341_Init(void)
{
 8007da4:	b580      	push	{r7, lr}
 8007da6:	af00      	add	r7, sp, #0

	ILI9341_Enable();
 8007da8:	f7ff ffec 	bl	8007d84 <ILI9341_Enable>
	ILI9341_SPI_Init();
 8007dac:	f7ff feca 	bl	8007b44 <ILI9341_SPI_Init>
	ILI9341_Reset();
 8007db0:	f7ff ff7c 	bl	8007cac <ILI9341_Reset>

	//SOFTWARE RESET
	ILI9341_Write_Command(0x01);
 8007db4:	2001      	movs	r0, #1
 8007db6:	f7ff fee9 	bl	8007b8c <ILI9341_Write_Command>
	HAL_Delay(2000);
 8007dba:	f44f 60fa 	mov.w	r0, #2000	; 0x7d0
 8007dbe:	f7fa f8ff 	bl	8001fc0 <HAL_Delay>

	//POWER CONTROL A
	ILI9341_Write_Command(0xCB);
 8007dc2:	20cb      	movs	r0, #203	; 0xcb
 8007dc4:	f7ff fee2 	bl	8007b8c <ILI9341_Write_Command>
	ILI9341_Write_Data(0x39);
 8007dc8:	2039      	movs	r0, #57	; 0x39
 8007dca:	f7ff ff01 	bl	8007bd0 <ILI9341_Write_Data>
	ILI9341_Write_Data(0x2C);
 8007dce:	202c      	movs	r0, #44	; 0x2c
 8007dd0:	f7ff fefe 	bl	8007bd0 <ILI9341_Write_Data>
	ILI9341_Write_Data(0x00);
 8007dd4:	2000      	movs	r0, #0
 8007dd6:	f7ff fefb 	bl	8007bd0 <ILI9341_Write_Data>
	ILI9341_Write_Data(0x34);
 8007dda:	2034      	movs	r0, #52	; 0x34
 8007ddc:	f7ff fef8 	bl	8007bd0 <ILI9341_Write_Data>
	ILI9341_Write_Data(0x02);
 8007de0:	2002      	movs	r0, #2
 8007de2:	f7ff fef5 	bl	8007bd0 <ILI9341_Write_Data>

	//POWER CONTROL B
	ILI9341_Write_Command(0xCF);
 8007de6:	20cf      	movs	r0, #207	; 0xcf
 8007de8:	f7ff fed0 	bl	8007b8c <ILI9341_Write_Command>
	ILI9341_Write_Data(0x00);
 8007dec:	2000      	movs	r0, #0
 8007dee:	f7ff feef 	bl	8007bd0 <ILI9341_Write_Data>
	ILI9341_Write_Data(0xC1);
 8007df2:	20c1      	movs	r0, #193	; 0xc1
 8007df4:	f7ff feec 	bl	8007bd0 <ILI9341_Write_Data>
	ILI9341_Write_Data(0x30);
 8007df8:	2030      	movs	r0, #48	; 0x30
 8007dfa:	f7ff fee9 	bl	8007bd0 <ILI9341_Write_Data>

	//DRIVER TIMING CONTROL A
	ILI9341_Write_Command(0xE8);
 8007dfe:	20e8      	movs	r0, #232	; 0xe8
 8007e00:	f7ff fec4 	bl	8007b8c <ILI9341_Write_Command>
	ILI9341_Write_Data(0x85);
 8007e04:	2085      	movs	r0, #133	; 0x85
 8007e06:	f7ff fee3 	bl	8007bd0 <ILI9341_Write_Data>
	ILI9341_Write_Data(0x00);
 8007e0a:	2000      	movs	r0, #0
 8007e0c:	f7ff fee0 	bl	8007bd0 <ILI9341_Write_Data>
	ILI9341_Write_Data(0x78);
 8007e10:	2078      	movs	r0, #120	; 0x78
 8007e12:	f7ff fedd 	bl	8007bd0 <ILI9341_Write_Data>

	//DRIVER TIMING CONTROL B
	ILI9341_Write_Command(0xEA);
 8007e16:	20ea      	movs	r0, #234	; 0xea
 8007e18:	f7ff feb8 	bl	8007b8c <ILI9341_Write_Command>
	ILI9341_Write_Data(0x00);
 8007e1c:	2000      	movs	r0, #0
 8007e1e:	f7ff fed7 	bl	8007bd0 <ILI9341_Write_Data>
	ILI9341_Write_Data(0x00);
 8007e22:	2000      	movs	r0, #0
 8007e24:	f7ff fed4 	bl	8007bd0 <ILI9341_Write_Data>

	//POWER ON SEQUENCE CONTROL
	ILI9341_Write_Command(0xED);
 8007e28:	20ed      	movs	r0, #237	; 0xed
 8007e2a:	f7ff feaf 	bl	8007b8c <ILI9341_Write_Command>
	ILI9341_Write_Data(0x64);
 8007e2e:	2064      	movs	r0, #100	; 0x64
 8007e30:	f7ff fece 	bl	8007bd0 <ILI9341_Write_Data>
	ILI9341_Write_Data(0x03);
 8007e34:	2003      	movs	r0, #3
 8007e36:	f7ff fecb 	bl	8007bd0 <ILI9341_Write_Data>
	ILI9341_Write_Data(0x12);
 8007e3a:	2012      	movs	r0, #18
 8007e3c:	f7ff fec8 	bl	8007bd0 <ILI9341_Write_Data>
	ILI9341_Write_Data(0x81);
 8007e40:	2081      	movs	r0, #129	; 0x81
 8007e42:	f7ff fec5 	bl	8007bd0 <ILI9341_Write_Data>

	//PUMP RATIO CONTROL
	ILI9341_Write_Command(0xF7);
 8007e46:	20f7      	movs	r0, #247	; 0xf7
 8007e48:	f7ff fea0 	bl	8007b8c <ILI9341_Write_Command>
	ILI9341_Write_Data(0x20);
 8007e4c:	2020      	movs	r0, #32
 8007e4e:	f7ff febf 	bl	8007bd0 <ILI9341_Write_Data>

	//POWER CONTROL,VRH[5:0]
	ILI9341_Write_Command(0xC0);
 8007e52:	20c0      	movs	r0, #192	; 0xc0
 8007e54:	f7ff fe9a 	bl	8007b8c <ILI9341_Write_Command>
	ILI9341_Write_Data(0x23);
 8007e58:	2023      	movs	r0, #35	; 0x23
 8007e5a:	f7ff feb9 	bl	8007bd0 <ILI9341_Write_Data>

	//POWER CONTROL,SAP[2:0];BT[3:0]
	ILI9341_Write_Command(0xC1);
 8007e5e:	20c1      	movs	r0, #193	; 0xc1
 8007e60:	f7ff fe94 	bl	8007b8c <ILI9341_Write_Command>
	ILI9341_Write_Data(0x10);
 8007e64:	2010      	movs	r0, #16
 8007e66:	f7ff feb3 	bl	8007bd0 <ILI9341_Write_Data>

	//VCM CONTROL
	ILI9341_Write_Command(0xC5);
 8007e6a:	20c5      	movs	r0, #197	; 0xc5
 8007e6c:	f7ff fe8e 	bl	8007b8c <ILI9341_Write_Command>
	ILI9341_Write_Data(0x3E);
 8007e70:	203e      	movs	r0, #62	; 0x3e
 8007e72:	f7ff fead 	bl	8007bd0 <ILI9341_Write_Data>
	ILI9341_Write_Data(0x28);
 8007e76:	2028      	movs	r0, #40	; 0x28
 8007e78:	f7ff feaa 	bl	8007bd0 <ILI9341_Write_Data>

	//VCM CONTROL 2
	ILI9341_Write_Command(0xC7);
 8007e7c:	20c7      	movs	r0, #199	; 0xc7
 8007e7e:	f7ff fe85 	bl	8007b8c <ILI9341_Write_Command>
	ILI9341_Write_Data(0x86);
 8007e82:	2086      	movs	r0, #134	; 0x86
 8007e84:	f7ff fea4 	bl	8007bd0 <ILI9341_Write_Data>

	//MEMORY ACCESS CONTROL
	ILI9341_Write_Command(0x36);
 8007e88:	2036      	movs	r0, #54	; 0x36
 8007e8a:	f7ff fe7f 	bl	8007b8c <ILI9341_Write_Command>
	ILI9341_Write_Data(0x48);
 8007e8e:	2048      	movs	r0, #72	; 0x48
 8007e90:	f7ff fe9e 	bl	8007bd0 <ILI9341_Write_Data>

	//PIXEL FORMAT
	ILI9341_Write_Command(0x3A);
 8007e94:	203a      	movs	r0, #58	; 0x3a
 8007e96:	f7ff fe79 	bl	8007b8c <ILI9341_Write_Command>
	ILI9341_Write_Data(0x55);
 8007e9a:	2055      	movs	r0, #85	; 0x55
 8007e9c:	f7ff fe98 	bl	8007bd0 <ILI9341_Write_Data>

	//FRAME RATIO CONTROL, STANDARD RGB COLOR
	ILI9341_Write_Command(0xB1);
 8007ea0:	20b1      	movs	r0, #177	; 0xb1
 8007ea2:	f7ff fe73 	bl	8007b8c <ILI9341_Write_Command>
	ILI9341_Write_Data(0x00);
 8007ea6:	2000      	movs	r0, #0
 8007ea8:	f7ff fe92 	bl	8007bd0 <ILI9341_Write_Data>
	ILI9341_Write_Data(0x18);
 8007eac:	2018      	movs	r0, #24
 8007eae:	f7ff fe8f 	bl	8007bd0 <ILI9341_Write_Data>

	//DISPLAY FUNCTION CONTROL
	ILI9341_Write_Command(0xB6);
 8007eb2:	20b6      	movs	r0, #182	; 0xb6
 8007eb4:	f7ff fe6a 	bl	8007b8c <ILI9341_Write_Command>
	ILI9341_Write_Data(0x08);
 8007eb8:	2008      	movs	r0, #8
 8007eba:	f7ff fe89 	bl	8007bd0 <ILI9341_Write_Data>
	ILI9341_Write_Data(0x82);
 8007ebe:	2082      	movs	r0, #130	; 0x82
 8007ec0:	f7ff fe86 	bl	8007bd0 <ILI9341_Write_Data>
	ILI9341_Write_Data(0x27);
 8007ec4:	2027      	movs	r0, #39	; 0x27
 8007ec6:	f7ff fe83 	bl	8007bd0 <ILI9341_Write_Data>

	//3GAMMA FUNCTION DISABLE
	ILI9341_Write_Command(0xF2);
 8007eca:	20f2      	movs	r0, #242	; 0xf2
 8007ecc:	f7ff fe5e 	bl	8007b8c <ILI9341_Write_Command>
	ILI9341_Write_Data(0x00);
 8007ed0:	2000      	movs	r0, #0
 8007ed2:	f7ff fe7d 	bl	8007bd0 <ILI9341_Write_Data>

	//GAMMA CURVE SELECTED
	ILI9341_Write_Command(0x26);
 8007ed6:	2026      	movs	r0, #38	; 0x26
 8007ed8:	f7ff fe58 	bl	8007b8c <ILI9341_Write_Command>
	ILI9341_Write_Data(0x01);
 8007edc:	2001      	movs	r0, #1
 8007ede:	f7ff fe77 	bl	8007bd0 <ILI9341_Write_Data>

	//POSITIVE GAMMA CORRECTION
	ILI9341_Write_Command(0xE0);
 8007ee2:	20e0      	movs	r0, #224	; 0xe0
 8007ee4:	f7ff fe52 	bl	8007b8c <ILI9341_Write_Command>
	ILI9341_Write_Data(0x0F);
 8007ee8:	200f      	movs	r0, #15
 8007eea:	f7ff fe71 	bl	8007bd0 <ILI9341_Write_Data>
	ILI9341_Write_Data(0x31);
 8007eee:	2031      	movs	r0, #49	; 0x31
 8007ef0:	f7ff fe6e 	bl	8007bd0 <ILI9341_Write_Data>
	ILI9341_Write_Data(0x2B);
 8007ef4:	202b      	movs	r0, #43	; 0x2b
 8007ef6:	f7ff fe6b 	bl	8007bd0 <ILI9341_Write_Data>
	ILI9341_Write_Data(0x0C);
 8007efa:	200c      	movs	r0, #12
 8007efc:	f7ff fe68 	bl	8007bd0 <ILI9341_Write_Data>
	ILI9341_Write_Data(0x0E);
 8007f00:	200e      	movs	r0, #14
 8007f02:	f7ff fe65 	bl	8007bd0 <ILI9341_Write_Data>
	ILI9341_Write_Data(0x08);
 8007f06:	2008      	movs	r0, #8
 8007f08:	f7ff fe62 	bl	8007bd0 <ILI9341_Write_Data>
	ILI9341_Write_Data(0x4E);
 8007f0c:	204e      	movs	r0, #78	; 0x4e
 8007f0e:	f7ff fe5f 	bl	8007bd0 <ILI9341_Write_Data>
	ILI9341_Write_Data(0xF1);
 8007f12:	20f1      	movs	r0, #241	; 0xf1
 8007f14:	f7ff fe5c 	bl	8007bd0 <ILI9341_Write_Data>
	ILI9341_Write_Data(0x37);
 8007f18:	2037      	movs	r0, #55	; 0x37
 8007f1a:	f7ff fe59 	bl	8007bd0 <ILI9341_Write_Data>
	ILI9341_Write_Data(0x07);
 8007f1e:	2007      	movs	r0, #7
 8007f20:	f7ff fe56 	bl	8007bd0 <ILI9341_Write_Data>
	ILI9341_Write_Data(0x10);
 8007f24:	2010      	movs	r0, #16
 8007f26:	f7ff fe53 	bl	8007bd0 <ILI9341_Write_Data>
	ILI9341_Write_Data(0x03);
 8007f2a:	2003      	movs	r0, #3
 8007f2c:	f7ff fe50 	bl	8007bd0 <ILI9341_Write_Data>
	ILI9341_Write_Data(0x0E);
 8007f30:	200e      	movs	r0, #14
 8007f32:	f7ff fe4d 	bl	8007bd0 <ILI9341_Write_Data>
	ILI9341_Write_Data(0x09);
 8007f36:	2009      	movs	r0, #9
 8007f38:	f7ff fe4a 	bl	8007bd0 <ILI9341_Write_Data>
	ILI9341_Write_Data(0x00);
 8007f3c:	2000      	movs	r0, #0
 8007f3e:	f7ff fe47 	bl	8007bd0 <ILI9341_Write_Data>

	//NEGATIVE GAMMA CORRECTION
	ILI9341_Write_Command(0xE1);
 8007f42:	20e1      	movs	r0, #225	; 0xe1
 8007f44:	f7ff fe22 	bl	8007b8c <ILI9341_Write_Command>
	ILI9341_Write_Data(0x00);
 8007f48:	2000      	movs	r0, #0
 8007f4a:	f7ff fe41 	bl	8007bd0 <ILI9341_Write_Data>
	ILI9341_Write_Data(0x0E);
 8007f4e:	200e      	movs	r0, #14
 8007f50:	f7ff fe3e 	bl	8007bd0 <ILI9341_Write_Data>
	ILI9341_Write_Data(0x14);
 8007f54:	2014      	movs	r0, #20
 8007f56:	f7ff fe3b 	bl	8007bd0 <ILI9341_Write_Data>
	ILI9341_Write_Data(0x03);
 8007f5a:	2003      	movs	r0, #3
 8007f5c:	f7ff fe38 	bl	8007bd0 <ILI9341_Write_Data>
	ILI9341_Write_Data(0x11);
 8007f60:	2011      	movs	r0, #17
 8007f62:	f7ff fe35 	bl	8007bd0 <ILI9341_Write_Data>
	ILI9341_Write_Data(0x07);
 8007f66:	2007      	movs	r0, #7
 8007f68:	f7ff fe32 	bl	8007bd0 <ILI9341_Write_Data>
	ILI9341_Write_Data(0x31);
 8007f6c:	2031      	movs	r0, #49	; 0x31
 8007f6e:	f7ff fe2f 	bl	8007bd0 <ILI9341_Write_Data>
	ILI9341_Write_Data(0xC1);
 8007f72:	20c1      	movs	r0, #193	; 0xc1
 8007f74:	f7ff fe2c 	bl	8007bd0 <ILI9341_Write_Data>
	ILI9341_Write_Data(0x48);
 8007f78:	2048      	movs	r0, #72	; 0x48
 8007f7a:	f7ff fe29 	bl	8007bd0 <ILI9341_Write_Data>
	ILI9341_Write_Data(0x08);
 8007f7e:	2008      	movs	r0, #8
 8007f80:	f7ff fe26 	bl	8007bd0 <ILI9341_Write_Data>
	ILI9341_Write_Data(0x0F);
 8007f84:	200f      	movs	r0, #15
 8007f86:	f7ff fe23 	bl	8007bd0 <ILI9341_Write_Data>
	ILI9341_Write_Data(0x0C);
 8007f8a:	200c      	movs	r0, #12
 8007f8c:	f7ff fe20 	bl	8007bd0 <ILI9341_Write_Data>
	ILI9341_Write_Data(0x31);
 8007f90:	2031      	movs	r0, #49	; 0x31
 8007f92:	f7ff fe1d 	bl	8007bd0 <ILI9341_Write_Data>
	ILI9341_Write_Data(0x36);
 8007f96:	2036      	movs	r0, #54	; 0x36
 8007f98:	f7ff fe1a 	bl	8007bd0 <ILI9341_Write_Data>
	ILI9341_Write_Data(0x0F);
 8007f9c:	200f      	movs	r0, #15
 8007f9e:	f7ff fe17 	bl	8007bd0 <ILI9341_Write_Data>

	//EXIT SLEEP
	ILI9341_Write_Command(0x11);
 8007fa2:	2011      	movs	r0, #17
 8007fa4:	f7ff fdf2 	bl	8007b8c <ILI9341_Write_Command>
	HAL_Delay(240);
 8007fa8:	20f0      	movs	r0, #240	; 0xf0
 8007faa:	f7fa f809 	bl	8001fc0 <HAL_Delay>

	//TURN ON DISPLAY
	ILI9341_Write_Command(0x29);
 8007fae:	2029      	movs	r0, #41	; 0x29
 8007fb0:	f7ff fdec 	bl	8007b8c <ILI9341_Write_Command>
	
	//STARTING ROTATION
	ILI9341_Set_Rotation(SCREEN_VERTICAL_1);
 8007fb4:	2000      	movs	r0, #0
 8007fb6:	f7ff fe97 	bl	8007ce8 <ILI9341_Set_Rotation>
}
 8007fba:	bf00      	nop
 8007fbc:	bd80      	pop	{r7, pc}
	...

08007fc0 <ILI9341_Draw_Colour_Burst>:
}

//INTERNAL FUNCTION OF LIBRARY
/*Sends block colour information to LCD*/
void ILI9341_Draw_Colour_Burst(uint16_t Colour, uint32_t Size)
{
 8007fc0:	b5b0      	push	{r4, r5, r7, lr}
 8007fc2:	b08c      	sub	sp, #48	; 0x30
 8007fc4:	af00      	add	r7, sp, #0
 8007fc6:	4603      	mov	r3, r0
 8007fc8:	6039      	str	r1, [r7, #0]
 8007fca:	80fb      	strh	r3, [r7, #6]
 8007fcc:	466b      	mov	r3, sp
 8007fce:	461d      	mov	r5, r3
	//SENDS COLOUR
	uint32_t Buffer_Size = 0;
 8007fd0:	2300      	movs	r3, #0
 8007fd2:	627b      	str	r3, [r7, #36]	; 0x24
	if((Size*2) < BURST_MAX_SIZE)
 8007fd4:	683b      	ldr	r3, [r7, #0]
 8007fd6:	005b      	lsls	r3, r3, #1
 8007fd8:	f5b3 7ffa 	cmp.w	r3, #500	; 0x1f4
 8007fdc:	d202      	bcs.n	8007fe4 <ILI9341_Draw_Colour_Burst+0x24>
	{
		Buffer_Size = Size;
 8007fde:	683b      	ldr	r3, [r7, #0]
 8007fe0:	627b      	str	r3, [r7, #36]	; 0x24
 8007fe2:	e002      	b.n	8007fea <ILI9341_Draw_Colour_Burst+0x2a>
	}
	else
	{
		Buffer_Size = BURST_MAX_SIZE;
 8007fe4:	f44f 73fa 	mov.w	r3, #500	; 0x1f4
 8007fe8:	627b      	str	r3, [r7, #36]	; 0x24
	}

	LCD_DC_PORT->ODR |= LCD_DC_PIN;
 8007fea:	4b40      	ldr	r3, [pc, #256]	; (80080ec <ILI9341_Draw_Colour_Burst+0x12c>)
 8007fec:	695b      	ldr	r3, [r3, #20]
 8007fee:	4a3f      	ldr	r2, [pc, #252]	; (80080ec <ILI9341_Draw_Colour_Burst+0x12c>)
 8007ff0:	f043 0340 	orr.w	r3, r3, #64	; 0x40
 8007ff4:	6153      	str	r3, [r2, #20]
	LCD_CS_PORT->ODR &= ~(LCD_CS_PIN);
 8007ff6:	4b3d      	ldr	r3, [pc, #244]	; (80080ec <ILI9341_Draw_Colour_Burst+0x12c>)
 8007ff8:	695b      	ldr	r3, [r3, #20]
 8007ffa:	4a3c      	ldr	r2, [pc, #240]	; (80080ec <ILI9341_Draw_Colour_Burst+0x12c>)
 8007ffc:	f023 0380 	bic.w	r3, r3, #128	; 0x80
 8008000:	6153      	str	r3, [r2, #20]

	unsigned char chifted = 	Colour>>8;;
 8008002:	88fb      	ldrh	r3, [r7, #6]
 8008004:	0a1b      	lsrs	r3, r3, #8
 8008006:	b29b      	uxth	r3, r3
 8008008:	f887 3023 	strb.w	r3, [r7, #35]	; 0x23
	unsigned char burst_buffer[Buffer_Size];
 800800c:	6a78      	ldr	r0, [r7, #36]	; 0x24
 800800e:	4603      	mov	r3, r0
 8008010:	3b01      	subs	r3, #1
 8008012:	61fb      	str	r3, [r7, #28]
 8008014:	4601      	mov	r1, r0
 8008016:	f04f 0200 	mov.w	r2, #0
 800801a:	f04f 0300 	mov.w	r3, #0
 800801e:	f04f 0400 	mov.w	r4, #0
 8008022:	00d4      	lsls	r4, r2, #3
 8008024:	ea44 7451 	orr.w	r4, r4, r1, lsr #29
 8008028:	00cb      	lsls	r3, r1, #3
 800802a:	4601      	mov	r1, r0
 800802c:	f04f 0200 	mov.w	r2, #0
 8008030:	f04f 0300 	mov.w	r3, #0
 8008034:	f04f 0400 	mov.w	r4, #0
 8008038:	00d4      	lsls	r4, r2, #3
 800803a:	ea44 7451 	orr.w	r4, r4, r1, lsr #29
 800803e:	00cb      	lsls	r3, r1, #3
 8008040:	1dc3      	adds	r3, r0, #7
 8008042:	08db      	lsrs	r3, r3, #3
 8008044:	00db      	lsls	r3, r3, #3
 8008046:	ebad 0d03 	sub.w	sp, sp, r3
 800804a:	466b      	mov	r3, sp
 800804c:	3300      	adds	r3, #0
 800804e:	61bb      	str	r3, [r7, #24]
	for(uint32_t j = 0; j < Buffer_Size; j+=2)
 8008050:	2300      	movs	r3, #0
 8008052:	62bb      	str	r3, [r7, #40]	; 0x28
 8008054:	e00e      	b.n	8008074 <ILI9341_Draw_Colour_Burst+0xb4>
		{
			burst_buffer[j] = 	chifted;
 8008056:	69ba      	ldr	r2, [r7, #24]
 8008058:	6abb      	ldr	r3, [r7, #40]	; 0x28
 800805a:	4413      	add	r3, r2
 800805c:	f897 2023 	ldrb.w	r2, [r7, #35]	; 0x23
 8008060:	701a      	strb	r2, [r3, #0]
			burst_buffer[j+1] = Colour;
 8008062:	6abb      	ldr	r3, [r7, #40]	; 0x28
 8008064:	3301      	adds	r3, #1
 8008066:	88fa      	ldrh	r2, [r7, #6]
 8008068:	b2d1      	uxtb	r1, r2
 800806a:	69ba      	ldr	r2, [r7, #24]
 800806c:	54d1      	strb	r1, [r2, r3]
	for(uint32_t j = 0; j < Buffer_Size; j+=2)
 800806e:	6abb      	ldr	r3, [r7, #40]	; 0x28
 8008070:	3302      	adds	r3, #2
 8008072:	62bb      	str	r3, [r7, #40]	; 0x28
 8008074:	6aba      	ldr	r2, [r7, #40]	; 0x28
 8008076:	6a7b      	ldr	r3, [r7, #36]	; 0x24
 8008078:	429a      	cmp	r2, r3
 800807a:	d3ec      	bcc.n	8008056 <ILI9341_Draw_Colour_Burst+0x96>
		}
	
	uint32_t Sending_Size = Size*2;
 800807c:	683b      	ldr	r3, [r7, #0]
 800807e:	005b      	lsls	r3, r3, #1
 8008080:	617b      	str	r3, [r7, #20]
	uint32_t Sending_in_Block = Sending_Size/Buffer_Size;
 8008082:	697a      	ldr	r2, [r7, #20]
 8008084:	6a7b      	ldr	r3, [r7, #36]	; 0x24
 8008086:	fbb2 f3f3 	udiv	r3, r2, r3
 800808a:	613b      	str	r3, [r7, #16]
	uint32_t Remainder_from_block = Sending_Size%Buffer_Size;
 800808c:	697b      	ldr	r3, [r7, #20]
 800808e:	6a7a      	ldr	r2, [r7, #36]	; 0x24
 8008090:	fbb3 f2f2 	udiv	r2, r3, r2
 8008094:	6a79      	ldr	r1, [r7, #36]	; 0x24
 8008096:	fb01 f202 	mul.w	r2, r1, r2
 800809a:	1a9b      	subs	r3, r3, r2
 800809c:	60fb      	str	r3, [r7, #12]

	if(Sending_in_Block != 0)
 800809e:	693b      	ldr	r3, [r7, #16]
 80080a0:	2b00      	cmp	r3, #0
 80080a2:	d010      	beq.n	80080c6 <ILI9341_Draw_Colour_Burst+0x106>
	{
		for(uint32_t j = 0; j < (Sending_in_Block); j++)
 80080a4:	2300      	movs	r3, #0
 80080a6:	62fb      	str	r3, [r7, #44]	; 0x2c
 80080a8:	e009      	b.n	80080be <ILI9341_Draw_Colour_Burst+0xfe>
			{
			HAL_SPI_Transmit(HSPI_INSTANCE, (unsigned char *)burst_buffer, Buffer_Size, 10);
 80080aa:	69b9      	ldr	r1, [r7, #24]
 80080ac:	6a7b      	ldr	r3, [r7, #36]	; 0x24
 80080ae:	b29a      	uxth	r2, r3
 80080b0:	230a      	movs	r3, #10
 80080b2:	480f      	ldr	r0, [pc, #60]	; (80080f0 <ILI9341_Draw_Colour_Burst+0x130>)
 80080b4:	f7fd fc56 	bl	8005964 <HAL_SPI_Transmit>
		for(uint32_t j = 0; j < (Sending_in_Block); j++)
 80080b8:	6afb      	ldr	r3, [r7, #44]	; 0x2c
 80080ba:	3301      	adds	r3, #1
 80080bc:	62fb      	str	r3, [r7, #44]	; 0x2c
 80080be:	6afa      	ldr	r2, [r7, #44]	; 0x2c
 80080c0:	693b      	ldr	r3, [r7, #16]
 80080c2:	429a      	cmp	r2, r3
 80080c4:	d3f1      	bcc.n	80080aa <ILI9341_Draw_Colour_Burst+0xea>
			}
	}

	//REMAINDER!
	HAL_SPI_Transmit(HSPI_INSTANCE, (unsigned char *)burst_buffer, Remainder_from_block, 10);
 80080c6:	69b9      	ldr	r1, [r7, #24]
 80080c8:	68fb      	ldr	r3, [r7, #12]
 80080ca:	b29a      	uxth	r2, r3
 80080cc:	230a      	movs	r3, #10
 80080ce:	4808      	ldr	r0, [pc, #32]	; (80080f0 <ILI9341_Draw_Colour_Burst+0x130>)
 80080d0:	f7fd fc48 	bl	8005964 <HAL_SPI_Transmit>

	LCD_CS_PORT->ODR |= LCD_CS_PIN;
 80080d4:	4b05      	ldr	r3, [pc, #20]	; (80080ec <ILI9341_Draw_Colour_Burst+0x12c>)
 80080d6:	695b      	ldr	r3, [r3, #20]
 80080d8:	4a04      	ldr	r2, [pc, #16]	; (80080ec <ILI9341_Draw_Colour_Burst+0x12c>)
 80080da:	f043 0380 	orr.w	r3, r3, #128	; 0x80
 80080de:	6153      	str	r3, [r2, #20]
 80080e0:	46ad      	mov	sp, r5
}
 80080e2:	bf00      	nop
 80080e4:	3730      	adds	r7, #48	; 0x30
 80080e6:	46bd      	mov	sp, r7
 80080e8:	bdb0      	pop	{r4, r5, r7, pc}
 80080ea:	bf00      	nop
 80080ec:	48000400 	.word	0x48000400
 80080f0:	20000658 	.word	0x20000658

080080f4 <ILI9341_Fill_Screen>:

//FILL THE ENTIRE SCREEN WITH SELECTED COLOUR (either #define-d ones or custom 16bit)
/*Sets address (entire screen) and Sends Height*Width ammount of colour information to LCD*/
void ILI9341_Fill_Screen(uint16_t Colour)
{
 80080f4:	b580      	push	{r7, lr}
 80080f6:	b082      	sub	sp, #8
 80080f8:	af00      	add	r7, sp, #0
 80080fa:	4603      	mov	r3, r0
 80080fc:	80fb      	strh	r3, [r7, #6]
	ILI9341_Set_Address(0,0,LCD_WIDTH,LCD_HEIGHT);
 80080fe:	4b0e      	ldr	r3, [pc, #56]	; (8008138 <ILI9341_Fill_Screen+0x44>)
 8008100:	881b      	ldrh	r3, [r3, #0]
 8008102:	b29a      	uxth	r2, r3
 8008104:	4b0d      	ldr	r3, [pc, #52]	; (800813c <ILI9341_Fill_Screen+0x48>)
 8008106:	881b      	ldrh	r3, [r3, #0]
 8008108:	b29b      	uxth	r3, r3
 800810a:	2100      	movs	r1, #0
 800810c:	2000      	movs	r0, #0
 800810e:	f7ff fd81 	bl	8007c14 <ILI9341_Set_Address>
	ILI9341_Draw_Colour_Burst(Colour, LCD_WIDTH*LCD_HEIGHT);
 8008112:	4b09      	ldr	r3, [pc, #36]	; (8008138 <ILI9341_Fill_Screen+0x44>)
 8008114:	881b      	ldrh	r3, [r3, #0]
 8008116:	b29b      	uxth	r3, r3
 8008118:	461a      	mov	r2, r3
 800811a:	4b08      	ldr	r3, [pc, #32]	; (800813c <ILI9341_Fill_Screen+0x48>)
 800811c:	881b      	ldrh	r3, [r3, #0]
 800811e:	b29b      	uxth	r3, r3
 8008120:	fb03 f302 	mul.w	r3, r3, r2
 8008124:	461a      	mov	r2, r3
 8008126:	88fb      	ldrh	r3, [r7, #6]
 8008128:	4611      	mov	r1, r2
 800812a:	4618      	mov	r0, r3
 800812c:	f7ff ff48 	bl	8007fc0 <ILI9341_Draw_Colour_Burst>
}
 8008130:	bf00      	nop
 8008132:	3708      	adds	r7, #8
 8008134:	46bd      	mov	sp, r7
 8008136:	bd80      	pop	{r7, pc}
 8008138:	200003da 	.word	0x200003da
 800813c:	200003d8 	.word	0x200003d8

08008140 <ILI9341_Draw_Pixel>:
//Location is dependant on screen orientation. x0 and y0 locations change with orientations.
//Using pixels to draw big simple structures is not recommended as it is really slow
//Try using either rectangles or lines if possible
//
void ILI9341_Draw_Pixel(uint16_t X,uint16_t Y,uint16_t Colour) 
{
 8008140:	b580      	push	{r7, lr}
 8008142:	b086      	sub	sp, #24
 8008144:	af00      	add	r7, sp, #0
 8008146:	4603      	mov	r3, r0
 8008148:	80fb      	strh	r3, [r7, #6]
 800814a:	460b      	mov	r3, r1
 800814c:	80bb      	strh	r3, [r7, #4]
 800814e:	4613      	mov	r3, r2
 8008150:	807b      	strh	r3, [r7, #2]
	if((X >=LCD_WIDTH) || (Y >=LCD_HEIGHT)) return;	//OUT OF BOUNDS!
 8008152:	4b64      	ldr	r3, [pc, #400]	; (80082e4 <ILI9341_Draw_Pixel+0x1a4>)
 8008154:	881b      	ldrh	r3, [r3, #0]
 8008156:	b29b      	uxth	r3, r3
 8008158:	88fa      	ldrh	r2, [r7, #6]
 800815a:	429a      	cmp	r2, r3
 800815c:	f080 80be 	bcs.w	80082dc <ILI9341_Draw_Pixel+0x19c>
 8008160:	4b61      	ldr	r3, [pc, #388]	; (80082e8 <ILI9341_Draw_Pixel+0x1a8>)
 8008162:	881b      	ldrh	r3, [r3, #0]
 8008164:	b29b      	uxth	r3, r3
 8008166:	88ba      	ldrh	r2, [r7, #4]
 8008168:	429a      	cmp	r2, r3
 800816a:	f080 80b7 	bcs.w	80082dc <ILI9341_Draw_Pixel+0x19c>

	//ADDRESS
	LCD_DC_PORT->ODR &= ~(LCD_DC_PIN);
 800816e:	4b5f      	ldr	r3, [pc, #380]	; (80082ec <ILI9341_Draw_Pixel+0x1ac>)
 8008170:	695b      	ldr	r3, [r3, #20]
 8008172:	4a5e      	ldr	r2, [pc, #376]	; (80082ec <ILI9341_Draw_Pixel+0x1ac>)
 8008174:	f023 0340 	bic.w	r3, r3, #64	; 0x40
 8008178:	6153      	str	r3, [r2, #20]
	LCD_CS_PORT->ODR &= ~(LCD_CS_PIN);
 800817a:	4b5c      	ldr	r3, [pc, #368]	; (80082ec <ILI9341_Draw_Pixel+0x1ac>)
 800817c:	695b      	ldr	r3, [r3, #20]
 800817e:	4a5b      	ldr	r2, [pc, #364]	; (80082ec <ILI9341_Draw_Pixel+0x1ac>)
 8008180:	f023 0380 	bic.w	r3, r3, #128	; 0x80
 8008184:	6153      	str	r3, [r2, #20]
	ILI9341_SPI_Send(0x2A);
 8008186:	202a      	movs	r0, #42	; 0x2a
 8008188:	f7ff fcec 	bl	8007b64 <ILI9341_SPI_Send>

	LCD_DC_PORT->ODR |= LCD_DC_PIN;
 800818c:	4b57      	ldr	r3, [pc, #348]	; (80082ec <ILI9341_Draw_Pixel+0x1ac>)
 800818e:	695b      	ldr	r3, [r3, #20]
 8008190:	4a56      	ldr	r2, [pc, #344]	; (80082ec <ILI9341_Draw_Pixel+0x1ac>)
 8008192:	f043 0340 	orr.w	r3, r3, #64	; 0x40
 8008196:	6153      	str	r3, [r2, #20]
	LCD_CS_PORT->ODR |= LCD_CS_PIN;
 8008198:	4b54      	ldr	r3, [pc, #336]	; (80082ec <ILI9341_Draw_Pixel+0x1ac>)
 800819a:	695b      	ldr	r3, [r3, #20]
 800819c:	4a53      	ldr	r2, [pc, #332]	; (80082ec <ILI9341_Draw_Pixel+0x1ac>)
 800819e:	f043 0380 	orr.w	r3, r3, #128	; 0x80
 80081a2:	6153      	str	r3, [r2, #20]

	//XDATA
	LCD_CS_PORT->ODR &= ~(LCD_CS_PIN);
 80081a4:	4b51      	ldr	r3, [pc, #324]	; (80082ec <ILI9341_Draw_Pixel+0x1ac>)
 80081a6:	695b      	ldr	r3, [r3, #20]
 80081a8:	4a50      	ldr	r2, [pc, #320]	; (80082ec <ILI9341_Draw_Pixel+0x1ac>)
 80081aa:	f023 0380 	bic.w	r3, r3, #128	; 0x80
 80081ae:	6153      	str	r3, [r2, #20]
	unsigned char Temp_Buffer[4] = {X>>8,X, (X+1)>>8, (X+1)};
 80081b0:	88fb      	ldrh	r3, [r7, #6]
 80081b2:	0a1b      	lsrs	r3, r3, #8
 80081b4:	b29b      	uxth	r3, r3
 80081b6:	b2db      	uxtb	r3, r3
 80081b8:	753b      	strb	r3, [r7, #20]
 80081ba:	88fb      	ldrh	r3, [r7, #6]
 80081bc:	b2db      	uxtb	r3, r3
 80081be:	757b      	strb	r3, [r7, #21]
 80081c0:	88fb      	ldrh	r3, [r7, #6]
 80081c2:	3301      	adds	r3, #1
 80081c4:	121b      	asrs	r3, r3, #8
 80081c6:	b2db      	uxtb	r3, r3
 80081c8:	75bb      	strb	r3, [r7, #22]
 80081ca:	88fb      	ldrh	r3, [r7, #6]
 80081cc:	b2db      	uxtb	r3, r3
 80081ce:	3301      	adds	r3, #1
 80081d0:	b2db      	uxtb	r3, r3
 80081d2:	75fb      	strb	r3, [r7, #23]
	HAL_SPI_Transmit(HSPI_INSTANCE, Temp_Buffer, 4, 1);
 80081d4:	f107 0114 	add.w	r1, r7, #20
 80081d8:	2301      	movs	r3, #1
 80081da:	2204      	movs	r2, #4
 80081dc:	4844      	ldr	r0, [pc, #272]	; (80082f0 <ILI9341_Draw_Pixel+0x1b0>)
 80081de:	f7fd fbc1 	bl	8005964 <HAL_SPI_Transmit>
	LCD_CS_PORT->ODR |= LCD_CS_PIN;
 80081e2:	4b42      	ldr	r3, [pc, #264]	; (80082ec <ILI9341_Draw_Pixel+0x1ac>)
 80081e4:	695b      	ldr	r3, [r3, #20]
 80081e6:	4a41      	ldr	r2, [pc, #260]	; (80082ec <ILI9341_Draw_Pixel+0x1ac>)
 80081e8:	f043 0380 	orr.w	r3, r3, #128	; 0x80
 80081ec:	6153      	str	r3, [r2, #20]

	//ADDRESS
	LCD_DC_PORT->ODR &= ~(LCD_DC_PIN);
 80081ee:	4b3f      	ldr	r3, [pc, #252]	; (80082ec <ILI9341_Draw_Pixel+0x1ac>)
 80081f0:	695b      	ldr	r3, [r3, #20]
 80081f2:	4a3e      	ldr	r2, [pc, #248]	; (80082ec <ILI9341_Draw_Pixel+0x1ac>)
 80081f4:	f023 0340 	bic.w	r3, r3, #64	; 0x40
 80081f8:	6153      	str	r3, [r2, #20]
	LCD_CS_PORT->ODR &= ~(LCD_CS_PIN);
 80081fa:	4b3c      	ldr	r3, [pc, #240]	; (80082ec <ILI9341_Draw_Pixel+0x1ac>)
 80081fc:	695b      	ldr	r3, [r3, #20]
 80081fe:	4a3b      	ldr	r2, [pc, #236]	; (80082ec <ILI9341_Draw_Pixel+0x1ac>)
 8008200:	f023 0380 	bic.w	r3, r3, #128	; 0x80
 8008204:	6153      	str	r3, [r2, #20]

	ILI9341_SPI_Send(0x2B);
 8008206:	202b      	movs	r0, #43	; 0x2b
 8008208:	f7ff fcac 	bl	8007b64 <ILI9341_SPI_Send>
	LCD_DC_PORT->ODR |= LCD_DC_PIN;
 800820c:	4b37      	ldr	r3, [pc, #220]	; (80082ec <ILI9341_Draw_Pixel+0x1ac>)
 800820e:	695b      	ldr	r3, [r3, #20]
 8008210:	4a36      	ldr	r2, [pc, #216]	; (80082ec <ILI9341_Draw_Pixel+0x1ac>)
 8008212:	f043 0340 	orr.w	r3, r3, #64	; 0x40
 8008216:	6153      	str	r3, [r2, #20]
	LCD_CS_PORT->ODR |= LCD_CS_PIN;
 8008218:	4b34      	ldr	r3, [pc, #208]	; (80082ec <ILI9341_Draw_Pixel+0x1ac>)
 800821a:	695b      	ldr	r3, [r3, #20]
 800821c:	4a33      	ldr	r2, [pc, #204]	; (80082ec <ILI9341_Draw_Pixel+0x1ac>)
 800821e:	f043 0380 	orr.w	r3, r3, #128	; 0x80
 8008222:	6153      	str	r3, [r2, #20]

	//YDATA
	LCD_CS_PORT->ODR &= ~(LCD_CS_PIN);
 8008224:	4b31      	ldr	r3, [pc, #196]	; (80082ec <ILI9341_Draw_Pixel+0x1ac>)
 8008226:	695b      	ldr	r3, [r3, #20]
 8008228:	4a30      	ldr	r2, [pc, #192]	; (80082ec <ILI9341_Draw_Pixel+0x1ac>)
 800822a:	f023 0380 	bic.w	r3, r3, #128	; 0x80
 800822e:	6153      	str	r3, [r2, #20]
	unsigned char Temp_Buffer1[4] = {Y>>8,Y, (Y+1)>>8, (Y+1)};
 8008230:	88bb      	ldrh	r3, [r7, #4]
 8008232:	0a1b      	lsrs	r3, r3, #8
 8008234:	b29b      	uxth	r3, r3
 8008236:	b2db      	uxtb	r3, r3
 8008238:	743b      	strb	r3, [r7, #16]
 800823a:	88bb      	ldrh	r3, [r7, #4]
 800823c:	b2db      	uxtb	r3, r3
 800823e:	747b      	strb	r3, [r7, #17]
 8008240:	88bb      	ldrh	r3, [r7, #4]
 8008242:	3301      	adds	r3, #1
 8008244:	121b      	asrs	r3, r3, #8
 8008246:	b2db      	uxtb	r3, r3
 8008248:	74bb      	strb	r3, [r7, #18]
 800824a:	88bb      	ldrh	r3, [r7, #4]
 800824c:	b2db      	uxtb	r3, r3
 800824e:	3301      	adds	r3, #1
 8008250:	b2db      	uxtb	r3, r3
 8008252:	74fb      	strb	r3, [r7, #19]
	HAL_SPI_Transmit(HSPI_INSTANCE, Temp_Buffer1, 4, 1);
 8008254:	f107 0110 	add.w	r1, r7, #16
 8008258:	2301      	movs	r3, #1
 800825a:	2204      	movs	r2, #4
 800825c:	4824      	ldr	r0, [pc, #144]	; (80082f0 <ILI9341_Draw_Pixel+0x1b0>)
 800825e:	f7fd fb81 	bl	8005964 <HAL_SPI_Transmit>
	LCD_CS_PORT->ODR |= LCD_CS_PIN;
 8008262:	4b22      	ldr	r3, [pc, #136]	; (80082ec <ILI9341_Draw_Pixel+0x1ac>)
 8008264:	695b      	ldr	r3, [r3, #20]
 8008266:	4a21      	ldr	r2, [pc, #132]	; (80082ec <ILI9341_Draw_Pixel+0x1ac>)
 8008268:	f043 0380 	orr.w	r3, r3, #128	; 0x80
 800826c:	6153      	str	r3, [r2, #20]

	//ADDRESS
	LCD_DC_PORT->ODR &= ~(LCD_DC_PIN);
 800826e:	4b1f      	ldr	r3, [pc, #124]	; (80082ec <ILI9341_Draw_Pixel+0x1ac>)
 8008270:	695b      	ldr	r3, [r3, #20]
 8008272:	4a1e      	ldr	r2, [pc, #120]	; (80082ec <ILI9341_Draw_Pixel+0x1ac>)
 8008274:	f023 0340 	bic.w	r3, r3, #64	; 0x40
 8008278:	6153      	str	r3, [r2, #20]
	LCD_CS_PORT->ODR &= ~(LCD_CS_PIN);
 800827a:	4b1c      	ldr	r3, [pc, #112]	; (80082ec <ILI9341_Draw_Pixel+0x1ac>)
 800827c:	695b      	ldr	r3, [r3, #20]
 800827e:	4a1b      	ldr	r2, [pc, #108]	; (80082ec <ILI9341_Draw_Pixel+0x1ac>)
 8008280:	f023 0380 	bic.w	r3, r3, #128	; 0x80
 8008284:	6153      	str	r3, [r2, #20]
	ILI9341_SPI_Send(0x2C);
 8008286:	202c      	movs	r0, #44	; 0x2c
 8008288:	f7ff fc6c 	bl	8007b64 <ILI9341_SPI_Send>
	LCD_DC_PORT->ODR |= LCD_DC_PIN;
 800828c:	4b17      	ldr	r3, [pc, #92]	; (80082ec <ILI9341_Draw_Pixel+0x1ac>)
 800828e:	695b      	ldr	r3, [r3, #20]
 8008290:	4a16      	ldr	r2, [pc, #88]	; (80082ec <ILI9341_Draw_Pixel+0x1ac>)
 8008292:	f043 0340 	orr.w	r3, r3, #64	; 0x40
 8008296:	6153      	str	r3, [r2, #20]
	LCD_CS_PORT->ODR |= LCD_CS_PIN;
 8008298:	4b14      	ldr	r3, [pc, #80]	; (80082ec <ILI9341_Draw_Pixel+0x1ac>)
 800829a:	695b      	ldr	r3, [r3, #20]
 800829c:	4a13      	ldr	r2, [pc, #76]	; (80082ec <ILI9341_Draw_Pixel+0x1ac>)
 800829e:	f043 0380 	orr.w	r3, r3, #128	; 0x80
 80082a2:	6153      	str	r3, [r2, #20]
	
	//COLOUR
	LCD_CS_PORT->ODR &= ~(LCD_CS_PIN);
 80082a4:	4b11      	ldr	r3, [pc, #68]	; (80082ec <ILI9341_Draw_Pixel+0x1ac>)
 80082a6:	695b      	ldr	r3, [r3, #20]
 80082a8:	4a10      	ldr	r2, [pc, #64]	; (80082ec <ILI9341_Draw_Pixel+0x1ac>)
 80082aa:	f023 0380 	bic.w	r3, r3, #128	; 0x80
 80082ae:	6153      	str	r3, [r2, #20]
	unsigned char Temp_Buffer2[2] = {Colour>>8, Colour};
 80082b0:	887b      	ldrh	r3, [r7, #2]
 80082b2:	0a1b      	lsrs	r3, r3, #8
 80082b4:	b29b      	uxth	r3, r3
 80082b6:	b2db      	uxtb	r3, r3
 80082b8:	733b      	strb	r3, [r7, #12]
 80082ba:	887b      	ldrh	r3, [r7, #2]
 80082bc:	b2db      	uxtb	r3, r3
 80082be:	737b      	strb	r3, [r7, #13]
	HAL_SPI_Transmit(HSPI_INSTANCE, Temp_Buffer2, 2, 1);
 80082c0:	f107 010c 	add.w	r1, r7, #12
 80082c4:	2301      	movs	r3, #1
 80082c6:	2202      	movs	r2, #2
 80082c8:	4809      	ldr	r0, [pc, #36]	; (80082f0 <ILI9341_Draw_Pixel+0x1b0>)
 80082ca:	f7fd fb4b 	bl	8005964 <HAL_SPI_Transmit>
	LCD_CS_PORT->ODR |= LCD_CS_PIN;
 80082ce:	4b07      	ldr	r3, [pc, #28]	; (80082ec <ILI9341_Draw_Pixel+0x1ac>)
 80082d0:	695b      	ldr	r3, [r3, #20]
 80082d2:	4a06      	ldr	r2, [pc, #24]	; (80082ec <ILI9341_Draw_Pixel+0x1ac>)
 80082d4:	f043 0380 	orr.w	r3, r3, #128	; 0x80
 80082d8:	6153      	str	r3, [r2, #20]
 80082da:	e000      	b.n	80082de <ILI9341_Draw_Pixel+0x19e>
	if((X >=LCD_WIDTH) || (Y >=LCD_HEIGHT)) return;	//OUT OF BOUNDS!
 80082dc:	bf00      	nop

	
}
 80082de:	3718      	adds	r7, #24
 80082e0:	46bd      	mov	sp, r7
 80082e2:	bd80      	pop	{r7, pc}
 80082e4:	200003da 	.word	0x200003da
 80082e8:	200003d8 	.word	0x200003d8
 80082ec:	48000400 	.word	0x48000400
 80082f0:	20000658 	.word	0x20000658

080082f4 <ILI9341_Draw_Rectangle>:
//Rectangle is hollow. X and Y positions mark the upper left corner of rectangle
//As with all other draw calls x0 and y0 locations dependant on screen orientation
//

void ILI9341_Draw_Rectangle(uint16_t X, uint16_t Y, uint16_t Width, uint16_t Height, uint16_t Colour)
{
 80082f4:	b590      	push	{r4, r7, lr}
 80082f6:	b083      	sub	sp, #12
 80082f8:	af00      	add	r7, sp, #0
 80082fa:	4604      	mov	r4, r0
 80082fc:	4608      	mov	r0, r1
 80082fe:	4611      	mov	r1, r2
 8008300:	461a      	mov	r2, r3
 8008302:	4623      	mov	r3, r4
 8008304:	80fb      	strh	r3, [r7, #6]
 8008306:	4603      	mov	r3, r0
 8008308:	80bb      	strh	r3, [r7, #4]
 800830a:	460b      	mov	r3, r1
 800830c:	807b      	strh	r3, [r7, #2]
 800830e:	4613      	mov	r3, r2
 8008310:	803b      	strh	r3, [r7, #0]
	if((X >=LCD_WIDTH) || (Y >=LCD_HEIGHT)) return;
 8008312:	4b25      	ldr	r3, [pc, #148]	; (80083a8 <ILI9341_Draw_Rectangle+0xb4>)
 8008314:	881b      	ldrh	r3, [r3, #0]
 8008316:	b29b      	uxth	r3, r3
 8008318:	88fa      	ldrh	r2, [r7, #6]
 800831a:	429a      	cmp	r2, r3
 800831c:	d23f      	bcs.n	800839e <ILI9341_Draw_Rectangle+0xaa>
 800831e:	4b23      	ldr	r3, [pc, #140]	; (80083ac <ILI9341_Draw_Rectangle+0xb8>)
 8008320:	881b      	ldrh	r3, [r3, #0]
 8008322:	b29b      	uxth	r3, r3
 8008324:	88ba      	ldrh	r2, [r7, #4]
 8008326:	429a      	cmp	r2, r3
 8008328:	d239      	bcs.n	800839e <ILI9341_Draw_Rectangle+0xaa>
	if((X+Width-1)>=LCD_WIDTH)
 800832a:	88fa      	ldrh	r2, [r7, #6]
 800832c:	887b      	ldrh	r3, [r7, #2]
 800832e:	4413      	add	r3, r2
 8008330:	3b01      	subs	r3, #1
 8008332:	4a1d      	ldr	r2, [pc, #116]	; (80083a8 <ILI9341_Draw_Rectangle+0xb4>)
 8008334:	8812      	ldrh	r2, [r2, #0]
 8008336:	b292      	uxth	r2, r2
 8008338:	4293      	cmp	r3, r2
 800833a:	db05      	blt.n	8008348 <ILI9341_Draw_Rectangle+0x54>
		{
			Width=LCD_WIDTH-X;
 800833c:	4b1a      	ldr	r3, [pc, #104]	; (80083a8 <ILI9341_Draw_Rectangle+0xb4>)
 800833e:	881b      	ldrh	r3, [r3, #0]
 8008340:	b29a      	uxth	r2, r3
 8008342:	88fb      	ldrh	r3, [r7, #6]
 8008344:	1ad3      	subs	r3, r2, r3
 8008346:	807b      	strh	r3, [r7, #2]
		}
	if((Y+Height-1)>=LCD_HEIGHT)
 8008348:	88ba      	ldrh	r2, [r7, #4]
 800834a:	883b      	ldrh	r3, [r7, #0]
 800834c:	4413      	add	r3, r2
 800834e:	3b01      	subs	r3, #1
 8008350:	4a16      	ldr	r2, [pc, #88]	; (80083ac <ILI9341_Draw_Rectangle+0xb8>)
 8008352:	8812      	ldrh	r2, [r2, #0]
 8008354:	b292      	uxth	r2, r2
 8008356:	4293      	cmp	r3, r2
 8008358:	db05      	blt.n	8008366 <ILI9341_Draw_Rectangle+0x72>
		{
			Height=LCD_HEIGHT-Y;
 800835a:	4b14      	ldr	r3, [pc, #80]	; (80083ac <ILI9341_Draw_Rectangle+0xb8>)
 800835c:	881b      	ldrh	r3, [r3, #0]
 800835e:	b29a      	uxth	r2, r3
 8008360:	88bb      	ldrh	r3, [r7, #4]
 8008362:	1ad3      	subs	r3, r2, r3
 8008364:	803b      	strh	r3, [r7, #0]
		}
	ILI9341_Set_Address(X, Y, X+Width-1, Y+Height-1);
 8008366:	88fa      	ldrh	r2, [r7, #6]
 8008368:	887b      	ldrh	r3, [r7, #2]
 800836a:	4413      	add	r3, r2
 800836c:	b29b      	uxth	r3, r3
 800836e:	3b01      	subs	r3, #1
 8008370:	b29c      	uxth	r4, r3
 8008372:	88ba      	ldrh	r2, [r7, #4]
 8008374:	883b      	ldrh	r3, [r7, #0]
 8008376:	4413      	add	r3, r2
 8008378:	b29b      	uxth	r3, r3
 800837a:	3b01      	subs	r3, #1
 800837c:	b29b      	uxth	r3, r3
 800837e:	88b9      	ldrh	r1, [r7, #4]
 8008380:	88f8      	ldrh	r0, [r7, #6]
 8008382:	4622      	mov	r2, r4
 8008384:	f7ff fc46 	bl	8007c14 <ILI9341_Set_Address>
	ILI9341_Draw_Colour_Burst(Colour, Height*Width);
 8008388:	883b      	ldrh	r3, [r7, #0]
 800838a:	887a      	ldrh	r2, [r7, #2]
 800838c:	fb02 f303 	mul.w	r3, r2, r3
 8008390:	461a      	mov	r2, r3
 8008392:	8b3b      	ldrh	r3, [r7, #24]
 8008394:	4611      	mov	r1, r2
 8008396:	4618      	mov	r0, r3
 8008398:	f7ff fe12 	bl	8007fc0 <ILI9341_Draw_Colour_Burst>
 800839c:	e000      	b.n	80083a0 <ILI9341_Draw_Rectangle+0xac>
	if((X >=LCD_WIDTH) || (Y >=LCD_HEIGHT)) return;
 800839e:	bf00      	nop
}
 80083a0:	370c      	adds	r7, #12
 80083a2:	46bd      	mov	sp, r7
 80083a4:	bd90      	pop	{r4, r7, pc}
 80083a6:	bf00      	nop
 80083a8:	200003da 	.word	0x200003da
 80083ac:	200003d8 	.word	0x200003d8

080083b0 <ILI9341_Draw_Horizontal_Line>:

//DRAW LINE FROM X,Y LOCATION to X+Width,Y LOCATION
void ILI9341_Draw_Horizontal_Line(uint16_t X, uint16_t Y, uint16_t Width, uint16_t Colour)
{
 80083b0:	b590      	push	{r4, r7, lr}
 80083b2:	b083      	sub	sp, #12
 80083b4:	af00      	add	r7, sp, #0
 80083b6:	4604      	mov	r4, r0
 80083b8:	4608      	mov	r0, r1
 80083ba:	4611      	mov	r1, r2
 80083bc:	461a      	mov	r2, r3
 80083be:	4623      	mov	r3, r4
 80083c0:	80fb      	strh	r3, [r7, #6]
 80083c2:	4603      	mov	r3, r0
 80083c4:	80bb      	strh	r3, [r7, #4]
 80083c6:	460b      	mov	r3, r1
 80083c8:	807b      	strh	r3, [r7, #2]
 80083ca:	4613      	mov	r3, r2
 80083cc:	803b      	strh	r3, [r7, #0]
	if((X >=LCD_WIDTH) || (Y >=LCD_HEIGHT)) return;
 80083ce:	4b18      	ldr	r3, [pc, #96]	; (8008430 <ILI9341_Draw_Horizontal_Line+0x80>)
 80083d0:	881b      	ldrh	r3, [r3, #0]
 80083d2:	b29b      	uxth	r3, r3
 80083d4:	88fa      	ldrh	r2, [r7, #6]
 80083d6:	429a      	cmp	r2, r3
 80083d8:	d226      	bcs.n	8008428 <ILI9341_Draw_Horizontal_Line+0x78>
 80083da:	4b16      	ldr	r3, [pc, #88]	; (8008434 <ILI9341_Draw_Horizontal_Line+0x84>)
 80083dc:	881b      	ldrh	r3, [r3, #0]
 80083de:	b29b      	uxth	r3, r3
 80083e0:	88ba      	ldrh	r2, [r7, #4]
 80083e2:	429a      	cmp	r2, r3
 80083e4:	d220      	bcs.n	8008428 <ILI9341_Draw_Horizontal_Line+0x78>
	if((X+Width-1)>=LCD_WIDTH)
 80083e6:	88fa      	ldrh	r2, [r7, #6]
 80083e8:	887b      	ldrh	r3, [r7, #2]
 80083ea:	4413      	add	r3, r2
 80083ec:	3b01      	subs	r3, #1
 80083ee:	4a10      	ldr	r2, [pc, #64]	; (8008430 <ILI9341_Draw_Horizontal_Line+0x80>)
 80083f0:	8812      	ldrh	r2, [r2, #0]
 80083f2:	b292      	uxth	r2, r2
 80083f4:	4293      	cmp	r3, r2
 80083f6:	db05      	blt.n	8008404 <ILI9341_Draw_Horizontal_Line+0x54>
		{
			Width=LCD_WIDTH-X;
 80083f8:	4b0d      	ldr	r3, [pc, #52]	; (8008430 <ILI9341_Draw_Horizontal_Line+0x80>)
 80083fa:	881b      	ldrh	r3, [r3, #0]
 80083fc:	b29a      	uxth	r2, r3
 80083fe:	88fb      	ldrh	r3, [r7, #6]
 8008400:	1ad3      	subs	r3, r2, r3
 8008402:	807b      	strh	r3, [r7, #2]
		}
	ILI9341_Set_Address(X, Y, X+Width-1, Y);
 8008404:	88fa      	ldrh	r2, [r7, #6]
 8008406:	887b      	ldrh	r3, [r7, #2]
 8008408:	4413      	add	r3, r2
 800840a:	b29b      	uxth	r3, r3
 800840c:	3b01      	subs	r3, #1
 800840e:	b29a      	uxth	r2, r3
 8008410:	88bb      	ldrh	r3, [r7, #4]
 8008412:	88b9      	ldrh	r1, [r7, #4]
 8008414:	88f8      	ldrh	r0, [r7, #6]
 8008416:	f7ff fbfd 	bl	8007c14 <ILI9341_Set_Address>
	ILI9341_Draw_Colour_Burst(Colour, Width);
 800841a:	887a      	ldrh	r2, [r7, #2]
 800841c:	883b      	ldrh	r3, [r7, #0]
 800841e:	4611      	mov	r1, r2
 8008420:	4618      	mov	r0, r3
 8008422:	f7ff fdcd 	bl	8007fc0 <ILI9341_Draw_Colour_Burst>
 8008426:	e000      	b.n	800842a <ILI9341_Draw_Horizontal_Line+0x7a>
	if((X >=LCD_WIDTH) || (Y >=LCD_HEIGHT)) return;
 8008428:	bf00      	nop
}
 800842a:	370c      	adds	r7, #12
 800842c:	46bd      	mov	sp, r7
 800842e:	bd90      	pop	{r4, r7, pc}
 8008430:	200003da 	.word	0x200003da
 8008434:	200003d8 	.word	0x200003d8

08008438 <ILI9341_Draw_Vertical_Line>:

//DRAW LINE FROM X,Y LOCATION to X,Y+Height LOCATION
void ILI9341_Draw_Vertical_Line(uint16_t X, uint16_t Y, uint16_t Height, uint16_t Colour)
{
 8008438:	b590      	push	{r4, r7, lr}
 800843a:	b083      	sub	sp, #12
 800843c:	af00      	add	r7, sp, #0
 800843e:	4604      	mov	r4, r0
 8008440:	4608      	mov	r0, r1
 8008442:	4611      	mov	r1, r2
 8008444:	461a      	mov	r2, r3
 8008446:	4623      	mov	r3, r4
 8008448:	80fb      	strh	r3, [r7, #6]
 800844a:	4603      	mov	r3, r0
 800844c:	80bb      	strh	r3, [r7, #4]
 800844e:	460b      	mov	r3, r1
 8008450:	807b      	strh	r3, [r7, #2]
 8008452:	4613      	mov	r3, r2
 8008454:	803b      	strh	r3, [r7, #0]
	if((X >=LCD_WIDTH) || (Y >=LCD_HEIGHT)) return;
 8008456:	4b18      	ldr	r3, [pc, #96]	; (80084b8 <ILI9341_Draw_Vertical_Line+0x80>)
 8008458:	881b      	ldrh	r3, [r3, #0]
 800845a:	b29b      	uxth	r3, r3
 800845c:	88fa      	ldrh	r2, [r7, #6]
 800845e:	429a      	cmp	r2, r3
 8008460:	d226      	bcs.n	80084b0 <ILI9341_Draw_Vertical_Line+0x78>
 8008462:	4b16      	ldr	r3, [pc, #88]	; (80084bc <ILI9341_Draw_Vertical_Line+0x84>)
 8008464:	881b      	ldrh	r3, [r3, #0]
 8008466:	b29b      	uxth	r3, r3
 8008468:	88ba      	ldrh	r2, [r7, #4]
 800846a:	429a      	cmp	r2, r3
 800846c:	d220      	bcs.n	80084b0 <ILI9341_Draw_Vertical_Line+0x78>
	if((Y+Height-1)>=LCD_HEIGHT)
 800846e:	88ba      	ldrh	r2, [r7, #4]
 8008470:	887b      	ldrh	r3, [r7, #2]
 8008472:	4413      	add	r3, r2
 8008474:	3b01      	subs	r3, #1
 8008476:	4a11      	ldr	r2, [pc, #68]	; (80084bc <ILI9341_Draw_Vertical_Line+0x84>)
 8008478:	8812      	ldrh	r2, [r2, #0]
 800847a:	b292      	uxth	r2, r2
 800847c:	4293      	cmp	r3, r2
 800847e:	db05      	blt.n	800848c <ILI9341_Draw_Vertical_Line+0x54>
		{
			Height=LCD_HEIGHT-Y;
 8008480:	4b0e      	ldr	r3, [pc, #56]	; (80084bc <ILI9341_Draw_Vertical_Line+0x84>)
 8008482:	881b      	ldrh	r3, [r3, #0]
 8008484:	b29a      	uxth	r2, r3
 8008486:	88bb      	ldrh	r3, [r7, #4]
 8008488:	1ad3      	subs	r3, r2, r3
 800848a:	807b      	strh	r3, [r7, #2]
		}
	ILI9341_Set_Address(X, Y, X, Y+Height-1);
 800848c:	88ba      	ldrh	r2, [r7, #4]
 800848e:	887b      	ldrh	r3, [r7, #2]
 8008490:	4413      	add	r3, r2
 8008492:	b29b      	uxth	r3, r3
 8008494:	3b01      	subs	r3, #1
 8008496:	b29b      	uxth	r3, r3
 8008498:	88fa      	ldrh	r2, [r7, #6]
 800849a:	88b9      	ldrh	r1, [r7, #4]
 800849c:	88f8      	ldrh	r0, [r7, #6]
 800849e:	f7ff fbb9 	bl	8007c14 <ILI9341_Set_Address>
	ILI9341_Draw_Colour_Burst(Colour, Height);
 80084a2:	887a      	ldrh	r2, [r7, #2]
 80084a4:	883b      	ldrh	r3, [r7, #0]
 80084a6:	4611      	mov	r1, r2
 80084a8:	4618      	mov	r0, r3
 80084aa:	f7ff fd89 	bl	8007fc0 <ILI9341_Draw_Colour_Burst>
 80084ae:	e000      	b.n	80084b2 <ILI9341_Draw_Vertical_Line+0x7a>
	if((X >=LCD_WIDTH) || (Y >=LCD_HEIGHT)) return;
 80084b0:	bf00      	nop
}
 80084b2:	370c      	adds	r7, #12
 80084b4:	46bd      	mov	sp, r7
 80084b6:	bd90      	pop	{r4, r7, pc}
 80084b8:	200003da 	.word	0x200003da
 80084bc:	200003d8 	.word	0x200003d8

080084c0 <__errno>:
 80084c0:	4b01      	ldr	r3, [pc, #4]	; (80084c8 <__errno+0x8>)
 80084c2:	6818      	ldr	r0, [r3, #0]
 80084c4:	4770      	bx	lr
 80084c6:	bf00      	nop
 80084c8:	200003dc 	.word	0x200003dc

080084cc <__libc_init_array>:
 80084cc:	b570      	push	{r4, r5, r6, lr}
 80084ce:	4e0d      	ldr	r6, [pc, #52]	; (8008504 <__libc_init_array+0x38>)
 80084d0:	4c0d      	ldr	r4, [pc, #52]	; (8008508 <__libc_init_array+0x3c>)
 80084d2:	1ba4      	subs	r4, r4, r6
 80084d4:	10a4      	asrs	r4, r4, #2
 80084d6:	2500      	movs	r5, #0
 80084d8:	42a5      	cmp	r5, r4
 80084da:	d109      	bne.n	80084f0 <__libc_init_array+0x24>
 80084dc:	4e0b      	ldr	r6, [pc, #44]	; (800850c <__libc_init_array+0x40>)
 80084de:	4c0c      	ldr	r4, [pc, #48]	; (8008510 <__libc_init_array+0x44>)
 80084e0:	f000 ff68 	bl	80093b4 <_init>
 80084e4:	1ba4      	subs	r4, r4, r6
 80084e6:	10a4      	asrs	r4, r4, #2
 80084e8:	2500      	movs	r5, #0
 80084ea:	42a5      	cmp	r5, r4
 80084ec:	d105      	bne.n	80084fa <__libc_init_array+0x2e>
 80084ee:	bd70      	pop	{r4, r5, r6, pc}
 80084f0:	f856 3025 	ldr.w	r3, [r6, r5, lsl #2]
 80084f4:	4798      	blx	r3
 80084f6:	3501      	adds	r5, #1
 80084f8:	e7ee      	b.n	80084d8 <__libc_init_array+0xc>
 80084fa:	f856 3025 	ldr.w	r3, [r6, r5, lsl #2]
 80084fe:	4798      	blx	r3
 8008500:	3501      	adds	r5, #1
 8008502:	e7f2      	b.n	80084ea <__libc_init_array+0x1e>
 8008504:	08009744 	.word	0x08009744
 8008508:	08009744 	.word	0x08009744
 800850c:	08009744 	.word	0x08009744
 8008510:	08009748 	.word	0x08009748

08008514 <memset>:
 8008514:	4402      	add	r2, r0
 8008516:	4603      	mov	r3, r0
 8008518:	4293      	cmp	r3, r2
 800851a:	d100      	bne.n	800851e <memset+0xa>
 800851c:	4770      	bx	lr
 800851e:	f803 1b01 	strb.w	r1, [r3], #1
 8008522:	e7f9      	b.n	8008518 <memset+0x4>

08008524 <iprintf>:
 8008524:	b40f      	push	{r0, r1, r2, r3}
 8008526:	4b0a      	ldr	r3, [pc, #40]	; (8008550 <iprintf+0x2c>)
 8008528:	b513      	push	{r0, r1, r4, lr}
 800852a:	681c      	ldr	r4, [r3, #0]
 800852c:	b124      	cbz	r4, 8008538 <iprintf+0x14>
 800852e:	69a3      	ldr	r3, [r4, #24]
 8008530:	b913      	cbnz	r3, 8008538 <iprintf+0x14>
 8008532:	4620      	mov	r0, r4
 8008534:	f000 fa22 	bl	800897c <__sinit>
 8008538:	ab05      	add	r3, sp, #20
 800853a:	9a04      	ldr	r2, [sp, #16]
 800853c:	68a1      	ldr	r1, [r4, #8]
 800853e:	9301      	str	r3, [sp, #4]
 8008540:	4620      	mov	r0, r4
 8008542:	f000 fbdb 	bl	8008cfc <_vfiprintf_r>
 8008546:	b002      	add	sp, #8
 8008548:	e8bd 4010 	ldmia.w	sp!, {r4, lr}
 800854c:	b004      	add	sp, #16
 800854e:	4770      	bx	lr
 8008550:	200003dc 	.word	0x200003dc

08008554 <_puts_r>:
 8008554:	b570      	push	{r4, r5, r6, lr}
 8008556:	460e      	mov	r6, r1
 8008558:	4605      	mov	r5, r0
 800855a:	b118      	cbz	r0, 8008564 <_puts_r+0x10>
 800855c:	6983      	ldr	r3, [r0, #24]
 800855e:	b90b      	cbnz	r3, 8008564 <_puts_r+0x10>
 8008560:	f000 fa0c 	bl	800897c <__sinit>
 8008564:	69ab      	ldr	r3, [r5, #24]
 8008566:	68ac      	ldr	r4, [r5, #8]
 8008568:	b913      	cbnz	r3, 8008570 <_puts_r+0x1c>
 800856a:	4628      	mov	r0, r5
 800856c:	f000 fa06 	bl	800897c <__sinit>
 8008570:	4b23      	ldr	r3, [pc, #140]	; (8008600 <_puts_r+0xac>)
 8008572:	429c      	cmp	r4, r3
 8008574:	d117      	bne.n	80085a6 <_puts_r+0x52>
 8008576:	686c      	ldr	r4, [r5, #4]
 8008578:	89a3      	ldrh	r3, [r4, #12]
 800857a:	071b      	lsls	r3, r3, #28
 800857c:	d51d      	bpl.n	80085ba <_puts_r+0x66>
 800857e:	6923      	ldr	r3, [r4, #16]
 8008580:	b1db      	cbz	r3, 80085ba <_puts_r+0x66>
 8008582:	3e01      	subs	r6, #1
 8008584:	68a3      	ldr	r3, [r4, #8]
 8008586:	f816 1f01 	ldrb.w	r1, [r6, #1]!
 800858a:	3b01      	subs	r3, #1
 800858c:	60a3      	str	r3, [r4, #8]
 800858e:	b9e9      	cbnz	r1, 80085cc <_puts_r+0x78>
 8008590:	2b00      	cmp	r3, #0
 8008592:	da2e      	bge.n	80085f2 <_puts_r+0x9e>
 8008594:	4622      	mov	r2, r4
 8008596:	210a      	movs	r1, #10
 8008598:	4628      	mov	r0, r5
 800859a:	f000 f83f 	bl	800861c <__swbuf_r>
 800859e:	3001      	adds	r0, #1
 80085a0:	d011      	beq.n	80085c6 <_puts_r+0x72>
 80085a2:	200a      	movs	r0, #10
 80085a4:	e011      	b.n	80085ca <_puts_r+0x76>
 80085a6:	4b17      	ldr	r3, [pc, #92]	; (8008604 <_puts_r+0xb0>)
 80085a8:	429c      	cmp	r4, r3
 80085aa:	d101      	bne.n	80085b0 <_puts_r+0x5c>
 80085ac:	68ac      	ldr	r4, [r5, #8]
 80085ae:	e7e3      	b.n	8008578 <_puts_r+0x24>
 80085b0:	4b15      	ldr	r3, [pc, #84]	; (8008608 <_puts_r+0xb4>)
 80085b2:	429c      	cmp	r4, r3
 80085b4:	bf08      	it	eq
 80085b6:	68ec      	ldreq	r4, [r5, #12]
 80085b8:	e7de      	b.n	8008578 <_puts_r+0x24>
 80085ba:	4621      	mov	r1, r4
 80085bc:	4628      	mov	r0, r5
 80085be:	f000 f87f 	bl	80086c0 <__swsetup_r>
 80085c2:	2800      	cmp	r0, #0
 80085c4:	d0dd      	beq.n	8008582 <_puts_r+0x2e>
 80085c6:	f04f 30ff 	mov.w	r0, #4294967295	; 0xffffffff
 80085ca:	bd70      	pop	{r4, r5, r6, pc}
 80085cc:	2b00      	cmp	r3, #0
 80085ce:	da04      	bge.n	80085da <_puts_r+0x86>
 80085d0:	69a2      	ldr	r2, [r4, #24]
 80085d2:	429a      	cmp	r2, r3
 80085d4:	dc06      	bgt.n	80085e4 <_puts_r+0x90>
 80085d6:	290a      	cmp	r1, #10
 80085d8:	d004      	beq.n	80085e4 <_puts_r+0x90>
 80085da:	6823      	ldr	r3, [r4, #0]
 80085dc:	1c5a      	adds	r2, r3, #1
 80085de:	6022      	str	r2, [r4, #0]
 80085e0:	7019      	strb	r1, [r3, #0]
 80085e2:	e7cf      	b.n	8008584 <_puts_r+0x30>
 80085e4:	4622      	mov	r2, r4
 80085e6:	4628      	mov	r0, r5
 80085e8:	f000 f818 	bl	800861c <__swbuf_r>
 80085ec:	3001      	adds	r0, #1
 80085ee:	d1c9      	bne.n	8008584 <_puts_r+0x30>
 80085f0:	e7e9      	b.n	80085c6 <_puts_r+0x72>
 80085f2:	6823      	ldr	r3, [r4, #0]
 80085f4:	200a      	movs	r0, #10
 80085f6:	1c5a      	adds	r2, r3, #1
 80085f8:	6022      	str	r2, [r4, #0]
 80085fa:	7018      	strb	r0, [r3, #0]
 80085fc:	e7e5      	b.n	80085ca <_puts_r+0x76>
 80085fe:	bf00      	nop
 8008600:	080096d0 	.word	0x080096d0
 8008604:	080096f0 	.word	0x080096f0
 8008608:	080096b0 	.word	0x080096b0

0800860c <puts>:
 800860c:	4b02      	ldr	r3, [pc, #8]	; (8008618 <puts+0xc>)
 800860e:	4601      	mov	r1, r0
 8008610:	6818      	ldr	r0, [r3, #0]
 8008612:	f7ff bf9f 	b.w	8008554 <_puts_r>
 8008616:	bf00      	nop
 8008618:	200003dc 	.word	0x200003dc

0800861c <__swbuf_r>:
 800861c:	b5f8      	push	{r3, r4, r5, r6, r7, lr}
 800861e:	460e      	mov	r6, r1
 8008620:	4614      	mov	r4, r2
 8008622:	4605      	mov	r5, r0
 8008624:	b118      	cbz	r0, 800862e <__swbuf_r+0x12>
 8008626:	6983      	ldr	r3, [r0, #24]
 8008628:	b90b      	cbnz	r3, 800862e <__swbuf_r+0x12>
 800862a:	f000 f9a7 	bl	800897c <__sinit>
 800862e:	4b21      	ldr	r3, [pc, #132]	; (80086b4 <__swbuf_r+0x98>)
 8008630:	429c      	cmp	r4, r3
 8008632:	d12a      	bne.n	800868a <__swbuf_r+0x6e>
 8008634:	686c      	ldr	r4, [r5, #4]
 8008636:	69a3      	ldr	r3, [r4, #24]
 8008638:	60a3      	str	r3, [r4, #8]
 800863a:	89a3      	ldrh	r3, [r4, #12]
 800863c:	071a      	lsls	r2, r3, #28
 800863e:	d52e      	bpl.n	800869e <__swbuf_r+0x82>
 8008640:	6923      	ldr	r3, [r4, #16]
 8008642:	b363      	cbz	r3, 800869e <__swbuf_r+0x82>
 8008644:	6923      	ldr	r3, [r4, #16]
 8008646:	6820      	ldr	r0, [r4, #0]
 8008648:	1ac0      	subs	r0, r0, r3
 800864a:	6963      	ldr	r3, [r4, #20]
 800864c:	b2f6      	uxtb	r6, r6
 800864e:	4283      	cmp	r3, r0
 8008650:	4637      	mov	r7, r6
 8008652:	dc04      	bgt.n	800865e <__swbuf_r+0x42>
 8008654:	4621      	mov	r1, r4
 8008656:	4628      	mov	r0, r5
 8008658:	f000 f926 	bl	80088a8 <_fflush_r>
 800865c:	bb28      	cbnz	r0, 80086aa <__swbuf_r+0x8e>
 800865e:	68a3      	ldr	r3, [r4, #8]
 8008660:	3b01      	subs	r3, #1
 8008662:	60a3      	str	r3, [r4, #8]
 8008664:	6823      	ldr	r3, [r4, #0]
 8008666:	1c5a      	adds	r2, r3, #1
 8008668:	6022      	str	r2, [r4, #0]
 800866a:	701e      	strb	r6, [r3, #0]
 800866c:	6963      	ldr	r3, [r4, #20]
 800866e:	3001      	adds	r0, #1
 8008670:	4283      	cmp	r3, r0
 8008672:	d004      	beq.n	800867e <__swbuf_r+0x62>
 8008674:	89a3      	ldrh	r3, [r4, #12]
 8008676:	07db      	lsls	r3, r3, #31
 8008678:	d519      	bpl.n	80086ae <__swbuf_r+0x92>
 800867a:	2e0a      	cmp	r6, #10
 800867c:	d117      	bne.n	80086ae <__swbuf_r+0x92>
 800867e:	4621      	mov	r1, r4
 8008680:	4628      	mov	r0, r5
 8008682:	f000 f911 	bl	80088a8 <_fflush_r>
 8008686:	b190      	cbz	r0, 80086ae <__swbuf_r+0x92>
 8008688:	e00f      	b.n	80086aa <__swbuf_r+0x8e>
 800868a:	4b0b      	ldr	r3, [pc, #44]	; (80086b8 <__swbuf_r+0x9c>)
 800868c:	429c      	cmp	r4, r3
 800868e:	d101      	bne.n	8008694 <__swbuf_r+0x78>
 8008690:	68ac      	ldr	r4, [r5, #8]
 8008692:	e7d0      	b.n	8008636 <__swbuf_r+0x1a>
 8008694:	4b09      	ldr	r3, [pc, #36]	; (80086bc <__swbuf_r+0xa0>)
 8008696:	429c      	cmp	r4, r3
 8008698:	bf08      	it	eq
 800869a:	68ec      	ldreq	r4, [r5, #12]
 800869c:	e7cb      	b.n	8008636 <__swbuf_r+0x1a>
 800869e:	4621      	mov	r1, r4
 80086a0:	4628      	mov	r0, r5
 80086a2:	f000 f80d 	bl	80086c0 <__swsetup_r>
 80086a6:	2800      	cmp	r0, #0
 80086a8:	d0cc      	beq.n	8008644 <__swbuf_r+0x28>
 80086aa:	f04f 37ff 	mov.w	r7, #4294967295	; 0xffffffff
 80086ae:	4638      	mov	r0, r7
 80086b0:	bdf8      	pop	{r3, r4, r5, r6, r7, pc}
 80086b2:	bf00      	nop
 80086b4:	080096d0 	.word	0x080096d0
 80086b8:	080096f0 	.word	0x080096f0
 80086bc:	080096b0 	.word	0x080096b0

080086c0 <__swsetup_r>:
 80086c0:	4b32      	ldr	r3, [pc, #200]	; (800878c <__swsetup_r+0xcc>)
 80086c2:	b570      	push	{r4, r5, r6, lr}
 80086c4:	681d      	ldr	r5, [r3, #0]
 80086c6:	4606      	mov	r6, r0
 80086c8:	460c      	mov	r4, r1
 80086ca:	b125      	cbz	r5, 80086d6 <__swsetup_r+0x16>
 80086cc:	69ab      	ldr	r3, [r5, #24]
 80086ce:	b913      	cbnz	r3, 80086d6 <__swsetup_r+0x16>
 80086d0:	4628      	mov	r0, r5
 80086d2:	f000 f953 	bl	800897c <__sinit>
 80086d6:	4b2e      	ldr	r3, [pc, #184]	; (8008790 <__swsetup_r+0xd0>)
 80086d8:	429c      	cmp	r4, r3
 80086da:	d10f      	bne.n	80086fc <__swsetup_r+0x3c>
 80086dc:	686c      	ldr	r4, [r5, #4]
 80086de:	f9b4 300c 	ldrsh.w	r3, [r4, #12]
 80086e2:	b29a      	uxth	r2, r3
 80086e4:	0715      	lsls	r5, r2, #28
 80086e6:	d42c      	bmi.n	8008742 <__swsetup_r+0x82>
 80086e8:	06d0      	lsls	r0, r2, #27
 80086ea:	d411      	bmi.n	8008710 <__swsetup_r+0x50>
 80086ec:	2209      	movs	r2, #9
 80086ee:	6032      	str	r2, [r6, #0]
 80086f0:	f043 0340 	orr.w	r3, r3, #64	; 0x40
 80086f4:	81a3      	strh	r3, [r4, #12]
 80086f6:	f04f 30ff 	mov.w	r0, #4294967295	; 0xffffffff
 80086fa:	e03e      	b.n	800877a <__swsetup_r+0xba>
 80086fc:	4b25      	ldr	r3, [pc, #148]	; (8008794 <__swsetup_r+0xd4>)
 80086fe:	429c      	cmp	r4, r3
 8008700:	d101      	bne.n	8008706 <__swsetup_r+0x46>
 8008702:	68ac      	ldr	r4, [r5, #8]
 8008704:	e7eb      	b.n	80086de <__swsetup_r+0x1e>
 8008706:	4b24      	ldr	r3, [pc, #144]	; (8008798 <__swsetup_r+0xd8>)
 8008708:	429c      	cmp	r4, r3
 800870a:	bf08      	it	eq
 800870c:	68ec      	ldreq	r4, [r5, #12]
 800870e:	e7e6      	b.n	80086de <__swsetup_r+0x1e>
 8008710:	0751      	lsls	r1, r2, #29
 8008712:	d512      	bpl.n	800873a <__swsetup_r+0x7a>
 8008714:	6b61      	ldr	r1, [r4, #52]	; 0x34
 8008716:	b141      	cbz	r1, 800872a <__swsetup_r+0x6a>
 8008718:	f104 0344 	add.w	r3, r4, #68	; 0x44
 800871c:	4299      	cmp	r1, r3
 800871e:	d002      	beq.n	8008726 <__swsetup_r+0x66>
 8008720:	4630      	mov	r0, r6
 8008722:	f000 fa19 	bl	8008b58 <_free_r>
 8008726:	2300      	movs	r3, #0
 8008728:	6363      	str	r3, [r4, #52]	; 0x34
 800872a:	89a3      	ldrh	r3, [r4, #12]
 800872c:	f023 0324 	bic.w	r3, r3, #36	; 0x24
 8008730:	81a3      	strh	r3, [r4, #12]
 8008732:	2300      	movs	r3, #0
 8008734:	6063      	str	r3, [r4, #4]
 8008736:	6923      	ldr	r3, [r4, #16]
 8008738:	6023      	str	r3, [r4, #0]
 800873a:	89a3      	ldrh	r3, [r4, #12]
 800873c:	f043 0308 	orr.w	r3, r3, #8
 8008740:	81a3      	strh	r3, [r4, #12]
 8008742:	6923      	ldr	r3, [r4, #16]
 8008744:	b94b      	cbnz	r3, 800875a <__swsetup_r+0x9a>
 8008746:	89a3      	ldrh	r3, [r4, #12]
 8008748:	f403 7320 	and.w	r3, r3, #640	; 0x280
 800874c:	f5b3 7f00 	cmp.w	r3, #512	; 0x200
 8008750:	d003      	beq.n	800875a <__swsetup_r+0x9a>
 8008752:	4621      	mov	r1, r4
 8008754:	4630      	mov	r0, r6
 8008756:	f000 f9bf 	bl	8008ad8 <__smakebuf_r>
 800875a:	89a2      	ldrh	r2, [r4, #12]
 800875c:	f012 0301 	ands.w	r3, r2, #1
 8008760:	d00c      	beq.n	800877c <__swsetup_r+0xbc>
 8008762:	2300      	movs	r3, #0
 8008764:	60a3      	str	r3, [r4, #8]
 8008766:	6963      	ldr	r3, [r4, #20]
 8008768:	425b      	negs	r3, r3
 800876a:	61a3      	str	r3, [r4, #24]
 800876c:	6923      	ldr	r3, [r4, #16]
 800876e:	b953      	cbnz	r3, 8008786 <__swsetup_r+0xc6>
 8008770:	f9b4 300c 	ldrsh.w	r3, [r4, #12]
 8008774:	f013 0080 	ands.w	r0, r3, #128	; 0x80
 8008778:	d1ba      	bne.n	80086f0 <__swsetup_r+0x30>
 800877a:	bd70      	pop	{r4, r5, r6, pc}
 800877c:	0792      	lsls	r2, r2, #30
 800877e:	bf58      	it	pl
 8008780:	6963      	ldrpl	r3, [r4, #20]
 8008782:	60a3      	str	r3, [r4, #8]
 8008784:	e7f2      	b.n	800876c <__swsetup_r+0xac>
 8008786:	2000      	movs	r0, #0
 8008788:	e7f7      	b.n	800877a <__swsetup_r+0xba>
 800878a:	bf00      	nop
 800878c:	200003dc 	.word	0x200003dc
 8008790:	080096d0 	.word	0x080096d0
 8008794:	080096f0 	.word	0x080096f0
 8008798:	080096b0 	.word	0x080096b0

0800879c <__sflush_r>:
 800879c:	898a      	ldrh	r2, [r1, #12]
 800879e:	e92d 41f0 	stmdb	sp!, {r4, r5, r6, r7, r8, lr}
 80087a2:	4605      	mov	r5, r0
 80087a4:	0710      	lsls	r0, r2, #28
 80087a6:	460c      	mov	r4, r1
 80087a8:	d458      	bmi.n	800885c <__sflush_r+0xc0>
 80087aa:	684b      	ldr	r3, [r1, #4]
 80087ac:	2b00      	cmp	r3, #0
 80087ae:	dc05      	bgt.n	80087bc <__sflush_r+0x20>
 80087b0:	6c0b      	ldr	r3, [r1, #64]	; 0x40
 80087b2:	2b00      	cmp	r3, #0
 80087b4:	dc02      	bgt.n	80087bc <__sflush_r+0x20>
 80087b6:	2000      	movs	r0, #0
 80087b8:	e8bd 81f0 	ldmia.w	sp!, {r4, r5, r6, r7, r8, pc}
 80087bc:	6ae6      	ldr	r6, [r4, #44]	; 0x2c
 80087be:	2e00      	cmp	r6, #0
 80087c0:	d0f9      	beq.n	80087b6 <__sflush_r+0x1a>
 80087c2:	2300      	movs	r3, #0
 80087c4:	f412 5280 	ands.w	r2, r2, #4096	; 0x1000
 80087c8:	682f      	ldr	r7, [r5, #0]
 80087ca:	6a21      	ldr	r1, [r4, #32]
 80087cc:	602b      	str	r3, [r5, #0]
 80087ce:	d032      	beq.n	8008836 <__sflush_r+0x9a>
 80087d0:	6d60      	ldr	r0, [r4, #84]	; 0x54
 80087d2:	89a3      	ldrh	r3, [r4, #12]
 80087d4:	075a      	lsls	r2, r3, #29
 80087d6:	d505      	bpl.n	80087e4 <__sflush_r+0x48>
 80087d8:	6863      	ldr	r3, [r4, #4]
 80087da:	1ac0      	subs	r0, r0, r3
 80087dc:	6b63      	ldr	r3, [r4, #52]	; 0x34
 80087de:	b10b      	cbz	r3, 80087e4 <__sflush_r+0x48>
 80087e0:	6c23      	ldr	r3, [r4, #64]	; 0x40
 80087e2:	1ac0      	subs	r0, r0, r3
 80087e4:	2300      	movs	r3, #0
 80087e6:	4602      	mov	r2, r0
 80087e8:	6ae6      	ldr	r6, [r4, #44]	; 0x2c
 80087ea:	6a21      	ldr	r1, [r4, #32]
 80087ec:	4628      	mov	r0, r5
 80087ee:	47b0      	blx	r6
 80087f0:	1c43      	adds	r3, r0, #1
 80087f2:	89a3      	ldrh	r3, [r4, #12]
 80087f4:	d106      	bne.n	8008804 <__sflush_r+0x68>
 80087f6:	6829      	ldr	r1, [r5, #0]
 80087f8:	291d      	cmp	r1, #29
 80087fa:	d848      	bhi.n	800888e <__sflush_r+0xf2>
 80087fc:	4a29      	ldr	r2, [pc, #164]	; (80088a4 <__sflush_r+0x108>)
 80087fe:	40ca      	lsrs	r2, r1
 8008800:	07d6      	lsls	r6, r2, #31
 8008802:	d544      	bpl.n	800888e <__sflush_r+0xf2>
 8008804:	2200      	movs	r2, #0
 8008806:	6062      	str	r2, [r4, #4]
 8008808:	04d9      	lsls	r1, r3, #19
 800880a:	6922      	ldr	r2, [r4, #16]
 800880c:	6022      	str	r2, [r4, #0]
 800880e:	d504      	bpl.n	800881a <__sflush_r+0x7e>
 8008810:	1c42      	adds	r2, r0, #1
 8008812:	d101      	bne.n	8008818 <__sflush_r+0x7c>
 8008814:	682b      	ldr	r3, [r5, #0]
 8008816:	b903      	cbnz	r3, 800881a <__sflush_r+0x7e>
 8008818:	6560      	str	r0, [r4, #84]	; 0x54
 800881a:	6b61      	ldr	r1, [r4, #52]	; 0x34
 800881c:	602f      	str	r7, [r5, #0]
 800881e:	2900      	cmp	r1, #0
 8008820:	d0c9      	beq.n	80087b6 <__sflush_r+0x1a>
 8008822:	f104 0344 	add.w	r3, r4, #68	; 0x44
 8008826:	4299      	cmp	r1, r3
 8008828:	d002      	beq.n	8008830 <__sflush_r+0x94>
 800882a:	4628      	mov	r0, r5
 800882c:	f000 f994 	bl	8008b58 <_free_r>
 8008830:	2000      	movs	r0, #0
 8008832:	6360      	str	r0, [r4, #52]	; 0x34
 8008834:	e7c0      	b.n	80087b8 <__sflush_r+0x1c>
 8008836:	2301      	movs	r3, #1
 8008838:	4628      	mov	r0, r5
 800883a:	47b0      	blx	r6
 800883c:	1c41      	adds	r1, r0, #1
 800883e:	d1c8      	bne.n	80087d2 <__sflush_r+0x36>
 8008840:	682b      	ldr	r3, [r5, #0]
 8008842:	2b00      	cmp	r3, #0
 8008844:	d0c5      	beq.n	80087d2 <__sflush_r+0x36>
 8008846:	2b1d      	cmp	r3, #29
 8008848:	d001      	beq.n	800884e <__sflush_r+0xb2>
 800884a:	2b16      	cmp	r3, #22
 800884c:	d101      	bne.n	8008852 <__sflush_r+0xb6>
 800884e:	602f      	str	r7, [r5, #0]
 8008850:	e7b1      	b.n	80087b6 <__sflush_r+0x1a>
 8008852:	89a3      	ldrh	r3, [r4, #12]
 8008854:	f043 0340 	orr.w	r3, r3, #64	; 0x40
 8008858:	81a3      	strh	r3, [r4, #12]
 800885a:	e7ad      	b.n	80087b8 <__sflush_r+0x1c>
 800885c:	690f      	ldr	r7, [r1, #16]
 800885e:	2f00      	cmp	r7, #0
 8008860:	d0a9      	beq.n	80087b6 <__sflush_r+0x1a>
 8008862:	0793      	lsls	r3, r2, #30
 8008864:	680e      	ldr	r6, [r1, #0]
 8008866:	bf08      	it	eq
 8008868:	694b      	ldreq	r3, [r1, #20]
 800886a:	600f      	str	r7, [r1, #0]
 800886c:	bf18      	it	ne
 800886e:	2300      	movne	r3, #0
 8008870:	eba6 0807 	sub.w	r8, r6, r7
 8008874:	608b      	str	r3, [r1, #8]
 8008876:	f1b8 0f00 	cmp.w	r8, #0
 800887a:	dd9c      	ble.n	80087b6 <__sflush_r+0x1a>
 800887c:	4643      	mov	r3, r8
 800887e:	463a      	mov	r2, r7
 8008880:	6a21      	ldr	r1, [r4, #32]
 8008882:	6aa6      	ldr	r6, [r4, #40]	; 0x28
 8008884:	4628      	mov	r0, r5
 8008886:	47b0      	blx	r6
 8008888:	2800      	cmp	r0, #0
 800888a:	dc06      	bgt.n	800889a <__sflush_r+0xfe>
 800888c:	89a3      	ldrh	r3, [r4, #12]
 800888e:	f043 0340 	orr.w	r3, r3, #64	; 0x40
 8008892:	81a3      	strh	r3, [r4, #12]
 8008894:	f04f 30ff 	mov.w	r0, #4294967295	; 0xffffffff
 8008898:	e78e      	b.n	80087b8 <__sflush_r+0x1c>
 800889a:	4407      	add	r7, r0
 800889c:	eba8 0800 	sub.w	r8, r8, r0
 80088a0:	e7e9      	b.n	8008876 <__sflush_r+0xda>
 80088a2:	bf00      	nop
 80088a4:	20400001 	.word	0x20400001

080088a8 <_fflush_r>:
 80088a8:	b538      	push	{r3, r4, r5, lr}
 80088aa:	690b      	ldr	r3, [r1, #16]
 80088ac:	4605      	mov	r5, r0
 80088ae:	460c      	mov	r4, r1
 80088b0:	b1db      	cbz	r3, 80088ea <_fflush_r+0x42>
 80088b2:	b118      	cbz	r0, 80088bc <_fflush_r+0x14>
 80088b4:	6983      	ldr	r3, [r0, #24]
 80088b6:	b90b      	cbnz	r3, 80088bc <_fflush_r+0x14>
 80088b8:	f000 f860 	bl	800897c <__sinit>
 80088bc:	4b0c      	ldr	r3, [pc, #48]	; (80088f0 <_fflush_r+0x48>)
 80088be:	429c      	cmp	r4, r3
 80088c0:	d109      	bne.n	80088d6 <_fflush_r+0x2e>
 80088c2:	686c      	ldr	r4, [r5, #4]
 80088c4:	f9b4 300c 	ldrsh.w	r3, [r4, #12]
 80088c8:	b17b      	cbz	r3, 80088ea <_fflush_r+0x42>
 80088ca:	4621      	mov	r1, r4
 80088cc:	4628      	mov	r0, r5
 80088ce:	e8bd 4038 	ldmia.w	sp!, {r3, r4, r5, lr}
 80088d2:	f7ff bf63 	b.w	800879c <__sflush_r>
 80088d6:	4b07      	ldr	r3, [pc, #28]	; (80088f4 <_fflush_r+0x4c>)
 80088d8:	429c      	cmp	r4, r3
 80088da:	d101      	bne.n	80088e0 <_fflush_r+0x38>
 80088dc:	68ac      	ldr	r4, [r5, #8]
 80088de:	e7f1      	b.n	80088c4 <_fflush_r+0x1c>
 80088e0:	4b05      	ldr	r3, [pc, #20]	; (80088f8 <_fflush_r+0x50>)
 80088e2:	429c      	cmp	r4, r3
 80088e4:	bf08      	it	eq
 80088e6:	68ec      	ldreq	r4, [r5, #12]
 80088e8:	e7ec      	b.n	80088c4 <_fflush_r+0x1c>
 80088ea:	2000      	movs	r0, #0
 80088ec:	bd38      	pop	{r3, r4, r5, pc}
 80088ee:	bf00      	nop
 80088f0:	080096d0 	.word	0x080096d0
 80088f4:	080096f0 	.word	0x080096f0
 80088f8:	080096b0 	.word	0x080096b0

080088fc <std>:
 80088fc:	2300      	movs	r3, #0
 80088fe:	b510      	push	{r4, lr}
 8008900:	4604      	mov	r4, r0
 8008902:	e9c0 3300 	strd	r3, r3, [r0]
 8008906:	6083      	str	r3, [r0, #8]
 8008908:	8181      	strh	r1, [r0, #12]
 800890a:	6643      	str	r3, [r0, #100]	; 0x64
 800890c:	81c2      	strh	r2, [r0, #14]
 800890e:	e9c0 3304 	strd	r3, r3, [r0, #16]
 8008912:	6183      	str	r3, [r0, #24]
 8008914:	4619      	mov	r1, r3
 8008916:	2208      	movs	r2, #8
 8008918:	305c      	adds	r0, #92	; 0x5c
 800891a:	f7ff fdfb 	bl	8008514 <memset>
 800891e:	4b05      	ldr	r3, [pc, #20]	; (8008934 <std+0x38>)
 8008920:	6263      	str	r3, [r4, #36]	; 0x24
 8008922:	4b05      	ldr	r3, [pc, #20]	; (8008938 <std+0x3c>)
 8008924:	62a3      	str	r3, [r4, #40]	; 0x28
 8008926:	4b05      	ldr	r3, [pc, #20]	; (800893c <std+0x40>)
 8008928:	62e3      	str	r3, [r4, #44]	; 0x2c
 800892a:	4b05      	ldr	r3, [pc, #20]	; (8008940 <std+0x44>)
 800892c:	6224      	str	r4, [r4, #32]
 800892e:	6323      	str	r3, [r4, #48]	; 0x30
 8008930:	bd10      	pop	{r4, pc}
 8008932:	bf00      	nop
 8008934:	08009259 	.word	0x08009259
 8008938:	0800927b 	.word	0x0800927b
 800893c:	080092b3 	.word	0x080092b3
 8008940:	080092d7 	.word	0x080092d7

08008944 <_cleanup_r>:
 8008944:	4901      	ldr	r1, [pc, #4]	; (800894c <_cleanup_r+0x8>)
 8008946:	f000 b885 	b.w	8008a54 <_fwalk_reent>
 800894a:	bf00      	nop
 800894c:	080088a9 	.word	0x080088a9

08008950 <__sfmoreglue>:
 8008950:	b570      	push	{r4, r5, r6, lr}
 8008952:	1e4a      	subs	r2, r1, #1
 8008954:	2568      	movs	r5, #104	; 0x68
 8008956:	4355      	muls	r5, r2
 8008958:	460e      	mov	r6, r1
 800895a:	f105 0174 	add.w	r1, r5, #116	; 0x74
 800895e:	f000 f949 	bl	8008bf4 <_malloc_r>
 8008962:	4604      	mov	r4, r0
 8008964:	b140      	cbz	r0, 8008978 <__sfmoreglue+0x28>
 8008966:	2100      	movs	r1, #0
 8008968:	e9c0 1600 	strd	r1, r6, [r0]
 800896c:	300c      	adds	r0, #12
 800896e:	60a0      	str	r0, [r4, #8]
 8008970:	f105 0268 	add.w	r2, r5, #104	; 0x68
 8008974:	f7ff fdce 	bl	8008514 <memset>
 8008978:	4620      	mov	r0, r4
 800897a:	bd70      	pop	{r4, r5, r6, pc}

0800897c <__sinit>:
 800897c:	6983      	ldr	r3, [r0, #24]
 800897e:	b510      	push	{r4, lr}
 8008980:	4604      	mov	r4, r0
 8008982:	bb33      	cbnz	r3, 80089d2 <__sinit+0x56>
 8008984:	e9c0 3312 	strd	r3, r3, [r0, #72]	; 0x48
 8008988:	6503      	str	r3, [r0, #80]	; 0x50
 800898a:	4b12      	ldr	r3, [pc, #72]	; (80089d4 <__sinit+0x58>)
 800898c:	4a12      	ldr	r2, [pc, #72]	; (80089d8 <__sinit+0x5c>)
 800898e:	681b      	ldr	r3, [r3, #0]
 8008990:	6282      	str	r2, [r0, #40]	; 0x28
 8008992:	4298      	cmp	r0, r3
 8008994:	bf04      	itt	eq
 8008996:	2301      	moveq	r3, #1
 8008998:	6183      	streq	r3, [r0, #24]
 800899a:	f000 f81f 	bl	80089dc <__sfp>
 800899e:	6060      	str	r0, [r4, #4]
 80089a0:	4620      	mov	r0, r4
 80089a2:	f000 f81b 	bl	80089dc <__sfp>
 80089a6:	60a0      	str	r0, [r4, #8]
 80089a8:	4620      	mov	r0, r4
 80089aa:	f000 f817 	bl	80089dc <__sfp>
 80089ae:	2200      	movs	r2, #0
 80089b0:	60e0      	str	r0, [r4, #12]
 80089b2:	2104      	movs	r1, #4
 80089b4:	6860      	ldr	r0, [r4, #4]
 80089b6:	f7ff ffa1 	bl	80088fc <std>
 80089ba:	2201      	movs	r2, #1
 80089bc:	2109      	movs	r1, #9
 80089be:	68a0      	ldr	r0, [r4, #8]
 80089c0:	f7ff ff9c 	bl	80088fc <std>
 80089c4:	2202      	movs	r2, #2
 80089c6:	2112      	movs	r1, #18
 80089c8:	68e0      	ldr	r0, [r4, #12]
 80089ca:	f7ff ff97 	bl	80088fc <std>
 80089ce:	2301      	movs	r3, #1
 80089d0:	61a3      	str	r3, [r4, #24]
 80089d2:	bd10      	pop	{r4, pc}
 80089d4:	080096ac 	.word	0x080096ac
 80089d8:	08008945 	.word	0x08008945

080089dc <__sfp>:
 80089dc:	b5f8      	push	{r3, r4, r5, r6, r7, lr}
 80089de:	4b1b      	ldr	r3, [pc, #108]	; (8008a4c <__sfp+0x70>)
 80089e0:	681e      	ldr	r6, [r3, #0]
 80089e2:	69b3      	ldr	r3, [r6, #24]
 80089e4:	4607      	mov	r7, r0
 80089e6:	b913      	cbnz	r3, 80089ee <__sfp+0x12>
 80089e8:	4630      	mov	r0, r6
 80089ea:	f7ff ffc7 	bl	800897c <__sinit>
 80089ee:	3648      	adds	r6, #72	; 0x48
 80089f0:	e9d6 3401 	ldrd	r3, r4, [r6, #4]
 80089f4:	3b01      	subs	r3, #1
 80089f6:	d503      	bpl.n	8008a00 <__sfp+0x24>
 80089f8:	6833      	ldr	r3, [r6, #0]
 80089fa:	b133      	cbz	r3, 8008a0a <__sfp+0x2e>
 80089fc:	6836      	ldr	r6, [r6, #0]
 80089fe:	e7f7      	b.n	80089f0 <__sfp+0x14>
 8008a00:	f9b4 500c 	ldrsh.w	r5, [r4, #12]
 8008a04:	b16d      	cbz	r5, 8008a22 <__sfp+0x46>
 8008a06:	3468      	adds	r4, #104	; 0x68
 8008a08:	e7f4      	b.n	80089f4 <__sfp+0x18>
 8008a0a:	2104      	movs	r1, #4
 8008a0c:	4638      	mov	r0, r7
 8008a0e:	f7ff ff9f 	bl	8008950 <__sfmoreglue>
 8008a12:	6030      	str	r0, [r6, #0]
 8008a14:	2800      	cmp	r0, #0
 8008a16:	d1f1      	bne.n	80089fc <__sfp+0x20>
 8008a18:	230c      	movs	r3, #12
 8008a1a:	603b      	str	r3, [r7, #0]
 8008a1c:	4604      	mov	r4, r0
 8008a1e:	4620      	mov	r0, r4
 8008a20:	bdf8      	pop	{r3, r4, r5, r6, r7, pc}
 8008a22:	4b0b      	ldr	r3, [pc, #44]	; (8008a50 <__sfp+0x74>)
 8008a24:	6665      	str	r5, [r4, #100]	; 0x64
 8008a26:	e9c4 5500 	strd	r5, r5, [r4]
 8008a2a:	60a5      	str	r5, [r4, #8]
 8008a2c:	e9c4 3503 	strd	r3, r5, [r4, #12]
 8008a30:	e9c4 5505 	strd	r5, r5, [r4, #20]
 8008a34:	2208      	movs	r2, #8
 8008a36:	4629      	mov	r1, r5
 8008a38:	f104 005c 	add.w	r0, r4, #92	; 0x5c
 8008a3c:	f7ff fd6a 	bl	8008514 <memset>
 8008a40:	e9c4 550d 	strd	r5, r5, [r4, #52]	; 0x34
 8008a44:	e9c4 5512 	strd	r5, r5, [r4, #72]	; 0x48
 8008a48:	e7e9      	b.n	8008a1e <__sfp+0x42>
 8008a4a:	bf00      	nop
 8008a4c:	080096ac 	.word	0x080096ac
 8008a50:	ffff0001 	.word	0xffff0001

08008a54 <_fwalk_reent>:
 8008a54:	e92d 43f8 	stmdb	sp!, {r3, r4, r5, r6, r7, r8, r9, lr}
 8008a58:	4680      	mov	r8, r0
 8008a5a:	4689      	mov	r9, r1
 8008a5c:	f100 0448 	add.w	r4, r0, #72	; 0x48
 8008a60:	2600      	movs	r6, #0
 8008a62:	b914      	cbnz	r4, 8008a6a <_fwalk_reent+0x16>
 8008a64:	4630      	mov	r0, r6
 8008a66:	e8bd 83f8 	ldmia.w	sp!, {r3, r4, r5, r6, r7, r8, r9, pc}
 8008a6a:	e9d4 7501 	ldrd	r7, r5, [r4, #4]
 8008a6e:	3f01      	subs	r7, #1
 8008a70:	d501      	bpl.n	8008a76 <_fwalk_reent+0x22>
 8008a72:	6824      	ldr	r4, [r4, #0]
 8008a74:	e7f5      	b.n	8008a62 <_fwalk_reent+0xe>
 8008a76:	89ab      	ldrh	r3, [r5, #12]
 8008a78:	2b01      	cmp	r3, #1
 8008a7a:	d907      	bls.n	8008a8c <_fwalk_reent+0x38>
 8008a7c:	f9b5 300e 	ldrsh.w	r3, [r5, #14]
 8008a80:	3301      	adds	r3, #1
 8008a82:	d003      	beq.n	8008a8c <_fwalk_reent+0x38>
 8008a84:	4629      	mov	r1, r5
 8008a86:	4640      	mov	r0, r8
 8008a88:	47c8      	blx	r9
 8008a8a:	4306      	orrs	r6, r0
 8008a8c:	3568      	adds	r5, #104	; 0x68
 8008a8e:	e7ee      	b.n	8008a6e <_fwalk_reent+0x1a>

08008a90 <__swhatbuf_r>:
 8008a90:	b570      	push	{r4, r5, r6, lr}
 8008a92:	460e      	mov	r6, r1
 8008a94:	f9b1 100e 	ldrsh.w	r1, [r1, #14]
 8008a98:	2900      	cmp	r1, #0
 8008a9a:	b096      	sub	sp, #88	; 0x58
 8008a9c:	4614      	mov	r4, r2
 8008a9e:	461d      	mov	r5, r3
 8008aa0:	da07      	bge.n	8008ab2 <__swhatbuf_r+0x22>
 8008aa2:	2300      	movs	r3, #0
 8008aa4:	602b      	str	r3, [r5, #0]
 8008aa6:	89b3      	ldrh	r3, [r6, #12]
 8008aa8:	061a      	lsls	r2, r3, #24
 8008aaa:	d410      	bmi.n	8008ace <__swhatbuf_r+0x3e>
 8008aac:	f44f 6380 	mov.w	r3, #1024	; 0x400
 8008ab0:	e00e      	b.n	8008ad0 <__swhatbuf_r+0x40>
 8008ab2:	466a      	mov	r2, sp
 8008ab4:	f000 fc36 	bl	8009324 <_fstat_r>
 8008ab8:	2800      	cmp	r0, #0
 8008aba:	dbf2      	blt.n	8008aa2 <__swhatbuf_r+0x12>
 8008abc:	9a01      	ldr	r2, [sp, #4]
 8008abe:	f402 4270 	and.w	r2, r2, #61440	; 0xf000
 8008ac2:	f5a2 5300 	sub.w	r3, r2, #8192	; 0x2000
 8008ac6:	425a      	negs	r2, r3
 8008ac8:	415a      	adcs	r2, r3
 8008aca:	602a      	str	r2, [r5, #0]
 8008acc:	e7ee      	b.n	8008aac <__swhatbuf_r+0x1c>
 8008ace:	2340      	movs	r3, #64	; 0x40
 8008ad0:	2000      	movs	r0, #0
 8008ad2:	6023      	str	r3, [r4, #0]
 8008ad4:	b016      	add	sp, #88	; 0x58
 8008ad6:	bd70      	pop	{r4, r5, r6, pc}

08008ad8 <__smakebuf_r>:
 8008ad8:	898b      	ldrh	r3, [r1, #12]
 8008ada:	b573      	push	{r0, r1, r4, r5, r6, lr}
 8008adc:	079d      	lsls	r5, r3, #30
 8008ade:	4606      	mov	r6, r0
 8008ae0:	460c      	mov	r4, r1
 8008ae2:	d507      	bpl.n	8008af4 <__smakebuf_r+0x1c>
 8008ae4:	f104 0347 	add.w	r3, r4, #71	; 0x47
 8008ae8:	6023      	str	r3, [r4, #0]
 8008aea:	6123      	str	r3, [r4, #16]
 8008aec:	2301      	movs	r3, #1
 8008aee:	6163      	str	r3, [r4, #20]
 8008af0:	b002      	add	sp, #8
 8008af2:	bd70      	pop	{r4, r5, r6, pc}
 8008af4:	ab01      	add	r3, sp, #4
 8008af6:	466a      	mov	r2, sp
 8008af8:	f7ff ffca 	bl	8008a90 <__swhatbuf_r>
 8008afc:	9900      	ldr	r1, [sp, #0]
 8008afe:	4605      	mov	r5, r0
 8008b00:	4630      	mov	r0, r6
 8008b02:	f000 f877 	bl	8008bf4 <_malloc_r>
 8008b06:	b948      	cbnz	r0, 8008b1c <__smakebuf_r+0x44>
 8008b08:	f9b4 300c 	ldrsh.w	r3, [r4, #12]
 8008b0c:	059a      	lsls	r2, r3, #22
 8008b0e:	d4ef      	bmi.n	8008af0 <__smakebuf_r+0x18>
 8008b10:	f023 0303 	bic.w	r3, r3, #3
 8008b14:	f043 0302 	orr.w	r3, r3, #2
 8008b18:	81a3      	strh	r3, [r4, #12]
 8008b1a:	e7e3      	b.n	8008ae4 <__smakebuf_r+0xc>
 8008b1c:	4b0d      	ldr	r3, [pc, #52]	; (8008b54 <__smakebuf_r+0x7c>)
 8008b1e:	62b3      	str	r3, [r6, #40]	; 0x28
 8008b20:	89a3      	ldrh	r3, [r4, #12]
 8008b22:	6020      	str	r0, [r4, #0]
 8008b24:	f043 0380 	orr.w	r3, r3, #128	; 0x80
 8008b28:	81a3      	strh	r3, [r4, #12]
 8008b2a:	9b00      	ldr	r3, [sp, #0]
 8008b2c:	6163      	str	r3, [r4, #20]
 8008b2e:	9b01      	ldr	r3, [sp, #4]
 8008b30:	6120      	str	r0, [r4, #16]
 8008b32:	b15b      	cbz	r3, 8008b4c <__smakebuf_r+0x74>
 8008b34:	f9b4 100e 	ldrsh.w	r1, [r4, #14]
 8008b38:	4630      	mov	r0, r6
 8008b3a:	f000 fc05 	bl	8009348 <_isatty_r>
 8008b3e:	b128      	cbz	r0, 8008b4c <__smakebuf_r+0x74>
 8008b40:	89a3      	ldrh	r3, [r4, #12]
 8008b42:	f023 0303 	bic.w	r3, r3, #3
 8008b46:	f043 0301 	orr.w	r3, r3, #1
 8008b4a:	81a3      	strh	r3, [r4, #12]
 8008b4c:	89a3      	ldrh	r3, [r4, #12]
 8008b4e:	431d      	orrs	r5, r3
 8008b50:	81a5      	strh	r5, [r4, #12]
 8008b52:	e7cd      	b.n	8008af0 <__smakebuf_r+0x18>
 8008b54:	08008945 	.word	0x08008945

08008b58 <_free_r>:
 8008b58:	b538      	push	{r3, r4, r5, lr}
 8008b5a:	4605      	mov	r5, r0
 8008b5c:	2900      	cmp	r1, #0
 8008b5e:	d045      	beq.n	8008bec <_free_r+0x94>
 8008b60:	f851 3c04 	ldr.w	r3, [r1, #-4]
 8008b64:	1f0c      	subs	r4, r1, #4
 8008b66:	2b00      	cmp	r3, #0
 8008b68:	bfb8      	it	lt
 8008b6a:	18e4      	addlt	r4, r4, r3
 8008b6c:	f000 fc0e 	bl	800938c <__malloc_lock>
 8008b70:	4a1f      	ldr	r2, [pc, #124]	; (8008bf0 <_free_r+0x98>)
 8008b72:	6813      	ldr	r3, [r2, #0]
 8008b74:	4610      	mov	r0, r2
 8008b76:	b933      	cbnz	r3, 8008b86 <_free_r+0x2e>
 8008b78:	6063      	str	r3, [r4, #4]
 8008b7a:	6014      	str	r4, [r2, #0]
 8008b7c:	4628      	mov	r0, r5
 8008b7e:	e8bd 4038 	ldmia.w	sp!, {r3, r4, r5, lr}
 8008b82:	f000 bc04 	b.w	800938e <__malloc_unlock>
 8008b86:	42a3      	cmp	r3, r4
 8008b88:	d90c      	bls.n	8008ba4 <_free_r+0x4c>
 8008b8a:	6821      	ldr	r1, [r4, #0]
 8008b8c:	1862      	adds	r2, r4, r1
 8008b8e:	4293      	cmp	r3, r2
 8008b90:	bf04      	itt	eq
 8008b92:	681a      	ldreq	r2, [r3, #0]
 8008b94:	685b      	ldreq	r3, [r3, #4]
 8008b96:	6063      	str	r3, [r4, #4]
 8008b98:	bf04      	itt	eq
 8008b9a:	1852      	addeq	r2, r2, r1
 8008b9c:	6022      	streq	r2, [r4, #0]
 8008b9e:	6004      	str	r4, [r0, #0]
 8008ba0:	e7ec      	b.n	8008b7c <_free_r+0x24>
 8008ba2:	4613      	mov	r3, r2
 8008ba4:	685a      	ldr	r2, [r3, #4]
 8008ba6:	b10a      	cbz	r2, 8008bac <_free_r+0x54>
 8008ba8:	42a2      	cmp	r2, r4
 8008baa:	d9fa      	bls.n	8008ba2 <_free_r+0x4a>
 8008bac:	6819      	ldr	r1, [r3, #0]
 8008bae:	1858      	adds	r0, r3, r1
 8008bb0:	42a0      	cmp	r0, r4
 8008bb2:	d10b      	bne.n	8008bcc <_free_r+0x74>
 8008bb4:	6820      	ldr	r0, [r4, #0]
 8008bb6:	4401      	add	r1, r0
 8008bb8:	1858      	adds	r0, r3, r1
 8008bba:	4282      	cmp	r2, r0
 8008bbc:	6019      	str	r1, [r3, #0]
 8008bbe:	d1dd      	bne.n	8008b7c <_free_r+0x24>
 8008bc0:	6810      	ldr	r0, [r2, #0]
 8008bc2:	6852      	ldr	r2, [r2, #4]
 8008bc4:	605a      	str	r2, [r3, #4]
 8008bc6:	4401      	add	r1, r0
 8008bc8:	6019      	str	r1, [r3, #0]
 8008bca:	e7d7      	b.n	8008b7c <_free_r+0x24>
 8008bcc:	d902      	bls.n	8008bd4 <_free_r+0x7c>
 8008bce:	230c      	movs	r3, #12
 8008bd0:	602b      	str	r3, [r5, #0]
 8008bd2:	e7d3      	b.n	8008b7c <_free_r+0x24>
 8008bd4:	6820      	ldr	r0, [r4, #0]
 8008bd6:	1821      	adds	r1, r4, r0
 8008bd8:	428a      	cmp	r2, r1
 8008bda:	bf04      	itt	eq
 8008bdc:	6811      	ldreq	r1, [r2, #0]
 8008bde:	6852      	ldreq	r2, [r2, #4]
 8008be0:	6062      	str	r2, [r4, #4]
 8008be2:	bf04      	itt	eq
 8008be4:	1809      	addeq	r1, r1, r0
 8008be6:	6021      	streq	r1, [r4, #0]
 8008be8:	605c      	str	r4, [r3, #4]
 8008bea:	e7c7      	b.n	8008b7c <_free_r+0x24>
 8008bec:	bd38      	pop	{r3, r4, r5, pc}
 8008bee:	bf00      	nop
 8008bf0:	2000046c 	.word	0x2000046c

08008bf4 <_malloc_r>:
 8008bf4:	b570      	push	{r4, r5, r6, lr}
 8008bf6:	1ccd      	adds	r5, r1, #3
 8008bf8:	f025 0503 	bic.w	r5, r5, #3
 8008bfc:	3508      	adds	r5, #8
 8008bfe:	2d0c      	cmp	r5, #12
 8008c00:	bf38      	it	cc
 8008c02:	250c      	movcc	r5, #12
 8008c04:	2d00      	cmp	r5, #0
 8008c06:	4606      	mov	r6, r0
 8008c08:	db01      	blt.n	8008c0e <_malloc_r+0x1a>
 8008c0a:	42a9      	cmp	r1, r5
 8008c0c:	d903      	bls.n	8008c16 <_malloc_r+0x22>
 8008c0e:	230c      	movs	r3, #12
 8008c10:	6033      	str	r3, [r6, #0]
 8008c12:	2000      	movs	r0, #0
 8008c14:	bd70      	pop	{r4, r5, r6, pc}
 8008c16:	f000 fbb9 	bl	800938c <__malloc_lock>
 8008c1a:	4a21      	ldr	r2, [pc, #132]	; (8008ca0 <_malloc_r+0xac>)
 8008c1c:	6814      	ldr	r4, [r2, #0]
 8008c1e:	4621      	mov	r1, r4
 8008c20:	b991      	cbnz	r1, 8008c48 <_malloc_r+0x54>
 8008c22:	4c20      	ldr	r4, [pc, #128]	; (8008ca4 <_malloc_r+0xb0>)
 8008c24:	6823      	ldr	r3, [r4, #0]
 8008c26:	b91b      	cbnz	r3, 8008c30 <_malloc_r+0x3c>
 8008c28:	4630      	mov	r0, r6
 8008c2a:	f000 fb05 	bl	8009238 <_sbrk_r>
 8008c2e:	6020      	str	r0, [r4, #0]
 8008c30:	4629      	mov	r1, r5
 8008c32:	4630      	mov	r0, r6
 8008c34:	f000 fb00 	bl	8009238 <_sbrk_r>
 8008c38:	1c43      	adds	r3, r0, #1
 8008c3a:	d124      	bne.n	8008c86 <_malloc_r+0x92>
 8008c3c:	230c      	movs	r3, #12
 8008c3e:	6033      	str	r3, [r6, #0]
 8008c40:	4630      	mov	r0, r6
 8008c42:	f000 fba4 	bl	800938e <__malloc_unlock>
 8008c46:	e7e4      	b.n	8008c12 <_malloc_r+0x1e>
 8008c48:	680b      	ldr	r3, [r1, #0]
 8008c4a:	1b5b      	subs	r3, r3, r5
 8008c4c:	d418      	bmi.n	8008c80 <_malloc_r+0x8c>
 8008c4e:	2b0b      	cmp	r3, #11
 8008c50:	d90f      	bls.n	8008c72 <_malloc_r+0x7e>
 8008c52:	600b      	str	r3, [r1, #0]
 8008c54:	50cd      	str	r5, [r1, r3]
 8008c56:	18cc      	adds	r4, r1, r3
 8008c58:	4630      	mov	r0, r6
 8008c5a:	f000 fb98 	bl	800938e <__malloc_unlock>
 8008c5e:	f104 000b 	add.w	r0, r4, #11
 8008c62:	1d23      	adds	r3, r4, #4
 8008c64:	f020 0007 	bic.w	r0, r0, #7
 8008c68:	1ac3      	subs	r3, r0, r3
 8008c6a:	d0d3      	beq.n	8008c14 <_malloc_r+0x20>
 8008c6c:	425a      	negs	r2, r3
 8008c6e:	50e2      	str	r2, [r4, r3]
 8008c70:	e7d0      	b.n	8008c14 <_malloc_r+0x20>
 8008c72:	428c      	cmp	r4, r1
 8008c74:	684b      	ldr	r3, [r1, #4]
 8008c76:	bf16      	itet	ne
 8008c78:	6063      	strne	r3, [r4, #4]
 8008c7a:	6013      	streq	r3, [r2, #0]
 8008c7c:	460c      	movne	r4, r1
 8008c7e:	e7eb      	b.n	8008c58 <_malloc_r+0x64>
 8008c80:	460c      	mov	r4, r1
 8008c82:	6849      	ldr	r1, [r1, #4]
 8008c84:	e7cc      	b.n	8008c20 <_malloc_r+0x2c>
 8008c86:	1cc4      	adds	r4, r0, #3
 8008c88:	f024 0403 	bic.w	r4, r4, #3
 8008c8c:	42a0      	cmp	r0, r4
 8008c8e:	d005      	beq.n	8008c9c <_malloc_r+0xa8>
 8008c90:	1a21      	subs	r1, r4, r0
 8008c92:	4630      	mov	r0, r6
 8008c94:	f000 fad0 	bl	8009238 <_sbrk_r>
 8008c98:	3001      	adds	r0, #1
 8008c9a:	d0cf      	beq.n	8008c3c <_malloc_r+0x48>
 8008c9c:	6025      	str	r5, [r4, #0]
 8008c9e:	e7db      	b.n	8008c58 <_malloc_r+0x64>
 8008ca0:	2000046c 	.word	0x2000046c
 8008ca4:	20000470 	.word	0x20000470

08008ca8 <__sfputc_r>:
 8008ca8:	6893      	ldr	r3, [r2, #8]
 8008caa:	3b01      	subs	r3, #1
 8008cac:	2b00      	cmp	r3, #0
 8008cae:	b410      	push	{r4}
 8008cb0:	6093      	str	r3, [r2, #8]
 8008cb2:	da08      	bge.n	8008cc6 <__sfputc_r+0x1e>
 8008cb4:	6994      	ldr	r4, [r2, #24]
 8008cb6:	42a3      	cmp	r3, r4
 8008cb8:	db01      	blt.n	8008cbe <__sfputc_r+0x16>
 8008cba:	290a      	cmp	r1, #10
 8008cbc:	d103      	bne.n	8008cc6 <__sfputc_r+0x1e>
 8008cbe:	f85d 4b04 	ldr.w	r4, [sp], #4
 8008cc2:	f7ff bcab 	b.w	800861c <__swbuf_r>
 8008cc6:	6813      	ldr	r3, [r2, #0]
 8008cc8:	1c58      	adds	r0, r3, #1
 8008cca:	6010      	str	r0, [r2, #0]
 8008ccc:	7019      	strb	r1, [r3, #0]
 8008cce:	4608      	mov	r0, r1
 8008cd0:	f85d 4b04 	ldr.w	r4, [sp], #4
 8008cd4:	4770      	bx	lr

08008cd6 <__sfputs_r>:
 8008cd6:	b5f8      	push	{r3, r4, r5, r6, r7, lr}
 8008cd8:	4606      	mov	r6, r0
 8008cda:	460f      	mov	r7, r1
 8008cdc:	4614      	mov	r4, r2
 8008cde:	18d5      	adds	r5, r2, r3
 8008ce0:	42ac      	cmp	r4, r5
 8008ce2:	d101      	bne.n	8008ce8 <__sfputs_r+0x12>
 8008ce4:	2000      	movs	r0, #0
 8008ce6:	e007      	b.n	8008cf8 <__sfputs_r+0x22>
 8008ce8:	463a      	mov	r2, r7
 8008cea:	f814 1b01 	ldrb.w	r1, [r4], #1
 8008cee:	4630      	mov	r0, r6
 8008cf0:	f7ff ffda 	bl	8008ca8 <__sfputc_r>
 8008cf4:	1c43      	adds	r3, r0, #1
 8008cf6:	d1f3      	bne.n	8008ce0 <__sfputs_r+0xa>
 8008cf8:	bdf8      	pop	{r3, r4, r5, r6, r7, pc}
	...

08008cfc <_vfiprintf_r>:
 8008cfc:	e92d 4ff0 	stmdb	sp!, {r4, r5, r6, r7, r8, r9, sl, fp, lr}
 8008d00:	460c      	mov	r4, r1
 8008d02:	b09d      	sub	sp, #116	; 0x74
 8008d04:	4617      	mov	r7, r2
 8008d06:	461d      	mov	r5, r3
 8008d08:	4606      	mov	r6, r0
 8008d0a:	b118      	cbz	r0, 8008d14 <_vfiprintf_r+0x18>
 8008d0c:	6983      	ldr	r3, [r0, #24]
 8008d0e:	b90b      	cbnz	r3, 8008d14 <_vfiprintf_r+0x18>
 8008d10:	f7ff fe34 	bl	800897c <__sinit>
 8008d14:	4b7c      	ldr	r3, [pc, #496]	; (8008f08 <_vfiprintf_r+0x20c>)
 8008d16:	429c      	cmp	r4, r3
 8008d18:	d158      	bne.n	8008dcc <_vfiprintf_r+0xd0>
 8008d1a:	6874      	ldr	r4, [r6, #4]
 8008d1c:	89a3      	ldrh	r3, [r4, #12]
 8008d1e:	0718      	lsls	r0, r3, #28
 8008d20:	d55e      	bpl.n	8008de0 <_vfiprintf_r+0xe4>
 8008d22:	6923      	ldr	r3, [r4, #16]
 8008d24:	2b00      	cmp	r3, #0
 8008d26:	d05b      	beq.n	8008de0 <_vfiprintf_r+0xe4>
 8008d28:	2300      	movs	r3, #0
 8008d2a:	9309      	str	r3, [sp, #36]	; 0x24
 8008d2c:	2320      	movs	r3, #32
 8008d2e:	f88d 3029 	strb.w	r3, [sp, #41]	; 0x29
 8008d32:	2330      	movs	r3, #48	; 0x30
 8008d34:	f88d 302a 	strb.w	r3, [sp, #42]	; 0x2a
 8008d38:	9503      	str	r5, [sp, #12]
 8008d3a:	f04f 0b01 	mov.w	fp, #1
 8008d3e:	46b8      	mov	r8, r7
 8008d40:	4645      	mov	r5, r8
 8008d42:	f815 3b01 	ldrb.w	r3, [r5], #1
 8008d46:	b10b      	cbz	r3, 8008d4c <_vfiprintf_r+0x50>
 8008d48:	2b25      	cmp	r3, #37	; 0x25
 8008d4a:	d154      	bne.n	8008df6 <_vfiprintf_r+0xfa>
 8008d4c:	ebb8 0a07 	subs.w	sl, r8, r7
 8008d50:	d00b      	beq.n	8008d6a <_vfiprintf_r+0x6e>
 8008d52:	4653      	mov	r3, sl
 8008d54:	463a      	mov	r2, r7
 8008d56:	4621      	mov	r1, r4
 8008d58:	4630      	mov	r0, r6
 8008d5a:	f7ff ffbc 	bl	8008cd6 <__sfputs_r>
 8008d5e:	3001      	adds	r0, #1
 8008d60:	f000 80c2 	beq.w	8008ee8 <_vfiprintf_r+0x1ec>
 8008d64:	9b09      	ldr	r3, [sp, #36]	; 0x24
 8008d66:	4453      	add	r3, sl
 8008d68:	9309      	str	r3, [sp, #36]	; 0x24
 8008d6a:	f898 3000 	ldrb.w	r3, [r8]
 8008d6e:	2b00      	cmp	r3, #0
 8008d70:	f000 80ba 	beq.w	8008ee8 <_vfiprintf_r+0x1ec>
 8008d74:	2300      	movs	r3, #0
 8008d76:	f04f 32ff 	mov.w	r2, #4294967295	; 0xffffffff
 8008d7a:	e9cd 2305 	strd	r2, r3, [sp, #20]
 8008d7e:	9304      	str	r3, [sp, #16]
 8008d80:	9307      	str	r3, [sp, #28]
 8008d82:	f88d 3053 	strb.w	r3, [sp, #83]	; 0x53
 8008d86:	931a      	str	r3, [sp, #104]	; 0x68
 8008d88:	46a8      	mov	r8, r5
 8008d8a:	2205      	movs	r2, #5
 8008d8c:	f818 1b01 	ldrb.w	r1, [r8], #1
 8008d90:	485e      	ldr	r0, [pc, #376]	; (8008f0c <_vfiprintf_r+0x210>)
 8008d92:	f7f7 fa45 	bl	8000220 <memchr>
 8008d96:	9b04      	ldr	r3, [sp, #16]
 8008d98:	bb78      	cbnz	r0, 8008dfa <_vfiprintf_r+0xfe>
 8008d9a:	06d9      	lsls	r1, r3, #27
 8008d9c:	bf44      	itt	mi
 8008d9e:	2220      	movmi	r2, #32
 8008da0:	f88d 2053 	strbmi.w	r2, [sp, #83]	; 0x53
 8008da4:	071a      	lsls	r2, r3, #28
 8008da6:	bf44      	itt	mi
 8008da8:	222b      	movmi	r2, #43	; 0x2b
 8008daa:	f88d 2053 	strbmi.w	r2, [sp, #83]	; 0x53
 8008dae:	782a      	ldrb	r2, [r5, #0]
 8008db0:	2a2a      	cmp	r2, #42	; 0x2a
 8008db2:	d02a      	beq.n	8008e0a <_vfiprintf_r+0x10e>
 8008db4:	9a07      	ldr	r2, [sp, #28]
 8008db6:	46a8      	mov	r8, r5
 8008db8:	2000      	movs	r0, #0
 8008dba:	250a      	movs	r5, #10
 8008dbc:	4641      	mov	r1, r8
 8008dbe:	f811 3b01 	ldrb.w	r3, [r1], #1
 8008dc2:	3b30      	subs	r3, #48	; 0x30
 8008dc4:	2b09      	cmp	r3, #9
 8008dc6:	d969      	bls.n	8008e9c <_vfiprintf_r+0x1a0>
 8008dc8:	b360      	cbz	r0, 8008e24 <_vfiprintf_r+0x128>
 8008dca:	e024      	b.n	8008e16 <_vfiprintf_r+0x11a>
 8008dcc:	4b50      	ldr	r3, [pc, #320]	; (8008f10 <_vfiprintf_r+0x214>)
 8008dce:	429c      	cmp	r4, r3
 8008dd0:	d101      	bne.n	8008dd6 <_vfiprintf_r+0xda>
 8008dd2:	68b4      	ldr	r4, [r6, #8]
 8008dd4:	e7a2      	b.n	8008d1c <_vfiprintf_r+0x20>
 8008dd6:	4b4f      	ldr	r3, [pc, #316]	; (8008f14 <_vfiprintf_r+0x218>)
 8008dd8:	429c      	cmp	r4, r3
 8008dda:	bf08      	it	eq
 8008ddc:	68f4      	ldreq	r4, [r6, #12]
 8008dde:	e79d      	b.n	8008d1c <_vfiprintf_r+0x20>
 8008de0:	4621      	mov	r1, r4
 8008de2:	4630      	mov	r0, r6
 8008de4:	f7ff fc6c 	bl	80086c0 <__swsetup_r>
 8008de8:	2800      	cmp	r0, #0
 8008dea:	d09d      	beq.n	8008d28 <_vfiprintf_r+0x2c>
 8008dec:	f04f 30ff 	mov.w	r0, #4294967295	; 0xffffffff
 8008df0:	b01d      	add	sp, #116	; 0x74
 8008df2:	e8bd 8ff0 	ldmia.w	sp!, {r4, r5, r6, r7, r8, r9, sl, fp, pc}
 8008df6:	46a8      	mov	r8, r5
 8008df8:	e7a2      	b.n	8008d40 <_vfiprintf_r+0x44>
 8008dfa:	4a44      	ldr	r2, [pc, #272]	; (8008f0c <_vfiprintf_r+0x210>)
 8008dfc:	1a80      	subs	r0, r0, r2
 8008dfe:	fa0b f000 	lsl.w	r0, fp, r0
 8008e02:	4318      	orrs	r0, r3
 8008e04:	9004      	str	r0, [sp, #16]
 8008e06:	4645      	mov	r5, r8
 8008e08:	e7be      	b.n	8008d88 <_vfiprintf_r+0x8c>
 8008e0a:	9a03      	ldr	r2, [sp, #12]
 8008e0c:	1d11      	adds	r1, r2, #4
 8008e0e:	6812      	ldr	r2, [r2, #0]
 8008e10:	9103      	str	r1, [sp, #12]
 8008e12:	2a00      	cmp	r2, #0
 8008e14:	db01      	blt.n	8008e1a <_vfiprintf_r+0x11e>
 8008e16:	9207      	str	r2, [sp, #28]
 8008e18:	e004      	b.n	8008e24 <_vfiprintf_r+0x128>
 8008e1a:	4252      	negs	r2, r2
 8008e1c:	f043 0302 	orr.w	r3, r3, #2
 8008e20:	9207      	str	r2, [sp, #28]
 8008e22:	9304      	str	r3, [sp, #16]
 8008e24:	f898 3000 	ldrb.w	r3, [r8]
 8008e28:	2b2e      	cmp	r3, #46	; 0x2e
 8008e2a:	d10e      	bne.n	8008e4a <_vfiprintf_r+0x14e>
 8008e2c:	f898 3001 	ldrb.w	r3, [r8, #1]
 8008e30:	2b2a      	cmp	r3, #42	; 0x2a
 8008e32:	d138      	bne.n	8008ea6 <_vfiprintf_r+0x1aa>
 8008e34:	9b03      	ldr	r3, [sp, #12]
 8008e36:	1d1a      	adds	r2, r3, #4
 8008e38:	681b      	ldr	r3, [r3, #0]
 8008e3a:	9203      	str	r2, [sp, #12]
 8008e3c:	2b00      	cmp	r3, #0
 8008e3e:	bfb8      	it	lt
 8008e40:	f04f 33ff 	movlt.w	r3, #4294967295	; 0xffffffff
 8008e44:	f108 0802 	add.w	r8, r8, #2
 8008e48:	9305      	str	r3, [sp, #20]
 8008e4a:	4d33      	ldr	r5, [pc, #204]	; (8008f18 <_vfiprintf_r+0x21c>)
 8008e4c:	f898 1000 	ldrb.w	r1, [r8]
 8008e50:	2203      	movs	r2, #3
 8008e52:	4628      	mov	r0, r5
 8008e54:	f7f7 f9e4 	bl	8000220 <memchr>
 8008e58:	b140      	cbz	r0, 8008e6c <_vfiprintf_r+0x170>
 8008e5a:	2340      	movs	r3, #64	; 0x40
 8008e5c:	1b40      	subs	r0, r0, r5
 8008e5e:	fa03 f000 	lsl.w	r0, r3, r0
 8008e62:	9b04      	ldr	r3, [sp, #16]
 8008e64:	4303      	orrs	r3, r0
 8008e66:	f108 0801 	add.w	r8, r8, #1
 8008e6a:	9304      	str	r3, [sp, #16]
 8008e6c:	f898 1000 	ldrb.w	r1, [r8]
 8008e70:	482a      	ldr	r0, [pc, #168]	; (8008f1c <_vfiprintf_r+0x220>)
 8008e72:	f88d 1028 	strb.w	r1, [sp, #40]	; 0x28
 8008e76:	2206      	movs	r2, #6
 8008e78:	f108 0701 	add.w	r7, r8, #1
 8008e7c:	f7f7 f9d0 	bl	8000220 <memchr>
 8008e80:	2800      	cmp	r0, #0
 8008e82:	d037      	beq.n	8008ef4 <_vfiprintf_r+0x1f8>
 8008e84:	4b26      	ldr	r3, [pc, #152]	; (8008f20 <_vfiprintf_r+0x224>)
 8008e86:	bb1b      	cbnz	r3, 8008ed0 <_vfiprintf_r+0x1d4>
 8008e88:	9b03      	ldr	r3, [sp, #12]
 8008e8a:	3307      	adds	r3, #7
 8008e8c:	f023 0307 	bic.w	r3, r3, #7
 8008e90:	3308      	adds	r3, #8
 8008e92:	9303      	str	r3, [sp, #12]
 8008e94:	9b09      	ldr	r3, [sp, #36]	; 0x24
 8008e96:	444b      	add	r3, r9
 8008e98:	9309      	str	r3, [sp, #36]	; 0x24
 8008e9a:	e750      	b.n	8008d3e <_vfiprintf_r+0x42>
 8008e9c:	fb05 3202 	mla	r2, r5, r2, r3
 8008ea0:	2001      	movs	r0, #1
 8008ea2:	4688      	mov	r8, r1
 8008ea4:	e78a      	b.n	8008dbc <_vfiprintf_r+0xc0>
 8008ea6:	2300      	movs	r3, #0
 8008ea8:	f108 0801 	add.w	r8, r8, #1
 8008eac:	9305      	str	r3, [sp, #20]
 8008eae:	4619      	mov	r1, r3
 8008eb0:	250a      	movs	r5, #10
 8008eb2:	4640      	mov	r0, r8
 8008eb4:	f810 2b01 	ldrb.w	r2, [r0], #1
 8008eb8:	3a30      	subs	r2, #48	; 0x30
 8008eba:	2a09      	cmp	r2, #9
 8008ebc:	d903      	bls.n	8008ec6 <_vfiprintf_r+0x1ca>
 8008ebe:	2b00      	cmp	r3, #0
 8008ec0:	d0c3      	beq.n	8008e4a <_vfiprintf_r+0x14e>
 8008ec2:	9105      	str	r1, [sp, #20]
 8008ec4:	e7c1      	b.n	8008e4a <_vfiprintf_r+0x14e>
 8008ec6:	fb05 2101 	mla	r1, r5, r1, r2
 8008eca:	2301      	movs	r3, #1
 8008ecc:	4680      	mov	r8, r0
 8008ece:	e7f0      	b.n	8008eb2 <_vfiprintf_r+0x1b6>
 8008ed0:	ab03      	add	r3, sp, #12
 8008ed2:	9300      	str	r3, [sp, #0]
 8008ed4:	4622      	mov	r2, r4
 8008ed6:	4b13      	ldr	r3, [pc, #76]	; (8008f24 <_vfiprintf_r+0x228>)
 8008ed8:	a904      	add	r1, sp, #16
 8008eda:	4630      	mov	r0, r6
 8008edc:	f3af 8000 	nop.w
 8008ee0:	f1b0 3fff 	cmp.w	r0, #4294967295	; 0xffffffff
 8008ee4:	4681      	mov	r9, r0
 8008ee6:	d1d5      	bne.n	8008e94 <_vfiprintf_r+0x198>
 8008ee8:	89a3      	ldrh	r3, [r4, #12]
 8008eea:	065b      	lsls	r3, r3, #25
 8008eec:	f53f af7e 	bmi.w	8008dec <_vfiprintf_r+0xf0>
 8008ef0:	9809      	ldr	r0, [sp, #36]	; 0x24
 8008ef2:	e77d      	b.n	8008df0 <_vfiprintf_r+0xf4>
 8008ef4:	ab03      	add	r3, sp, #12
 8008ef6:	9300      	str	r3, [sp, #0]
 8008ef8:	4622      	mov	r2, r4
 8008efa:	4b0a      	ldr	r3, [pc, #40]	; (8008f24 <_vfiprintf_r+0x228>)
 8008efc:	a904      	add	r1, sp, #16
 8008efe:	4630      	mov	r0, r6
 8008f00:	f000 f888 	bl	8009014 <_printf_i>
 8008f04:	e7ec      	b.n	8008ee0 <_vfiprintf_r+0x1e4>
 8008f06:	bf00      	nop
 8008f08:	080096d0 	.word	0x080096d0
 8008f0c:	08009710 	.word	0x08009710
 8008f10:	080096f0 	.word	0x080096f0
 8008f14:	080096b0 	.word	0x080096b0
 8008f18:	08009716 	.word	0x08009716
 8008f1c:	0800971a 	.word	0x0800971a
 8008f20:	00000000 	.word	0x00000000
 8008f24:	08008cd7 	.word	0x08008cd7

08008f28 <_printf_common>:
 8008f28:	e92d 47f0 	stmdb	sp!, {r4, r5, r6, r7, r8, r9, sl, lr}
 8008f2c:	4691      	mov	r9, r2
 8008f2e:	461f      	mov	r7, r3
 8008f30:	688a      	ldr	r2, [r1, #8]
 8008f32:	690b      	ldr	r3, [r1, #16]
 8008f34:	f8dd 8020 	ldr.w	r8, [sp, #32]
 8008f38:	4293      	cmp	r3, r2
 8008f3a:	bfb8      	it	lt
 8008f3c:	4613      	movlt	r3, r2
 8008f3e:	f8c9 3000 	str.w	r3, [r9]
 8008f42:	f891 2043 	ldrb.w	r2, [r1, #67]	; 0x43
 8008f46:	4606      	mov	r6, r0
 8008f48:	460c      	mov	r4, r1
 8008f4a:	b112      	cbz	r2, 8008f52 <_printf_common+0x2a>
 8008f4c:	3301      	adds	r3, #1
 8008f4e:	f8c9 3000 	str.w	r3, [r9]
 8008f52:	6823      	ldr	r3, [r4, #0]
 8008f54:	0699      	lsls	r1, r3, #26
 8008f56:	bf42      	ittt	mi
 8008f58:	f8d9 3000 	ldrmi.w	r3, [r9]
 8008f5c:	3302      	addmi	r3, #2
 8008f5e:	f8c9 3000 	strmi.w	r3, [r9]
 8008f62:	6825      	ldr	r5, [r4, #0]
 8008f64:	f015 0506 	ands.w	r5, r5, #6
 8008f68:	d107      	bne.n	8008f7a <_printf_common+0x52>
 8008f6a:	f104 0a19 	add.w	sl, r4, #25
 8008f6e:	68e3      	ldr	r3, [r4, #12]
 8008f70:	f8d9 2000 	ldr.w	r2, [r9]
 8008f74:	1a9b      	subs	r3, r3, r2
 8008f76:	42ab      	cmp	r3, r5
 8008f78:	dc28      	bgt.n	8008fcc <_printf_common+0xa4>
 8008f7a:	f894 3043 	ldrb.w	r3, [r4, #67]	; 0x43
 8008f7e:	6822      	ldr	r2, [r4, #0]
 8008f80:	3300      	adds	r3, #0
 8008f82:	bf18      	it	ne
 8008f84:	2301      	movne	r3, #1
 8008f86:	0692      	lsls	r2, r2, #26
 8008f88:	d42d      	bmi.n	8008fe6 <_printf_common+0xbe>
 8008f8a:	f104 0243 	add.w	r2, r4, #67	; 0x43
 8008f8e:	4639      	mov	r1, r7
 8008f90:	4630      	mov	r0, r6
 8008f92:	47c0      	blx	r8
 8008f94:	3001      	adds	r0, #1
 8008f96:	d020      	beq.n	8008fda <_printf_common+0xb2>
 8008f98:	6823      	ldr	r3, [r4, #0]
 8008f9a:	68e5      	ldr	r5, [r4, #12]
 8008f9c:	f8d9 2000 	ldr.w	r2, [r9]
 8008fa0:	f003 0306 	and.w	r3, r3, #6
 8008fa4:	2b04      	cmp	r3, #4
 8008fa6:	bf08      	it	eq
 8008fa8:	1aad      	subeq	r5, r5, r2
 8008faa:	68a3      	ldr	r3, [r4, #8]
 8008fac:	6922      	ldr	r2, [r4, #16]
 8008fae:	bf0c      	ite	eq
 8008fb0:	ea25 75e5 	biceq.w	r5, r5, r5, asr #31
 8008fb4:	2500      	movne	r5, #0
 8008fb6:	4293      	cmp	r3, r2
 8008fb8:	bfc4      	itt	gt
 8008fba:	1a9b      	subgt	r3, r3, r2
 8008fbc:	18ed      	addgt	r5, r5, r3
 8008fbe:	f04f 0900 	mov.w	r9, #0
 8008fc2:	341a      	adds	r4, #26
 8008fc4:	454d      	cmp	r5, r9
 8008fc6:	d11a      	bne.n	8008ffe <_printf_common+0xd6>
 8008fc8:	2000      	movs	r0, #0
 8008fca:	e008      	b.n	8008fde <_printf_common+0xb6>
 8008fcc:	2301      	movs	r3, #1
 8008fce:	4652      	mov	r2, sl
 8008fd0:	4639      	mov	r1, r7
 8008fd2:	4630      	mov	r0, r6
 8008fd4:	47c0      	blx	r8
 8008fd6:	3001      	adds	r0, #1
 8008fd8:	d103      	bne.n	8008fe2 <_printf_common+0xba>
 8008fda:	f04f 30ff 	mov.w	r0, #4294967295	; 0xffffffff
 8008fde:	e8bd 87f0 	ldmia.w	sp!, {r4, r5, r6, r7, r8, r9, sl, pc}
 8008fe2:	3501      	adds	r5, #1
 8008fe4:	e7c3      	b.n	8008f6e <_printf_common+0x46>
 8008fe6:	18e1      	adds	r1, r4, r3
 8008fe8:	1c5a      	adds	r2, r3, #1
 8008fea:	2030      	movs	r0, #48	; 0x30
 8008fec:	f881 0043 	strb.w	r0, [r1, #67]	; 0x43
 8008ff0:	4422      	add	r2, r4
 8008ff2:	f894 1045 	ldrb.w	r1, [r4, #69]	; 0x45
 8008ff6:	f882 1043 	strb.w	r1, [r2, #67]	; 0x43
 8008ffa:	3302      	adds	r3, #2
 8008ffc:	e7c5      	b.n	8008f8a <_printf_common+0x62>
 8008ffe:	2301      	movs	r3, #1
 8009000:	4622      	mov	r2, r4
 8009002:	4639      	mov	r1, r7
 8009004:	4630      	mov	r0, r6
 8009006:	47c0      	blx	r8
 8009008:	3001      	adds	r0, #1
 800900a:	d0e6      	beq.n	8008fda <_printf_common+0xb2>
 800900c:	f109 0901 	add.w	r9, r9, #1
 8009010:	e7d8      	b.n	8008fc4 <_printf_common+0x9c>
	...

08009014 <_printf_i>:
 8009014:	e92d 43f0 	stmdb	sp!, {r4, r5, r6, r7, r8, r9, lr}
 8009018:	f101 0c43 	add.w	ip, r1, #67	; 0x43
 800901c:	460c      	mov	r4, r1
 800901e:	7e09      	ldrb	r1, [r1, #24]
 8009020:	b085      	sub	sp, #20
 8009022:	296e      	cmp	r1, #110	; 0x6e
 8009024:	4617      	mov	r7, r2
 8009026:	4606      	mov	r6, r0
 8009028:	4698      	mov	r8, r3
 800902a:	9a0c      	ldr	r2, [sp, #48]	; 0x30
 800902c:	f000 80b3 	beq.w	8009196 <_printf_i+0x182>
 8009030:	d822      	bhi.n	8009078 <_printf_i+0x64>
 8009032:	2963      	cmp	r1, #99	; 0x63
 8009034:	d036      	beq.n	80090a4 <_printf_i+0x90>
 8009036:	d80a      	bhi.n	800904e <_printf_i+0x3a>
 8009038:	2900      	cmp	r1, #0
 800903a:	f000 80b9 	beq.w	80091b0 <_printf_i+0x19c>
 800903e:	2958      	cmp	r1, #88	; 0x58
 8009040:	f000 8083 	beq.w	800914a <_printf_i+0x136>
 8009044:	f104 0542 	add.w	r5, r4, #66	; 0x42
 8009048:	f884 1042 	strb.w	r1, [r4, #66]	; 0x42
 800904c:	e032      	b.n	80090b4 <_printf_i+0xa0>
 800904e:	2964      	cmp	r1, #100	; 0x64
 8009050:	d001      	beq.n	8009056 <_printf_i+0x42>
 8009052:	2969      	cmp	r1, #105	; 0x69
 8009054:	d1f6      	bne.n	8009044 <_printf_i+0x30>
 8009056:	6820      	ldr	r0, [r4, #0]
 8009058:	6813      	ldr	r3, [r2, #0]
 800905a:	0605      	lsls	r5, r0, #24
 800905c:	f103 0104 	add.w	r1, r3, #4
 8009060:	d52a      	bpl.n	80090b8 <_printf_i+0xa4>
 8009062:	681b      	ldr	r3, [r3, #0]
 8009064:	6011      	str	r1, [r2, #0]
 8009066:	2b00      	cmp	r3, #0
 8009068:	da03      	bge.n	8009072 <_printf_i+0x5e>
 800906a:	222d      	movs	r2, #45	; 0x2d
 800906c:	425b      	negs	r3, r3
 800906e:	f884 2043 	strb.w	r2, [r4, #67]	; 0x43
 8009072:	486f      	ldr	r0, [pc, #444]	; (8009230 <_printf_i+0x21c>)
 8009074:	220a      	movs	r2, #10
 8009076:	e039      	b.n	80090ec <_printf_i+0xd8>
 8009078:	2973      	cmp	r1, #115	; 0x73
 800907a:	f000 809d 	beq.w	80091b8 <_printf_i+0x1a4>
 800907e:	d808      	bhi.n	8009092 <_printf_i+0x7e>
 8009080:	296f      	cmp	r1, #111	; 0x6f
 8009082:	d020      	beq.n	80090c6 <_printf_i+0xb2>
 8009084:	2970      	cmp	r1, #112	; 0x70
 8009086:	d1dd      	bne.n	8009044 <_printf_i+0x30>
 8009088:	6823      	ldr	r3, [r4, #0]
 800908a:	f043 0320 	orr.w	r3, r3, #32
 800908e:	6023      	str	r3, [r4, #0]
 8009090:	e003      	b.n	800909a <_printf_i+0x86>
 8009092:	2975      	cmp	r1, #117	; 0x75
 8009094:	d017      	beq.n	80090c6 <_printf_i+0xb2>
 8009096:	2978      	cmp	r1, #120	; 0x78
 8009098:	d1d4      	bne.n	8009044 <_printf_i+0x30>
 800909a:	2378      	movs	r3, #120	; 0x78
 800909c:	f884 3045 	strb.w	r3, [r4, #69]	; 0x45
 80090a0:	4864      	ldr	r0, [pc, #400]	; (8009234 <_printf_i+0x220>)
 80090a2:	e055      	b.n	8009150 <_printf_i+0x13c>
 80090a4:	6813      	ldr	r3, [r2, #0]
 80090a6:	1d19      	adds	r1, r3, #4
 80090a8:	681b      	ldr	r3, [r3, #0]
 80090aa:	6011      	str	r1, [r2, #0]
 80090ac:	f104 0542 	add.w	r5, r4, #66	; 0x42
 80090b0:	f884 3042 	strb.w	r3, [r4, #66]	; 0x42
 80090b4:	2301      	movs	r3, #1
 80090b6:	e08c      	b.n	80091d2 <_printf_i+0x1be>
 80090b8:	681b      	ldr	r3, [r3, #0]
 80090ba:	6011      	str	r1, [r2, #0]
 80090bc:	f010 0f40 	tst.w	r0, #64	; 0x40
 80090c0:	bf18      	it	ne
 80090c2:	b21b      	sxthne	r3, r3
 80090c4:	e7cf      	b.n	8009066 <_printf_i+0x52>
 80090c6:	6813      	ldr	r3, [r2, #0]
 80090c8:	6825      	ldr	r5, [r4, #0]
 80090ca:	1d18      	adds	r0, r3, #4
 80090cc:	6010      	str	r0, [r2, #0]
 80090ce:	0628      	lsls	r0, r5, #24
 80090d0:	d501      	bpl.n	80090d6 <_printf_i+0xc2>
 80090d2:	681b      	ldr	r3, [r3, #0]
 80090d4:	e002      	b.n	80090dc <_printf_i+0xc8>
 80090d6:	0668      	lsls	r0, r5, #25
 80090d8:	d5fb      	bpl.n	80090d2 <_printf_i+0xbe>
 80090da:	881b      	ldrh	r3, [r3, #0]
 80090dc:	4854      	ldr	r0, [pc, #336]	; (8009230 <_printf_i+0x21c>)
 80090de:	296f      	cmp	r1, #111	; 0x6f
 80090e0:	bf14      	ite	ne
 80090e2:	220a      	movne	r2, #10
 80090e4:	2208      	moveq	r2, #8
 80090e6:	2100      	movs	r1, #0
 80090e8:	f884 1043 	strb.w	r1, [r4, #67]	; 0x43
 80090ec:	6865      	ldr	r5, [r4, #4]
 80090ee:	60a5      	str	r5, [r4, #8]
 80090f0:	2d00      	cmp	r5, #0
 80090f2:	f2c0 8095 	blt.w	8009220 <_printf_i+0x20c>
 80090f6:	6821      	ldr	r1, [r4, #0]
 80090f8:	f021 0104 	bic.w	r1, r1, #4
 80090fc:	6021      	str	r1, [r4, #0]
 80090fe:	2b00      	cmp	r3, #0
 8009100:	d13d      	bne.n	800917e <_printf_i+0x16a>
 8009102:	2d00      	cmp	r5, #0
 8009104:	f040 808e 	bne.w	8009224 <_printf_i+0x210>
 8009108:	4665      	mov	r5, ip
 800910a:	2a08      	cmp	r2, #8
 800910c:	d10b      	bne.n	8009126 <_printf_i+0x112>
 800910e:	6823      	ldr	r3, [r4, #0]
 8009110:	07db      	lsls	r3, r3, #31
 8009112:	d508      	bpl.n	8009126 <_printf_i+0x112>
 8009114:	6923      	ldr	r3, [r4, #16]
 8009116:	6862      	ldr	r2, [r4, #4]
 8009118:	429a      	cmp	r2, r3
 800911a:	bfde      	ittt	le
 800911c:	2330      	movle	r3, #48	; 0x30
 800911e:	f805 3c01 	strble.w	r3, [r5, #-1]
 8009122:	f105 35ff 	addle.w	r5, r5, #4294967295	; 0xffffffff
 8009126:	ebac 0305 	sub.w	r3, ip, r5
 800912a:	6123      	str	r3, [r4, #16]
 800912c:	f8cd 8000 	str.w	r8, [sp]
 8009130:	463b      	mov	r3, r7
 8009132:	aa03      	add	r2, sp, #12
 8009134:	4621      	mov	r1, r4
 8009136:	4630      	mov	r0, r6
 8009138:	f7ff fef6 	bl	8008f28 <_printf_common>
 800913c:	3001      	adds	r0, #1
 800913e:	d14d      	bne.n	80091dc <_printf_i+0x1c8>
 8009140:	f04f 30ff 	mov.w	r0, #4294967295	; 0xffffffff
 8009144:	b005      	add	sp, #20
 8009146:	e8bd 83f0 	ldmia.w	sp!, {r4, r5, r6, r7, r8, r9, pc}
 800914a:	4839      	ldr	r0, [pc, #228]	; (8009230 <_printf_i+0x21c>)
 800914c:	f884 1045 	strb.w	r1, [r4, #69]	; 0x45
 8009150:	6813      	ldr	r3, [r2, #0]
 8009152:	6821      	ldr	r1, [r4, #0]
 8009154:	1d1d      	adds	r5, r3, #4
 8009156:	681b      	ldr	r3, [r3, #0]
 8009158:	6015      	str	r5, [r2, #0]
 800915a:	060a      	lsls	r2, r1, #24
 800915c:	d50b      	bpl.n	8009176 <_printf_i+0x162>
 800915e:	07ca      	lsls	r2, r1, #31
 8009160:	bf44      	itt	mi
 8009162:	f041 0120 	orrmi.w	r1, r1, #32
 8009166:	6021      	strmi	r1, [r4, #0]
 8009168:	b91b      	cbnz	r3, 8009172 <_printf_i+0x15e>
 800916a:	6822      	ldr	r2, [r4, #0]
 800916c:	f022 0220 	bic.w	r2, r2, #32
 8009170:	6022      	str	r2, [r4, #0]
 8009172:	2210      	movs	r2, #16
 8009174:	e7b7      	b.n	80090e6 <_printf_i+0xd2>
 8009176:	064d      	lsls	r5, r1, #25
 8009178:	bf48      	it	mi
 800917a:	b29b      	uxthmi	r3, r3
 800917c:	e7ef      	b.n	800915e <_printf_i+0x14a>
 800917e:	4665      	mov	r5, ip
 8009180:	fbb3 f1f2 	udiv	r1, r3, r2
 8009184:	fb02 3311 	mls	r3, r2, r1, r3
 8009188:	5cc3      	ldrb	r3, [r0, r3]
 800918a:	f805 3d01 	strb.w	r3, [r5, #-1]!
 800918e:	460b      	mov	r3, r1
 8009190:	2900      	cmp	r1, #0
 8009192:	d1f5      	bne.n	8009180 <_printf_i+0x16c>
 8009194:	e7b9      	b.n	800910a <_printf_i+0xf6>
 8009196:	6813      	ldr	r3, [r2, #0]
 8009198:	6825      	ldr	r5, [r4, #0]
 800919a:	6961      	ldr	r1, [r4, #20]
 800919c:	1d18      	adds	r0, r3, #4
 800919e:	6010      	str	r0, [r2, #0]
 80091a0:	0628      	lsls	r0, r5, #24
 80091a2:	681b      	ldr	r3, [r3, #0]
 80091a4:	d501      	bpl.n	80091aa <_printf_i+0x196>
 80091a6:	6019      	str	r1, [r3, #0]
 80091a8:	e002      	b.n	80091b0 <_printf_i+0x19c>
 80091aa:	066a      	lsls	r2, r5, #25
 80091ac:	d5fb      	bpl.n	80091a6 <_printf_i+0x192>
 80091ae:	8019      	strh	r1, [r3, #0]
 80091b0:	2300      	movs	r3, #0
 80091b2:	6123      	str	r3, [r4, #16]
 80091b4:	4665      	mov	r5, ip
 80091b6:	e7b9      	b.n	800912c <_printf_i+0x118>
 80091b8:	6813      	ldr	r3, [r2, #0]
 80091ba:	1d19      	adds	r1, r3, #4
 80091bc:	6011      	str	r1, [r2, #0]
 80091be:	681d      	ldr	r5, [r3, #0]
 80091c0:	6862      	ldr	r2, [r4, #4]
 80091c2:	2100      	movs	r1, #0
 80091c4:	4628      	mov	r0, r5
 80091c6:	f7f7 f82b 	bl	8000220 <memchr>
 80091ca:	b108      	cbz	r0, 80091d0 <_printf_i+0x1bc>
 80091cc:	1b40      	subs	r0, r0, r5
 80091ce:	6060      	str	r0, [r4, #4]
 80091d0:	6863      	ldr	r3, [r4, #4]
 80091d2:	6123      	str	r3, [r4, #16]
 80091d4:	2300      	movs	r3, #0
 80091d6:	f884 3043 	strb.w	r3, [r4, #67]	; 0x43
 80091da:	e7a7      	b.n	800912c <_printf_i+0x118>
 80091dc:	6923      	ldr	r3, [r4, #16]
 80091de:	462a      	mov	r2, r5
 80091e0:	4639      	mov	r1, r7
 80091e2:	4630      	mov	r0, r6
 80091e4:	47c0      	blx	r8
 80091e6:	3001      	adds	r0, #1
 80091e8:	d0aa      	beq.n	8009140 <_printf_i+0x12c>
 80091ea:	6823      	ldr	r3, [r4, #0]
 80091ec:	079b      	lsls	r3, r3, #30
 80091ee:	d413      	bmi.n	8009218 <_printf_i+0x204>
 80091f0:	68e0      	ldr	r0, [r4, #12]
 80091f2:	9b03      	ldr	r3, [sp, #12]
 80091f4:	4298      	cmp	r0, r3
 80091f6:	bfb8      	it	lt
 80091f8:	4618      	movlt	r0, r3
 80091fa:	e7a3      	b.n	8009144 <_printf_i+0x130>
 80091fc:	2301      	movs	r3, #1
 80091fe:	464a      	mov	r2, r9
 8009200:	4639      	mov	r1, r7
 8009202:	4630      	mov	r0, r6
 8009204:	47c0      	blx	r8
 8009206:	3001      	adds	r0, #1
 8009208:	d09a      	beq.n	8009140 <_printf_i+0x12c>
 800920a:	3501      	adds	r5, #1
 800920c:	68e3      	ldr	r3, [r4, #12]
 800920e:	9a03      	ldr	r2, [sp, #12]
 8009210:	1a9b      	subs	r3, r3, r2
 8009212:	42ab      	cmp	r3, r5
 8009214:	dcf2      	bgt.n	80091fc <_printf_i+0x1e8>
 8009216:	e7eb      	b.n	80091f0 <_printf_i+0x1dc>
 8009218:	2500      	movs	r5, #0
 800921a:	f104 0919 	add.w	r9, r4, #25
 800921e:	e7f5      	b.n	800920c <_printf_i+0x1f8>
 8009220:	2b00      	cmp	r3, #0
 8009222:	d1ac      	bne.n	800917e <_printf_i+0x16a>
 8009224:	7803      	ldrb	r3, [r0, #0]
 8009226:	f884 3042 	strb.w	r3, [r4, #66]	; 0x42
 800922a:	f104 0542 	add.w	r5, r4, #66	; 0x42
 800922e:	e76c      	b.n	800910a <_printf_i+0xf6>
 8009230:	08009721 	.word	0x08009721
 8009234:	08009732 	.word	0x08009732

08009238 <_sbrk_r>:
 8009238:	b538      	push	{r3, r4, r5, lr}
 800923a:	4c06      	ldr	r4, [pc, #24]	; (8009254 <_sbrk_r+0x1c>)
 800923c:	2300      	movs	r3, #0
 800923e:	4605      	mov	r5, r0
 8009240:	4608      	mov	r0, r1
 8009242:	6023      	str	r3, [r4, #0]
 8009244:	f7f8 faf4 	bl	8001830 <_sbrk>
 8009248:	1c43      	adds	r3, r0, #1
 800924a:	d102      	bne.n	8009252 <_sbrk_r+0x1a>
 800924c:	6823      	ldr	r3, [r4, #0]
 800924e:	b103      	cbz	r3, 8009252 <_sbrk_r+0x1a>
 8009250:	602b      	str	r3, [r5, #0]
 8009252:	bd38      	pop	{r3, r4, r5, pc}
 8009254:	200008e8 	.word	0x200008e8

08009258 <__sread>:
 8009258:	b510      	push	{r4, lr}
 800925a:	460c      	mov	r4, r1
 800925c:	f9b1 100e 	ldrsh.w	r1, [r1, #14]
 8009260:	f000 f896 	bl	8009390 <_read_r>
 8009264:	2800      	cmp	r0, #0
 8009266:	bfab      	itete	ge
 8009268:	6d63      	ldrge	r3, [r4, #84]	; 0x54
 800926a:	89a3      	ldrhlt	r3, [r4, #12]
 800926c:	181b      	addge	r3, r3, r0
 800926e:	f423 5380 	biclt.w	r3, r3, #4096	; 0x1000
 8009272:	bfac      	ite	ge
 8009274:	6563      	strge	r3, [r4, #84]	; 0x54
 8009276:	81a3      	strhlt	r3, [r4, #12]
 8009278:	bd10      	pop	{r4, pc}

0800927a <__swrite>:
 800927a:	e92d 41f0 	stmdb	sp!, {r4, r5, r6, r7, r8, lr}
 800927e:	461f      	mov	r7, r3
 8009280:	898b      	ldrh	r3, [r1, #12]
 8009282:	05db      	lsls	r3, r3, #23
 8009284:	4605      	mov	r5, r0
 8009286:	460c      	mov	r4, r1
 8009288:	4616      	mov	r6, r2
 800928a:	d505      	bpl.n	8009298 <__swrite+0x1e>
 800928c:	2302      	movs	r3, #2
 800928e:	2200      	movs	r2, #0
 8009290:	f9b1 100e 	ldrsh.w	r1, [r1, #14]
 8009294:	f000 f868 	bl	8009368 <_lseek_r>
 8009298:	89a3      	ldrh	r3, [r4, #12]
 800929a:	f9b4 100e 	ldrsh.w	r1, [r4, #14]
 800929e:	f423 5380 	bic.w	r3, r3, #4096	; 0x1000
 80092a2:	81a3      	strh	r3, [r4, #12]
 80092a4:	4632      	mov	r2, r6
 80092a6:	463b      	mov	r3, r7
 80092a8:	4628      	mov	r0, r5
 80092aa:	e8bd 41f0 	ldmia.w	sp!, {r4, r5, r6, r7, r8, lr}
 80092ae:	f000 b817 	b.w	80092e0 <_write_r>

080092b2 <__sseek>:
 80092b2:	b510      	push	{r4, lr}
 80092b4:	460c      	mov	r4, r1
 80092b6:	f9b1 100e 	ldrsh.w	r1, [r1, #14]
 80092ba:	f000 f855 	bl	8009368 <_lseek_r>
 80092be:	1c43      	adds	r3, r0, #1
 80092c0:	89a3      	ldrh	r3, [r4, #12]
 80092c2:	bf15      	itete	ne
 80092c4:	6560      	strne	r0, [r4, #84]	; 0x54
 80092c6:	f423 5380 	biceq.w	r3, r3, #4096	; 0x1000
 80092ca:	f443 5380 	orrne.w	r3, r3, #4096	; 0x1000
 80092ce:	81a3      	strheq	r3, [r4, #12]
 80092d0:	bf18      	it	ne
 80092d2:	81a3      	strhne	r3, [r4, #12]
 80092d4:	bd10      	pop	{r4, pc}

080092d6 <__sclose>:
 80092d6:	f9b1 100e 	ldrsh.w	r1, [r1, #14]
 80092da:	f000 b813 	b.w	8009304 <_close_r>
	...

080092e0 <_write_r>:
 80092e0:	b538      	push	{r3, r4, r5, lr}
 80092e2:	4c07      	ldr	r4, [pc, #28]	; (8009300 <_write_r+0x20>)
 80092e4:	4605      	mov	r5, r0
 80092e6:	4608      	mov	r0, r1
 80092e8:	4611      	mov	r1, r2
 80092ea:	2200      	movs	r2, #0
 80092ec:	6022      	str	r2, [r4, #0]
 80092ee:	461a      	mov	r2, r3
 80092f0:	f7f7 fe85 	bl	8000ffe <_write>
 80092f4:	1c43      	adds	r3, r0, #1
 80092f6:	d102      	bne.n	80092fe <_write_r+0x1e>
 80092f8:	6823      	ldr	r3, [r4, #0]
 80092fa:	b103      	cbz	r3, 80092fe <_write_r+0x1e>
 80092fc:	602b      	str	r3, [r5, #0]
 80092fe:	bd38      	pop	{r3, r4, r5, pc}
 8009300:	200008e8 	.word	0x200008e8

08009304 <_close_r>:
 8009304:	b538      	push	{r3, r4, r5, lr}
 8009306:	4c06      	ldr	r4, [pc, #24]	; (8009320 <_close_r+0x1c>)
 8009308:	2300      	movs	r3, #0
 800930a:	4605      	mov	r5, r0
 800930c:	4608      	mov	r0, r1
 800930e:	6023      	str	r3, [r4, #0]
 8009310:	f7f8 fa59 	bl	80017c6 <_close>
 8009314:	1c43      	adds	r3, r0, #1
 8009316:	d102      	bne.n	800931e <_close_r+0x1a>
 8009318:	6823      	ldr	r3, [r4, #0]
 800931a:	b103      	cbz	r3, 800931e <_close_r+0x1a>
 800931c:	602b      	str	r3, [r5, #0]
 800931e:	bd38      	pop	{r3, r4, r5, pc}
 8009320:	200008e8 	.word	0x200008e8

08009324 <_fstat_r>:
 8009324:	b538      	push	{r3, r4, r5, lr}
 8009326:	4c07      	ldr	r4, [pc, #28]	; (8009344 <_fstat_r+0x20>)
 8009328:	2300      	movs	r3, #0
 800932a:	4605      	mov	r5, r0
 800932c:	4608      	mov	r0, r1
 800932e:	4611      	mov	r1, r2
 8009330:	6023      	str	r3, [r4, #0]
 8009332:	f7f8 fa54 	bl	80017de <_fstat>
 8009336:	1c43      	adds	r3, r0, #1
 8009338:	d102      	bne.n	8009340 <_fstat_r+0x1c>
 800933a:	6823      	ldr	r3, [r4, #0]
 800933c:	b103      	cbz	r3, 8009340 <_fstat_r+0x1c>
 800933e:	602b      	str	r3, [r5, #0]
 8009340:	bd38      	pop	{r3, r4, r5, pc}
 8009342:	bf00      	nop
 8009344:	200008e8 	.word	0x200008e8

08009348 <_isatty_r>:
 8009348:	b538      	push	{r3, r4, r5, lr}
 800934a:	4c06      	ldr	r4, [pc, #24]	; (8009364 <_isatty_r+0x1c>)
 800934c:	2300      	movs	r3, #0
 800934e:	4605      	mov	r5, r0
 8009350:	4608      	mov	r0, r1
 8009352:	6023      	str	r3, [r4, #0]
 8009354:	f7f8 fa53 	bl	80017fe <_isatty>
 8009358:	1c43      	adds	r3, r0, #1
 800935a:	d102      	bne.n	8009362 <_isatty_r+0x1a>
 800935c:	6823      	ldr	r3, [r4, #0]
 800935e:	b103      	cbz	r3, 8009362 <_isatty_r+0x1a>
 8009360:	602b      	str	r3, [r5, #0]
 8009362:	bd38      	pop	{r3, r4, r5, pc}
 8009364:	200008e8 	.word	0x200008e8

08009368 <_lseek_r>:
 8009368:	b538      	push	{r3, r4, r5, lr}
 800936a:	4c07      	ldr	r4, [pc, #28]	; (8009388 <_lseek_r+0x20>)
 800936c:	4605      	mov	r5, r0
 800936e:	4608      	mov	r0, r1
 8009370:	4611      	mov	r1, r2
 8009372:	2200      	movs	r2, #0
 8009374:	6022      	str	r2, [r4, #0]
 8009376:	461a      	mov	r2, r3
 8009378:	f7f8 fa4c 	bl	8001814 <_lseek>
 800937c:	1c43      	adds	r3, r0, #1
 800937e:	d102      	bne.n	8009386 <_lseek_r+0x1e>
 8009380:	6823      	ldr	r3, [r4, #0]
 8009382:	b103      	cbz	r3, 8009386 <_lseek_r+0x1e>
 8009384:	602b      	str	r3, [r5, #0]
 8009386:	bd38      	pop	{r3, r4, r5, pc}
 8009388:	200008e8 	.word	0x200008e8

0800938c <__malloc_lock>:
 800938c:	4770      	bx	lr

0800938e <__malloc_unlock>:
 800938e:	4770      	bx	lr

08009390 <_read_r>:
 8009390:	b538      	push	{r3, r4, r5, lr}
 8009392:	4c07      	ldr	r4, [pc, #28]	; (80093b0 <_read_r+0x20>)
 8009394:	4605      	mov	r5, r0
 8009396:	4608      	mov	r0, r1
 8009398:	4611      	mov	r1, r2
 800939a:	2200      	movs	r2, #0
 800939c:	6022      	str	r2, [r4, #0]
 800939e:	461a      	mov	r2, r3
 80093a0:	f7f8 f9f4 	bl	800178c <_read>
 80093a4:	1c43      	adds	r3, r0, #1
 80093a6:	d102      	bne.n	80093ae <_read_r+0x1e>
 80093a8:	6823      	ldr	r3, [r4, #0]
 80093aa:	b103      	cbz	r3, 80093ae <_read_r+0x1e>
 80093ac:	602b      	str	r3, [r5, #0]
 80093ae:	bd38      	pop	{r3, r4, r5, pc}
 80093b0:	200008e8 	.word	0x200008e8

080093b4 <_init>:
 80093b4:	b5f8      	push	{r3, r4, r5, r6, r7, lr}
 80093b6:	bf00      	nop
 80093b8:	bcf8      	pop	{r3, r4, r5, r6, r7}
 80093ba:	bc08      	pop	{r3}
 80093bc:	469e      	mov	lr, r3
 80093be:	4770      	bx	lr

080093c0 <_fini>:
 80093c0:	b5f8      	push	{r3, r4, r5, r6, r7, lr}
 80093c2:	bf00      	nop
 80093c4:	bcf8      	pop	{r3, r4, r5, r6, r7}
 80093c6:	bc08      	pop	{r3}
 80093c8:	469e      	mov	lr, r3
 80093ca:	4770      	bx	lr
